 luafar3

 Timestamp is 5ce5f41c (Thu May 23 04:15:08 2019)

 Preferred load address is 0000000180000000

 Start         Length     Name                   Class
 0001:00000000 00000008H .CRT$XCA                CODE
 0001:00000008 00000008H .CRT$XCZ                CODE
 0001:00000010 00000008H .CRT$XIA                CODE
 0001:00000018 00000018H .CRT$XIC                CODE
 0001:00000030 00000008H .CRT$XIZ                CODE
 0001:00000038 00000008H .CRT$XPA                CODE
 0001:00000040 00000018H .CRT$XPX                CODE
 0001:00000058 00000008H .CRT$XPXA               CODE
 0001:00000060 00000008H .CRT$XPZ                CODE
 0001:00000068 00000008H .CRT$XTA                CODE
 0001:00000070 00000010H .CRT$XTZ                CODE
 0001:00000078 00000000H .gfids$y                CODE
 0001:00000080 00019640H .rdata                  CODE
 0001:000196c0 00000000H .rdata$r                CODE
 0001:000196c0 00000280H .rdata$zzzdbg           CODE
 0001:00019940 00000008H .rtc$IAA                CODE
 0001:00019948 00000008H .rtc$IZZ                CODE
 0001:00019950 00000008H .rtc$TAA                CODE
 0001:00019958 00000008H .rtc$TZZ                CODE
 0001:00019960 00041d40H .text$mn                CODE
 0001:0005b6a0 00000020H .text$mn$00             CODE
 0001:0005b6c0 00000490H .text$x                 CODE
 0001:0005bb50 000034e0H .xdata                  CODE
 0001:0005f030 00000000H .xdata$x                CODE
 0001:0005f030 0000049cH .edata                  CODE
 0002:00000000 00005f40H .data                   DATA
 0002:00005f40 00000000H .data$r                 DATA
 0002:00005f40 00001250H .bss                    DATA
 0003:00000000 00003c48H .pdata                  DATA
 0004:00000000 00000710H .idata$5                DATA
 0004:00000710 00000010H .00cfg                  DATA
 0004:00000720 00000078H .idata$2                DATA
 0004:00000798 00000018H .idata$3                DATA
 0004:000007b0 00000710H .idata$4                DATA
 0004:00000ec0 00000f92H .idata$6                DATA
 0005:00000000 00000060H .rsrc$01                DATA
 0005:00000060 00000358H .rsrc$02                DATA

  Address         Publics by Value              Rva+Base               Lib:Object

 0000:00000000       __guard_longjmp_count      0000000000000000     <absolute>
 0000:00000000       __guard_iat_table          0000000000000000     <absolute>
 0000:00000000       __guard_fids_count         0000000000000000     <absolute>
 0000:00000000       __hybrid_code_map_count    0000000000000000     <absolute>
 0000:00000000       __hybrid_code_map          0000000000000000     <absolute>
 0000:00000000       __guard_iat_count          0000000000000000     <absolute>
 0000:00000000       __guard_longjmp_table      0000000000000000     <absolute>
 0000:00000000       __volatile_metadata        0000000000000000     <absolute>
 0000:00000000       __enclave_config           0000000000000000     <absolute>
 0000:00000000       ___safe_se_handler_table   0000000000000000     <absolute>
 0000:00000000       ___safe_se_handler_count   0000000000000000     <absolute>
 0000:00000000       __guard_fids_table         0000000000000000     <absolute>
 0000:00000000       __hybrid_auxiliary_iat     0000000000000000     <absolute>
 0000:00000000       __dynamic_value_reloc_table 0000000000000000     <absolute>
 0000:00000100       __guard_flags              0000000000000100     <absolute>
 0000:00000000       __ImageBase                0000000180000000     <linker-defined>
 0001:00000000       __xc_a                     0000000180001000     LIBCMT:initializers.obj
 0001:00000008       __xc_z                     0000000180001008     LIBCMT:initializers.obj
 0001:00000010       __xi_a                     0000000180001010     LIBCMT:initializers.obj
 0001:00000018       __acrt_stdio_initializer   0000000180001018     libucrt:stdio_initializer.obj
 0001:00000020       __acrt_multibyte_initializer 0000000180001020     libucrt:multibyte_initializer.obj
 0001:00000028       __acrt_tran_fma3_initializer 0000000180001028     libucrt:fma3_initializer.obj
 0001:00000030       __xi_z                     0000000180001030     LIBCMT:initializers.obj
 0001:00000038       __xp_a                     0000000180001038     LIBCMT:initializers.obj
 0001:00000040       __acrt_locale_terminator   0000000180001040     libucrt:locale_initializer.obj
 0001:00000048       __acrt_tmpfile_terminator  0000000180001048     libucrt:tmpfile_initializer.obj
 0001:00000050       __dcrt_console_output_terminator 0000000180001050     libucrt:console_output_initializer.obj
 0001:00000058       __acrt_stdio_terminator    0000000180001058     libucrt:stdio_initializer.obj
 0001:00000060       __xp_z                     0000000180001060     LIBCMT:initializers.obj
 0001:00000068       __xt_a                     0000000180001068     LIBCMT:initializers.obj
 0001:00000070       __xt_z                     0000000180001070     LIBCMT:initializers.obj
 0001:00000250       metatable_name             0000000180001250     bit64.obj
 0001:00000260       ??_C@_04JAOJMBA@bnot@      0000000180001260     bit64.obj
 0001:00000268       ??_C@_04BKGNPECA@band@     0000000180001268     bit64.obj
 0001:00000270       ??_C@_03BBBGIIAC@bor@      0000000180001270     bit64.obj
 0001:00000274       ??_C@_04CKCGDDNF@bxor@     0000000180001274     bit64.obj
 0001:0000027c       ??_C@_06ELFGPGBK@lshift@   000000018000127c     bit64.obj
 0001:00000284       ??_C@_06HMLHBBIJ@rshift@   0000000180001284     bit64.obj
 0001:00000290       ??_C@_07JILILBLL@arshift@  0000000180001290     bit64.obj
 0001:00000298       ??_C@_03CLCAEGCJ@new@      0000000180001298     bit64.obj
 0001:0000029c       ??_C@_03BDGOHNNK@add@      000000018000129c     bit64.obj
 0001:000002a0       ??_C@_03KCMAIMAP@sub@      00000001800012a0     bit64.obj
 0001:000002a4       ??_C@_03IMIFIBCN@mul@      00000001800012a4     bit64.obj
 0001:000002a8       ??_C@_03FEJMGOGI@div@      00000001800012a8     bit64.obj
 0001:000002ac       ??_C@_03FFONCNID@mod@      00000001800012ac     bit64.obj
 0001:000002b0       ??_C@_02HIIGGHJB@eq@       00000001800012b0     bit64.obj
 0001:000002b4       ??_C@_02KCAKIFL@lt@        00000001800012b4     bit64.obj
 0001:000002b8       ??_C@_02FJPJILEL@le@       00000001800012b8     bit64.obj
 0001:000002bc       ??_C@_04GPMDFGEJ@type@     00000001800012bc     bit64.obj
 0001:000002c4       ??_C@_05MEHDOBFN@__add@    00000001800012c4     bit64.obj
 0001:000002cc       ??_C@_05HFNNBAII@__sub@    00000001800012cc     bit64.obj
 0001:000002d4       ??_C@_05FLJIBNKK@__mul@    00000001800012d4     bit64.obj
 0001:000002dc       ??_C@_05IDIBPCOP@__div@    00000001800012dc     bit64.obj
 0001:000002e4       ??_C@_05ICPALBAE@__mod@    00000001800012e4     bit64.obj
 0001:000002ec       ??_C@_05MHFNBPAK@__unm@    00000001800012ec     bit64.obj
 0001:000002f4       ??_C@_04GIMIAOHA@__eq@     00000001800012f4     bit64.obj
 0001:000002fc       ??_C@_04BKGOMBLK@__lt@     00000001800012fc     bit64.obj
 0001:00000304       ??_C@_04EJLHOCKK@__le@     0000000180001304     bit64.obj
 0001:00000310       ??_C@_0L@HDFPAPPH@__tostring@ 0000000180001310     bit64.obj
 0001:00000320       ??_C@_09GPALILFO@bad?5int64@ 0000000180001320     bit64.obj
 0001:0000032c       ??_C@_05LLAMLEHD@?$CFI64d@ 000000018000132c     bit64.obj
 0001:00000334       ??_C@_05OALCLICP@bit64@    0000000180001334     bit64.obj
 0001:00000340       __real@433fffffffffffff    0000000180001340     bit64.obj
 0001:00000350       __xmm@80000000000000008000000000000000 0000000180001350     bit64.obj
 0001:00000360       COLLECTOR_FD               0000000180001360     exported.obj
 0001:00000378       COLLECTOR_OPI              0000000180001378     exported.obj
 0001:00000390       COLLECTOR_PI               0000000180001390     exported.obj
 0001:000003a8       KEY_OBJECT                 00000001800013a8     exported.obj
 0001:00000c40       ??_C@_05GFCDIDHO@debug@    0000000180001c40     exported.obj
 0001:00000c48       ??_C@_09GPFEECNC@traceback@ 0000000180001c48     exported.obj
 0001:00000c54       ??_C@_06NKNNMLDJ@export@   0000000180001c54     exported.obj
 0001:00000c60       ??_C@_07PCNKBAGB@OnError@  0000000180001c60     exported.obj
 0001:00000c68       ??_C@_0N@NJMIGDDL@CreationTime@ 0000000180001c68     exported.obj
 0001:00000c78       ??_C@_0P@MFHPCDDH@LastAccessTime@ 0000000180001c78     exported.obj
 0001:00000c88       ??_C@_0O@FCFNCAHK@LastWriteTime@ 0000000180001c88     exported.obj
 0001:00000c98       ??_C@_0L@FCILKIIG@ChangeTime@ 0000000180001c98     exported.obj
 0001:00000ca8       ??_C@_08BHIEONMC@FileSize@ 0000000180001ca8     exported.obj
 0001:00000cb8       ??_C@_0P@JBACEJLL@AllocationSize@ 0000000180001cb8     exported.obj
 0001:00000cc8       ??_C@_05BOOEKJH@Flags@     0000000180001cc8     exported.obj
 0001:00000cd0       ??_C@_0O@DLGJHFNH@NumberOfLinks@ 0000000180001cd0     exported.obj
 0001:00000ce0       ??_C@_05MHNOECFO@CRC32@    0000000180001ce0     exported.obj
 0001:00000ce8       ??_C@_08FDCJCDOL@FileName@ 0000000180001ce8     exported.obj
 0001:00000cf8       ??_C@_0BC@COCBGKAE@AlternateFileName@ 0000000180001cf8     exported.obj
 0001:00000d10       ??_C@_0M@OHKMKKDH@Description@ 0000000180001d10     exported.obj
 0001:00000d1c       ??_C@_05HDCNEILF@Owner@    0000000180001d1c     exported.obj
 0001:00000d28       ??_C@_0BB@OKGMKOG@CustomColumnData@ 0000000180001d28     exported.obj
 0001:00000d3c       ??_C@_11LOCGONAA@@         0000000180001d3c     exported.obj
 0001:00000d40       ??_C@_08JNHPECBG@UserData@ 0000000180001d40     exported.obj
 0001:00000d50       ??_C@_0M@DFMHDHBL@GetFindData@ 0000000180001d50     exported.obj
 0001:00000d60       ??_C@_08FFPEEIHA@GetFiles@ 0000000180001d60     exported.obj
 0001:00000d70       ??_C@_0BC@IECOKJFL@GetFiles?4DestPath@ 0000000180001d70     exported.obj
 0001:00000d84       ??_C@_05LFOKGKBN@?$DMboot@ 0000000180001d84     exported.obj
 0001:00000d8c       ??_C@_15CBMDENPJ@?$AA?4?$AA?9@ 0000000180001d8c     exported.obj
 0001:00000d98       ??_C@_07KNEGBPNO@package@  0000000180001d98     exported.obj
 0001:00000da0       ??_C@_07GCEAJMEA@preload@  0000000180001da0     exported.obj
 0001:00000da8       ??_C@_19BCNABNAK@?$AA?4?$AAl?$AAu?$AAa@ 0000000180001da8     exported.obj
 0001:00000db4       ??_C@_13BPINEIPE@?$AAr@    0000000180001db4     exported.obj
 0001:00000db8       ??_C@_1DC@PABHCCON@?$AAD?$AAe?$AAf?$AAa?$AAu?$AAl?$AAt?$AA?5?$AAs?$AAc?$AAr?$AAi?$AAp?$AAt?$AA?5@ 0000000180001db8     exported.obj
 0001:00000dec       ??_C@_03JEOKDCFP@far@      0000000180001dec     exported.obj
 0001:00000df0       ??_C@_0BE@HCPAIELH@ReloadDefaultScript@ 0000000180001df0     exported.obj
 0001:00000e08       ??_C@_0L@OCPPMCCK@StructSize@ 0000000180001e08     exported.obj
 0001:00000e14       ??_C@_06LBMCOACO@Buffer@   0000000180001e14     exported.obj
 0001:00000e1c       ??_C@_06EPIAKPGD@OpMode@   0000000180001e1c     exported.obj
 0001:00000e28       ??_C@_07GDADDFBD@Analyse@  0000000180001e28     exported.obj
 0001:00000e30       ??_C@_0BB@CKIGBGLB@GetOpenPanelInfo@ 0000000180001e30     exported.obj
 0001:00000e48       ??_C@_08KDMNIFGM@FreeSize@ 0000000180001e48     exported.obj
 0001:00000e58       ??_C@_08PAJOMFPO@HostFile@ 0000000180001e58     exported.obj
 0001:00000e64       ??_C@_06IBPEEEAJ@CurDir@   0000000180001e64     exported.obj
 0001:00000e6c       ??_C@_06PEPCFMNJ@Format@   0000000180001e6c     exported.obj
 0001:00000e78       ??_C@_0L@CMHIOLLB@PanelTitle@ 0000000180001e78     exported.obj
 0001:00000e88       ??_C@_09PMEOAIAA@InfoLines@ 0000000180001e88     exported.obj
 0001:00000e98       ??_C@_0BA@BLCGOCOG@InfoLinesNumber@ 0000000180001e98     exported.obj
 0001:00000ea8       ??_C@_04OJAHODMC@Text@     0000000180001ea8     exported.obj
 0001:00000eb0       ??_C@_04DICKPMGH@Data@     0000000180001eb0     exported.obj
 0001:00000eb8       ??_C@_0L@FPEHOFAI@DescrFiles@ 0000000180001eb8     exported.obj
 0001:00000ec8       ??_C@_0BA@BBOGKOKF@PanelModesArray@ 0000000180001ec8     exported.obj
 0001:00000ed8       ??_C@_0BB@LFNABPEF@PanelModesNumber@ 0000000180001ed8     exported.obj
 0001:00000ef0       ??_C@_0M@KDJPJFOF@ColumnTypes@ 0000000180001ef0     exported.obj
 0001:00000f00       ??_C@_0N@ILFJPGHI@ColumnWidths@ 0000000180001f00     exported.obj
 0001:00000f10       ??_C@_0BC@KELOOKNK@StatusColumnTypes@ 0000000180001f10     exported.obj
 0001:00000f28       ??_C@_0BD@DNDIPKDK@StatusColumnWidths@ 0000000180001f28     exported.obj
 0001:00000f40       ??_C@_0N@EHCEJHEE@ColumnTitles@ 0000000180001f40     exported.obj
 0001:00000f50       ??_C@_0P@BEEDPJDK@StartPanelMode@ 0000000180001f50     exported.obj
 0001:00000f60       ??_C@_0O@NIFKFGBJ@StartSortMode@ 0000000180001f60     exported.obj
 0001:00000f70       ??_C@_0P@KMACBLNK@StartSortOrder@ 0000000180001f70     exported.obj
 0001:00000f80       ??_C@_06ONGFDHIA@KeyBar@   0000000180001f80     exported.obj
 0001:00000f88       ??_C@_0P@PKDBPEJI@VirtualKeyCode@ 0000000180001f88     exported.obj
 0001:00000f98       ??_C@_0BA@MFFHAKP@ControlKeyState@ 0000000180001f98     exported.obj
 0001:00000fa8       ??_C@_08DGDJEKCP@LongText@ 0000000180001fa8     exported.obj
 0001:00000fb8       ??_C@_0N@IHDKLODA@ShortcutData@ 0000000180001fb8     exported.obj
 0001:00000fc8       ??_C@_05HIFJDKLD@array@    0000000180001fc8     exported.obj
 0001:00000fd0       ??_C@_01EFFIKLCJ@n@        0000000180001fd0     exported.obj
 0001:00000fd2       ??_C@_00CNPNBAHC@@         0000000180001fd2     exported.obj
 0001:00000fd4       ??_C@_04DNCDCIAE@Open@     0000000180001fd4     exported.obj
 0001:00000fdc       ??_C@_04OPJIDECA@hDlg@     0000000180001fdc     exported.obj
 0001:00000fe4       ??_C@_06BNNOMDLO@Handle@   0000000180001fe4     exported.obj
 0001:00000fec       ??_C@_05LNOAKADA@panel@    0000000180001fec     exported.obj
 0001:00000ff8       ??_C@_0L@JMPDJFBN@ClosePanel@ 0000000180001ff8     exported.obj
 0001:00001008       ??_C@_07MBOMJGGF@Compare@  0000000180002008     exported.obj
 0001:00001010       ??_C@_09NANCCILE@Configure@ 0000000180002010     exported.obj
 0001:00001020       ??_C@_0M@MMKKMEFA@DeleteFiles@ 0000000180002020     exported.obj
 0001:00001030       ??_C@_0O@GLLEDHJA@MakeDirectory@ 0000000180002030     exported.obj
 0001:00001040       ??_C@_0BD@PJNONGDB@MakeDirectory?4Name@ 0000000180002040     exported.obj
 0001:00001058       ??_C@_0BC@COPMJGBI@ProcessPanelEvent@ 0000000180002058     exported.obj
 0001:00001070       ??_C@_0BA@DPJAKFGC@ProcessHostFile@ 0000000180002070     exported.obj
 0001:00001080       ??_C@_0BC@HOBKGBBM@ProcessPanelInput@ 0000000180002080     exported.obj
 0001:00001098       ??_C@_08OBOOFGOD@PutFiles@ 0000000180002098     exported.obj
 0001:000010a8       ??_C@_0N@KCFEBPAO@SetDirectory@ 00000001800020a8     exported.obj
 0001:000010b8       ??_C@_0M@PNOHHCCH@SetFindList@ 00000001800020b8     exported.obj
 0001:000010c8       ??_C@_07EACELFAO@ExitFAR@  00000001800020c8     exported.obj
 0001:000010d0       ??_C@_0O@OBCKADMD@GetPluginInfo@ 00000001800020d0     exported.obj
 0001:000010e0       ??_C@_0O@GDMHGAFH@CommandPrefix@ 00000001800020e0     exported.obj
 0001:000010f0       ??_C@_0O@PHBKMNMJ@DiskMenuGuids@ 00000001800020f0     exported.obj
 0001:00001100       ??_C@_0BA@NLBDFPEO@DiskMenuStrings@ 0000000180002100     exported.obj
 0001:00001110       ??_C@_0BA@FOMPNLJF@PluginMenuGuids@ 0000000180002110     exported.obj
 0001:00001120       ??_C@_0BC@DJMJFBJC@PluginMenuStrings@ 0000000180002120     exported.obj
 0001:00001138       ??_C@_0BC@ILBHAHCH@PluginConfigGuids@ 0000000180002138     exported.obj
 0001:00001150       ??_C@_0BE@GAFPNGIP@PluginConfigStrings@ 0000000180002150     exported.obj
 0001:00001168       ??_C@_0BD@DECJPBBK@ProcessEditorInput@ 0000000180002168     exported.obj
 0001:00001180       ??_C@_0BD@GEMPAGBO@ProcessEditorEvent@ 0000000180002180     exported.obj
 0001:00001194       ??_C@_04KOACHJEN@Type@     0000000180002194     exported.obj
 0001:000011a0       ??_C@_0N@EKPHGDMI@StringNumber@ 00000001800021a0     exported.obj
 0001:000011b0       ??_C@_07MOCFLHCN@FileEOL@  00000001800021b0     exported.obj
 0001:000011b8       ??_C@_08DOHJINHB@CodePage@ 00000001800021b8     exported.obj
 0001:000011c8       ??_C@_0BD@GGKMLEJG@ProcessViewerEvent@ 00000001800021c8     exported.obj
 0001:000011e0       ??_C@_0BD@FNHBEIC@ProcessDialogEvent@ 00000001800021e0     exported.obj
 0001:000011f4       ??_C@_06CPBJDKAC@Param2@   00000001800021f4     exported.obj
 0001:000011fc       ??_C@_06EDEGJMB@Param1@    00000001800021fc     exported.obj
 0001:00001204       ??_C@_03MLMOILGK@Msg@      0000000180002204     exported.obj
 0001:00001208       ??_C@_0BE@LHJGGGHN@ProcessSynchroEvent@ 0000000180002208     exported.obj
 0001:00001220       ??_C@_0BB@PHIEFGHD@GetContentFields@ 0000000180002220     exported.obj
 0001:00001238       ??_C@_0P@DPJDPMPI@GetContentData@ 0000000180002238     exported.obj
 0001:00001248       ??_C@_0N@DDJEHLKE@?$DM_globalinfo@ 0000000180002248     exported.obj
 0001:00001258       ??_C@_1CA@IBKDMBNJ@?$AA_?$AAg?$AAl?$AAo?$AAb?$AAa?$AAl?$AAi?$AAn?$AAf?$AAo?$AA?4?$AAl?$AAu?$AAa@ 0000000180002258     exported.obj
 0001:00001278       ??_C@_0O@GJMOPLGM@GetGlobalInfo@ 0000000180002278     exported.obj
 0001:00001288       ??_C@_0O@CALOEOI@MinFarVersion@ 0000000180002288     exported.obj
 0001:00001298       ??_C@_07NGFJPNPN@Version@  0000000180002298     exported.obj
 0001:000012a0       ??_C@_04MJHIICBJ@Guid@     00000001800022a0     exported.obj
 0001:000012a8       ??_C@_05PABKJLOM@Title@    00000001800022a8     exported.obj
 0001:000012b0       ??_C@_06HHECMMLE@Author@   00000001800022b0     exported.obj
 0001:000012b8       ??_C@_0BE@DONMOPMJ@ProcessConsoleInput@ 00000001800022b8     exported.obj
 0001:000012d0       __real@43e0000000000000    00000001800022d0     exported.obj
 0001:000012d8       __real@bff0000000000000    00000001800022d8     exported.obj
 0001:00001b60       Vals                       0000000180002b60     flags.obj
 0001:000031a8       ??_C@_0BI@IDKIJMME@FARMANAGERVERSION_MAJOR@ 00000001800041a8     flags.obj
 0001:000031c0       ??_C@_0BI@DMLKEAFC@FARMANAGERVERSION_MINOR@ 00000001800041c0     flags.obj
 0001:000031d8       ??_C@_0BL@NMALNAFP@FARMANAGERVERSION_REVISION@ 00000001800041d8     flags.obj
 0001:000031f8       ??_C@_0BI@OLPFLLDD@FARMANAGERVERSION_BUILD@ 00000001800041f8     flags.obj
 0001:00003210       ??_C@_0BI@MOOFLFPC@FARMANAGERVERSION_STAGE@ 0000000180004210     flags.obj
 0001:00003228       ??_C@_0L@MIDBGFJO@CP_UNICODE@ 0000000180004228     flags.obj
 0001:00003238       ??_C@_0O@MNMCMEJH@CP_REVERSEBOM@ 0000000180004238     flags.obj
 0001:00003248       ??_C@_0L@JDNPCEDH@CP_DEFAULT@ 0000000180004248     flags.obj
 0001:00003258       ??_C@_0M@OMCMFJHA@CP_REDETECT@ 0000000180004258     flags.obj
 0001:00003268       ??_C@_09MNAPNKKC@INDEXMASK@ 0000000180004268     flags.obj
 0001:00003278       ??_C@_09BLFIDJLF@COLORMASK@ 0000000180004278     flags.obj
 0001:00003288       ??_C@_09ENNBLPJC@ALPHAMASK@ 0000000180004288     flags.obj
 0001:00003298       ??_C@_0L@EHFOPLFD@PANEL_NONE@ 0000000180004298     flags.obj
 0001:000032a8       ??_C@_0N@LPMKALBG@PANEL_ACTIVE@ 00000001800042a8     flags.obj
 0001:000032b8       ??_C@_0O@HPKEABPN@PANEL_PASSIVE@ 00000001800042b8     flags.obj
 0001:000032c8       ??_C@_0L@GOEBPENN@PANEL_STOP@ 00000001800042c8     flags.obj
 0001:000032d8       ??_C@_0N@HLIFAAPJ@EEREDRAW_ALL@ 00000001800042d8     flags.obj
 0001:000032e8       ??_C@_0P@NHNDIKJ@CURRENT_EDITOR@ 00000001800042e8     flags.obj
 0001:000032f8       ??_C@_0BN@PPNDCHHA@EDITOR_COLOR_NORMAL_PRIORITY@ 00000001800042f8     flags.obj
 0001:00003318       ??_C@_07MGGAEAFF@DI_TEXT@  0000000180004318     flags.obj
 0001:00003320       ??_C@_08HODBDEHE@DI_VTEXT@ 0000000180004320     flags.obj
 0001:00003330       ??_C@_0N@IGKKGFMF@DI_SINGLEBOX@ 0000000180004330     flags.obj
 0001:00003340       ??_C@_0N@EDCLIEAE@DI_DOUBLEBOX@ 0000000180004340     flags.obj
 0001:00003350       ??_C@_07DOLIFAEF@DI_EDIT@  0000000180004350     flags.obj
 0001:00003358       ??_C@_0L@EOMEIIFM@DI_PSWEDIT@ 0000000180004358     flags.obj
 0001:00003368       ??_C@_0L@MGOIMBKF@DI_FIXEDIT@ 0000000180004368     flags.obj
 0001:00003378       ??_C@_09GGAEMAPJ@DI_BUTTON@ 0000000180004378     flags.obj
 0001:00003388       ??_C@_0M@MHFHGPHJ@DI_CHECKBOX@ 0000000180004388     flags.obj
 0001:00003398       ??_C@_0P@GIPCGMBE@DI_RADIOBUTTON@ 0000000180004398     flags.obj
 0001:000033a8       ??_C@_0M@MAKBFNGC@DI_COMBOBOX@ 00000001800043a8     flags.obj
 0001:000033b8       ??_C@_0L@ONDMPPPO@DI_LISTBOX@ 00000001800043b8     flags.obj
 0001:000033c8       ??_C@_0P@GDJDPEIK@DI_USERCONTROL@ 00000001800043c8     flags.obj
 0001:000033d8       ??_C@_08KAEGOLOB@DM_FIRST@ 00000001800043d8     flags.obj
 0001:000033e8       ??_C@_08MJMBFJHA@DM_CLOSE@ 00000001800043e8     flags.obj
 0001:000033f8       ??_C@_09KLJOCKAA@DM_ENABLE@ 00000001800043f8     flags.obj
 0001:00003408       ??_C@_0BA@KAMJGFDG@DM_ENABLEREDRAW@ 0000000180004408     flags.obj
 0001:00003418       ??_C@_0O@FKGMMKLP@DM_GETDLGDATA@ 0000000180004418     flags.obj
 0001:00003428       ??_C@_0O@HEGKCPOI@DM_GETDLGITEM@ 0000000180004428     flags.obj
 0001:00003438       ??_C@_0O@BEHCGMCL@DM_GETDLGRECT@ 0000000180004438     flags.obj
 0001:00003448       ??_C@_0L@ELBDNLFO@DM_GETTEXT@ 0000000180004448     flags.obj
 0001:00003454       ??_C@_06IKGPEGEJ@DM_KEY@   0000000180004454     flags.obj
 0001:00003460       ??_C@_0O@DIPLLJEH@DM_MOVEDIALOG@ 0000000180004460     flags.obj
 0001:00003470       ??_C@_0O@EEEDHNPG@DM_SETDLGDATA@ 0000000180004470     flags.obj
 0001:00003480       ??_C@_0O@GKEFJIKB@DM_SETDLGITEM@ 0000000180004480     flags.obj
 0001:00003490       ??_C@_0M@GOFGHDFK@DM_SETFOCUS@ 0000000180004490     flags.obj
 0001:000034a0       ??_C@_09ILPFEDOM@DM_REDRAW@ 00000001800044a0     flags.obj
 0001:000034b0       ??_C@_0L@LDOCOEIP@DM_SETTEXT@ 00000001800044b0     flags.obj
 0001:000034c0       ??_C@_0BE@LABEAIPD@DM_SETMAXTEXTLENGTH@ 00000001800044c0     flags.obj
 0001:000034d8       ??_C@_0O@BIFKIPIP@DM_SHOWDIALOG@ 00000001800044d8     flags.obj
 0001:000034e8       ??_C@_0M@JPHKGACH@DM_GETFOCUS@ 00000001800044e8     flags.obj
 0001:000034f8       ??_C@_0BA@NLMONBKJ@DM_GETCURSORPOS@ 00000001800044f8     flags.obj
 0001:00003508       ??_C@_0BA@KPHABNOF@DM_SETCURSORPOS@ 0000000180004508     flags.obj
 0001:00003518       ??_C@_0O@LGEKFPKK@DM_SETTEXTPTR@ 0000000180004518     flags.obj
 0001:00003528       ??_C@_0M@NCOJHJKI@DM_SHOWITEM@ 0000000180004528     flags.obj
 0001:00003538       ??_C@_0O@GKKCFHIM@DM_ADDHISTORY@ 0000000180004538     flags.obj
 0001:00003548       ??_C@_0M@MCEMDFMD@DM_GETCHECK@ 0000000180004548     flags.obj
 0001:00003558       ??_C@_0M@DDGACGLO@DM_SETCHECK@ 0000000180004558     flags.obj
 0001:00003568       ??_C@_0N@MEGOPFGK@DM_SET3STATE@ 0000000180004568     flags.obj
 0001:00003578       ??_C@_0M@GEPBDDNC@DM_LISTSORT@ 0000000180004578     flags.obj
 0001:00003588       ??_C@_0P@NFJNHAKH@DM_LISTGETITEM@ 0000000180004588     flags.obj
 0001:00003598       ??_C@_0BB@EEIMACNO@DM_LISTGETCURPOS@ 0000000180004598     flags.obj
 0001:000035b0       ??_C@_0BB@GKMJCDEM@DM_LISTSETCURPOS@ 00000001800045b0     flags.obj
 0001:000035c8       ??_C@_0O@NOPCAHGJ@DM_LISTDELETE@ 00000001800045c8     flags.obj
 0001:000035d8       ??_C@_0L@BMEAECNG@DM_LISTADD@ 00000001800045d8     flags.obj
 0001:000035e8       ??_C@_0O@HBHDMHP@DM_LISTADDSTR@ 00000001800045e8     flags.obj
 0001:000035f8       ??_C@_0O@PDFCNPKN@DM_LISTUPDATE@ 00000001800045f8     flags.obj
 0001:00003608       ??_C@_0O@GAAGMJJL@DM_LISTINSERT@ 0000000180004608     flags.obj
 0001:00003618       ??_C@_0BC@MIFCLOBD@DM_LISTFINDSTRING@ 0000000180004618     flags.obj
 0001:00003630       ??_C@_0M@EEAEBLKC@DM_LISTINFO@ 0000000180004630     flags.obj
 0001:00003640       ??_C@_0P@PLJLJFPA@DM_LISTGETDATA@ 0000000180004640     flags.obj
 0001:00003650       ??_C@_0P@DGKKKCB@DM_LISTSETDATA@ 0000000180004650     flags.obj
 0001:00003660       ??_C@_0BB@CELMNLLN@DM_LISTSETTITLES@ 0000000180004660     flags.obj
 0001:00003678       ??_C@_0BB@KPJPKCP@DM_LISTGETTITLES@ 0000000180004678     flags.obj
 0001:00003690       ??_C@_0BA@ICDJCFLE@DM_RESIZEDIALOG@ 0000000180004690     flags.obj
 0001:000036a0       ??_C@_0BD@CNGGHGJF@DM_SETITEMPOSITION@ 00000001800046a0     flags.obj
 0001:000036b8       ??_C@_0BF@JMINBGBA@DM_GETDROPDOWNOPENED@ 00000001800046b8     flags.obj
 0001:000036d0       ??_C@_0BF@LJIGJNAO@DM_SETDROPDOWNOPENED@ 00000001800046d0     flags.obj
 0001:000036e8       ??_C@_0O@NPDKADMJ@DM_SETHISTORY@ 00000001800046e8     flags.obj
 0001:000036f8       ??_C@_0BD@BPHAAEIM@DM_GETITEMPOSITION@ 00000001800046f8     flags.obj
 0001:00003710       ??_C@_0BC@BENFKLNH@DM_SETINPUTNOTIFY@ 0000000180004710     flags.obj
 0001:00003728       ??_C@_0BH@CFMLLNNM@DM_SETMOUSEEVENTNOTIFY@ 0000000180004728     flags.obj
 0001:00003740       ??_C@_0BF@IAGIACOD@DM_EDITUNCHANGEDFLAG@ 0000000180004740     flags.obj
 0001:00003758       ??_C@_0P@OJKNHIPN@DM_GETITEMDATA@ 0000000180004758     flags.obj
 0001:00003768       ??_C@_0P@OGLDKOHO@DM_SETITEMDATA@ 0000000180004768     flags.obj
 0001:00003778       ??_C@_0L@KNFAKFKE@DM_LISTSET@ 0000000180004778     flags.obj
 0001:00003788       ??_C@_0BB@EPMFHAFO@DM_GETCURSORSIZE@ 0000000180004788     flags.obj
 0001:000037a0       ??_C@_0BB@DANLMDCJ@DM_SETCURSORSIZE@ 00000001800047a0     flags.obj
 0001:000037b8       ??_C@_0BD@LAOOKGHD@DM_LISTGETDATASIZE@ 00000001800047b8     flags.obj
 0001:000037d0       ??_C@_0BA@BHGANJAP@DM_GETSELECTION@ 00000001800047d0     flags.obj
 0001:000037e0       ??_C@_0BA@GDNOBFED@DM_SETSELECTION@ 00000001800047e0     flags.obj
 0001:000037f0       ??_C@_0BD@FIHDGIGO@DM_GETEDITPOSITION@ 00000001800047f0     flags.obj
 0001:00003808       ??_C@_0BD@GKGFBKHH@DM_SETEDITPOSITION@ 0000000180004808     flags.obj
 0001:00003820       ??_C@_0BE@MCECGHBC@DM_SETCOMBOBOXEVENT@ 0000000180004820     flags.obj
 0001:00003838       ??_C@_0BE@KGBLNJKA@DM_GETCOMBOBOXEVENT@ 0000000180004838     flags.obj
 0001:00003850       ??_C@_0BD@CJEPBACF@DM_GETCONSTTEXTPTR@ 0000000180004850     flags.obj
 0001:00003868       ??_C@_0BD@HOOHICEG@DM_GETDLGITEMSHORT@ 0000000180004868     flags.obj
 0001:00003880       ??_C@_0BD@EMPBPAFP@DM_SETDLGITEMSHORT@ 0000000180004880     flags.obj
 0001:00003898       ??_C@_0BB@GAPFMPKE@DM_GETDIALOGINFO@ 0000000180004898     flags.obj
 0001:000038b0       ??_C@_0BC@KJOLMFGG@DM_GETDIALOGTITLE@ 00000001800048b0     flags.obj
 0001:000038c8       ??_C@_08COMJOMAC@DN_FIRST@ 00000001800048c8     flags.obj
 0001:000038d8       ??_C@_0M@NNNAPNMA@DN_BTNCLICK@ 00000001800048d8     flags.obj
 0001:000038e8       ??_C@_0BC@MJFJAANN@DN_CTLCOLORDIALOG@ 00000001800048e8     flags.obj
 0001:00003900       ??_C@_0BD@HFGBIBBL@DN_CTLCOLORDLGITEM@ 0000000180004900     flags.obj
 0001:00003918       ??_C@_0BD@JMFJPHPD@DN_CTLCOLORDLGLIST@ 0000000180004918     flags.obj
 0001:00003930       ??_C@_0O@NKBDPILK@DN_DRAWDIALOG@ 0000000180004930     flags.obj
 0001:00003940       ??_C@_0P@KGKEDPBI@DN_DRAWDLGITEM@ 0000000180004940     flags.obj
 0001:00003950       ??_C@_0O@JMKNGFLE@DN_EDITCHANGE@ 0000000180004950     flags.obj
 0001:00003960       ??_C@_0N@OCGKCPJF@DN_ENTERIDLE@ 0000000180004960     flags.obj
 0001:00003970       ??_C@_0M@JHFIBKOO@DN_GOTFOCUS@ 0000000180004970     flags.obj
 0001:00003980       ??_C@_07NJJEMKPA@DN_HELP@  0000000180004980     flags.obj
 0001:00003988       ??_C@_09EDGJFAK@DN_HOTKEY@ 0000000180004988     flags.obj
 0001:00003998       ??_C@_0O@BJECHBCA@DN_INITDIALOG@ 0000000180004998     flags.obj
 0001:000039a8       ??_C@_0N@CHLLLNBO@DN_KILLFOCUS@ 00000001800049a8     flags.obj
 0001:000039b8       ??_C@_0O@CLPABIGO@DN_LISTCHANGE@ 00000001800049b8     flags.obj
 0001:000039c8       ??_C@_0L@MLMFBHN@DN_DRAGGED@ 00000001800049c8     flags.obj
 0001:000039d8       ??_C@_0BB@BOOOCAEG@DN_RESIZECONSOLE@ 00000001800049d8     flags.obj
 0001:000039f0       ??_C@_0BC@FHPPFLKG@DN_DRAWDIALOGDONE@ 00000001800049f0     flags.obj
 0001:00003a08       ??_C@_0O@EONPBNNP@DN_LISTHOTKEY@ 0000000180004a08     flags.obj
 0001:00003a18       ??_C@_08MDDLDGPO@DN_INPUT@ 0000000180004a18     flags.obj
 0001:00003a28       ??_C@_0BA@FGOGLDBC@DN_CONTROLINPUT@ 0000000180004a28     flags.obj
 0001:00003a38       ??_C@_08EHEOFOJD@DN_CLOSE@ 0000000180004a38     flags.obj
 0001:00003a48       ??_C@_0M@POIFBPFN@DN_GETVALUE@ 0000000180004a48     flags.obj
 0001:00003a58       ??_C@_0BC@MHCBFAAO@DN_DROPDOWNOPENED@ 0000000180004a58     flags.obj
 0001:00003a70       ??_C@_0BD@NGEKAPIF@DN_DRAWDLGITEMDONE@ 0000000180004a70     flags.obj
 0001:00003a88       ??_C@_07DIJJNCBA@DM_USER@  0000000180004a88     flags.obj
 0001:00003a90       ??_C@_0BB@HLBBGMAN@BSTATE_UNCHECKED@ 0000000180004a90     flags.obj
 0001:00003aa8       ??_C@_0P@FALAMPGP@BSTATE_CHECKED@ 0000000180004aa8     flags.obj
 0001:00003ab8       ??_C@_0O@KBIFGGHO@BSTATE_3STATE@ 0000000180004ab8     flags.obj
 0001:00003ac8       ??_C@_0O@ILJOJGLD@BSTATE_TOGGLE@ 0000000180004ac8     flags.obj
 0001:00003ad8       ??_C@_08PPADCPCM@CBET_KEY@ 0000000180004ad8     flags.obj
 0001:00003ae8       ??_C@_0L@KHCLMGFJ@CBET_MOUSE@ 0000000180004ae8     flags.obj
 0001:00003af8       ??_C@_0BA@KNHGEBNE@PTYPE_FILEPANEL@ 0000000180004af8     flags.obj
 0001:00003b08       ??_C@_0BA@LPPHNHIG@PTYPE_TREEPANEL@ 0000000180004b08     flags.obj
 0001:00003b18       ??_C@_0BB@JBINOKAI@PTYPE_QVIEWPANEL@ 0000000180004b18     flags.obj
 0001:00003b30       ??_C@_0BA@NKMDEBG@PTYPE_INFOPANEL@ 0000000180004b30     flags.obj
 0001:00003b40       ??_C@_0L@OPHJOKKE@SM_DEFAULT@ 0000000180004b40     flags.obj
 0001:00003b50       ??_C@_0M@JGBFGGEA@SM_UNSORTED@ 0000000180004b50     flags.obj
 0001:00003b60       ??_C@_07KIFHAGIL@SM_NAME@  0000000180004b60     flags.obj
 0001:00003b68       ??_C@_06GJJJNNFE@SM_EXT@   0000000180004b68     flags.obj
 0001:00003b70       ??_C@_08FICJBKFN@SM_MTIME@ 0000000180004b70     flags.obj
 0001:00003b80       ??_C@_08GCCDHLCN@SM_CTIME@ 0000000180004b80     flags.obj
 0001:00003b90       ??_C@_08CPOLNKCG@SM_ATIME@ 0000000180004b90     flags.obj
 0001:00003ba0       ??_C@_07OMPKMIKC@SM_SIZE@  0000000180004ba0     flags.obj
 0001:00003ba8       ??_C@_08BCBPOLMA@SM_DESCR@ 0000000180004ba8     flags.obj
 0001:00003bb8       ??_C@_08MEAGCMBB@SM_OWNER@ 0000000180004bb8     flags.obj
 0001:00003bc8       ??_C@_0BC@NKDBNAHD@SM_COMPRESSEDSIZE@ 0000000180004bc8     flags.obj
 0001:00003be0       ??_C@_0M@PKNLKFI@SM_NUMLINKS@ 0000000180004be0     flags.obj
 0001:00003bf0       ??_C@_0O@CCKEKPHL@SM_NUMSTREAMS@ 0000000180004bf0     flags.obj
 0001:00003c00       ??_C@_0P@PKGMDPMD@SM_STREAMSSIZE@ 0000000180004c00     flags.obj
 0001:00003c10       ??_C@_0M@OAFEBGNH@SM_FULLNAME@ 0000000180004c10     flags.obj
 0001:00003c20       ??_C@_09KFKGJDHC@SM_CHTIME@ 0000000180004c20     flags.obj
 0001:00003c30       ??_C@_08DOEDKINA@SM_COUNT@ 0000000180004c30     flags.obj
 0001:00003c40       ??_C@_0P@FEMAMJLE@EEC_OPEN_ERROR@ 0000000180004c40     flags.obj
 0001:00003c50       ??_C@_0N@GLMELIKF@EEC_MODIFIED@ 0000000180004c50     flags.obj
 0001:00003c60       ??_C@_0BB@HALKEFOL@EEC_NOT_MODIFIED@ 0000000180004c60     flags.obj
 0001:00003c78       ??_C@_0BI@CNPFKHKO@EEC_LOADING_INTERRUPTED@ 0000000180004c78     flags.obj
 0001:00003c90       ??_C@_0BK@PHBCABMB@ACTL_GETFARMANAGERVERSION@ 0000000180004c90     flags.obj
 0001:00003cb0       ??_C@_0N@DPABJDML@ACTL_WAITKEY@ 0000000180004cb0     flags.obj
 0001:00003cc0       ??_C@_0O@CEHHJAFD@ACTL_GETCOLOR@ 0000000180004cc0     flags.obj
 0001:00003cd0       ??_C@_0BD@OKPAACIK@ACTL_GETARRAYCOLOR@ 0000000180004cd0     flags.obj
 0001:00003ce8       ??_C@_0BD@DIFEEKNN@ACTL_GETWINDOWINFO@ 0000000180004ce8     flags.obj
 0001:00003d00       ??_C@_0BE@PJBIPKOD@ACTL_GETWINDOWCOUNT@ 0000000180004d00     flags.obj
 0001:00003d18       ??_C@_0BG@MNKPOEEN@ACTL_SETCURRENTWINDOW@ 0000000180004d18     flags.obj
 0001:00003d30       ??_C@_0M@IHHFGPPA@ACTL_COMMIT@ 0000000180004d30     flags.obj
 0001:00003d40       ??_C@_0BA@CLHFKJJP@ACTL_GETFARHWND@ 0000000180004d40     flags.obj
 0001:00003d50       ??_C@_0BD@JFOOLBPN@ACTL_SETARRAYCOLOR@ 0000000180004d50     flags.obj
 0001:00003d68       ??_C@_0P@JECKFIA@ACTL_REDRAWALL@ 0000000180004d68     flags.obj
 0001:00003d78       ??_C@_0N@DHPLJLHO@ACTL_SYNCHRO@ 0000000180004d78     flags.obj
 0001:00003d88       ??_C@_0BG@IJPADENB@ACTL_SETPROGRESSSTATE@ 0000000180004d88     flags.obj
 0001:00003da0       ??_C@_0BG@ICJFAPHK@ACTL_SETPROGRESSVALUE@ 0000000180004da0     flags.obj
 0001:00003db8       ??_C@_09HNDBKLDC@ACTL_QUIT@ 0000000180004db8     flags.obj
 0001:00003dc8       ??_C@_0BA@LJCPDIKK@ACTL_GETFARRECT@ 0000000180004dc8     flags.obj
 0001:00003dd8       ??_C@_0BC@FELBEIDG@ACTL_GETCURSORPOS@ 0000000180004dd8     flags.obj
 0001:00003df0       ??_C@_0BC@CAAPIEHK@ACTL_SETCURSORPOS@ 0000000180004df0     flags.obj
 0001:00003e08       ??_C@_0BE@NPJGMDBM@ACTL_PROGRESSNOTIFY@ 0000000180004e08     flags.obj
 0001:00003e20       ??_C@_0BD@IPKOEBIA@ACTL_GETWINDOWTYPE@ 0000000180004e20     flags.obj
 0001:00003e38       ??_C@_09CEDFMINA@MSSC_POST@ 0000000180004e38     flags.obj
 0001:00003e48       ??_C@_0L@MOADGAEB@MSSC_CHECK@ 0000000180004e48     flags.obj
 0001:00003e58       ??_C@_0BA@MMOAIEKP@MACROAREA_OTHER@ 0000000180004e58     flags.obj
 0001:00003e68       ??_C@_0BA@DEBOOAEB@MACROAREA_SHELL@ 0000000180004e68     flags.obj
 0001:00003e78       ??_C@_0BB@JIMPEHCD@MACROAREA_VIEWER@ 0000000180004e78     flags.obj
 0001:00003e90       ??_C@_0BB@KILFBFJH@MACROAREA_EDITOR@ 0000000180004e90     flags.obj
 0001:00003ea8       ??_C@_0BB@CADENPFI@MACROAREA_DIALOG@ 0000000180004ea8     flags.obj
 0001:00003ec0       ??_C@_0BB@MLMLHIGE@MACROAREA_SEARCH@ 0000000180004ec0     flags.obj
 0001:00003ed8       ??_C@_0BA@KKMKOLIK@MACROAREA_DISKS@ 0000000180004ed8     flags.obj
 0001:00003ee8       ??_C@_0BD@IGOOIJP@MACROAREA_MAINMENU@ 0000000180004ee8     flags.obj
 0001:00003f00       ??_C@_0P@LFLMAHBF@MACROAREA_MENU@ 0000000180004f00     flags.obj
 0001:00003f10       ??_C@_0P@DKPKIEO@MACROAREA_HELP@ 0000000180004f10     flags.obj
 0001:00003f20       ??_C@_0BE@MDJPICHC@MACROAREA_INFOPANEL@ 0000000180004f20     flags.obj
 0001:00003f38       ??_C@_0BF@NLJMHMPP@MACROAREA_QVIEWPANEL@ 0000000180004f38     flags.obj
 0001:00003f50       ??_C@_0BE@HBMEGBOC@MACROAREA_TREEPANEL@ 0000000180004f50     flags.obj
 0001:00003f68       ??_C@_0BF@FCHKCGLL@MACROAREA_FINDFOLDER@ 0000000180004f68     flags.obj
 0001:00003f80       ??_C@_0BD@JCFMJGDE@MACROAREA_USERMENU@ 0000000180004f80     flags.obj
 0001:00003f98       ??_C@_0BO@OMLEPJPM@MACROAREA_SHELLAUTOCOMPLETION@ 0000000180004f98     flags.obj
 0001:00003fb8       ??_C@_0BP@OIHAIGBK@MACROAREA_DIALOGAUTOCOMPLETION@ 0000000180004fb8     flags.obj
 0001:00003fd8       ??_C@_0BC@EIJFKPMK@MACROAREA_GRABBER@ 0000000180004fd8     flags.obj
 0001:00003ff0       ??_C@_0BC@GNLOCEJP@MACROAREA_DESKTOP@ 0000000180004ff0     flags.obj
 0001:00004008       ??_C@_0BB@JPEEDDOG@MACROAREA_COMMON@ 0000000180005008     flags.obj
 0001:00004020       ??_C@_0BD@DIKEKAIJ@MACROSTATE_NOMACRO@ 0000000180005020     flags.obj
 0001:00004038       ??_C@_0BF@PCDEFEGP@MACROSTATE_EXECUTING@ 0000000180005038     flags.obj
 0001:00004050       ??_C@_0BM@EJOFDENO@MACROSTATE_EXECUTING_COMMON@ 0000000180005050     flags.obj
 0001:00004070       ??_C@_0BF@BGODKPBB@MACROSTATE_RECORDING@ 0000000180005070     flags.obj
 0001:00004088       ??_C@_0BM@OICPADFE@MACROSTATE_RECORDING_COMMON@ 0000000180005088     flags.obj
 0001:000040a8       ??_C@_0N@CGFFMLBC@MPEC_SUCCESS@ 00000001800050a8     flags.obj
 0001:000040b8       ??_C@_0L@FJDDLDNN@MPEC_ERROR@ 00000001800050b8     flags.obj
 0001:000040c8       ??_C@_0N@IBOAADDD@FMVT_UNKNOWN@ 00000001800050c8     flags.obj
 0001:000040d8       ??_C@_0N@BDMFKEKE@FMVT_INTEGER@ 00000001800050d8     flags.obj
 0001:000040e8       ??_C@_0M@LFMLDDKI@FMVT_STRING@ 00000001800050e8     flags.obj
 0001:000040f8       ??_C@_0M@CKDAIOEN@FMVT_DOUBLE@ 00000001800050f8     flags.obj
 0001:00004108       ??_C@_0N@MHKOBOGF@FMVT_BOOLEAN@ 0000000180005108     flags.obj
 0001:00004118       ??_C@_0M@GKPDICDA@FMVT_BINARY@ 0000000180005118     flags.obj
 0001:00004128       ??_C@_0N@FMHCFNDF@FMVT_POINTER@ 0000000180005128     flags.obj
 0001:00004138       ??_C@_08DDPDBBNO@FMVT_NIL@ 0000000180005138     flags.obj
 0001:00004148       ??_C@_0L@DJIKMOJA@FMVT_ARRAY@ 0000000180005148     flags.obj
 0001:00004158       ??_C@_0L@PMDDFEBD@FMVT_PANEL@ 0000000180005158     flags.obj
 0001:00004168       ??_C@_0O@DCGKMPOM@WTYPE_DESKTOP@ 0000000180005168     flags.obj
 0001:00004178       ??_C@_0N@FNCFCPIG@WTYPE_PANELS@ 0000000180005178     flags.obj
 0001:00004188       ??_C@_0N@EJKMDMBK@WTYPE_VIEWER@ 0000000180005188     flags.obj
 0001:00004198       ??_C@_0N@HJNGGOKO@WTYPE_EDITOR@ 0000000180005198     flags.obj
 0001:000041a8       ??_C@_0N@PBFHKEGB@WTYPE_DIALOG@ 00000001800051a8     flags.obj
 0001:000041b8       ??_C@_0M@OMKLELFA@WTYPE_VMENU@ 00000001800051b8     flags.obj
 0001:000041c8       ??_C@_0L@BCEMNGOG@WTYPE_HELP@ 00000001800051c8     flags.obj
 0001:000041d8       ??_C@_0P@MMIDEOJJ@WTYPE_COMBOBOX@ 00000001800051d8     flags.obj
 0001:000041e8       ??_C@_0O@BHEBEELJ@WTYPE_GRABBER@ 00000001800051e8     flags.obj
 0001:000041f8       ??_C@_0M@NFHHCILL@WTYPE_HMENU@ 00000001800051f8     flags.obj
 0001:00004208       ??_C@_0BA@IPEAOBGN@TBPS_NOPROGRESS@ 0000000180005208     flags.obj
 0001:00004218       ??_C@_0BD@HMEHMDAL@TBPS_INDETERMINATE@ 0000000180005218     flags.obj
 0001:00004230       ??_C@_0M@KHLNKPHE@TBPS_NORMAL@ 0000000180005230     flags.obj
 0001:00004240       ??_C@_0L@DFDPCOFD@TBPS_ERROR@ 0000000180005240     flags.obj
 0001:00004250       ??_C@_0M@GHGAPHPP@TBPS_PAUSED@ 0000000180005250     flags.obj
 0001:00004260       ??_C@_0O@MCNCFBLF@VSMT_VIEWMODE@ 0000000180005260     flags.obj
 0001:00004270       ??_C@_09FLKONCNO@VSMT_WRAP@ 0000000180005270     flags.obj
 0001:00004280       ??_C@_0O@INKALKJK@VSMT_WORDWRAP@ 0000000180005280     flags.obj
 0001:00004290       ??_C@_08FNEFFFEL@VMT_TEXT@ 0000000180005290     flags.obj
 0001:000042a0       ??_C@_07FLIHDEDA@VMT_HEX@  00000001800052a0     flags.obj
 0001:000042a8       ??_C@_08BDDNDBMJ@VMT_DUMP@ 00000001800052a8     flags.obj
 0001:000042b8       ??_C@_07OJCLGDHJ@VE_READ@  00000001800052b8     flags.obj
 0001:000042c0       ??_C@_08JIBCCIDC@VE_CLOSE@ 00000001800052c0     flags.obj
 0001:000042d0       ??_C@_0M@FEFKOOMJ@VE_GOTFOCUS@ 00000001800052d0     flags.obj
 0001:000042e0       ??_C@_0N@ICHCAKIB@VE_KILLFOCUS@ 00000001800052e0     flags.obj
 0001:000042f0       ??_C@_07BLBPFFLB@EE_READ@  00000001800052f0     flags.obj
 0001:000042f8       ??_C@_07KJGPGPOC@EE_SAVE@  00000001800052f8     flags.obj
 0001:00004300       ??_C@_09NPOPIKMK@EE_REDRAW@ 0000000180005300     flags.obj
 0001:00004310       ??_C@_08NFPFGIG@EE_CLOSE@  0000000180005310     flags.obj
 0001:00004320       ??_C@_0M@CPNMNBMF@EE_GOTFOCUS@ 0000000180005320     flags.obj
 0001:00004330       ??_C@_0N@ILLPMAJF@EE_KILLFOCUS@ 0000000180005330     flags.obj
 0001:00004340       ??_C@_09MIOGFFI@EE_CHANGE@ 0000000180005340     flags.obj
 0001:00004350       ??_C@_0P@MBHAHBBG@DE_DLGPROCINIT@ 0000000180005350     flags.obj
 0001:00004360       ??_C@_0BC@BMFEJAMO@DE_DEFDLGPROCINIT@ 0000000180005360     flags.obj
 0001:00004378       ??_C@_0O@ICBCOJCG@DE_DLGPROCEND@ 0000000180005378     flags.obj
 0001:00004388       ??_C@_0BB@MNODJNPE@SE_COMMONSYNCHRO@ 0000000180005388     flags.obj
 0001:000043a0       ??_C@_0N@HKGMPMJE@ESPT_TABSIZE@ 00000001800053a0     flags.obj
 0001:000043b0       ??_C@_0BA@GOKHPFCK@ESPT_EXPANDTABS@ 00000001800053b0     flags.obj
 0001:000043c0       ??_C@_0BA@KOADDMLI@ESPT_AUTOINDENT@ 00000001800053c0     flags.obj
 0001:000043d0       ??_C@_0BF@LPNONOMF@ESPT_CURSORBEYONDEOL@ 00000001800053d0     flags.obj
 0001:000043e8       ??_C@_0BC@OECOCGLJ@ESPT_CHARCODEBASE@ 00000001800053e8     flags.obj
 0001:00004400       ??_C@_0O@PIAOJINE@ESPT_CODEPAGE@ 0000000180005400     flags.obj
 0001:00004410       ??_C@_0BG@HAPABMJH@ESPT_SAVEFILEPOSITION@ 0000000180005410     flags.obj
 0001:00004428       ??_C@_0O@KCPDJCKC@ESPT_LOCKMODE@ 0000000180005428     flags.obj
 0001:00004438       ??_C@_0BA@EIGIAOHM@ESPT_SETWORDDIV@ 0000000180005438     flags.obj
 0001:00004448       ??_C@_0BA@FGEHLJDF@ESPT_GETWORDDIV@ 0000000180005448     flags.obj
 0001:00004458       ??_C@_0BE@MACJBCFP@ESPT_SHOWWHITESPACE@ 0000000180005458     flags.obj
 0001:00004470       ??_C@_0M@FICNFPPA@ESPT_SETBOM@ 0000000180005470     flags.obj
 0001:00004480       ??_C@_09FLEMPKKP@EUR_BEGIN@ 0000000180005480     flags.obj
 0001:00004490       ??_C@_07DDJDFJCN@EUR_END@  0000000180005490     flags.obj
 0001:00004498       ??_C@_08FCONALGE@EUR_UNDO@ 0000000180005498     flags.obj
 0001:000044a8       ??_C@_08DHMMFAHF@EUR_REDO@ 00000001800054a8     flags.obj
 0001:000044b8       ??_C@_0O@PKOIFEBO@EXPAND_NOTABS@ 00000001800054b8     flags.obj
 0001:000044c8       ??_C@_0P@MLHPCNDM@EXPAND_ALLTABS@ 00000001800054c8     flags.obj
 0001:000044d8       ??_C@_0P@OONGIIBL@EXPAND_NEWTABS@ 00000001800054d8     flags.obj
 0001:000044e8       ??_C@_0BD@DKHPEOHH@EOPT_EXPANDALLTABS@ 00000001800054e8     flags.obj
 0001:00004500       ??_C@_0BG@BOINMDEK@EOPT_PERSISTENTBLOCKS@ 0000000180005500     flags.obj
 0001:00004518       ??_C@_0BG@PIIHHCAN@EOPT_DELREMOVESBLOCKS@ 0000000180005518     flags.obj
 0001:00004530       ??_C@_0BA@KPJEAKBD@EOPT_AUTOINDENT@ 0000000180005530     flags.obj
 0001:00004540       ??_C@_0BG@MBPADLG@EOPT_SAVEFILEPOSITION@ 0000000180005540     flags.obj
 0001:00004558       ??_C@_0BI@PFHCGCAI@EOPT_AUTODETECTCODEPAGE@ 0000000180005558     flags.obj
 0001:00004570       ??_C@_0BF@IMCOEIAL@EOPT_CURSORBEYONDEOL@ 0000000180005570     flags.obj
 0001:00004588       ??_C@_0BH@CJPAGGLC@EOPT_EXPANDONLYNEWTABS@ 0000000180005588     flags.obj
 0001:000045a0       ??_C@_0BE@DDKCDJDC@EOPT_SHOWWHITESPACE@ 00000001800055a0     flags.obj
 0001:000045b8       ??_C@_08HMMLONBH@EOPT_BOM@ 00000001800055b8     flags.obj
 0001:000045c8       ??_C@_0BD@CLLAKGOA@EOPT_SHOWLINEBREAK@ 00000001800055c8     flags.obj
 0001:000045e0       ??_C@_0BC@JCJEPKEC@EOPT_SHOWTITLEBAR@ 00000001800055e0     flags.obj
 0001:000045f8       ??_C@_0BA@KPGMOBKI@EOPT_SHOWKEYBAR@ 00000001800055f8     flags.obj
 0001:00004608       ??_C@_0BD@EFCFEAD@EOPT_SHOWSCROLLBAR@ 0000000180005608     flags.obj
 0001:00004620       ??_C@_0L@BJCBJJNB@BTYPE_NONE@ 0000000180005620     flags.obj
 0001:00004630       ??_C@_0N@OPHHGFPF@BTYPE_STREAM@ 0000000180005630     flags.obj
 0001:00004640       ??_C@_0N@EMEGNPLI@BTYPE_COLUMN@ 0000000180005640     flags.obj
 0001:00004650       ??_C@_0BB@BNPDAPGB@ECSTATE_MODIFIED@ 0000000180005650     flags.obj
 0001:00004668       ??_C@_0O@GBBGHDFM@ECSTATE_SAVED@ 0000000180005668     flags.obj
 0001:00004678       ??_C@_0P@BECIAJAM@ECSTATE_LOCKED@ 0000000180005678     flags.obj
 0001:00004688       ??_C@_0P@DOBJCNIG@ECTYPE_CHANGED@ 0000000180005688     flags.obj
 0001:00004698       ??_C@_0N@MDEFMEEA@ECTYPE_ADDED@ 0000000180005698     flags.obj
 0001:000046a8       ??_C@_0P@NMOJJPOB@ECTYPE_DELETED@ 00000001800056a8     flags.obj
 0001:000046b8       ??_C@_08HHHKLJPB@PLT_PATH@ 00000001800056b8     flags.obj
 0001:000046c8       ??_C@_08KBAMIIFB@PFM_GUID@ 00000001800056c8     flags.obj
 0001:000046d8       ??_C@_0P@KKEMMPNI@PFM_MODULENAME@ 00000001800056d8     flags.obj
 0001:000046e8       ??_C@_09BOODOHKD@FFT_PANEL@ 00000001800056e8     flags.obj
 0001:000046f8       ??_C@_0N@GMEDAGNH@FFT_FINDFILE@ 00000001800056f8     flags.obj
 0001:00004708       ??_C@_08KKCPIPGP@FFT_COPY@ 0000000180005708     flags.obj
 0001:00004718       ??_C@_0L@EKPDMFDD@FFT_SELECT@ 0000000180005718     flags.obj
 0001:00004728       ??_C@_0L@LGPEDLLD@FFT_CUSTOM@ 0000000180005728     flags.obj
 0001:00004738       ??_C@_0M@OIOMMFOE@FST_UNKNOWN@ 0000000180005738     flags.obj
 0001:00004748       ??_C@_0L@GGGOEGKJ@FST_SUBKEY@ 0000000180005748     flags.obj
 0001:00004758       ??_C@_09LFEEAJIC@FST_QWORD@ 0000000180005758     flags.obj
 0001:00004768       ??_C@_0L@LPMPBKDL@FST_STRING@ 0000000180005768     flags.obj
 0001:00004778       ??_C@_08EJJJCLIG@FST_DATA@ 0000000180005778     flags.obj
 0001:00004788       ??_C@_09OBBBBFPE@FSSF_ROOT@ 0000000180005788     flags.obj
 0001:00004798       ??_C@_0BB@HDKCPBIO@FSSF_HISTORY_CMD@ 0000000180005798     flags.obj
 0001:000047b0       ??_C@_0BE@BLPOFODL@FSSF_HISTORY_FOLDER@ 00000001800057b0     flags.obj
 0001:000047c8       ??_C@_0BC@NJCJCCNH@FSSF_HISTORY_VIEW@ 00000001800057c8     flags.obj
 0001:000047e0       ??_C@_0BC@CODELNPP@FSSF_HISTORY_EDIT@ 00000001800057e0     flags.obj
 0001:000047f8       ??_C@_0BG@IFGEMJIF@FSSF_HISTORY_EXTERNAL@ 00000001800057f8     flags.obj
 0001:00004810       ??_C@_0BG@DGAKDKFK@FSSF_FOLDERSHORTCUT_0@ 0000000180005810     flags.obj
 0001:00004828       ??_C@_0BG@CPBBALBL@FSSF_FOLDERSHORTCUT_1@ 0000000180005828     flags.obj
 0001:00004840       ??_C@_0BG@EDMFINI@FSSF_FOLDERSHORTCUT_2@ 0000000180005840     flags.obj
 0001:00004858       ??_C@_0BG@BNCHGJJJ@FSSF_FOLDERSHORTCUT_3@ 0000000180005858     flags.obj
 0001:00004870       ??_C@_0BG@FCGGPPFO@FSSF_FOLDERSHORTCUT_4@ 0000000180005870     flags.obj
 0001:00004888       ??_C@_0BG@ELHNMOBP@FSSF_FOLDERSHORTCUT_5@ 0000000180005888     flags.obj
 0001:000048a0       ??_C@_0BG@GAFAJNNM@FSSF_FOLDERSHORTCUT_6@ 00000001800058a0     flags.obj
 0001:000048b8       ??_C@_0BG@HJELKMJN@FSSF_FOLDERSHORTCUT_7@ 00000001800058b8     flags.obj
 0001:000048d0       ??_C@_0BG@PONDLAFC@FSSF_FOLDERSHORTCUT_8@ 00000001800058d0     flags.obj
 0001:000048e8       ??_C@_0BG@OHMIIBBD@FSSF_FOLDERSHORTCUT_9@ 00000001800058e8     flags.obj
 0001:00004900       ??_C@_0BD@PBIEGEHP@FSSF_CONFIRMATIONS@ 0000000180005900     flags.obj
 0001:00004918       ??_C@_0M@PIGDMPJB@FSSF_SYSTEM@ 0000000180005918     flags.obj
 0001:00004928       ??_C@_0L@LBFNJGFB@FSSF_PANEL@ 0000000180005928     flags.obj
 0001:00004938       ??_C@_0M@KJLIHDEL@FSSF_EDITOR@ 0000000180005938     flags.obj
 0001:00004948       ??_C@_0M@KEMGKEOF@FSSF_SCREEN@ 0000000180005948     flags.obj
 0001:00004958       ??_C@_0M@CBDJLJIE@FSSF_DIALOG@ 0000000180005958     flags.obj
 0001:00004968       ??_C@_0P@OCDADNBF@FSSF_INTERFACE@ 0000000180005968     flags.obj
 0001:00004978       ??_C@_0BB@GBBEBNKE@FSSF_PANELLAYOUT@ 0000000180005978     flags.obj
 0001:00004990       ??_C@_0M@JCGHGLJF@PSL_ROAMING@ 0000000180005990     flags.obj
 0001:000049a0       ??_C@_09EDBNDHCM@PSL_LOCAL@ 00000001800059a0     flags.obj
 0001:000049b0       ??_C@_07BPEFOPGM@FCT_ANY@  00000001800059b0     flags.obj
 0001:000049b8       ??_C@_0L@CDAEILNM@FCT_STREAM@ 00000001800059b8     flags.obj
 0001:000049c8       ??_C@_0L@IADFDBJB@FCT_COLUMN@ 00000001800059c8     flags.obj
 0001:000049d8       ??_C@_0O@KJFMBLFE@LINK_HARDLINK@ 00000001800059d8     flags.obj
 0001:000049e8       ??_C@_0O@OOAFIIDA@LINK_JUNCTION@ 00000001800059e8     flags.obj
 0001:000049f8       ??_C@_0O@FIAPLKLH@LINK_VOLMOUNT@ 00000001800059f8     flags.obj
 0001:00004a08       ??_C@_0BB@JDBEPJDK@LINK_SYMLINKFILE@ 0000000180005a08     flags.obj
 0001:00004a20       ??_C@_0BA@GFPIOFMG@LINK_SYMLINKDIR@ 0000000180005a20     flags.obj
 0001:00004a30       ??_C@_0N@PJENIJFN@LINK_SYMLINK@ 0000000180005a30     flags.obj
 0001:00004a40       ??_C@_08HNOHKPBK@CPM_FULL@ 0000000180005a40     flags.obj
 0001:00004a50       ??_C@_08LAEGFKJE@CPM_REAL@ 0000000180005a50     flags.obj
 0001:00004a60       ??_C@_0L@NPJNPCJM@CPM_NATIVE@ 0000000180005a60     flags.obj
 0001:00004a70       ??_C@_0L@NCFOENCC@VS_RELEASE@ 0000000180005a70     flags.obj
 0001:00004a80       ??_C@_08BDGLHPMJ@VS_ALPHA@ 0000000180005a80     flags.obj
 0001:00004a90       ??_C@_07OKFPMINB@VS_BETA@  0000000180005a90     flags.obj
 0001:00004a98       ??_C@_05MMFLPJEB@VS_RC@    0000000180005a98     flags.obj
 0001:00004aa0       ??_C@_0BC@OOKLINPG@OPEN_LEFTDISKMENU@ 0000000180005aa0     flags.obj
 0001:00004ab8       ??_C@_0BB@CEFDHHLF@OPEN_PLUGINSMENU@ 0000000180005ab8     flags.obj
 0001:00004ad0       ??_C@_0O@IEJHJCNB@OPEN_FINDLIST@ 0000000180005ad0     flags.obj
 0001:00004ae0       ??_C@_0O@OGDCDPNG@OPEN_SHORTCUT@ 0000000180005ae0     flags.obj
 0001:00004af0       ??_C@_0BB@JHCCMIPF@OPEN_COMMANDLINE@ 0000000180005af0     flags.obj
 0001:00004b08       ??_C@_0M@DMJLHMGM@OPEN_EDITOR@ 0000000180005b08     flags.obj
 0001:00004b18       ??_C@_0M@MOBCONI@OPEN_VIEWER@ 0000000180005b18     flags.obj
 0001:00004b28       ??_C@_0P@LCDNLGDE@OPEN_FILEPANEL@ 0000000180005b28     flags.obj
 0001:00004b38       ??_C@_0M@LEBKLGKD@OPEN_DIALOG@ 0000000180005b38     flags.obj
 0001:00004b48       ??_C@_0N@CBHPGAKB@OPEN_ANALYSE@ 0000000180005b48     flags.obj
 0001:00004b58       ??_C@_0BD@NFNGGFHI@OPEN_RIGHTDISKMENU@ 0000000180005b58     flags.obj
 0001:00004b70       ??_C@_0P@FOKOAMLC@OPEN_FROMMACRO@ 0000000180005b70     flags.obj
 0001:00004b80       ??_C@_0O@NEDDJIHC@OPEN_LUAMACRO@ 0000000180005b80     flags.obj
 0001:00004b90       ??_C@_0P@GBMLNMMI@MCT_MACROPARSE@ 0000000180005b90     flags.obj
 0001:00004ba0       ??_C@_0P@GNPFPCF@MCT_LOADMACROS@ 0000000180005ba0     flags.obj
 0001:00004bb0       ??_C@_0P@HMDDACMI@MCT_ENUMMACROS@ 0000000180005bb0     flags.obj
 0001:00004bc0       ??_C@_0BA@MOCJHMJK@MCT_WRITEMACROS@ 0000000180005bc0     flags.obj
 0001:00004bd0       ??_C@_0N@IGJGAHKE@MCT_GETMACRO@ 0000000180005bd0     flags.obj
 0001:00004be0       ??_C@_0BC@NFGGBILF@MCT_RECORDEDMACRO@ 0000000180005be0     flags.obj
 0001:00004bf8       ??_C@_0N@OLCKOJMI@MCT_DELMACRO@ 0000000180005bf8     flags.obj
 0001:00004c08       ??_C@_0BC@NALHIHJ@MCT_RUNSTARTMACRO@ 0000000180005c08     flags.obj
 0001:00004c20       ??_C@_0P@HOMHAEFB@MCT_EXECSTRING@ 0000000180005c20     flags.obj
 0001:00004c30       ??_C@_0O@CDBDPKIC@MCT_PANELSORT@ 0000000180005c30     flags.obj
 0001:00004c40       ??_C@_0BH@PKKJIOHM@MCT_GETCUSTOMSORTMODES@ 0000000180005c40     flags.obj
 0001:00004c58       ??_C@_0N@FOPIOCHO@MCT_ADDMACRO@ 0000000180005c58     flags.obj
 0001:00004c68       ??_C@_0N@BHFJFHA@MCT_KEYMACRO@ 0000000180005c68     flags.obj
 0001:00004c78       ??_C@_0BB@LPDAOGB@MCT_CANPANELSORT@ 0000000180005c78     flags.obj
 0001:00004c90       ??_C@_0BC@IOECJI@MPRT_NORMALFINISH@ 0000000180005c90     flags.obj
 0001:00004ca8       ??_C@_0BB@PMCBIGCA@MPRT_ERRORFINISH@ 0000000180005ca8     flags.obj
 0001:00004cc0       ??_C@_0BA@BCBAEEOI@MPRT_ERRORPARSE@ 0000000180005cc0     flags.obj
 0001:00004cd0       ??_C@_09EJDAADCN@MPRT_KEYS@ 0000000180005cd0     flags.obj
 0001:00004ce0       ??_C@_0L@GEHHCKFA@MPRT_PRINT@ 0000000180005ce0     flags.obj
 0001:00004cf0       ??_C@_0BA@OBIDLEIM@MPRT_PLUGINCALL@ 0000000180005cf0     flags.obj
 0001:00004d00       ??_C@_0BA@EJFFOAMM@MPRT_PLUGINMENU@ 0000000180005d00     flags.obj
 0001:00004d10       ??_C@_0BC@LEDOPMKI@MPRT_PLUGINCONFIG@ 0000000180005d10     flags.obj
 0001:00004d28       ??_C@_0BD@HHINMPPI@MPRT_PLUGINCOMMAND@ 0000000180005d28     flags.obj
 0001:00004d40       ??_C@_0O@IEMNLPAB@MPRT_USERMENU@ 0000000180005d40     flags.obj
 0001:00004d50       ??_C@_0BA@GEAFHJNF@MPRT_HASNOMACRO@ 0000000180005d50     flags.obj
 0001:00004d60       ??_C@_0BC@PNCKAHJO@FE_CHANGEVIEWMODE@ 0000000180005d60     flags.obj
 0001:00004d78       ??_C@_09DENIDBMJ@FE_REDRAW@ 0000000180005d78     flags.obj
 0001:00004d88       ??_C@_07CLNPDBLG@FE_IDLE@  0000000180005d88     flags.obj
 0001:00004d90       ??_C@_08DENCGKED@FE_CLOSE@ 0000000180005d90     flags.obj
 0001:00004da0       ??_C@_08MOMCCKPB@FE_BREAK@ 0000000180005da0     flags.obj
 0001:00004db0       ??_C@_0L@LELAIPLL@FE_COMMAND@ 0000000180005db0     flags.obj
 0001:00004dc0       ??_C@_0M@FIECADDF@FE_GOTFOCUS@ 0000000180005dc0     flags.obj
 0001:00004dd0       ??_C@_0N@DGHFKMFL@FE_KILLFOCUS@ 0000000180005dd0     flags.obj
 0001:00004de0       ??_C@_0BE@PONEECEM@FE_CHANGESORTPARAMS@ 0000000180005de0     flags.obj
 0001:00004df8       ??_C@_0M@HNDHDHHO@FCF_FG_4BIT@ 0000000180005df8     flags.obj
 0001:00004e08       ??_C@_0M@PJHNDJIE@FCF_BG_4BIT@ 0000000180005e08     flags.obj
 0001:00004e18       ??_C@_0N@HMKJBHOA@FCF_4BITMASK@ 0000000180005e18     flags.obj
 0001:00004e28       ??_C@_0BB@PJFLJJLD@FCF_RAWATTR_MASK@ 0000000180005e28     flags.obj
 0001:00004e40       ??_C@_0BC@NKBLNNIA@FCF_EXTENDEDFLAGS@ 0000000180005e40     flags.obj
 0001:00004e58       ??_C@_0M@LFMGCKHG@FCF_FG_BOLD@ 0000000180005e58     flags.obj
 0001:00004e68       ??_C@_0O@FAPDECBF@FCF_FG_ITALIC@ 0000000180005e68     flags.obj
 0001:00004e78       ??_C@_0BB@NPEFGEGA@FCF_FG_UNDERLINE@ 0000000180005e78     flags.obj
 0001:00004e90       ??_C@_0O@LGBGBIGB@FCF_STYLEMASK@ 0000000180005e90     flags.obj
 0001:00004ea0       ??_C@_08BKNBBLHK@FCF_NONE@ 0000000180005ea0     flags.obj
 0001:00004eb0       ??_C@_08FKIDFHCM@CDF_NONE@ 0000000180005eb0     flags.obj
 0001:00004ec0       ??_C@_0N@ELMEMNDH@FMSG_WARNING@ 0000000180005ec0     flags.obj
 0001:00004ed0       ??_C@_0P@HHIGLJAP@FMSG_ERRORTYPE@ 0000000180005ed0     flags.obj
 0001:00004ee0       ??_C@_0BE@FHOOILPH@FMSG_KEEPBACKGROUND@ 0000000180005ee0     flags.obj
 0001:00004ef8       ??_C@_0P@KBEMNNEP@FMSG_LEFTALIGN@ 0000000180005ef8     flags.obj
 0001:00004f08       ??_C@_0O@FOIOKDHJ@FMSG_ALLINONE@ 0000000180005f08     flags.obj
 0001:00004f18       ??_C@_0L@BGALGPOK@FMSG_MB_OK@ 0000000180005f18     flags.obj
 0001:00004f28       ??_C@_0BB@JGAPGIEP@FMSG_MB_OKCANCEL@ 0000000180005f28     flags.obj
 0001:00004f40       ??_C@_0BJ@BKJADAHA@FMSG_MB_ABORTRETRYIGNORE@ 0000000180005f40     flags.obj
 0001:00004f60       ??_C@_0O@GPCAPHCL@FMSG_MB_YESNO@ 0000000180005f60     flags.obj
 0001:00004f70       ??_C@_0BE@IBNOLCGP@FMSG_MB_YESNOCANCEL@ 0000000180005f70     flags.obj
 0001:00004f88       ??_C@_0BE@OCLAIENB@FMSG_MB_RETRYCANCEL@ 0000000180005f88     flags.obj
 0001:00004fa0       ??_C@_09NEGPLEAH@FMSG_NONE@ 0000000180005fa0     flags.obj
 0001:00004fb0       ??_C@_0N@DHJCDIKM@DIF_BOXCOLOR@ 0000000180005fb0     flags.obj
 0001:00004fc0       ??_C@_09IAEPIICA@DIF_GROUP@ 0000000180005fc0     flags.obj
 0001:00004fd0       ??_C@_0N@GCKJNBCM@DIF_LEFTTEXT@ 0000000180005fd0     flags.obj
 0001:00004fe0       ??_C@_0P@BGPBEDHH@DIF_MOVESELECT@ 0000000180005fe0     flags.obj
 0001:00004ff0       ??_C@_0BC@PDKFKKEI@DIF_SHOWAMPERSAND@ 0000000180005ff0     flags.obj
 0001:00005008       ??_C@_0BA@BLCOKAAO@DIF_CENTERGROUP@ 0000000180006008     flags.obj
 0001:00005018       ??_C@_0P@MKFBJPOB@DIF_NOBRACKETS@ 0000000180006018     flags.obj
 0001:00005028       ??_C@_0BF@JBCDBJCL@DIF_MANUALADDHISTORY@ 0000000180006028     flags.obj
 0001:00005040       ??_C@_0O@JKNMBNLA@DIF_SEPARATOR@ 0000000180006040     flags.obj
 0001:00005050       ??_C@_0P@CGILDLOA@DIF_SEPARATOR2@ 0000000180006050     flags.obj
 0001:00005060       ??_C@_0L@NBPFNGLB@DIF_EDITOR@ 0000000180006060     flags.obj
 0001:00005070       ??_C@_0BE@PFICAGJF@DIF_LISTNOAMPERSAND@ 0000000180006070     flags.obj
 0001:00005088       ??_C@_0O@FFJNBMAD@DIF_LISTNOBOX@ 0000000180006088     flags.obj
 0001:00005098       ??_C@_0M@IPFBMFDN@DIF_HISTORY@ 0000000180006098     flags.obj
 0001:000050a8       ??_C@_0P@EGFAEEDC@DIF_BTNNOCLOSE@ 00000001800060a8     flags.obj
 0001:000050b8       ??_C@_0P@KOJCCCGB@DIF_CENTERTEXT@ 00000001800060b8     flags.obj
 0001:000050c8       ??_C@_0BC@ODEMBOPK@DIF_SEPARATORUSER@ 00000001800060c8     flags.obj
 0001:000050e0       ??_C@_0O@IKJBMPOF@DIF_SETSHIELD@ 00000001800060e0     flags.obj
 0001:000050f0       ??_C@_0P@EEJEDBLH@DIF_EDITEXPAND@ 00000001800060f0     flags.obj
 0001:00005100       ??_C@_0BB@EIMEKEFP@DIF_DROPDOWNLIST@ 0000000180006100     flags.obj
 0001:00005118       ??_C@_0BD@MNGIOLFF@DIF_USELASTHISTORY@ 0000000180006118     flags.obj
 0001:00005130       ??_C@_0N@MOCGNIKC@DIF_MASKEDIT@ 0000000180006130     flags.obj
 0001:00005140       ??_C@_0BD@LPDHCLJI@DIF_LISTTRACKMOUSE@ 0000000180006140     flags.obj
 0001:00005158       ??_C@_0BK@LEFIBDOA@DIF_LISTTRACKMOUSEINFOCUS@ 0000000180006158     flags.obj
 0001:00005178       ??_C@_0BC@JNLDMGBD@DIF_SELECTONENTRY@ 0000000180006178     flags.obj
 0001:00005190       ??_C@_0L@KKNJDNBK@DIF_3STATE@ 0000000180006190     flags.obj
 0001:000051a0       ??_C@_0N@GBGHICKO@DIF_EDITPATH@ 00000001800061a0     flags.obj
 0001:000051b0       ??_C@_0BB@NPNALIGO@DIF_LISTWRAPMODE@ 00000001800061b0     flags.obj
 0001:000051c8       ??_C@_0BD@MFOKKGGF@DIF_NOAUTOCOMPLETE@ 00000001800061c8     flags.obj
 0001:000051e0       ??_C@_0BG@MONEJILE@DIF_LISTAUTOHIGHLIGHT@ 00000001800061e0     flags.obj
 0001:000051f8       ??_C@_0BA@JNOKLHOL@DIF_LISTNOCLOSE@ 00000001800061f8     flags.obj
 0001:00005208       ??_C@_0BB@GMKDKOOP@DIF_EDITPATHEXEC@ 0000000180006208     flags.obj
 0001:00005220       ??_C@_0L@EPNFOPAK@DIF_HIDDEN@ 0000000180006220     flags.obj
 0001:00005230       ??_C@_0N@KOGKCAKJ@DIF_READONLY@ 0000000180006230     flags.obj
 0001:00005240       ??_C@_0M@NLLDINIM@DIF_NOFOCUS@ 0000000180006240     flags.obj
 0001:00005250       ??_C@_0M@HCFLMDHK@DIF_DISABLE@ 0000000180006250     flags.obj
 0001:00005260       ??_C@_0BC@CHAAKEJO@DIF_DEFAULTBUTTON@ 0000000180006260     flags.obj
 0001:00005278       ??_C@_09LCJIOEMN@DIF_FOCUS@ 0000000180006278     flags.obj
 0001:00005288       ??_C@_0O@KJADCBBN@DIF_RIGHTTEXT@ 0000000180006288     flags.obj
 0001:00005298       ??_C@_0N@LAEOODAD@DIF_WORDWRAP@ 0000000180006298     flags.obj
 0001:000052a8       ??_C@_08KFOHCPDE@DIF_NONE@ 00000001800062a8     flags.obj
 0001:000052b8       ??_C@_0N@EDHAFIIL@LIF_SELECTED@ 00000001800062b8     flags.obj
 0001:000052c8       ??_C@_0M@BMGIEAIL@LIF_CHECKED@ 00000001800062c8     flags.obj
 0001:000052d8       ??_C@_0O@KJIFADIG@LIF_SEPARATOR@ 00000001800062d8     flags.obj
 0001:000052e8       ??_C@_0M@HEFHLFIE@LIF_DISABLE@ 00000001800062e8     flags.obj
 0001:000052f8       ??_C@_0L@PKDDGEEG@LIF_GRAYED@ 00000001800062f8     flags.obj
 0001:00005308       ??_C@_0L@PFBGAOEP@LIF_HIDDEN@ 0000000180006308     flags.obj
 0001:00005318       ??_C@_0BD@HEPCOIEH@LIF_DELETEUSERDATA@ 0000000180006318     flags.obj
 0001:00005330       ??_C@_08BODPINCM@LIF_NONE@ 0000000180006330     flags.obj
 0001:00005340       ??_C@_0BC@BGAENNBJ@LIFIND_EXACTMATCH@ 0000000180006340     flags.obj
 0001:00005358       ??_C@_0M@FPOGKIGO@LIFIND_NONE@ 0000000180006358     flags.obj
 0001:00005368       ??_C@_0BA@OOIEKCFB@LINFO_SHOWNOBOX@ 0000000180006368     flags.obj
 0001:00005378       ??_C@_0BE@DECCEGNO@LINFO_AUTOHIGHLIGHT@ 0000000180006378     flags.obj
 0001:00005390       ??_C@_0BH@BADLEILJ@LINFO_REVERSEHIGHLIGHT@ 0000000180006390     flags.obj
 0001:000053a8       ??_C@_0P@KLBMHNCG@LINFO_WRAPMODE@ 00000001800063a8     flags.obj
 0001:000053b8       ??_C@_0BE@OHJCOKAE@LINFO_SHOWAMPERSAND@ 00000001800063b8     flags.obj
 0001:000053d0       ??_C@_0L@EPACPANF@LINFO_NONE@ 00000001800063d0     flags.obj
 0001:000053e0       ??_C@_0N@OLGDMHKL@FDLG_WARNING@ 00000001800063e0     flags.obj
 0001:000053f0       ??_C@_0BB@DKMEBDJJ@FDLG_SMALLDIALOG@ 00000001800063f0     flags.obj
 0001:00005408       ??_C@_0BC@ONGLDAJN@FDLG_NODRAWSHADOW@ 0000000180006408     flags.obj
 0001:00005420       ??_C@_0BB@NPLEEAKK@FDLG_NODRAWPANEL@ 0000000180006420     flags.obj
 0001:00005438       ??_C@_0BG@GHNOOENB@FDLG_KEEPCONSOLETITLE@ 0000000180006438     flags.obj
 0001:00005450       ??_C@_0O@MKFABCNE@FDLG_NONMODAL@ 0000000180006450     flags.obj
 0001:00005460       ??_C@_09NNFHCBNL@FDLG_NONE@ 0000000180006460     flags.obj
 0001:00005470       ??_C@_0N@JOOGIBAO@MIF_SELECTED@ 0000000180006470     flags.obj
 0001:00005480       ??_C@_0M@IHMNAMOE@MIF_CHECKED@ 0000000180006480     flags.obj
 0001:00005490       ??_C@_0O@DEIKOCPA@MIF_SEPARATOR@ 0000000180006490     flags.obj
 0001:000054a0       ??_C@_0M@OPPCPJOL@MIF_DISABLE@ 00000001800064a0     flags.obj
 0001:000054b0       ??_C@_0L@DLLNLLIG@MIF_GRAYED@ 00000001800064b0     flags.obj
 0001:000054c0       ??_C@_0L@DEJINBIP@MIF_HIDDEN@ 00000001800064c0     flags.obj
 0001:000054d0       ??_C@_08JEEJJGP@MIF_NONE@  00000001800064d0     flags.obj
 0001:000054e0       ??_C@_0BE@FALMPPJK@FMENU_SHOWAMPERSAND@ 00000001800064e0     flags.obj
 0001:000054f8       ??_C@_0P@HICDNKDJ@FMENU_WRAPMODE@ 00000001800064f8     flags.obj
 0001:00005508       ??_C@_0BE@IDAMFDEA@FMENU_AUTOHIGHLIGHT@ 0000000180006508     flags.obj
 0001:00005520       ??_C@_0BL@OKAIKPMN@FMENU_REVERSEAUTOHIGHLIGHT@ 0000000180006520     flags.obj
 0001:00005540       ??_C@_0BJ@FCEONOJC@FMENU_CHANGECONSOLETITLE@ 0000000180006540     flags.obj
 0001:00005560       ??_C@_0L@DGFIEOMD@FMENU_NONE@ 0000000180006560     flags.obj
 0001:00005570       ??_C@_0O@JEAJLDHC@PPIF_SELECTED@ 0000000180006570     flags.obj
 0001:00005580       ??_C@_0BC@LPBDBIOM@PPIF_PROCESSDESCR@ 0000000180006580     flags.obj
 0001:00005598       ??_C@_09OIFMMGNJ@PPIF_NONE@ 0000000180006598     flags.obj
 0001:000055a8       ??_C@_0BC@BONLDOOD@PFLAGS_SHOWHIDDEN@ 00000001800065a8     flags.obj
 0001:000055c0       ??_C@_0BB@BCAJEJEH@PFLAGS_HIGHLIGHT@ 00000001800065c0     flags.obj
 0001:000055d8       ??_C@_0BI@BFAFODJ@PFLAGS_REVERSESORTORDER@ 00000001800065d8     flags.obj
 0001:000055f0       ??_C@_0BF@KJNCJPKN@PFLAGS_USESORTGROUPS@ 00000001800065f0     flags.obj
 0001:00005608       ??_C@_0BF@LBBAIOCD@PFLAGS_SELECTEDFIRST@ 0000000180006608     flags.obj
 0001:00005620       ??_C@_0BB@KDANIJNM@PFLAGS_REALNAMES@ 0000000180006620     flags.obj
 0001:00005638       ??_C@_0BB@ILEHDKFJ@PFLAGS_PANELLEFT@ 0000000180006638     flags.obj
 0001:00005650       ??_C@_0BI@EHHAJLOH@PFLAGS_DIRECTORIESFIRST@ 0000000180006650     flags.obj
 0001:00005668       ??_C@_0BA@KJEPHDOM@PFLAGS_USECRC32@ 0000000180006668     flags.obj
 0001:00005678       ??_C@_0O@DBPJGING@PFLAGS_PLUGIN@ 0000000180006678     flags.obj
 0001:00005688       ??_C@_0P@MLDEBNPK@PFLAGS_VISIBLE@ 0000000180006688     flags.obj
 0001:00005698       ??_C@_0N@EOFAELOJ@PFLAGS_FOCUS@ 0000000180006698     flags.obj
 0001:000056a8       ??_C@_0BI@EOCCAHFA@PFLAGS_ALTERNATIVENAMES@ 00000001800066a8     flags.obj
 0001:000056c0       ??_C@_0BA@GHMDCHHI@PFLAGS_SHORTCUT@ 00000001800066c0     flags.obj
 0001:000056d0       ??_C@_0M@NEMAHHGP@PFLAGS_NONE@ 00000001800066d0     flags.obj
 0001:000056e0       ??_C@_0M@IDNADAFL@VF_NONMODAL@ 00000001800066e0     flags.obj
 0001:000056f0       ??_C@_0BB@OCDDPIKL@VF_DELETEONCLOSE@ 00000001800066f0     flags.obj
 0001:00005708       ??_C@_0N@LDHALKKM@VF_ENABLE_F6@ 0000000180006708     flags.obj
 0001:00005718       ??_C@_0BC@DLGKMECC@VF_DISABLEHISTORY@ 0000000180006718     flags.obj
 0001:00005730       ??_C@_0BD@DHJCMLFI@VF_IMMEDIATERETURN@ 0000000180006730     flags.obj
 0001:00005748       ??_C@_0BJ@OGNFHEJG@VF_DELETEONLYFILEONCLOSE@ 0000000180006748     flags.obj
 0001:00005768       ??_C@_07CJJFHP@VF_NONE@    0000000180006768     flags.obj
 0001:00005770       ??_C@_0M@PIFGAPFH@EF_NONMODAL@ 0000000180006770     flags.obj
 0001:00005780       ??_C@_0N@DBHFPBEO@EF_CREATENEW@ 0000000180006780     flags.obj
 0001:00005790       ??_C@_0N@LKLNHALI@EF_ENABLE_F6@ 0000000180006790     flags.obj
 0001:000057a0       ??_C@_0BC@PPEPEFFI@EF_DISABLEHISTORY@ 00000001800067a0     flags.obj
 0001:000057b8       ??_C@_0BB@KGPIDKFC@EF_DELETEONCLOSE@ 00000001800067b8     flags.obj
 0001:000057d0       ??_C@_0BD@IHIGHGPL@EF_IMMEDIATERETURN@ 00000001800067d0     flags.obj
 0001:000057e8       ??_C@_0BJ@ILCPOFKL@EF_DELETEONLYFILEONCLOSE@ 00000001800067e8     flags.obj
 0001:00005808       ??_C@_09IJMPFPLB@EF_LOCKED@ 0000000180006808     flags.obj
 0001:00005818       ??_C@_0BC@GFHJGKD@EF_DISABLESAVEPOS@ 0000000180006818     flags.obj
 0001:00005830       ??_C@_0BB@NILAHAFO@EF_OPENMODE_MASK@ 0000000180006830     flags.obj
 0001:00005848       ??_C@_0BC@GAIDEJIA@EF_OPENMODE_QUERY@ 0000000180006848     flags.obj
 0001:00005860       ??_C@_0BG@BFKJJBAG@EF_OPENMODE_NEWIFOPEN@ 0000000180006860     flags.obj
 0001:00005878       ??_C@_0BI@KGOKGPEI@EF_OPENMODE_USEEXISTING@ 0000000180006878     flags.obj
 0001:00005890       ??_C@_0BI@EJBKKDJ@EF_OPENMODE_BREAKIFOPEN@ 0000000180006890     flags.obj
 0001:000058a8       ??_C@_0BJ@MOLGCBMH@EF_OPENMODE_RELOADIFOPEN@ 00000001800068a8     flags.obj
 0001:000058c8       ??_C@_07MBPCONNA@EN_NONE@  00000001800068c8     flags.obj
 0001:000058d0       ??_C@_0BC@HHNGCBAM@FHELP_NOSHOWERROR@ 00000001800068d0     flags.obj
 0001:000058e8       ??_C@_0P@GANNLHEJ@FHELP_SELFHELP@ 00000001800068e8     flags.obj
 0001:000058f8       ??_C@_0O@FLGGLFLC@FHELP_FARHELP@ 00000001800068f8     flags.obj
 0001:00005908       ??_C@_0BB@KNKDPNI@FHELP_CUSTOMFILE@ 0000000180006908     flags.obj
 0001:00005920       ??_C@_0BB@IHFFPJJA@FHELP_CUSTOMPATH@ 0000000180006920     flags.obj
 0001:00005938       ??_C@_0L@OOIMFPBD@FHELP_GUID@ 0000000180006938     flags.obj
 0001:00005948       ??_C@_0BC@PNPOIHMG@FHELP_USECONTENTS@ 0000000180006948     flags.obj
 0001:00005960       ??_C@_0L@MAGMKNFN@FHELP_NONE@ 0000000180006960     flags.obj
 0001:00005970       ??_C@_0BE@GEGKIINM@KMFLAGS_SILENTCHECK@ 0000000180006970     flags.obj
 0001:00005988       ??_C@_0BM@BBOPLPKC@KMFLAGS_NOSENDKEYSTOPLUGINS@ 0000000180006988     flags.obj
 0001:000059a8       ??_C@_0BF@PHHPAAOK@KMFLAGS_ENABLEOUTPUT@ 00000001800069a8     flags.obj
 0001:000059c0       ??_C@_0BB@NCECNBPK@KMFLAGS_LANGMASK@ 00000001800069c0     flags.obj
 0001:000059d8       ??_C@_0M@HFBACHCP@KMFLAGS_LUA@ 00000001800069d8     flags.obj
 0001:000059e8       ??_C@_0BD@JHNPMIGP@KMFLAGS_MOONSCRIPT@ 00000001800069e8     flags.obj
 0001:00005a00       ??_C@_0N@GIJCDFJI@KMFLAGS_NONE@ 0000000180006a00     flags.obj
 0001:00005a10       ??_C@_0O@GKOLBMFK@AKMFLAGS_NONE@ 0000000180006a10     flags.obj
 0001:00005a20       ??_C@_0P@LMBMJIMF@FSETCLR_REDRAW@ 0000000180006a20     flags.obj
 0001:00005a30       ??_C@_0N@LCOHPDHN@FSETCLR_NONE@ 0000000180006a30     flags.obj
 0001:00005a40       ??_C@_0N@MLMCEKPH@WIF_MODIFIED@ 0000000180006a40     flags.obj
 0001:00005a50       ??_C@_0M@ICPAPCOF@WIF_CURRENT@ 0000000180006a50     flags.obj
 0001:00005a60       ??_C@_09FPGEBDGO@WIF_MODAL@ 0000000180006a60     flags.obj
 0001:00005a70       ??_C@_08DAKKFBIA@WIF_NONE@ 0000000180006a70     flags.obj
 0001:00005a80       ??_C@_0BG@JMJAOELH@VOPT_SAVEFILEPOSITION@ 0000000180006a80     flags.obj
 0001:00005a98       ??_C@_0BI@NCAHLEBN@VOPT_AUTODETECTCODEPAGE@ 0000000180006a98     flags.obj
 0001:00005ab0       ??_C@_0BC@FGLBHLDI@VOPT_SHOWTITLEBAR@ 0000000180006ab0     flags.obj
 0001:00005ac8       ??_C@_0BA@GAIDGLME@VOPT_SHOWKEYBAR@ 0000000180006ac8     flags.obj
 0001:00005ad8       ??_C@_0BD@LEEGOJKA@VOPT_SHOWSCROLLBAR@ 0000000180006ad8     flags.obj
 0001:00005af0       ??_C@_0P@NEIKPMJJ@VOPT_QUICKVIEW@ 0000000180006af0     flags.obj
 0001:00005b00       ??_C@_09FIOJMNJ@VOPT_NONE@ 0000000180006b00     flags.obj
 0001:00005b10       ??_C@_0N@ILNDJNNO@VSMFL_REDRAW@ 0000000180006b10     flags.obj
 0001:00005b20       ??_C@_0L@DLLCFLOD@VSMFL_NONE@ 0000000180006b20     flags.obj
 0001:00005b30       ??_C@_0N@GHEHKHJN@VSP_NOREDRAW@ 0000000180006b30     flags.obj
 0001:00005b40       ??_C@_0M@LHNGMHFO@VSP_PERCENT@ 0000000180006b40     flags.obj
 0001:00005b50       ??_C@_0N@JGGGCNIP@VSP_RELATIVE@ 0000000180006b50     flags.obj
 0001:00005b60       ??_C@_0BA@JKDMJLJG@VSP_NORETNEWPOS@ 0000000180006b60     flags.obj
 0001:00005b70       ??_C@_08MOKEMBNE@VSP_NONE@ 0000000180006b70     flags.obj
 0001:00005b80       ??_C@_08FAPBJAKB@VMF_WRAP@ 0000000180006b80     flags.obj
 0001:00005b90       ??_C@_0N@GHBDMLON@VMF_WORDWRAP@ 0000000180006b90     flags.obj
 0001:00005ba0       ??_C@_08KDJLELDJ@VMF_NONE@ 0000000180006ba0     flags.obj
 0001:00005bb0       ??_C@_0BB@EDGIEBDF@ECF_TABMARKFIRST@ 0000000180006bb0     flags.obj
 0001:00005bc8       ??_C@_0BD@DKGCCJNG@ECF_TABMARKCURRENT@ 0000000180006bc8     flags.obj
 0001:00005be0       ??_C@_0P@BAFEMBAJ@ECF_AUTODELETE@ 0000000180006be0     flags.obj
 0001:00005bf0       ??_C@_08CDFMCHLP@ECF_NONE@ 0000000180006bf0     flags.obj
 0001:00005c00       ??_C@_0BA@KNNLMGCA@FIB_ENABLEEMPTY@ 0000000180006c00     flags.obj
 0001:00005c10       ??_C@_0N@DLDJCGJI@FIB_PASSWORD@ 0000000180006c10     flags.obj
 0001:00005c20       ??_C@_0O@DOHEGELC@FIB_EXPANDENV@ 0000000180006c20     flags.obj
 0001:00005c30       ??_C@_0BF@CEMIHIOK@FIB_NOUSELASTHISTORY@ 0000000180006c30     flags.obj
 0001:00005c48       ??_C@_0M@KJOJJDIM@FIB_BUTTONS@ 0000000180006c48     flags.obj
 0001:00005c58       ??_C@_0BA@COBBDHNL@FIB_NOAMPERSAND@ 0000000180006c58     flags.obj
 0001:00005c68       ??_C@_0N@LBOCEEGH@FIB_EDITPATH@ 0000000180006c68     flags.obj
 0001:00005c78       ??_C@_0BB@DCODFLEL@FIB_EDITPATHEXEC@ 0000000180006c78     flags.obj
 0001:00005c90       ??_C@_08HPFOCDKB@FIB_NONE@ 0000000180006c90     flags.obj
 0001:00005ca0       ??_C@_0L@NMBLFMBN@FPF_LOADED@ 0000000180006ca0     flags.obj
 0001:00005cb0       ??_C@_08GKECKCCJ@FPF_ANSI@ 0000000180006cb0     flags.obj
 0001:00005cc0       ??_C@_08OIOFCNLC@FPF_NONE@ 0000000180006cc0     flags.obj
 0001:00005cd0       ??_C@_0L@HODJIPGA@PN_CMPNAME@ 0000000180006cd0     flags.obj
 0001:00005ce0       ??_C@_0P@KDEENAHJ@PN_CMPNAMELIST@ 0000000180006ce0     flags.obj
 0001:00005cf0       ??_C@_0BA@BJCCEIOI@PN_GENERATENAME@ 0000000180006cf0     flags.obj
 0001:00005d00       ??_C@_0N@FEGPCCPJ@PN_CHECKMASK@ 0000000180006d00     flags.obj
 0001:00005d10       ??_C@_0M@NOOLKEBH@PN_SKIPPATH@ 0000000180006d10     flags.obj
 0001:00005d20       ??_C@_0BE@OPDBOAAE@PN_SHOWERRORMESSAGE@ 0000000180006d20     flags.obj
 0001:00005d38       ??_C@_07PFKJNCJP@PN_NONE@  0000000180006d38     flags.obj
 0001:00005d40       ??_C@_0BG@GOMJDMCK@XLAT_SWITCHKEYBLAYOUT@ 0000000180006d40     flags.obj
 0001:00005d58       ??_C@_0BE@KOIJDNLA@XLAT_SWITCHKEYBBEEP@ 0000000180006d58     flags.obj
 0001:00005d70       ??_C@_0BH@KBFAFPNA@XLAT_USEKEYBLAYOUTNAME@ 0000000180006d70     flags.obj
 0001:00005d88       ??_C@_0BH@IANKLOAC@XLAT_CONVERTALLCMDLINE@ 0000000180006d88     flags.obj
 0001:00005da0       ??_C@_09JCNLKBBK@XLAT_NONE@ 0000000180006da0     flags.obj
 0001:00005db0       ??_C@_0N@PJEDCNNJ@FRS_RETUPDIR@ 0000000180006db0     flags.obj
 0001:00005dc0       ??_C@_09GHEPLOHO@FRS_RECUR@ 0000000180006dc0     flags.obj
 0001:00005dd0       ??_C@_0BA@JCPHOEAE@FRS_SCANSYMLINK@ 0000000180006dd0     flags.obj
 0001:00005de0       ??_C@_08JPCGJJKG@FRS_NONE@ 0000000180006de0     flags.obj
 0001:00005df0       ??_C@_0P@LJPBHEIE@MLF_SHOWERRMSG@ 0000000180006df0     flags.obj
 0001:00005e00       ??_C@_0BF@LMAGFLHF@MLF_DONOTUPDATEPANEL@ 0000000180006e00     flags.obj
 0001:00005e18       ??_C@_0P@EPFBLPAE@MLF_HOLDTARGET@ 0000000180006e18     flags.obj
 0001:00005e28       ??_C@_08EBKEJHAL@MLF_NONE@ 0000000180006e28     flags.obj
 0001:00005e38       ??_C@_0M@JDMKDBDH@FFFS_COMMAS@ 0000000180006e38     flags.obj
 0001:00005e48       ??_C@_0P@JPMLNBKL@FFFS_FLOATSIZE@ 0000000180006e48     flags.obj
 0001:00005e58       ??_C@_0BE@NPKCCEJ@FFFS_SHOWBYTESINDEX@ 0000000180006e58     flags.obj
 0001:00005e70       ??_C@_0O@FPIOAIMC@FFFS_ECONOMIC@ 0000000180006e70     flags.obj
 0001:00005e80       ??_C@_0O@HFIGPFIH@FFFS_THOUSAND@ 0000000180006e80     flags.obj
 0001:00005e90       ??_C@_0BC@LLLANJJO@FFFS_MINSIZEINDEX@ 0000000180006e90     flags.obj
 0001:00005ea8       ??_C@_0BH@PEGBPJKE@FFFS_MINSIZEINDEX_MASK@ 0000000180006ea8     flags.obj
 0001:00005ec0       ??_C@_09PBPAKNEI@FFFS_NONE@ 0000000180006ec0     flags.obj
 0001:00005ed0       ??_C@_0L@NHEJGKCF@PF_PRELOAD@ 0000000180006ed0     flags.obj
 0001:00005ee0       ??_C@_0BB@GCINAIGN@PF_DISABLEPANELS@ 0000000180006ee0     flags.obj
 0001:00005ef8       ??_C@_09OENCMPGE@PF_EDITOR@ 0000000180006ef8     flags.obj
 0001:00005f08       ??_C@_09NEKIJNNA@PF_VIEWER@ 0000000180006f08     flags.obj
 0001:00005f18       ??_C@_0P@MBLBBCNK@PF_FULLCMDLINE@ 0000000180006f18     flags.obj
 0001:00005f28       ??_C@_09GMFDAFKL@PF_DIALOG@ 0000000180006f28     flags.obj
 0001:00005f38       ??_C@_07MGEGJMPI@PF_NONE@  0000000180006f38     flags.obj
 0001:00005f40       ??_C@_0BD@EGELEIIG@IPLFLAGS_SEPARATOR@ 0000000180006f40     flags.obj
 0001:00005f58       ??_C@_0O@JBNJFHHK@IPLFLAGS_NONE@ 0000000180006f58     flags.obj
 0001:00005f68       ??_C@_0BD@KGHJOBGM@PMFLAGS_FULLSCREEN@ 0000000180006f68     flags.obj
 0001:00005f80       ??_C@_0BH@GDAAKEMH@PMFLAGS_DETAILEDSTATUS@ 0000000180006f80     flags.obj
 0001:00005f98       ??_C@_0BI@BMHIBDMH@PMFLAGS_ALIGNEXTENSIONS@ 0000000180006f98     flags.obj
 0001:00005fb0       ??_C@_0BH@KOFCBJBO@PMFLAGS_CASECONVERSION@ 0000000180006fb0     flags.obj
 0001:00005fc8       ??_C@_0N@DLFMCMOB@PMFLAGS_NONE@ 0000000180006fc8     flags.obj
 0001:00005fd8       ??_C@_0BD@PBMGDJEM@OPIF_DISABLEFILTER@ 0000000180006fd8     flags.obj
 0001:00005ff0       ??_C@_0BH@FHBKALPD@OPIF_DISABLESORTGROUPS@ 0000000180006ff0     flags.obj
 0001:00006008       ??_C@_0BJ@NGLIANCL@OPIF_DISABLEHIGHLIGHTING@ 0000000180007008     flags.obj
 0001:00006028       ??_C@_0N@JANKJMLP@OPIF_ADDDOTS@ 0000000180007028     flags.obj
 0001:00006038       ??_C@_0BC@HOFHNJIG@OPIF_RAWSELECTION@ 0000000180007038     flags.obj
 0001:00006050       ??_C@_0P@OFEDJCO@OPIF_REALNAMES@ 0000000180007050     flags.obj
 0001:00006060       ??_C@_0BD@FPGMNAPD@OPIF_SHOWNAMESONLY@ 0000000180007060     flags.obj
 0001:00006078       ??_C@_0BJ@NMIFAPJD@OPIF_SHOWRIGHTALIGNNAMES@ 0000000180007078     flags.obj
 0001:00006098       ??_C@_0BG@HGPMKHIE@OPIF_SHOWPRESERVECASE@ 0000000180007098     flags.obj
 0001:000060b0       ??_C@_0BE@GJEJHNKJ@OPIF_COMPAREFATTIME@ 00000001800070b0     flags.obj
 0001:000060c8       ??_C@_0BB@PELHBPAM@OPIF_EXTERNALGET@ 00000001800070c8     flags.obj
 0001:000060e0       ??_C@_0BB@CFFPNDFK@OPIF_EXTERNALPUT@ 00000001800070e0     flags.obj
 0001:000060f8       ??_C@_0BE@LKEMICNM@OPIF_EXTERNALDELETE@ 00000001800070f8     flags.obj
 0001:00006110       ??_C@_0BD@JIMJPFEP@OPIF_EXTERNALMKDIR@ 0000000180007110     flags.obj
 0001:00006128       ??_C@_0BJ@CALDMPLF@OPIF_USEATTRHIGHLIGHTING@ 0000000180007128     flags.obj
 0001:00006148       ??_C@_0O@JHHHMHIG@OPIF_USECRC32@ 0000000180007148     flags.obj
 0001:00006158       ??_C@_0BB@PFDFAFHG@OPIF_USEFREESIZE@ 0000000180007158     flags.obj
 0001:00006170       ??_C@_0O@FJPLJDBC@OPIF_SHORTCUT@ 0000000180007170     flags.obj
 0001:00006180       ??_C@_09DOPJBMLM@OPIF_NONE@ 0000000180007180     flags.obj
 0001:00006190       ??_C@_0L@GEHHKNBL@OPM_SILENT@ 0000000180007190     flags.obj
 0001:000061a0       ??_C@_08EKEBOKEP@OPM_FIND@ 00000001800071a0     flags.obj
 0001:000061b0       ??_C@_08EHBLNDLO@OPM_VIEW@ 00000001800071b0     flags.obj
 0001:000061c0       ??_C@_08LAAGEMJG@OPM_EDIT@ 00000001800071c0     flags.obj
 0001:000061d0       ??_C@_0N@NDGKAFDM@OPM_TOPLEVEL@ 00000001800071d0     flags.obj
 0001:000061e0       ??_C@_09EBKAPHPA@OPM_DESCR@ 00000001800071e0     flags.obj
 0001:000061f0       ??_C@_0O@OPDAGBBE@OPM_QUICKVIEW@ 00000001800071f0     flags.obj
 0001:00006200       ??_C@_08LCEGJCAC@OPM_PGDN@ 0000000180007200     flags.obj
 0001:00006210       ??_C@_0N@HKCLLJDG@OPM_COMMANDS@ 0000000180007210     flags.obj
 0001:00006220       ??_C@_08EGEBMPBD@OPM_NONE@ 0000000180007220     flags.obj
 0001:00006230       ??_C@_0M@MIGJPBPE@FOSF_ACTIVE@ 0000000180007230     flags.obj
 0001:00006240       ??_C@_09FMOOJHDF@FOSF_NONE@ 0000000180007240     flags.obj
 0001:00006250       ??_C@_09HNBBLIGN@PCIF_NONE@ 0000000180007250     flags.obj
 0001:00006260       ??_C@_0BA@MAEBFMHC@FOREGROUND_BLUE@ 0000000180007260     flags.obj
 0001:00006270       ??_C@_0BB@PDFNMAI@FOREGROUND_GREEN@ 0000000180007270     flags.obj
 0001:00006288       ??_C@_0P@PBJHCFGA@FOREGROUND_RED@ 0000000180007288     flags.obj
 0001:00006298       ??_C@_0BF@OOGEJCC@FOREGROUND_INTENSITY@ 0000000180007298     flags.obj
 0001:000062b0       ??_C@_0BA@PIFINJCK@BACKGROUND_BLUE@ 00000001800072b0     flags.obj
 0001:000062c0       ??_C@_0BB@GKLNBMEL@BACKGROUND_GREEN@ 00000001800072c0     flags.obj
 0001:000062d8       ??_C@_0P@DANALJMC@BACKGROUND_RED@ 00000001800072d8     flags.obj
 0001:000062e8       ??_C@_0BF@NIGKKPCF@BACKGROUND_INTENSITY@ 00000001800072e8     flags.obj
 0001:00006300       ??_C@_0N@FEFOEFHG@CTRL_C_EVENT@ 0000000180007300     flags.obj
 0001:00006310       ??_C@_0BB@ELEIIFAE@CTRL_BREAK_EVENT@ 0000000180007310     flags.obj
 0001:00006328       ??_C@_0BB@KMPDMOKK@CTRL_CLOSE_EVENT@ 0000000180007328     flags.obj
 0001:00006340       ??_C@_0BC@MCKCEPAL@CTRL_LOGOFF_EVENT@ 0000000180007340     flags.obj
 0001:00006358       ??_C@_0BE@BCNEFGKM@CTRL_SHUTDOWN_EVENT@ 0000000180007358     flags.obj
 0001:00006370       ??_C@_0BC@BBOPHMOM@ENABLE_LINE_INPUT@ 0000000180007370     flags.obj
 0001:00006388       ??_C@_0BC@JPFKLHOC@ENABLE_ECHO_INPUT@ 0000000180007388     flags.obj
 0001:000063a0       ??_C@_0BH@EHINFMOF@ENABLE_PROCESSED_INPUT@ 00000001800073a0     flags.obj
 0001:000063b8       ??_C@_0BE@BLAHACNB@ENABLE_WINDOW_INPUT@ 00000001800073b8     flags.obj
 0001:000063d0       ??_C@_0BD@BJECBJPO@ENABLE_MOUSE_INPUT@ 00000001800073d0     flags.obj
 0001:000063e8       ??_C@_0BD@KJBPOMPN@ENABLE_INSERT_MODE@ 00000001800073e8     flags.obj
 0001:00006400       ??_C@_0BH@BJKMFKAO@ENABLE_QUICK_EDIT_MODE@ 0000000180007400     flags.obj
 0001:00006418       ??_C@_0BG@CBCHHIEH@ENABLE_EXTENDED_FLAGS@ 0000000180007418     flags.obj
 0001:00006430       ??_C@_0BF@PEBFEBKN@ENABLE_AUTO_POSITION@ 0000000180007430     flags.obj
 0001:00006448       ??_C@_0BI@MHKNPIFM@ENABLE_PROCESSED_OUTPUT@ 0000000180007448     flags.obj
 0001:00006460       ??_C@_0BK@CDKLKCHJ@ENABLE_WRAP_AT_EOL_OUTPUT@ 0000000180007460     flags.obj
 0001:00006480       ??_C@_09JBABGNAE@KEY_EVENT@ 0000000180007480     flags.obj
 0001:00006490       ??_C@_0M@CPILDGOO@MOUSE_EVENT@ 0000000180007490     flags.obj
 0001:000064a0       ??_C@_0BJ@OHDOHJKG@WINDOW_BUFFER_SIZE_EVENT@ 00000001800074a0     flags.obj
 0001:000064c0       ??_C@_0L@MPODFLFH@MENU_EVENT@ 00000001800074c0     flags.obj
 0001:000064d0       ??_C@_0M@LNGHCCGJ@FOCUS_EVENT@ 00000001800074d0     flags.obj
 0001:000064e0       ??_C@_0M@MKBGBFGO@CAPSLOCK_ON@ 00000001800074e0     flags.obj
 0001:000064f0       ??_C@_0N@EMEOEKDA@ENHANCED_KEY@ 00000001800074f0     flags.obj
 0001:00006500       ??_C@_0BC@GDHABBAP@RIGHT_ALT_PRESSED@ 0000000180007500     flags.obj
 0001:00006518       ??_C@_0BB@MCADLJJO@LEFT_ALT_PRESSED@ 0000000180007518     flags.obj
 0001:00006530       ??_C@_0BD@NEHHNAHO@RIGHT_CTRL_PRESSED@ 0000000180007530     flags.obj
 0001:00006548       ??_C@_0BC@FDNOAAAE@LEFT_CTRL_PRESSED@ 0000000180007548     flags.obj
 0001:00006560       ??_C@_0O@OGDFJMBK@SHIFT_PRESSED@ 0000000180007560     flags.obj
 0001:00006570       ??_C@_0L@IMGKKBIM@NUMLOCK_ON@ 0000000180007570     flags.obj
 0001:00006580       ??_C@_0O@LAHFNPLG@SCROLLLOCK_ON@ 0000000180007580     flags.obj
 0001:00006590       ??_C@_0BN@HACKHGAB@FROM_LEFT_1ST_BUTTON_PRESSED@ 0000000180007590     flags.obj
 0001:000065b0       ??_C@_0BJ@JECFAJNJ@RIGHTMOST_BUTTON_PRESSED@ 00000001800075b0     flags.obj
 0001:000065d0       ??_C@_0BN@BJCFPKCG@FROM_LEFT_2ND_BUTTON_PRESSED@ 00000001800075d0     flags.obj
 0001:000065f0       ??_C@_0BN@PMJNFPGM@FROM_LEFT_3RD_BUTTON_PRESSED@ 00000001800075f0     flags.obj
 0001:00006610       ??_C@_0BN@CNMHAAPD@FROM_LEFT_4TH_BUTTON_PRESSED@ 0000000180007610     flags.obj
 0001:00006630       ??_C@_0M@KKBDEELB@MOUSE_MOVED@ 0000000180007630     flags.obj
 0001:00006640       ??_C@_0N@EDCKBGJE@DOUBLE_CLICK@ 0000000180007640     flags.obj
 0001:00006650       ??_C@_0O@GABDOPO@MOUSE_WHEELED@ 0000000180007650     flags.obj
 0001:00006660       ??_C@_0BA@OOKCCMHH@KEY_WOW64_32KEY@ 0000000180007660     flags.obj
 0001:00006670       ??_C@_0BA@DBCPEIGE@KEY_WOW64_64KEY@ 0000000180007670     flags.obj
 0001:00008980       ??_C@_06ICDCBJPI@Colors@   0000000180009980     keysandcolors.obj
 0001:00008988       ??_C@_05GALAPKHH@Guids@    0000000180009988     keysandcolors.obj
 0001:00009220       ??_C@_01EEMJAFIK@?6@       000000018000a220     lflua.obj
 0001:00009228       ??_C@_0BB@BJDGDOHH@cannot?5?$CFs?5?$CFs?3?5?$CFs@ 000000018000a228     lflua.obj
 0001:0000923c       ??_C@_03PKPBNCAL@?o?$LL?$LP@ 000000018000a23c     lflua.obj
 0001:00009240       ??_C@_06CCPPALKB@?$DNstdin@ 000000018000a240     lflua.obj
 0001:00009248       ??_C@_01EOFPKCAF@?$EA@     000000018000a248     lflua.obj
 0001:0000924c       ??_C@_04PMOCAHAA@open@     000000018000a24c     lflua.obj
 0001:00009254       ??_C@_15JJPIMNBO@?$AAr?$AAb@ 000000018000a254     lflua.obj
 0001:0000925c       ??_C@_06IEGCHAII@reopen@   000000018000a25c     lflua.obj
 0001:00009264       ??_C@_04POLDLDMI@read@     000000018000a264     lflua.obj
 0001:0000926c       ??_C@_02LOCGON@?$AA?$AA@   000000018000a26c     lflua.obj
 0001:00009270       regex_methods              000000018000a270     lregex.obj
 0001:00009330       regex_functions            000000018000a330     lregex.obj
 0001:00009c80       ??_C@_04CKFJHKAP@find@     000000018000ac80     lregex.obj
 0001:00009c88       ??_C@_04GOLEAPFD@gsub@     000000018000ac88     lregex.obj
 0001:00009c90       ??_C@_05FNONLPDI@match@    000000018000ac90     lregex.obj
 0001:00009c98       ??_C@_04MGEIEJAD@exec@     000000018000ac98     lregex.obj
 0001:00009ca0       ??_C@_05GFGPIPHI@findW@    000000018000aca0     lregex.obj
 0001:00009ca8       ??_C@_05HPGHPNC@gsubW@     000000018000aca8     lregex.obj
 0001:00009cb0       ??_C@_06NNKFJOLC@matchW@   000000018000acb0     lregex.obj
 0001:00009cb8       ??_C@_05GMDFNCGA@execW@    000000018000acb8     lregex.obj
 0001:00009cc0       ??_C@_0O@OJAOCNID@bracketscount@ 000000018000acc0     lregex.obj
 0001:00009cd0       ??_C@_04BDLIKKMN@__gc@     000000018000acd0     lregex.obj
 0001:00009cd8       ??_C@_06DPFCLDIO@gmatch@   000000018000acd8     lregex.obj
 0001:00009ce0       ??_C@_07PPMFDHAH@gmatchW@  000000018000ace0     lregex.obj
 0001:00009ce8       ??_C@_09KIEPBIJC@far_regex@ 000000018000ace8     lregex.obj
 0001:00009cf8       ??_C@_0BO@PBOFMCLL@attempt?5to?5access?5freed?5regex@ 000000018000acf8     lregex.obj
 0001:00009d18       ??_C@_07IHINEPFG@?$CFs?5?$CI?$CFp?$CJ@ 000000018000ad18     lregex.obj
 0001:00009d20       ??_C@_01KMDKNFGN@?1@       000000018000ad20     lregex.obj
 0001:00009d28       ??_C@_0BE@BBBEAHLK@RECTL_CREATE?5failed@ 000000018000ad28     lregex.obj
 0001:00009d40       ??_C@_0BL@HEFMPIBG@invalid?5regular?5expression@ 000000018000ad40     lregex.obj
 0001:00009d60       ??_C@_0BK@JCLHPPNA@cannot?5add?5?$CFd?5stack?5slots@ 000000018000ad60     lregex.obj
 0001:00009d80       ??_C@_0BM@MOHHGMBK@string?5or?5table?5or?5function@ 000000018000ad80     lregex.obj
 0001:00009da0       ??_C@_0CG@IDFLGMFM@replace?5string?3?5invalid?5capture@ 000000018000ada0     lregex.obj
 0001:00009dc8       ??_C@_0BJ@IMAIDFKH@invalid?5replacement?5type@ 000000018000adc8     lregex.obj
 0001:00009de8       ??_C@_0BE@KPDOHKBE@invalid?5return?5type@ 000000018000ade8     lregex.obj
 0001:00009e00       ??_C@_07NHABFFHN@__index@  000000018000ae00     lregex.obj
 0001:00009e08       ??_C@_05FGAODPCE@regex@    000000018000ae08     lregex.obj
 0001:0000a6b0       ??_C@_0BC@PMGNICBE@MacroPluginReturn@ 000000018000b6b0     luamacro.obj
 0001:0000a6c4       ??_C@_02JIEIHMJD@wl@       000000018000b6c4     luamacro.obj
 0001:0000a6c8       ??_C@_15PMCGDJNJ@?$AAO?$AAK@ 000000018000b6c8     luamacro.obj
 0001:0000a6d0       ??_C@_1BC@GBFPAMBP@?$AAL?$AAu?$AAa?$AAM?$AAa?$AAc?$AAr?$AAo@ 000000018000b6d0     luamacro.obj
 0001:0000a6f0       ??_C@_1FA@DAFHIDEP@?$AAt?$AAo?$AAo?$AA?5?$AAm?$AAa?$AAn?$AAy?$AA?5?$AAv?$AAa?$AAl?$AAu?$AAe?$AAs@ 000000018000b6f0     luamacro.obj
 0001:0000a740       ??_C@_0BN@ICDOMFBB@invalid?5argument?5?$CD?$CFd?5to?5?8?$CFs?8@ 000000018000b740     luamacro.obj
 0001:0000a760       ??_C@_0BB@FCMFBGOM@invalid?5argument@ 000000018000b760     luamacro.obj
 0001:0000b000       usercontrol_methods        000000018000c000     lusercontrol.obj
 0001:0000b050       usercontrol_functions      000000018000c050     lusercontrol.obj
 0001:0000b070       ??_C@_05MNDELLDN@__len@    000000018000c070     lusercontrol.obj
 0001:0000b078       ??_C@_0L@GADKNKH@__newindex@ 000000018000c078     lusercontrol.obj
 0001:0000b088       ??_C@_0BC@KFJDHEIC@CreateUserControl@ 000000018000c088     lusercontrol.obj
 0001:0000b0a0       ??_C@_0BA@MDNLMOMP@far_usercontrol@ 000000018000c0a0     lusercontrol.obj
 0001:0000b0b0       ??_C@_0BH@DOPNHMGD@bounds?5checking?5failed@ 000000018000c0b0     lusercontrol.obj
 0001:0000b0c8       ??_C@_09LDLEBFOB@rawhandle@ 000000018000c0c8     lusercontrol.obj
 0001:0000b0d4       ??_C@_04IMAAEPPE@Char@     000000018000c0d4     lusercontrol.obj
 0001:0000b0e0       ??_C@_0L@PLFFHFAH@Attributes@ 000000018000c0e0     lusercontrol.obj
 0001:0000b0f0       ??_C@_0BD@BPIMECDH@X?5must?5be?5positive@ 000000018000c0f0     lusercontrol.obj
 0001:0000b108       ??_C@_0BD@MIGOMCGP@Y?5must?5be?5positive@ 000000018000c108     lusercontrol.obj
 0001:0000b130       FarFileFilterType          000000018000c130     service.obj
 0001:0000b140       FarTimerType               000000018000c140     service.obj
 0001:0000b150       FarTimerQueueKey           000000018000c150     service.obj
 0001:0000b160       FarDialogType              000000018000c160     service.obj
 0001:0000b170       SettingsType               000000018000c170     service.obj
 0001:0000b180       SettingsHandles            000000018000c180     service.obj
 0001:0000b198       PluginHandleType           000000018000c198     service.obj
 0001:0000b1a8       AddMacroDataType           000000018000c1a8     service.obj
 0001:0000b1b8       SavedScreenType            000000018000c1b8     service.obj
 0001:0000b1c8       FAR_VIRTUALKEYS            000000018000c1c8     service.obj
 0001:0000b1d8       FAR_FLAGSTABLE             000000018000c1d8     service.obj
 0001:0000b1e8       FAR_DN_STORAGE             000000018000c1e8     service.obj
 0001:0000bab0       timer_methods              000000018000cab0     service.obj
 0001:0000bb00       filefilter_methods         000000018000cb00     service.obj
 0001:0000bb70       dialog_methods             000000018000cb70     service.obj
 0001:0000bbc0       Settings_methods           000000018000cbc0     service.obj
 0001:0000bc60       editor_funcs               000000018000cc60     service.obj
 0001:0000bef0       viewer_funcs               000000018000cef0     service.obj
 0001:0000bf90       panel_funcs                000000018000cf90     service.obj
 0001:0000c1a0       far_funcs                  000000018000d1a0     service.obj
 0001:0000c630       far_Dialog                 000000018000d630     service.obj
 0001:0000c960       api_functions              000000018000d960     service.obj
 0001:0000ca20       ??_C@_07PHPIFDKI@LBUTTON@  000000018000da20     service.obj
 0001:0000ca28       ??_C@_07JOMJHALB@RBUTTON@  000000018000da28     service.obj
 0001:0000ca30       ??_C@_06JHILMIHF@CANCEL@   000000018000da30     service.obj
 0001:0000ca38       ??_C@_07DLFCFDDG@MBUTTON@  000000018000da38     service.obj
 0001:0000ca40       ??_C@_08OPILMHEG@XBUTTON1@ 000000018000da40     service.obj
 0001:0000ca50       ??_C@_08MEKGJEIF@XBUTTON2@ 000000018000da50     service.obj
 0001:0000ca5c       ??_C@_04FJBHJJME@BACK@     000000018000da5c     service.obj
 0001:0000ca64       ??_C@_03CJMDHCGG@TAB@      000000018000da64     service.obj
 0001:0000ca68       ??_C@_05PONODPI@CLEAR@     000000018000da68     service.obj
 0001:0000ca70       ??_C@_06LJMOENAO@RETURN@   000000018000da70     service.obj
 0001:0000ca78       ??_C@_05OAHIEJBI@SHIFT@    000000018000da78     service.obj
 0001:0000ca80       ??_C@_07DBEDOPMC@CONTROL@  000000018000da80     service.obj
 0001:0000ca88       ??_C@_04IILMDFMO@MENU@     000000018000da88     service.obj
 0001:0000ca90       ??_C@_05DIAHPDGL@PAUSE@    000000018000da90     service.obj
 0001:0000ca98       ??_C@_07OPCFNGJB@CAPITAL@  000000018000da98     service.obj
 0001:0000caa0       ??_C@_04KGDAIAGM@KANA@     000000018000daa0     service.obj
 0001:0000caa8       ??_C@_05PPKJGOLB@JUNJA@    000000018000daa8     service.obj
 0001:0000cab0       ??_C@_05JEIAEFOF@FINAL@    000000018000dab0     service.obj
 0001:0000cab8       ??_C@_05CHABPOPI@HANJA@    000000018000dab8     service.obj
 0001:0000cac0       ??_C@_06CDPDIIDH@ESCAPE@   000000018000dac0     service.obj
 0001:0000cac8       ??_C@_0L@ODNCKDCK@NONCONVERT@ 000000018000dac8     service.obj
 0001:0000cad4       ??_C@_06INBBKPI@ACCEPT@    000000018000dad4     service.obj
 0001:0000cae0       ??_C@_0L@HEHNEBED@MODECHANGE@ 000000018000dae0     service.obj
 0001:0000caec       ??_C@_05CAEOFMEP@SPACE@    000000018000daec     service.obj
 0001:0000caf4       ??_C@_05BFDHCIJM@PRIOR@    000000018000daf4     service.obj
 0001:0000cafc       ??_C@_04MOKMKBJN@NEXT@     000000018000dafc     service.obj
 0001:0000cb04       ??_C@_03JMGAKCCH@END@      000000018000db04     service.obj
 0001:0000cb08       ??_C@_04GHGFPGNC@HOME@     000000018000db08     service.obj
 0001:0000cb10       ??_C@_04KCNEHMIH@LEFT@     000000018000db10     service.obj
 0001:0000cb18       ??_C@_02NAHCJHOC@UP@       000000018000db18     service.obj
 0001:0000cb1c       ??_C@_05PMAFOJDE@RIGHT@    000000018000db1c     service.obj
 0001:0000cb24       ??_C@_04FANAOELO@DOWN@     000000018000db24     service.obj
 0001:0000cb2c       ??_C@_06LCPJPOPK@SELECT@   000000018000db2c     service.obj
 0001:0000cb34       ??_C@_05ECKPOFCN@PRINT@    000000018000db34     service.obj
 0001:0000cb40       ??_C@_07LBDEDADF@EXECUTE@  000000018000db40     service.obj
 0001:0000cb48       ??_C@_08EMOKHGD@SNAPSHOT@  000000018000db48     service.obj
 0001:0000cb54       ??_C@_06OEMEAEKN@INSERT@   000000018000db54     service.obj
 0001:0000cb5c       ??_C@_06FKDAMKFP@DELETE@   000000018000db5c     service.obj
 0001:0000cb64       ??_C@_04DOKPJKJF@HELP@     000000018000db64     service.obj
 0001:0000cb6c       ??_C@_01GBGANLPD@0@        000000018000db6c     service.obj
 0001:0000cb70       ??_C@_01HIHLOKLC@1@        000000018000db70     service.obj
 0001:0000cb74       ??_C@_01FDFGLJHB@2@        000000018000db74     service.obj
 0001:0000cb78       ??_C@_01EKENIIDA@3@        000000018000db78     service.obj
 0001:0000cb7c       ??_C@_01FAMBOPH@4@         000000018000db7c     service.obj
 0001:0000cb80       ??_C@_01BMBHCPLG@5@        000000018000db80     service.obj
 0001:0000cb84       ??_C@_01DHDKHMHF@6@        000000018000db84     service.obj
 0001:0000cb88       ??_C@_01COCBENDE@7@        000000018000db88     service.obj
 0001:0000cb8c       ??_C@_01KJLJFBPL@8@        000000018000db8c     service.obj
 0001:0000cb90       ??_C@_01LAKCGALK@9@        000000018000db90     service.obj
 0001:0000cb94       ??_C@_01FHEEJDEE@A@        000000018000db94     service.obj
 0001:0000cb98       ??_C@_01HMGJMAIH@B@        000000018000db98     service.obj
 0001:0000cb9c       ??_C@_01GFHCPBMG@C@        000000018000db9c     service.obj
 0001:0000cba0       ??_C@_01CKDDGHAB@D@        000000018000dba0     service.obj
 0001:0000cba4       ??_C@_01DDCIFGEA@E@        000000018000dba4     service.obj
 0001:0000cba8       ??_C@_01BIAFAFID@F@        000000018000dba8     service.obj
 0001:0000cbac       ??_C@_01BBODEMC@G@         000000018000dbac     service.obj
 0001:0000cbb0       ??_C@_01IGIGCIAN@H@        000000018000dbb0     service.obj
 0001:0000cbb4       ??_C@_01JPJNBJEM@I@        000000018000dbb4     service.obj
 0001:0000cbb8       ??_C@_01LELAEKIP@J@        000000018000dbb8     service.obj
 0001:0000cbbc       ??_C@_01KNKLHLMO@K@        000000018000dbbc     service.obj
 0001:0000cbc0       ??_C@_01OCOKONAJ@L@        000000018000dbc0     service.obj
 0001:0000cbc4       ??_C@_01PLPBNMEI@M@        000000018000dbc4     service.obj
 0001:0000cbc8       ??_C@_01NANMIPIL@N@        000000018000dbc8     service.obj
 0001:0000cbcc       ??_C@_01MJMHLOMK@O@        000000018000dbcc     service.obj
 0001:0000cbd0       ??_C@_01EJNLAFE@P@         000000018000dbd0     service.obj
 0001:0000cbd4       ??_C@_01BNIGIBBF@Q@        000000018000dbd4     service.obj
 0001:0000cbd8       ??_C@_01DGKLNCNG@R@        000000018000dbd8     service.obj
 0001:0000cbdc       ??_C@_01CPLAODJH@S@        000000018000dbdc     service.obj
 0001:0000cbe0       ??_C@_01GAPBHFFA@T@        000000018000dbe0     service.obj
 0001:0000cbe4       ??_C@_01HJOKEEBB@U@        000000018000dbe4     service.obj
 0001:0000cbe8       ??_C@_01FCMHBHNC@V@        000000018000dbe8     service.obj
 0001:0000cbec       ??_C@_01ELNMCGJD@W@        000000018000dbec     service.obj
 0001:0000cbf0       ??_C@_01MMEEDKFM@X@        000000018000dbf0     service.obj
 0001:0000cbf4       ??_C@_01NFFPALBN@Y@        000000018000dbf4     service.obj
 0001:0000cbf8       ??_C@_01POHCFINO@Z@        000000018000dbf8     service.obj
 0001:0000cbfc       ??_C@_04ODLFFOHF@LWIN@     000000018000dbfc     service.obj
 0001:0000cc04       ??_C@_04DMGFHHJG@RWIN@     000000018000dc04     service.obj
 0001:0000cc0c       ??_C@_04GKGJFGJO@APPS@     000000018000dc0c     service.obj
 0001:0000cc14       ??_C@_05DJAECLDN@SLEEP@    000000018000dc14     service.obj
 0001:0000cc20       ??_C@_07NHIPMMJH@NUMPAD0@  000000018000dc20     service.obj
 0001:0000cc28       ??_C@_07MOJEPNNG@NUMPAD1@  000000018000dc28     service.obj
 0001:0000cc30       ??_C@_07OFLJKOBF@NUMPAD2@  000000018000dc30     service.obj
 0001:0000cc38       ??_C@_07PMKCJPFE@NUMPAD3@  000000018000dc38     service.obj
 0001:0000cc40       ??_C@_07LDODAJJD@NUMPAD4@  000000018000dc40     service.obj
 0001:0000cc48       ??_C@_07KKPIDINC@NUMPAD5@  000000018000dc48     service.obj
 0001:0000cc50       ??_C@_07IBNFGLBB@NUMPAD6@  000000018000dc50     service.obj
 0001:0000cc58       ??_C@_07JIMOFKFA@NUMPAD7@  000000018000dc58     service.obj
 0001:0000cc60       ??_C@_07BPFGEGJP@NUMPAD8@  000000018000dc60     service.obj
 0001:0000cc68       ??_C@_07GENHHNO@NUMPAD9@   000000018000dc68     service.obj
 0001:0000cc70       ??_C@_08LDEOAAGM@MULTIPLY@ 000000018000dc70     service.obj
 0001:0000cc7c       ??_C@_03BOJFLAKG@ADD@      000000018000dc7c     service.obj
 0001:0000cc80       ??_C@_09POPINEFK@SEPARATOR@ 000000018000dc80     service.obj
 0001:0000cc90       ??_C@_08MGBEENML@SUBTRACT@ 000000018000dc90     service.obj
 0001:0000cca0       ??_C@_07LJPMJDLL@DECIMAL@  000000018000dca0     service.obj
 0001:0000cca8       ??_C@_06FBFCJJMP@DIVIDE@   000000018000dca8     service.obj
 0001:0000ccb0       ??_C@_02LCPENACN@F1@       000000018000dcb0     service.obj
 0001:0000ccb4       ??_C@_02JJNJIDOO@F2@       000000018000dcb4     service.obj
 0001:0000ccb8       ??_C@_02IAMCLCKP@F3@       000000018000dcb8     service.obj
 0001:0000ccbc       ??_C@_02MPIDCEGI@F4@       000000018000dcbc     service.obj
 0001:0000ccc0       ??_C@_02NGJIBFCJ@F5@       000000018000dcc0     service.obj
 0001:0000ccc4       ??_C@_02PNLFEGOK@F6@       000000018000dcc4     service.obj
 0001:0000ccc8       ??_C@_02OEKOHHKL@F7@       000000018000dcc8     service.obj
 0001:0000cccc       ??_C@_02GDDGGLGE@F8@       000000018000dccc     service.obj
 0001:0000ccd0       ??_C@_02HKCNFKCF@F9@       000000018000dcd0     service.obj
 0001:0000ccd4       ??_C@_03JKCLJOFG@F10@      000000018000dcd4     service.obj
 0001:0000ccd8       ??_C@_03IDDAKPBH@F11@      000000018000dcd8     service.obj
 0001:0000ccdc       ??_C@_03KIBNPMNE@F12@      000000018000dcdc     service.obj
 0001:0000cce0       ??_C@_03LBAGMNJF@F13@      000000018000dce0     service.obj
 0001:0000cce4       ??_C@_03POEHFLFC@F14@      000000018000dce4     service.obj
 0001:0000cce8       ??_C@_03OHFMGKBD@F15@      000000018000dce8     service.obj
 0001:0000ccec       ??_C@_03MMHBDJNA@F16@      000000018000dcec     service.obj
 0001:0000ccf0       ??_C@_03NFGKAIJB@F17@      000000018000dcf0     service.obj
 0001:0000ccf4       ??_C@_03FCPCBEFO@F18@      000000018000dcf4     service.obj
 0001:0000ccf8       ??_C@_03ELOJCFBP@F19@      000000018000dcf8     service.obj
 0001:0000ccfc       ??_C@_03JIGNCAAP@F20@      000000018000dcfc     service.obj
 0001:0000cd00       ??_C@_03IBHGBBEO@F21@      000000018000dd00     service.obj
 0001:0000cd04       ??_C@_03KKFLECIN@F22@      000000018000dd04     service.obj
 0001:0000cd08       ??_C@_03LDEAHDMM@F23@      000000018000dd08     service.obj
 0001:0000cd0c       ??_C@_03PMABOFAL@F24@      000000018000dd0c     service.obj
 0001:0000cd10       ??_C@_07FLMEHHJP@NUMLOCK@  000000018000dd10     service.obj
 0001:0000cd18       ??_C@_06FNIKALAE@SCROLL@   000000018000dd18     service.obj
 0001:0000cd20       ??_C@_0O@DBBJDALK@OEM_NEC_EQUAL@ 000000018000dd20     service.obj
 0001:0000cd30       ??_C@_0P@JKGCFGCD@OEM_FJ_MASSHOU@ 000000018000dd30     service.obj
 0001:0000cd40       ??_C@_0P@NIEOFNLG@OEM_FJ_TOUROKU@ 000000018000dd40     service.obj
 0001:0000cd50       ??_C@_0M@IBEHGLCM@OEM_FJ_LOYA@ 000000018000dd50     service.obj
 0001:0000cd60       ??_C@_0M@FOJHECMP@OEM_FJ_ROYA@ 000000018000dd60     service.obj
 0001:0000cd6c       ??_C@_06EPHNCIMI@LSHIFT@   000000018000dd6c     service.obj
 0001:0000cd74       ??_C@_06HIJMMPFL@RSHIFT@   000000018000dd74     service.obj
 0001:0000cd80       ??_C@_08IKMONEBG@LCONTROL@ 000000018000dd80     service.obj
 0001:0000cd90       ??_C@_08OOMMENPF@RCONTROL@ 000000018000dd90     service.obj
 0001:0000cd9c       ??_C@_05IHMGKJGH@LMENU@    000000018000dd9c     service.obj
 0001:0000cda4       ??_C@_05LOBKMKIM@RMENU@    000000018000dda4     service.obj
 0001:0000cdb0       ??_C@_0N@OAJIELLG@BROWSER_BACK@ 000000018000ddb0     service.obj
 0001:0000cdc0       ??_C@_0BA@ENOAJOGH@BROWSER_FORWARD@ 000000018000ddc0     service.obj
 0001:0000cdd0       ??_C@_0BA@GDNDIDGJ@BROWSER_REFRESH@ 000000018000ddd0     service.obj
 0001:0000cde0       ??_C@_0N@HKPDGANH@BROWSER_STOP@ 000000018000dde0     service.obj
 0001:0000cdf0       ??_C@_0P@BEAEBJDD@BROWSER_SEARCH@ 000000018000ddf0     service.obj
 0001:0000ce00       ??_C@_0BC@BOMJIH@BROWSER_FAVORITES@ 000000018000de00     service.obj
 0001:0000ce18       ??_C@_0N@NOOKCEKA@BROWSER_HOME@ 000000018000de18     service.obj
 0001:0000ce28       ??_C@_0M@ENOHKBMG@VOLUME_MUTE@ 000000018000de28     service.obj
 0001:0000ce38       ??_C@_0M@JOOBBDNO@VOLUME_DOWN@ 000000018000de38     service.obj
 0001:0000ce48       ??_C@_09MGPMNMJC@VOLUME_UP@ 000000018000de48     service.obj
 0001:0000ce58       ??_C@_0BB@KLAENPA@MEDIA_NEXT_TRACK@ 000000018000de58     service.obj
 0001:0000ce70       ??_C@_0BB@CMOIJKPH@MEDIA_PREV_TRACK@ 000000018000de70     service.obj
 0001:0000ce88       ??_C@_0L@KBJOCDHK@MEDIA_STOP@ 000000018000de88     service.obj
 0001:0000ce98       ??_C@_0BB@HAEMIJHO@MEDIA_PLAY_PAUSE@ 000000018000de98     service.obj
 0001:0000ceb0       ??_C@_0M@GCIKMBID@LAUNCH_MAIL@ 000000018000deb0     service.obj
 0001:0000cec0       ??_C@_0BE@FADJJAPM@LAUNCH_MEDIA_SELECT@ 000000018000dec0     service.obj
 0001:0000ced8       ??_C@_0M@MGLJIDDM@LAUNCH_APP1@ 000000018000ded8     service.obj
 0001:0000cee8       ??_C@_0M@ONJENAPP@LAUNCH_APP2@ 000000018000dee8     service.obj
 0001:0000cef4       ??_C@_05OIODNPAD@OEM_1@    000000018000def4     service.obj
 0001:0000cf00       ??_C@_08LDJEIPBH@OEM_PLUS@ 000000018000df00     service.obj
 0001:0000cf10       ??_C@_09CLPFJEOD@OEM_COMMA@ 000000018000df10     service.obj
 0001:0000cf20       ??_C@_09OGMLCNMG@OEM_MINUS@ 000000018000df20     service.obj
 0001:0000cf30       ??_C@_0L@DNNMNDGM@OEM_PERIOD@ 000000018000df30     service.obj
 0001:0000cf3c       ??_C@_05MDMOIMMA@OEM_2@    000000018000df3c     service.obj
 0001:0000cf44       ??_C@_05NKNFLNIB@OEM_3@    000000018000df44     service.obj
 0001:0000cf4c       ??_C@_05JFJECLEG@OEM_4@    000000018000df4c     service.obj
 0001:0000cf54       ??_C@_05IMIPBKAH@OEM_5@    000000018000df54     service.obj
 0001:0000cf5c       ??_C@_05KHKCEJME@OEM_6@    000000018000df5c     service.obj
 0001:0000cf64       ??_C@_05LOLJHIIF@OEM_7@    000000018000df64     service.obj
 0001:0000cf6c       ??_C@_05DJCBGEEK@OEM_8@    000000018000df6c     service.obj
 0001:0000cf78       ??_C@_07PEFKMFIE@OEM_102@  000000018000df78     service.obj
 0001:0000cf80       ??_C@_0L@EFLJCPAM@PROCESSKEY@ 000000018000df80     service.obj
 0001:0000cf8c       ??_C@_06HOICDKCB@PACKET@   000000018000df8c     service.obj
 0001:0000cf98       ??_C@_09CAKPMKHM@OEM_RESET@ 000000018000df98     service.obj
 0001:0000cfa8       ??_C@_08INMNLJCK@OEM_JUMP@ 000000018000dfa8     service.obj
 0001:0000cfb8       ??_C@_07JNOAEEG@OEM_PA1@   000000018000dfb8     service.obj
 0001:0000cfc0       ??_C@_07CCPDFHIF@OEM_PA2@  000000018000dfc0     service.obj
 0001:0000cfc8       ??_C@_07DLOIGGME@OEM_PA3@  000000018000dfc8     service.obj
 0001:0000cfd0       ??_C@_0L@OCAIHDP@OEM_WSCTRL@ 000000018000dfd0     service.obj
 0001:0000cfdc       ??_C@_04BNGOAFAJ@ATTN@     000000018000dfdc     service.obj
 0001:0000cfe4       ??_C@_05HGAHFFFL@CRSEL@    000000018000dfe4     service.obj
 0001:0000cfec       ??_C@_05OKOOKOOH@EXSEL@    000000018000dfec     service.obj
 0001:0000cff4       ??_C@_05CCFENDFJ@EREOF@    000000018000dff4     service.obj
 0001:0000cffc       ??_C@_04MKCNCBEG@PLAY@     000000018000dffc     service.obj
 0001:0000d004       ??_C@_04LGBIGMFG@ZOOM@     000000018000e004     service.obj
 0001:0000d00c       ??_C@_06LJIOOKLP@NONAME@   000000018000e00c     service.obj
 0001:0000d014       ??_C@_03KCLDMPAE@PA1@      000000018000e014     service.obj
 0001:0000d018       ??_C@_09MBBEHOCK@OEM_CLEAR@ 000000018000e018     service.obj
 0001:0000d024       ??_C@_05LCLENNFI@table@    000000018000e024     service.obj
 0001:0000d02c       ??_C@_06ICGJLFIM@string@   000000018000e02c     service.obj
 0001:0000d038       ??_C@_0P@LKPINHLK@FreeFileFilter@ 000000018000e038     service.obj
 0001:0000d048       ??_C@_0BA@JGEOEAE@OpenFiltersMenu@ 000000018000e048     service.obj
 0001:0000d058       ??_C@_0BB@OPPOFOAK@StartingToFilter@ 000000018000e058     service.obj
 0001:0000d070       ??_C@_0P@JDMCHDIM@IsFileInFilter@ 000000018000e070     service.obj
 0001:0000d080       ??_C@_04MIIPNNEF@send@     000000018000e080     service.obj
 0001:0000d088       ??_C@_06JBKGCNBB@Delete@   000000018000e088     service.obj
 0001:0000d090       ??_C@_04PAFOOALK@Enum@     000000018000e090     service.obj
 0001:0000d098       ??_C@_04HJMOFLDF@Free@     000000018000e098     service.obj
 0001:0000d0a0       ??_C@_03NNDHPFFO@Get@      000000018000e0a0     service.obj
 0001:0000d0a4       ??_C@_03CEMDFJG@Set@       000000018000e0a4     service.obj
 0001:0000d0a8       ??_C@_0N@OELJMCEC@CreateSubkey@ 000000018000e0a8     service.obj
 0001:0000d0b8       ??_C@_0L@CPCKAMD@OpenSubkey@ 000000018000e0b8     service.obj
 0001:0000d0c8       ??_C@_08EGJLHNCO@AddColor@ 000000018000e0c8     service.obj
 0001:0000d0d8       ??_C@_0BD@DOFEEDDC@AddSessionBookmark@ 000000018000e0d8     service.obj
 0001:0000d0f0       ??_C@_0BG@IGFHDIIN@ClearSessionBookmarks@ 000000018000e0f0     service.obj
 0001:0000d108       ??_C@_08PDEJHGJI@DelColor@ 000000018000e108     service.obj
 0001:0000d118       ??_C@_0M@LPIECDD@DeleteBlock@ 000000018000e118     service.obj
 0001:0000d128       ??_C@_0L@BCLIBKOC@DeleteChar@ 000000018000e128     service.obj
 0001:0000d138       ??_C@_0BG@KOELEFCN@DeleteSessionBookmark@ 000000018000e138     service.obj
 0001:0000d150       ??_C@_0N@EKENACAE@DeleteString@ 000000018000e150     service.obj
 0001:0000d160       ??_C@_06MJDIICIN@Editor@   000000018000e160     service.obj
 0001:0000d168       ??_C@_0L@HDLPOLMA@ExpandTabs@ 000000018000e168     service.obj
 0001:0000d178       ??_C@_0N@MGAOADJN@GetBookmarks@ 000000018000e178     service.obj
 0001:0000d188       ??_C@_08JOPFJIPE@GetColor@ 000000018000e188     service.obj
 0001:0000d198       ??_C@_0M@FECPLAMN@GetFileName@ 000000018000e198     service.obj
 0001:0000d1a8       ??_C@_07NAJNLNAF@GetInfo@  000000018000e1a8     service.obj
 0001:0000d1b0       ??_C@_0N@KIILHCLH@GetSelection@ 000000018000e1b0     service.obj
 0001:0000d1c0       ??_C@_0BE@LBJJGOGD@GetSessionBookmarks@ 000000018000e1c0     service.obj
 0001:0000d1d8       ??_C@_09HBLKHMEA@GetString@ 000000018000e1d8     service.obj
 0001:0000d1e8       ??_C@_0L@IDFHDAHP@GetStringW@ 000000018000e1e8     service.obj
 0001:0000d1f8       ??_C@_0N@ICPGLOEG@InsertString@ 000000018000e1f8     service.obj
 0001:0000d208       ??_C@_0L@JMOIGJIA@InsertText@ 000000018000e208     service.obj
 0001:0000d218       ??_C@_0M@BINOKANK@InsertTextW@ 000000018000e218     service.obj
 0001:0000d228       ??_C@_0BE@CNGODNDI@NextSessionBookmark@ 000000018000e228     service.obj
 0001:0000d240       ??_C@_0BE@IEBIGOAP@PrevSessionBookmark@ 000000018000e240     service.obj
 0001:0000d258       ??_C@_0N@FNCEPAJJ@ProcessInput@ 000000018000e258     service.obj
 0001:0000d268       ??_C@_04GMBKPCGK@Quit@     000000018000e268     service.obj
 0001:0000d270       ??_C@_09KINLOJJJ@ReadInput@ 000000018000e270     service.obj
 0001:0000d280       ??_C@_09DBPLBJBJ@RealToTab@ 000000018000e280     service.obj
 0001:0000d28c       ??_C@_06KAPLBEK@Redraw@    000000018000e28c     service.obj
 0001:0000d298       ??_C@_08FBDDPFPJ@SaveFile@ 000000018000e298     service.obj
 0001:0000d2a4       ??_C@_06HJGPBJLE@Select@   000000018000e2a4     service.obj
 0001:0000d2b0       ??_C@_09PPEOOGEC@SetKeyBar@ 000000018000e2b0     service.obj
 0001:0000d2c0       ??_C@_08CCKJEGOF@SetParam@ 000000018000e2c0     service.obj
 0001:0000d2d0       ??_C@_0M@GKIFPNAD@SetPosition@ 000000018000e2d0     service.obj
 0001:0000d2e0       ??_C@_09FPPPFNNC@SetString@ 000000018000e2e0     service.obj
 0001:0000d2f0       ??_C@_0L@JNHIIHDG@SetStringW@ 000000018000e2f0     service.obj
 0001:0000d300       ??_C@_08GMCCAJLF@SetTitle@ 000000018000e300     service.obj
 0001:0000d310       ??_C@_08JNAOBKMI@GetTitle@ 000000018000e310     service.obj
 0001:0000d320       ??_C@_0BF@LIMPGNED@SubscribeChangeEvent@ 000000018000e320     service.obj
 0001:0000d338       ??_C@_09JFBCONJH@TabToReal@ 000000018000e338     service.obj
 0001:0000d348       ??_C@_08IBJJAHJG@UndoRedo@ 000000018000e348     service.obj
 0001:0000d358       ??_C@_07JMDLHPJF@SetMode@  000000018000e358     service.obj
 0001:0000d360       ??_C@_06PJECNADJ@Viewer@   000000018000e360     service.obj
 0001:0000d368       ??_C@_0BB@PJGDGIKA@CheckPanelsExist@ 000000018000e368     service.obj
 0001:0000d380       ??_C@_0P@DFBDDHFA@ClearSelection@ 000000018000e380     service.obj
 0001:0000d390       ??_C@_0L@KOHCMOPM@GetCmdLine@ 000000018000e390     service.obj
 0001:0000d3a0       ??_C@_0O@NLDIMJEA@GetCmdLinePos@ 000000018000e3a0     service.obj
 0001:0000d3b0       ??_C@_0BE@CBPLLCEH@GetCmdLineSelection@ 000000018000e3b0     service.obj
 0001:0000d3c8       ??_C@_0P@CMFANDFM@GetColumnTypes@ 000000018000e3c8     service.obj
 0001:0000d3d8       ??_C@_0BA@DJGLDCBG@GetColumnWidths@ 000000018000e3d8     service.obj
 0001:0000d3e8       ??_C@_0BE@JPAIJBCI@GetCurrentPanelItem@ 000000018000e3e8     service.obj
 0001:0000d400       ??_C@_0BC@NGKPIKGL@GetPanelDirectory@ 000000018000e400     service.obj
 0001:0000d418       ??_C@_0P@GODLFFFJ@GetPanelFormat@ 000000018000e418     service.obj
 0001:0000d428       ??_C@_0BB@LCMBHPNI@GetPanelHostFile@ 000000018000e428     service.obj
 0001:0000d440       ??_C@_0N@HPIPGDFA@GetPanelInfo@ 000000018000e440     service.obj
 0001:0000d450       ??_C@_0N@HAFLAIHA@GetPanelItem@ 000000018000e450     service.obj
 0001:0000d460       ??_C@_0P@HCBKDPMP@GetPanelPrefix@ 000000018000e460     service.obj
 0001:0000d470       ??_C@_0BF@MEMFMMGB@GetSelectedPanelItem@ 000000018000e470     service.obj
 0001:0000d488       ??_C@_0O@HEGDGAJG@GetUserScreen@ 000000018000e488     service.obj
 0001:0000d498       ??_C@_0O@EHOCCHAL@InsertCmdLine@ 000000018000e498     service.obj
 0001:0000d4a8       ??_C@_0O@OMMHIHHH@IsActivePanel@ 000000018000e4a8     service.obj
 0001:0000d4b8       ??_C@_0M@LCEPDNPK@RedrawPanel@ 000000018000e4b8     service.obj
 0001:0000d4c8       ??_C@_0P@OPKJJMLB@SetActivePanel@ 000000018000e4c8     service.obj
 0001:0000d4d8       ??_C@_0L@LAFNHJLF@SetCmdLine@ 000000018000e4d8     service.obj
 0001:0000d4e8       ??_C@_0O@KECGHKDH@SetCmdLinePos@ 000000018000e4e8     service.obj
 0001:0000d4f8       ??_C@_0BE@IPNAPCDL@SetCmdLineSelection@ 000000018000e4f8     service.obj
 0001:0000d510       ??_C@_0BE@PAPEKLCP@SetDirectoriesFirst@ 000000018000e510     service.obj
 0001:0000d528       ??_C@_0BC@PDKEABHF@SetPanelDirectory@ 000000018000e528     service.obj
 0001:0000d540       ??_C@_0N@NMDFLOPL@SetSelection@ 000000018000e540     service.obj
 0001:0000d550       ??_C@_0M@CMMMGIDG@SetSortMode@ 000000018000e550     service.obj
 0001:0000d560       ??_C@_0N@HCHLALN@SetSortOrder@ 000000018000e560     service.obj
 0001:0000d570       ??_C@_0O@LHNNDOB@SetUserScreen@ 000000018000e570     service.obj
 0001:0000d580       ??_C@_0M@IENJPEBA@SetViewMode@ 000000018000e580     service.obj
 0001:0000d590       ??_C@_0M@EICBHAOA@UpdatePanel@ 000000018000e590     service.obj
 0001:0000d5a0       ??_C@_0BC@BIIKJLKB@PluginStartupInfo@ 000000018000e5a0     service.obj
 0001:0000d5b8       ??_C@_0L@PJAHNOGM@DialogInit@ 000000018000e5b8     service.obj
 0001:0000d5c8       ??_C@_09DBEDLMHB@DialogRun@ 000000018000e5c8     service.obj
 0001:0000d5d8       ??_C@_0L@DLFLHLOO@DialogFree@ 000000018000e5d8     service.obj
 0001:0000d5e8       ??_C@_0P@HLOFPDFP@SendDlgMessage@ 000000018000e5e8     service.obj
 0001:0000d5f8       ??_C@_0L@CKELNLCE@GetDlgItem@ 000000018000e5f8     service.obj
 0001:0000d608       ??_C@_0L@DEGEGMGN@SetDlgItem@ 000000018000e608     service.obj
 0001:0000d618       ??_C@_0BK@EBIPEKDH@SubscribeDialogDrawEvents@ 000000018000e618     service.obj
 0001:0000d638       ??_C@_0L@MCFABBED@GetDirList@ 000000018000e638     service.obj
 0001:0000d644       ??_C@_06KCCBBIBJ@GetMsg@   000000018000e644     service.obj
 0001:0000d650       ??_C@_0BB@HIDBFOJJ@GetPluginDirList@ 000000018000e650     service.obj
 0001:0000d664       ??_C@_04IFEHPILC@Menu@     000000018000e664     service.obj
 0001:0000d670       ??_C@_07BEIHKDLJ@Message@  000000018000e670     service.obj
 0001:0000d678       ??_C@_0O@CGLFPNOD@RestoreScreen@ 000000018000e678     service.obj
 0001:0000d688       ??_C@_0L@PGGGPLFK@SaveScreen@ 000000018000e688     service.obj
 0001:0000d698       ??_C@_08DAHHHDJC@ShowHelp@ 000000018000e698     service.obj
 0001:0000d6a8       ??_C@_08IAADAJIH@InputBox@ 000000018000e6a8     service.obj
 0001:0000d6b8       ??_C@_0L@HHLOIHOP@AdvControl@ 000000018000e6b8     service.obj
 0001:0000d6c8       ??_C@_0N@GHGEMEN@MacroLoadAll@ 000000018000e6c8     service.obj
 0001:0000d6d8       ??_C@_0N@NAGBAPAE@MacroSaveAll@ 000000018000e6d8     service.obj
 0001:0000d6e8       ??_C@_0O@KGHDMPAJ@MacroGetState@ 000000018000e6e8     service.obj
 0001:0000d6f8       ??_C@_0N@PNLHCOIE@MacroGetArea@ 000000018000e6f8     service.obj
 0001:0000d708       ??_C@_09KGKKBHMO@MacroPost@ 000000018000e708     service.obj
 0001:0000d718       ??_C@_0L@KBAKOGFP@MacroCheck@ 000000018000e718     service.obj
 0001:0000d728       ??_C@_08KAFLEHAN@MacroAdd@ 000000018000e728     service.obj
 0001:0000d738       ??_C@_0M@KFMHCNNB@MacroDelete@ 000000018000e738     service.obj
 0001:0000d748       ??_C@_0BC@MJDKBAPF@MacroGetLastError@ 000000018000e748     service.obj
 0001:0000d760       ??_C@_0N@COEPENFH@MacroExecute@ 000000018000e760     service.obj
 0001:0000d770       ??_C@_0BB@BICELPOF@CreateFileFilter@ 000000018000e770     service.obj
 0001:0000d788       ??_C@_0L@CHJBHF@LoadPlugin@ 000000018000e788     service.obj
 0001:0000d798       ??_C@_0N@DHIONCLI@UnloadPlugin@ 000000018000e798     service.obj
 0001:0000d7a8       ??_C@_0BB@IJHIBGJA@ForcedLoadPlugin@ 000000018000e7a8     service.obj
 0001:0000d7c0       ??_C@_0L@DACPHGGH@FindPlugin@ 000000018000e7c0     service.obj
 0001:0000d7d0       ??_C@_0BF@KLOGLFMF@GetPluginInformation@ 000000018000e7d0     service.obj
 0001:0000d7e8       ??_C@_0L@JIDCIJHM@GetPlugins@ 000000018000e7e8     service.obj
 0001:0000d7f8       ??_C@_0P@IKAEEPOB@IsPluginLoaded@ 000000018000e7f8     service.obj
 0001:0000d808       ??_C@_0P@HMKEDHIE@CreateSettings@ 000000018000e808     service.obj
 0001:0000d818       ??_C@_0N@GOMOBHDB@FreeSettings@ 000000018000e818     service.obj
 0001:0000d828       ??_C@_0M@IFKFGKML@ColorDialog@ 000000018000e828     service.obj
 0001:0000d838       ??_C@_0BA@EOCNNPOG@CopyToClipboard@ 000000018000e838     service.obj
 0001:0000d848       ??_C@_0BD@PLIHDKFC@PasteFromClipboard@ 000000018000e848     service.obj
 0001:0000d860       ??_C@_0BC@FJDIKOMH@InputRecordToName@ 000000018000e860     service.obj
 0001:0000d878       ??_C@_0BC@FFNOIDFI@NameToInputRecord@ 000000018000e878     service.obj
 0001:0000d890       ??_C@_08HGLFNLMB@LStricmp@ 000000018000e890     service.obj
 0001:0000d8a0       ??_C@_09GALOFBAC@LStrnicmp@ 000000018000e8a0     service.obj
 0001:0000d8b0       ??_C@_0M@KPPMMAOL@ProcessName@ 000000018000e8b0     service.obj
 0001:0000d8c0       ??_C@_0M@KFCNKLDK@GetPathRoot@ 000000018000e8c0     service.obj
 0001:0000d8d0       ??_C@_0BE@EPGHGPJC@GetReparsePointInfo@ 000000018000e8d0     service.obj
 0001:0000d8e8       ??_C@_08DNJCLFF@LIsAlpha@  000000018000e8e8     service.obj
 0001:0000d8f8       ??_C@_0M@LKJIEECA@LIsAlphanum@ 000000018000e8f8     service.obj
 0001:0000d908       ??_C@_08MAHKICD@LIsLower@  000000018000e908     service.obj
 0001:0000d918       ??_C@_08FHLJMDJK@LIsUpper@ 000000018000e918     service.obj
 0001:0000d928       ??_C@_09LPKAHGM@LLowerBuf@ 000000018000e928     service.obj
 0001:0000d938       ??_C@_09GLKFOOEP@LUpperBuf@ 000000018000e938     service.obj
 0001:0000d944       ??_C@_06ILCHIEBO@MkTemp@   000000018000e944     service.obj
 0001:0000d94c       ??_C@_06DKBBJCCG@MkLink@   000000018000e94c     service.obj
 0001:0000d958       ??_C@_0N@CCDDAJK@TruncPathStr@ 000000018000e958     service.obj
 0001:0000d968       ??_C@_08BNEIIKEJ@TruncStr@ 000000018000e968     service.obj
 0001:0000d978       ??_C@_0BA@CLEHBIPM@RecursiveSearch@ 000000018000e978     service.obj
 0001:0000d988       ??_C@_0M@HKHGOOHG@ConvertPath@ 000000018000e988     service.obj
 0001:0000d994       ??_C@_04OCDKHGII@XLat@     000000018000e994     service.obj
 0001:0000d9a0       ??_C@_0P@BGLLKGOI@FormatFileSize@ 000000018000e9a0     service.obj
 0001:0000d9b0       ??_C@_08KJBLDCDF@FarClock@ 000000018000e9b0     service.obj
 0001:0000d9c0       ??_C@_0BD@ELMHPHAC@CPluginStartupInfo@ 000000018000e9c0     service.obj
 0001:0000d9d8       ??_C@_0BE@DJLJEKBK@GetCurrentDirectory@ 000000018000e9d8     service.obj
 0001:0000d9f0       ??_C@_0N@MOMBJEKA@GetFileOwner@ 000000018000e9f0     service.obj
 0001:0000da00       ??_C@_0BB@JBNBALEM@GetNumberOfLinks@ 000000018000ea00     service.obj
 0001:0000da18       ??_C@_0O@BJEAJNBH@MakeMenuItems@ 000000018000ea18     service.obj
 0001:0000da28       ??_C@_0BB@HLFLDCHO@RunDefaultScript@ 000000018000ea28     service.obj
 0001:0000da3c       ??_C@_04JLAJABDJ@Show@     000000018000ea3c     service.obj
 0001:0000da44       ??_C@_05NHFJDMOA@Timer@    000000018000ea44     service.obj
 0001:0000da4c       ??_C@_02KFNNKBCK@io@       000000018000ea4c     service.obj
 0001:0000da50       ??_C@_02EHCHIAMF@os@       000000018000ea50     service.obj
 0001:0000da54       ??_C@_04CFDJAKFL@math@     000000018000ea54     service.obj
 0001:0000da60       ??_C@_07GAJMMAJO@unicode@  000000018000ea60     service.obj
 0001:0000da68       ??_C@_03JECLAOEA@win@      000000018000ea68     service.obj
 0001:0000da70       ??_C@_09GJGOMOL@lua51?4dll@ 000000018000ea70     service.obj
 0001:0000da80       ??_C@_0M@PLOBHAKE@luaopen_bit@ 000000018000ea80     service.obj
 0001:0000da90       ??_C@_0M@IALDMMNC@luaopen_ffi@ 000000018000ea90     service.obj
 0001:0000daa0       ??_C@_0M@DOFFFIEL@luaopen_jit@ 000000018000eaa0     service.obj
 0001:0000dab0       ??_C@_0BE@OEPKKAAB@integer?5or?5userdata@ 000000018000eab0     service.obj
 0001:0000dac8       ??_C@_0BD@PNJHLBDA@invalid?5flag?3?5?$CC?$CFs?$CC@ 000000018000eac8     service.obj
 0001:0000dae0       ??_C@_0N@JJLBBDOC@invalid?5flag@ 000000018000eae0     service.obj
 0001:0000daf0       ??_C@_0BJ@MIKGPOKL@invalid?5flag?5combination@ 000000018000eaf0     service.obj
 0001:0000db10       ??_C@_0P@EANMLDOP@MousePositionX@ 000000018000eb10     service.obj
 0001:0000db20       ??_C@_0P@FJMHICKO@MousePositionY@ 000000018000eb20     service.obj
 0001:0000db30       ??_C@_0M@BJAICPIE@ButtonState@ 000000018000eb30     service.obj
 0001:0000db40       ??_C@_0L@EMFBJIPA@EventFlags@ 000000018000eb40     service.obj
 0001:0000db50       ??_C@_07EEJLMCNH@CurLine@  000000018000eb50     service.obj
 0001:0000db58       ??_C@_06EDBJMJDC@CurPos@   000000018000eb58     service.obj
 0001:0000db60       ??_C@_09EGONKHKB@CurTabPos@ 000000018000eb60     service.obj
 0001:0000db70       ??_C@_0O@OKGGHEJK@TopScreenLine@ 000000018000eb70     service.obj
 0001:0000db80       ??_C@_07GDAKJHLE@LeftPos@  000000018000eb80     service.obj
 0001:0000db88       ??_C@_08LLJICOLD@Overtype@ 000000018000eb88     service.obj
 0001:0000db98       ??_C@_0L@GEIEADPN@ModuleName@ 000000018000eb98     service.obj
 0001:0000dba8       ??_C@_09HOIHBHIM@ModuleDir@ 000000018000eba8     service.obj
 0001:0000dbb8       ??_C@_0L@JLHCLFBG@PluginGuid@ 000000018000ebb8     service.obj
 0001:0000dbc8       ??_C@_08GGMFPBHM@EditorID@ 000000018000ebc8     service.obj
 0001:0000dbd8       ??_C@_0M@CPDBGLHN@WindowSizeX@ 000000018000ebd8     service.obj
 0001:0000dbe8       ??_C@_0M@DGCKFKDM@WindowSizeY@ 000000018000ebe8     service.obj
 0001:0000dbf8       ??_C@_0L@PMKENHMA@TotalLines@ 000000018000ebf8     service.obj
 0001:0000dc08       ??_C@_09HKBEFIPN@BlockType@ 000000018000ec08     service.obj
 0001:0000dc18       ??_C@_0P@GAEEHNHE@BlockStartLine@ 000000018000ec18     service.obj
 0001:0000dc28       ??_C@_07KHIHFBFN@Options@  000000018000ec28     service.obj
 0001:0000dc30       ??_C@_07FLDNELFM@TabSize@  000000018000ec30     service.obj
 0001:0000dc38       ??_C@_0O@EBLDFOPH@BookmarkCount@ 000000018000ec38     service.obj
 0001:0000dc48       ??_C@_0BF@ODFKBFAK@SessionBookmarkCount@ 000000018000ec48     service.obj
 0001:0000dc60       ??_C@_08CPAOHJDL@CurState@ 000000018000ec60     service.obj
 0001:0000dc70       ??_C@_0N@DAJMJAE@StringLength@ 000000018000ec70     service.obj
 0001:0000dc80       ??_C@_08JPMALCFA@SelStart@ 000000018000ec80     service.obj
 0001:0000dc8c       ??_C@_06JLEHDHII@SelEnd@   000000018000ec8c     service.obj
 0001:0000dc98       ??_C@_0L@IFNFGDGN@StringText@ 000000018000ec98     service.obj
 0001:0000dca8       ??_C@_09IBGOAAEM@StringEOL@ 000000018000eca8     service.obj
 0001:0000dcb4       ??_C@_01LOCGONAA@?$AA@     000000018000ecb4     service.obj
 0001:0000dcb8       ??_C@_06MFLCIING@redraw@   000000018000ecb8     service.obj
 0001:0000dcc0       ??_C@_07HICINA@restore@    000000018000ecc0     service.obj
 0001:0000dcc8       ??_C@_0CG@LAKEGANL@must?5be?5?8redraw?8?0?5?8restore?8?0?5or@ 000000018000ecc8     service.obj
 0001:0000dcf0       ??_C@_04LIDDHMOL@Line@     000000018000ecf0     service.obj
 0001:0000dcf8       ??_C@_06OIIFPIKD@Cursor@   000000018000ecf8     service.obj
 0001:0000dd00       ??_C@_0L@GDDEHGKI@ScreenLine@ 000000018000ed00     service.obj
 0001:0000dd10       ??_C@_0O@CIAFMMMB@BlockStartPos@ 000000018000ed10     service.obj
 0001:0000dd20       ??_C@_0L@EKLJJHPF@BlockWidth@ 000000018000ed20     service.obj
 0001:0000dd30       ??_C@_0M@NKKGBDGK@BlockHeight@ 000000018000ed30     service.obj
 0001:0000dd40       ??_C@_09JFPCGCOC@StartLine@ 000000018000ed40     service.obj
 0001:0000dd50       ??_C@_08JBNOANJG@StartPos@ 000000018000ed50     service.obj
 0001:0000dd60       ??_C@_07DCKCOCOC@EndLine@  000000018000ed60     service.obj
 0001:0000dd68       ??_C@_06KGHIGMHC@EndPos@   000000018000ed68     service.obj
 0001:0000dd70       ??_C@_0BA@HNIJJEO@ForegroundColor@ 000000018000ed70     service.obj
 0001:0000dd80       ??_C@_0BA@DPMBBMBG@BackgroundColor@ 000000018000ed80     service.obj
 0001:0000dd90       ??_C@_0O@NHKEGDJF@GUID?5required@ 000000018000ed90     service.obj
 0001:0000dda0       ??_C@_0BJ@BMOGHFAN@table?5or?5number?5expected@ 000000018000eda0     service.obj
 0001:0000ddc0       ??_C@_08KGEIBGG@Priority@  000000018000edc0     service.obj
 0001:0000ddcc       ??_C@_05PDOBBJNA@Color@    000000018000edcc     service.obj
 0001:0000ddd8       ??_C@_09KDLBEGCN@EventType@ 000000018000edd8     service.obj
 0001:0000dde8       ??_C@_07HPHPOAEG@KeyDown@  000000018000ede8     service.obj
 0001:0000ddf0       ??_C@_0M@FGGHEADP@RepeatCount@ 000000018000edf0     service.obj
 0001:0000de00       ??_C@_0BA@KCCLHPM@VirtualScanCode@ 000000018000ee00     service.obj
 0001:0000de10       ??_C@_0M@PBJKDIHH@UnicodeChar@ 000000018000ee10     service.obj
 0001:0000de1c       ??_C@_05GIPJKPFG@SizeX@    000000018000ee1c     service.obj
 0001:0000de24       ??_C@_05HBOCJOBH@SizeY@    000000018000ee24     service.obj
 0001:0000de30       ??_C@_09GEJJJAHL@CommandId@ 000000018000ee30     service.obj
 0001:0000de40       ??_C@_08GPNNBNIL@SetFocus@ 000000018000ee40     service.obj
 0001:0000de50       ??_C@_0M@BEDENHPD@invalid?5key@ 000000018000ee50     service.obj
 0001:0000de60       ??_C@_19IBCFILMC@?$AAM?$AAe?$AAn?$AAu@ 000000018000ee60     service.obj
 0001:0000de70       ??_C@_0BN@JBAMKCCJ@must?5be?5table?0?5string?5or?5nil@ 000000018000ee70     service.obj
 0001:0000de90       ??_C@_09FDAFFNEA@MaxHeight@ 000000018000ee90     service.obj
 0001:0000de9c       ??_C@_06DDHCBBGN@Bottom@   000000018000ee9c     service.obj
 0001:0000dea8       ??_C@_09CFELDMD@HelpTopic@ 000000018000eea8     service.obj
 0001:0000deb8       ??_C@_0M@GGMLPAIK@SelectIndex@ 000000018000eeb8     service.obj
 0001:0000dec4       ??_C@_02HOGEDOAB@Id@       000000018000eec4     service.obj
 0001:0000dec8       ??_C@_07FJOBMBFC@checked@  000000018000eec8     service.obj
 0001:0000ded0       ??_C@_09MOAJOJKN@separator@ 000000018000eed0     service.obj
 0001:0000dee0       ??_C@_07DBNODEFN@disable@  000000018000eee0     service.obj
 0001:0000dee8       ??_C@_06JHIAOIKD@grayed@   000000018000eee8     service.obj
 0001:0000def0       ??_C@_06JIKFICKK@hidden@   000000018000eef0     service.obj
 0001:0000def8       ??_C@_08CJLOJPNI@selected@ 000000018000eef8     service.obj
 0001:0000df08       ??_C@_08MMCKBNNI@AccelKey@ 000000018000ef08     service.obj
 0001:0000df18       ??_C@_08PNHLLJE@BreakKey@  000000018000ef18     service.obj
 0001:0000df24       ??_C@_15FMBEJGOH@?$AAO?$AAk@ 000000018000ef24     service.obj
 0001:0000df30       ??_C@_1BC@IBCAPFAE@?$AAO?$AAk?$AAC?$AAa?$AAn?$AAc?$AAe?$AAl@ 000000018000ef30     service.obj
 0001:0000df48       ??_C@_1CC@HODOHOHB@?$AAA?$AAb?$AAo?$AAr?$AAt?$AAR?$AAe?$AAt?$AAr?$AAy?$AAI?$AAg?$AAn?$AAo?$AAr@ 000000018000ef48     service.obj
 0001:0000df70       ??_C@_1M@GGPOIMAD@?$AAY?$AAe?$AAs?$AAN?$AAo@ 000000018000ef70     service.obj
 0001:0000df80       ??_C@_1BI@BNDFIGCI@?$AAY?$AAe?$AAs?$AAN?$AAo?$AAC?$AAa?$AAn?$AAc?$AAe?$AAl@ 000000018000ef80     service.obj
 0001:0000df98       ??_C@_1BI@KMMIHPHF@?$AAR?$AAe?$AAt?$AAr?$AAy?$AAC?$AAa?$AAn?$AAc?$AAe?$AAl@ 000000018000ef98     service.obj
 0001:0000dfb0       ??_C@_1DG@LMKDDADI@?$AA?$DM?$AAn?$AAo?$AAn?$AA?9?$AAs?$AAt?$AAr?$AAi?$AAn?$AAg?$AA?5?$AAe?$AAr?$AAr@ 000000018000efb0     service.obj
 0001:0000dfe8       ??_C@_15IEGBJKPD@?$AA?3?$AA?6@ 000000018000efe8     service.obj
 0001:0000dff0       ??_C@_19FFLPMPBO@?$AA?6?$AA?5?$AA?5?$AA?5@ 000000018000eff0     service.obj
 0001:0000dffc       ??_C@_15JCKODCLA@?$AA?6?$AA?7@ 000000018000effc     service.obj
 0001:0000e008       ??_C@_1M@ILHOPKA@?$AAE?$AAr?$AAr?$AAo?$AAr@ 000000018000f008     service.obj
 0001:0000e018       ??_C@_08FNIIFOJC@tostring@ 000000018000f018     service.obj
 0001:0000e028       ??_C@_0BJ@JOELOGM@cannot?5convert?5to?5string@ 000000018000f028     service.obj
 0001:0000e048       ??_C@_1BA@HHOMBECE@?$AAM?$AAe?$AAs?$AAs?$AAa?$AAg?$AAe@ 000000018000f048     service.obj
 0001:0000e058       ??_C@_17PAGBAIDI@?$AA?$DL?$AAO?$AAK@ 000000018000f058     service.obj
 0001:0000e060       ??_C@_09ENKGJCEC@OwnerGuid@ 000000018000f060     service.obj
 0001:0000e070       ??_C@_0N@CCPLCIHE@PluginHandle@ 000000018000f070     service.obj
 0001:0000e080       ??_C@_0N@HEHBMBNM@PluginObject@ 000000018000f080     service.obj
 0001:0000e090       ??_C@_09BKHPOLGD@PanelType@ 000000018000f090     service.obj
 0001:0000e09c       ??_C@_04GOOOJOPP@left@     000000018000f09c     service.obj
 0001:0000e0a4       ??_C@_03FGFCOCMD@top@      000000018000f0a4     service.obj
 0001:0000e0a8       ??_C@_05DHJDAOHK@right@    000000018000f0a8     service.obj
 0001:0000e0b0       ??_C@_06PMMPCIPB@bottom@   000000018000f0b0     service.obj
 0001:0000e0b8       ??_C@_09MCEJMINN@PanelRect@ 000000018000f0b8     service.obj
 0001:0000e0c8       ??_C@_0M@DDGFKGKJ@ItemsNumber@ 000000018000f0c8     service.obj
 0001:0000e0d8       ??_C@_0BE@EOBAHHNK@SelectedItemsNumber@ 000000018000f0d8     service.obj
 0001:0000e0f0       ??_C@_0M@JMILNLLF@CurrentItem@ 000000018000f0f0     service.obj
 0001:0000e100       ??_C@_0N@CDHIFJIH@TopPanelItem@ 000000018000f100     service.obj
 0001:0000e110       ??_C@_08IMMBLBLF@ViewMode@ 000000018000f110     service.obj
 0001:0000e120       ??_C@_08CENECNJD@SortMode@ 000000018000f120     service.obj
 0001:0000e12c       ??_C@_04FABLJDN@Name@      000000018000f12c     service.obj
 0001:0000e134       ??_C@_05LOJBNELM@Param@    000000018000f134     service.obj
 0001:0000e13c       ??_C@_04PBAHLACE@File@     000000018000f13c     service.obj
 0001:0000e148       ??_C@_08HGEAFCFN@PluginId@ 000000018000f148     service.obj
 0001:0000e158       ??_C@_0BA@MLHECKCE@table?5or?5string@ 000000018000f158     service.obj
 0001:0000e168       ??_C@_0BD@CKJHMJBG@non?9positive?5index@ 000000018000f168     service.obj
 0001:0000e180       ??_C@_0BA@GNKNKKDM@number?5or?5table@ 000000018000f180     service.obj
 0001:0000e190       ??_C@_0CI@DDAJHJKO@?$CFs?5?9?5unsupported?5type?5in?5dialog@ 000000018000f190     service.obj
 0001:0000e1b8       ??_C@_0CD@JIANOKII@unsupported?5flag?5in?5dialog?5item@ 000000018000f1b8     service.obj
 0001:0000e1e0       ??_C@_0CB@EOGFCCCC@value?5at?5index?5?$CFd?5is?5not?5a?5tabl@ 000000018000f1e0     service.obj
 0001:0000e208       ??_C@_0O@FEBHKEHB@closed?5dialog@ 000000018000f208     service.obj
 0001:0000e218       ??_C@_0BK@NEMPGLFN@operation?5not?5implemented@ 000000018000f218     service.obj
 0001:0000e234       ??_C@_04KPCPLBPL@Left@     000000018000f234     service.obj
 0001:0000e23c       ??_C@_03PGGAENPN@Top@      000000018000f23c     service.obj
 0001:0000e240       ??_C@_05DADPALEM@Right@    000000018000f240     service.obj
 0001:0000e248       ??_C@_0CK@JHNDGJBB@element?5?$CD?$CFd?5in?5argument?5?$CD4?5is?5n@ 000000018000f248     service.obj
 0001:0000e278       ??_C@_0L@CECHCPAP@StartIndex@ 000000018000f278     service.obj
 0001:0000e284       ??_C@_05IJGIMMHE@Count@    000000018000f284     service.obj
 0001:0000e290       ??_C@_07NOCIGAPP@Pattern@  000000018000f290     service.obj
 0001:0000e298       ??_C@_09IMOCKOO@SelectPos@ 000000018000f298     service.obj
 0001:0000e2a4       ??_C@_06DJONBJOP@TopPos@   000000018000f2a4     service.obj
 0001:0000e2b0       ??_C@_09OGCBKCAK@MaxLength@ 000000018000f2b0     service.obj
 0001:0000e2bc       ??_C@_05FNNGFGLF@Index@    000000018000f2bc     service.obj
 0001:0000e2c8       ??_C@_07GHGHLGFI@GetType@  000000018000f2c8     service.obj
 0001:0000e2d0       ??_C@_07MMLMCDAI@ValType@  000000018000f2d0     service.obj
 0001:0000e2d8       ??_C@_05LPIJGKJ@Value@     000000018000f2d8     service.obj
 0001:0000e2e0       ??_C@_0L@LPFMIAHH@helpstring@ 000000018000f2e0     service.obj
 0001:0000e2f0       ??_C@_0P@NABDHFON@getvaluestring@ 000000018000f2f0     service.obj
 0001:0000e300       ??_C@_0BJ@IINAPFDG@Items?$FL?$CFd?$FN?5is?5not?5a?5table@ 000000018000f300     service.obj
 0001:0000e320       ??_C@_0CC@GBOJFNBI@error?5occured?5in?5dialog?5procedu@ 000000018000f320     service.obj
 0001:0000e348       ??_C@_0M@EHMONPJO@?$CFs?5?$CIclosed?$CJ@ 000000018000f348     service.obj
 0001:0000e358       ??_C@_08GDAJJKGC@ViewerID@ 000000018000f358     service.obj
 0001:0000e368       ??_C@_07MJHBHMFM@FilePos@  000000018000f368     service.obj
 0001:0000e370       ??_C@_07FBAHDBGN@CurMode@  000000018000f370     service.obj
 0001:0000e378       ??_C@_06IMBBKDFH@iParam@   000000018000f378     service.obj
 0001:0000e380       ??_C@_1BE@CGKCNEEP@?$AAI?$AAn?$AAp?$AAu?$AAt?$AA?5?$AAB?$AAo?$AAx@ 000000018000f380     service.obj
 0001:0000e398       ??_C@_1CA@PCDNIBFH@?$AAE?$AAn?$AAt?$AAe?$AAr?$AA?5?$AAt?$AAh?$AAe?$AA?5?$AAt?$AAe?$AAx?$AAt?$AA?3@ 000000018000f398     service.obj
 0001:0000e3b8       ??_C@_0BG@GAFLOAPP@command?5not?5supported@ 000000018000f3b8     service.obj
 0001:0000e3d0       ??_C@_09MIJAKHKB@Completed@ 000000018000f3d0     service.obj
 0001:0000e3dc       ??_C@_05KGEAEGFG@Total@    000000018000f3dc     service.obj
 0001:0000e3e8       ??_C@_0P@DJOANNIK@?$CFd?4?$CFd?4?$CFd?4?$CFd?4?$CFd@ 000000018000f3e8     service.obj
 0001:0000e3f8       ??_C@_03FCCPIJGJ@Pos@      000000018000f3f8     service.obj
 0001:0000e400       ??_C@_08NNKIOIN@TypeName@  000000018000f400     service.obj
 0001:0000e410       ??_C@_07ONPPLIAF@ErrCode@  000000018000f410     service.obj
 0001:0000e418       ??_C@_07LJDOKIBM@ErrPosX@  000000018000f418     service.obj
 0001:0000e420       ??_C@_07KACFJJFN@ErrPosY@  000000018000f420     service.obj
 0001:0000e428       ??_C@_06HBEFEBCM@ErrSrc@   000000018000f428     service.obj
 0001:0000e430       ??_C@_06LDIMCHFC@?$CF?$CKs?$CFs?5@ 000000018000f430     service.obj
 0001:0000e438       ??_C@_09HNJDNMKK@?$CF?$CF?$CFdd?$CF?$CFs?5@ 000000018000f438     service.obj
 0001:0000e448       ??_C@_0CC@JIGPFMKG@global?5?$GAtostring?8?5is?5not?5functi@ 000000018000f448     service.obj
 0001:0000e470       ??_C@_0CH@OINAPBOJ@tostring?$CI?$CJ?5returned?5a?5non?9strin@ 000000018000f470     service.obj
 0001:0000e498       ??_C@_04CIMGMMMG@text@     000000018000f498     service.obj
 0001:0000e4a0       ??_C@_03CAOIPBNL@arg@      000000018000f4a0     service.obj
 0001:0000e4b0       ??_C@_0ME@JDKAEDFJ@local?5items?0n?$DN?4?4?4?6local?5bottom?$DN@ 000000018000f4b0     service.obj
 0001:0000e578       ??_C@_0CG@FGNNCNLL@attempt?5to?5access?5invalid?5file?5@ 000000018000f578     service.obj
 0001:0000e5a0       ??_C@_07BJOIOONN@Strings@  000000018000f5a0     service.obj
 0001:0000e5a8       ??_C@_08FGAFMHLF@DiskMenu@ 000000018000f5a8     service.obj
 0001:0000e5b8       ??_C@_0L@NHENMPLN@PluginMenu@ 000000018000f5b8     service.obj
 0001:0000e5c8       ??_C@_0N@IEACHFBM@PluginConfig@ 000000018000f5c8     service.obj
 0001:0000e5d8       ??_C@_05GCJGCMFJ@PInfo@    000000018000f5d8     service.obj
 0001:0000e5e0       ??_C@_05HMEFBOHK@GInfo@    000000018000f5e0     service.obj
 0001:0000e5e8       ??_C@_0N@GAMEMCEE@invalid?5GUID@ 000000018000f5e8     service.obj
 0001:0000e5f8       ??_C@_0BP@NJEEOHDB@attempt?5to?5access?5closed?5timer@ 000000018000f5f8     service.obj
 0001:0000e618       ??_C@_05LGELBCGM@Close@    000000018000f618     service.obj
 0001:0000e620       ??_C@_07DOAOMMKG@Enabled@  000000018000f620     service.obj
 0001:0000e628       ??_C@_08KDKDEPAG@Interval@ 000000018000f628     service.obj
 0001:0000e638       ??_C@_07CIINKFND@OnTimer@  000000018000f638     service.obj
 0001:0000e640       ??_C@_06EFCDMIMC@Closed@   000000018000f640     service.obj
 0001:0000e648       ??_C@_0CE@LHJCBGGH@attempt?5to?5call?5non?9existent?5me@ 000000018000f648     service.obj
 0001:0000e670       ??_C@_0BO@PNFLEJKN@attempt?5to?5access?5a?5closed?5?$CFs@ 000000018000f670     service.obj
 0001:0000e690       ??_C@_04OKOFBOPB@Time@     000000018000f690     service.obj
 0001:0000e698       ??_C@_04LADJNOK@Lock@      000000018000f698     service.obj
 0001:0000e6a0       ??_C@_0N@ECMJOJJG@MacroCallFar@ 000000018000f6a0     service.obj
 0001:0000e6b0       ??_C@_0BC@JJHHFNMP@FarMacroCallToLua@ 000000018000f6b0     service.obj
 0001:0000e6c4       ??_C@_06GIFLLBB@editor@    000000018000f6c4     service.obj
 0001:0000e6cc       ??_C@_06DGPPOJKF@viewer@   000000018000f6cc     service.obj
 0001:0000e6d4       ??_C@_01DICPFPGM@k@        000000018000f6d4     service.obj
 0001:0000e6d8       ??_C@_06BPGFKLEK@__mode@   000000018000f6d8     service.obj
 0001:0000e6e0       ??_C@_1CC@OPOAGCKN@?$AA?2?$AAl?$AAu?$AAa?$AAf?$AAa?$AAr?$AA_?$AAi?$AAn?$AAi?$AAt?$AA?4?$AAl?$AAu@ 000000018000f6e0     service.obj
 0001:0000e708       ??_C@_1BG@BDOBMIBP@?$AAF?$AAA?$AAR?$AAP?$AAR?$AAO?$AAF?$AAI?$AAL?$AAE@ 000000018000f708     service.obj
 0001:0000e720       ??_C@_04LHHHFLPP@utf8@     000000018000f720     service.obj
 0001:0000e728       ??_C@_03EDMBFDDG@bit@      000000018000f728     service.obj
 0001:0000e72c       ??_C@_03IGHFHLNJ@jit@      000000018000f72c     service.obj
 0001:0000e730       ??_C@_08LBNNGFKE@_PRELOAD@ 000000018000f730     service.obj
 0001:0000e73c       ??_C@_03DIJDOPEA@ffi@      000000018000f73c     service.obj
 0001:0000e740       ??_C@_06ONNDGCDK@dofile@   000000018000f740     service.obj
 0001:0000e748       ??_C@_08BNNFLGCJ@loadfile@ 000000018000f748     service.obj
 0001:0000e754       ??_C@_03OFAPEBGM@?$CFs?6@  000000018000f754     service.obj
 0001:0000e758       __real@3ff0000000000000    000000018000f758     service.obj
 0001:0000e760       __real@4059000000000000    000000018000f760     service.obj
 0001:0000e768       __real@41e0000000000000    000000018000f768     service.obj
 0001:0000e770       __real@43f0000000000000    000000018000f770     service.obj
 0001:0000e780       __xmm@ffffffffffffffffffffffffffffffff 000000018000f780     service.obj
 0001:0000e8a0       ??_C@_04IHGKJMLH@byte@     000000018000f8a0     slnunico.obj
 0001:0000e8a8       ??_C@_04ENMBGAPA@char@     000000018000f8a8     slnunico.obj
 0001:0000e8b0       ??_C@_04GGLOKIEE@dump@     000000018000f8b0     slnunico.obj
 0001:0000e8b8       ??_C@_06DLEPGFEF@format@   000000018000f8b8     slnunico.obj
 0001:0000e8c0       ??_C@_05EIEIBDFD@gfind@    000000018000f8c0     slnunico.obj
 0001:0000e8c8       ??_C@_03BKCJCHLK@len@      000000018000f8c8     slnunico.obj
 0001:0000e8cc       ??_C@_05IPJEPLHL@lower@    000000018000f8cc     slnunico.obj
 0001:0000e8d4       ??_C@_03HOKODIMJ@rep@      000000018000f8d4     slnunico.obj
 0001:0000e8d8       ??_C@_07KOIEOCCE@reverse@  000000018000f8d8     slnunico.obj
 0001:0000e8e0       ??_C@_05NECKJAMC@upper@    000000018000f8e0     slnunico.obj
 0001:0000e8e8       ??_C@_09GCBMKPBD@utf8valid@ 000000018000f8e8     slnunico.obj
 0001:0000e8f4       ??_C@_04GMGOKAFF@mode@     000000018000f8f4     slnunico.obj
 0001:0000e900       ??_C@_0BG@DFAIEAEC@string?5slice?5too?5long@ 000000018000f900     slnunico.obj
 0001:0000e918       ??_C@_0O@EAJJMEEM@invalid?5value@ 000000018000f918     slnunico.obj
 0001:0000e928       ??_C@_0BO@BNLBHKJN@unable?5to?5dump?5given?5function@ 000000018000f928     slnunico.obj
 0001:0000e948       ??_C@_0BG@LEHNKOGD@invalid?5capture?5index@ 000000018000f948     slnunico.obj
 0001:0000e960       ??_C@_0BI@ECNPHIBF@invalid?5pattern?5capture@ 000000018000f960     slnunico.obj
 0001:0000e978       ??_C@_0CD@PLJBIEHA@malformed?5pattern?5?$CIends?5with?5?8?$CF@ 000000018000f978     slnunico.obj
 0001:0000e9a0       ??_C@_0CA@CFGACOGB@malformed?5pattern?5?$CImissing?5?8?$FN?8?$CJ@ 000000018000f9a0     slnunico.obj
 0001:0000e9c0       ??_C@_0BD@NGJIMPLI@unbalanced?5pattern@ 000000018000f9c0     slnunico.obj
 0001:0000e9d8       ??_C@_0BC@IMEAEJPD@too?5many?5captures@ 000000018000f9d8     slnunico.obj
 0001:0000e9f0       ??_C@_0BD@BFKNEALP@unfinished?5capture@ 000000018000f9f0     slnunico.obj
 0001:0000ea08       ??_C@_0L@NLFJOONJ@?$FO$?$CK?$CL?$DP?4?$CI?$FL?$CF?9@ 000000018000fa08     slnunico.obj
 0001:0000ea18       ??_C@_0CO@MAGJPEI@?8string?4gfind?8?5was?5renamed?5to?5?8@ 000000018000fa18     slnunico.obj
 0001:0000ea48       ??_C@_0BP@PPPOBACA@string?1function?1table?5expected@ 000000018000fa48     slnunico.obj
 0001:0000ea68       ??_C@_0CB@LPDIHGGA@invalid?5replacement?5value?5?$CIa?5?$CFs@ 000000018000fa68     slnunico.obj
 0001:0000ea8c       ??_C@_02HIBBOKEN@?2r@      000000018000fa8c     slnunico.obj
 0001:0000ea90       ??_C@_04MPDIABOK@?2000@    000000018000fa90     slnunico.obj
 0001:0000ea98       ??_C@_05GGBDHNF@?9?$CL?5?$CD0@ 000000018000fa98     slnunico.obj
 0001:0000eaa0       ??_C@_0CA@COOMGCAO@invalid?5format?5?$CIrepeated?5flags?$CJ@ 000000018000faa0     slnunico.obj
 0001:0000eac0       ??_C@_0CN@KALFEKPN@invalid?5format?5?$CIwidth?5or?5precis@ 000000018000fac0     slnunico.obj
 0001:0000eaf0       ??_C@_0CC@KIPBEOBI@invalid?5option?5?8?$CF?$CF?$CFc?8?5to?5?8forma@ 000000018000faf0     slnunico.obj
 0001:0000eb18       ??_C@_0O@EJMKHGFJ@unicode?4ascii@ 000000018000fb18     slnunico.obj
 0001:0000eb28       ??_C@_0P@CMOFLLND@unicode?4latin1@ 000000018000fb28     slnunico.obj
 0001:0000eb38       ??_C@_0BB@EFCDCNG@unicode?4grapheme@ 000000018000fb38     slnunico.obj
 0001:0000eb50       ??_C@_0N@DKIDGKBP@unicode?4utf8@ 000000018000fb50     slnunico.obj
 0001:0000ed40       ??_C@_05DFJCHPDH@input@    000000018000fd40     uliolib51.obj
 0001:0000ed48       ??_C@_06DKIGHACF@output@   000000018000fd48     uliolib51.obj
 0001:0000ed50       ??_C@_03KCHOJKKI@set@      000000018000fd50     uliolib51.obj
 0001:0000ed54       ??_C@_03LIBLMJMB@cur@      000000018000fd54     uliolib51.obj
 0001:0000ed58       ??_C@_03JBJLGPFL@end@      000000018000fd58     uliolib51.obj
 0001:0000ed5c       ??_C@_02KAJCLHKP@no@       000000018000fd5c     uliolib51.obj
 0001:0000ed60       ??_C@_04PLMLMMEO@full@     000000018000fd60     uliolib51.obj
 0001:0000ed68       ??_C@_04HJPCFDOP@line@     000000018000fd68     uliolib51.obj
 0001:0000ed70       ??_C@_05LBOHBHFK@close@    000000018000fd70     uliolib51.obj
 0001:0000ed78       ??_C@_05GLCAEPFP@flush@    000000018000fd78     uliolib51.obj
 0001:0000ed80       ??_C@_05DENOCHIP@lines@    000000018000fd80     uliolib51.obj
 0001:0000ed88       ??_C@_05IACAFMHP@popen@    000000018000fd88     uliolib51.obj
 0001:0000ed90       ??_C@_07FKJPAINK@tmpfile@  000000018000fd90     uliolib51.obj
 0001:0000ed98       ??_C@_05NGFEDHGN@write@    000000018000fd98     uliolib51.obj
 0001:0000eda0       ??_C@_04EDECCOGL@seek@     000000018000fda0     uliolib51.obj
 0001:0000eda8       ??_C@_07HHBPNGAN@setvbuf@  000000018000fda8     uliolib51.obj
 0001:0000edb0       ??_C@_06DJHOIPC@?$CFs?3?5?$CFs@ 000000018000fdb0     uliolib51.obj
 0001:0000edb8       ??_C@_02DKCKIIND@?$CFs@    000000018000fdb8     uliolib51.obj
 0001:0000edbc       ??_C@_05KCHOJJD@FILE?$CK@  000000018000fdbc     uliolib51.obj
 0001:0000edc8       ??_C@_0M@IBKPHHKH@closed?5file@ 000000018000fdc8     uliolib51.obj
 0001:0000edd4       ??_C@_04DAMGJPCA@file@     000000018000fdd4     uliolib51.obj
 0001:0000ede0       ??_C@_0BN@LPOOHAOM@attempt?5to?5use?5a?5closed?5file@ 000000018000fde0     uliolib51.obj
 0001:0000ee00       ??_C@_0BL@PEFGCPAG@cannot?5close?5standard?5file@ 000000018000fe00     uliolib51.obj
 0001:0000ee20       ??_C@_07DMJMBBKE@__close@  000000018000fe20     uliolib51.obj
 0001:0000ee28       ??_C@_0O@PLFAPHPG@file?5?$CIclosed?$CJ@ 000000018000fe28     uliolib51.obj
 0001:0000ee38       ??_C@_09BPMAMLLD@file?5?$CI?$CFp?$CJ@ 000000018000fe38     uliolib51.obj
 0001:0000ee48       ??_C@_17OBBFBLGE@?$AAr?$AAw?$AAa@ 000000018000fe48     uliolib51.obj
 0001:0000ee50       ??_C@_0CP@DHGANCPP@invalid?5mode?5?8?$CFs?8?5?$CIshould?5match@ 000000018000fe50     uliolib51.obj
 0001:0000ee80       ??_C@_0BL@JMNLNGCA@standard?5?$CFs?5file?5is?5closed@ 000000018000fe80     uliolib51.obj
 0001:0000ee9c       ??_C@_13CIFDLIMG@?$AAw@    000000018000fe9c     uliolib51.obj
 0001:0000eea0       ??_C@_03DLDNIBIK@?$CFlf@   000000018000fea0     uliolib51.obj
 0001:0000eea8       ??_C@_0BD@IOJAAODF@too?5many?5arguments@ 000000018000fea8     uliolib51.obj
 0001:0000eec0       ??_C@_0P@PJFAGLMH@invalid?5option@ 000000018000fec0     uliolib51.obj
 0001:0000eed0       ??_C@_0P@CENJCLHM@invalid?5format@ 000000018000fed0     uliolib51.obj
 0001:0000eee0       ??_C@_0BH@PBGIDLEF@file?5is?5already?5closed@ 000000018000fee0     uliolib51.obj
 0001:0000eef8       ??_C@_05CGOEHEFE@?$CF?414g@ 000000018000fef8     uliolib51.obj
 0001:0000ef00       ??_C@_0DB@KKADAMFH@rawhandle?5is?5only?5available?5in?5@ 000000018000ff00     uliolib51.obj
 0001:0000ef34       ??_C@_05MHOFLBOO@stdin@    000000018000ff34     uliolib51.obj
 0001:0000ef3c       ??_C@_06DJDOIFHB@stdout@   000000018000ff3c     uliolib51.obj
 0001:0000ef44       ??_C@_06FJGNEBG@stderr@    000000018000ff44     uliolib51.obj
 0001:0000efe0       ??_C@_07KOEABFCN@loadlib@  000000018000ffe0     uloadlib51.obj
 0001:0000efe8       ??_C@_06LNOHAKGK@seeall@   000000018000ffe8     uloadlib51.obj
 0001:0000eff0       ??_C@_06BIEEJMKO@module@   000000018000fff0     uloadlib51.obj
 0001:0000eff8       ??_C@_07FFLLPPLH@require@  000000018000fff8     uloadlib51.obj
 0001:0000f000       ??_C@_0BN@GMPFCLAN@unable?5to?5get?5ModuleFileName@ 0000000180010000     uloadlib51.obj
 0001:0000f020       ??_C@_13MGDFOILI@?$AA?$CB@ 0000000180010020     uloadlib51.obj
 0001:0000f028       ??_C@_09GMLHALBF@LOADLIB?3?5@ 0000000180010028     uloadlib51.obj
 0001:0000f034       ??_C@_04HDOCAJNK@?$CFs?$CFs@ 0000000180010034     uloadlib51.obj
 0001:0000f040       ??_C@_08HNNNOMMJ@_LOADLIB@ 0000000180010040     uloadlib51.obj
 0001:0000f04c       ??_C@_04HKFDNBLD@init@     000000018001004c     uloadlib51.obj
 0001:0000f054       ??_C@_13FPGAJAPJ@?$AA?2@   0000000180010054     uloadlib51.obj
 0001:0000f058       ??_C@_13JOFGPIOO@?$AA?4@   0000000180010058     uloadlib51.obj
 0001:0000f060       ??_C@_0BO@COFCKCAL@?8package?4?$CFs?8?5must?5be?5a?5string@ 0000000180010060     uloadlib51.obj
 0001:0000f080       ??_C@_0CE@EPEHLLIH@?8package?4?$CFs?8?5contains?5invalid?5U@ 0000000180010080     uloadlib51.obj
 0001:0000f0a4       ??_C@_13HGPDMIBE@?$AA?$DP@ 00000001800100a4     uloadlib51.obj
 0001:0000f0a8       ??_C@_0P@NEBKIMDC@?6?7no?5file?5?8?$CFs?8@ 00000001800100a8     uloadlib51.obj
 0001:0000f0b8       ??_C@_0CO@KHMIPLKM@error?5loading?5module?5?8?$CFs?8?5from?5@ 00000001800100b8     uloadlib51.obj
 0001:0000f0e8       ??_C@_04LNEJFJGI@path@     00000001800100e8     uloadlib51.obj
 0001:0000f0f0       ??_C@_01IDAFKMJL@_@        00000001800100f0     uloadlib51.obj
 0001:0000f0f4       ??_C@_01LFCBOECM@?4@       00000001800100f4     uloadlib51.obj
 0001:0000f0f8       ??_C@_0L@KHKMBFOE@luaopen_?$CFs@ 00000001800100f8     uloadlib51.obj
 0001:0000f104       ??_C@_05EEMJHCCC@cpath@    0000000180010104     uloadlib51.obj
 0001:0000f110       ??_C@_0BO@KOILFIGK@?6?7no?5module?5?8?$CFs?8?5in?5file?5?8?$CFs?8@ 0000000180010110     uloadlib51.obj
 0001:0000f130       ??_C@_0CC@CCJHFBLH@?8package?4preload?8?5must?5be?5a?5tab@ 0000000180010130     uloadlib51.obj
 0001:0000f158       ??_C@_0CB@NPNABMBF@?6?7no?5field?5package?4preload?$FL?8?$CFs?8@ 0000000180010158     uloadlib51.obj
 0001:0000f180       ??_C@_07PINPBNPB@_LOADED@  0000000180010180     uloadlib51.obj
 0001:0000f188       ??_C@_0CL@DIEJCPFH@loop?5or?5previous?5error?5loading?5@ 0000000180010188     uloadlib51.obj
 0001:0000f1b8       ??_C@_07JAOCDFCG@loaders@  00000001800101b8     uloadlib51.obj
 0001:0000f1c0       ??_C@_0CC@IGEJMOFI@?8package?4loaders?8?5must?5be?5a?5tab@ 00000001800101c0     uloadlib51.obj
 0001:0000f1e8       ??_C@_0BJ@HFHHABH@module?5?8?$CFs?8?5not?5found?3?$CFs@ 00000001800101e8     uloadlib51.obj
 0001:0000f204       ??_C@_01INIBCBCB@f@        0000000180010204     uloadlib51.obj
 0001:0000f208       ??_C@_0CI@GKOMOAFD@?8module?8?5not?5called?5from?5a?5Lua?5@ 0000000180010208     uloadlib51.obj
 0001:0000f230       ??_C@_02CCIJHOCI@_M@       0000000180010230     uloadlib51.obj
 0001:0000f234       ??_C@_05ICMCJINN@_NAME@    0000000180010234     uloadlib51.obj
 0001:0000f240       ??_C@_08HONLOGDK@_PACKAGE@ 0000000180010240     uloadlib51.obj
 0001:0000f250       ??_C@_0BO@CBJIAGLF@name?5conflict?5for?5module?5?8?$CFs?8@ 0000000180010250     uloadlib51.obj
 0001:0000f270       ??_C@_17KOAMMDLI@?$AA?$DL?$AA?$AB?$AA?$DL@ 0000000180010270     uloadlib51.obj
 0001:0000f278       ??_C@_15HKKNGJC@?$AA?$DL?$AA?$DL@ 0000000180010278     uloadlib51.obj
 0001:0000f280       ??_C@_13GGAHEHIG@?$AA?$AB@ 0000000180010280     uloadlib51.obj
 0001:0000f290       ??_C@_1HE@JLDBNBHO@?$AA?4?$AA?2?$AA?$DP?$AA?4?$AAl?$AAu?$AAa?$AA?$DL?$AA?$CB?$AA?2?$AAl?$AAu?$AAa?$AA?2?$AA?$DP@ 0000000180010290     uloadlib51.obj
 0001:0000f308       ??_C@_1BC@ILFFIBFI@?$AAL?$AAU?$AAA?$AA_?$AAP?$AAA?$AAT?$AAH@ 0000000180010308     uloadlib51.obj
 0001:0000f320       ??_C@_1DM@FGPGEDD@?$AA?4?$AA?2?$AA?$DP?$AA?4?$AAd?$AAl?$AAl?$AA?$DL?$AA?$CB?$AA?2?$AA?$DP?$AA?4?$AAd?$AAl?$AAl@ 0000000180010320     uloadlib51.obj
 0001:0000f360       ??_C@_1BE@EFNILHBI@?$AAL?$AAU?$AAA?$AA_?$AAC?$AAP?$AAA?$AAT?$AAH@ 0000000180010360     uloadlib51.obj
 0001:0000f378       ??_C@_1BE@CKNDCMBB@?$AA?2?$AA?6?$AA?$DL?$AA?6?$AA?$DP?$AA?6?$AA?$CB?$AA?6?$AA?9@ 0000000180010378     uloadlib51.obj
 0001:0000f38c       ??_C@_06HEJKKHEK@config@   000000018001038c     uloadlib51.obj
 0001:0000f394       ??_C@_06IILMCCFO@loaded@   0000000180010394     uloadlib51.obj
 0001:0000f3a0       ustring_funcs              00000001800103a0     ustring.obj
 0001:0000f590       ??_C@_0BE@DEHGONAH@EnumSystemCodePages@ 0000000180010590     ustring.obj
 0001:0000f5a4       ??_C@_06FMJLOCAF@GetACP@   00000001800105a4     ustring.obj
 0001:0000f5b0       ??_C@_09HLFMNDA@GetCPInfo@ 00000001800105b0     ustring.obj
 0001:0000f5c0       ??_C@_0O@PIBBCLJF@GetCurrentDir@ 00000001800105c0     ustring.obj
 0001:0000f5d0       ??_C@_0N@IIBOJKJ@GetDriveType@ 00000001800105d0     ustring.obj
 0001:0000f5e0       ??_C@_0M@KHMMJMNI@GetFileAttr@ 00000001800105e0     ustring.obj
 0001:0000f5f0       ??_C@_0M@ONGMCNNE@GetKeyState@ 00000001800105f0     ustring.obj
 0001:0000f600       ??_C@_0BH@KKAFOIJJ@GetLogicalDriveStrings@ 0000000180010600     ustring.obj
 0001:0000f618       ??_C@_08OMCNFONF@GetOEMCP@ 0000000180010618     ustring.obj
 0001:0000f628       ??_C@_0N@EBDGNADB@GetConsoleCP@ 0000000180010628     ustring.obj
 0001:0000f638       ??_C@_0N@DFIIBMHN@SetConsoleCP@ 0000000180010638     ustring.obj
 0001:0000f648       ??_C@_0BD@LLGELLLN@GetConsoleOutputCP@ 0000000180010648     ustring.obj
 0001:0000f660       ??_C@_0BD@EBEOINFF@SetConsoleOutputCP@ 0000000180010660     ustring.obj
 0001:0000f678       ??_C@_0BD@IHIHPGDL@GlobalMemoryStatus@ 0000000180010678     ustring.obj
 0001:0000f690       ??_C@_0BE@HCIKGJGE@MultiByteToWideChar@ 0000000180010690     ustring.obj
 0001:0000f6a8       ??_C@_09EPINLGBH@OemToUtf8@ 00000001800106a8     ustring.obj
 0001:0000f6b8       ??_C@_0BC@NFCPMJFM@OutputDebugString@ 00000001800106b8     ustring.obj
 0001:0000f6d0       ??_C@_0BA@MNJFBAJH@SHGetFolderPath@ 00000001800106d0     ustring.obj
 0001:0000f6e0       ??_C@_0L@PMCLJMMJ@SearchPath@ 00000001800106e0     ustring.obj
 0001:0000f6f0       ??_C@_0O@IHAPJIOC@SetCurrentDir@ 00000001800106f0     ustring.obj
 0001:0000f700       ??_C@_0M@KINCEKFL@SetFileAttr@ 0000000180010700     ustring.obj
 0001:0000f70c       ??_C@_05PFDOMJEF@Sleep@    000000018001070c     ustring.obj
 0001:0000f718       ??_C@_0M@KJELMDJD@Utf16ToUtf8@ 0000000180010718     ustring.obj
 0001:0000f728       ??_C@_09LCEKPEGC@Utf8ToOem@ 0000000180010728     ustring.obj
 0001:0000f738       ??_C@_0M@GJGCILHG@Utf8ToUtf16@ 0000000180010738     ustring.obj
 0001:0000f744       ??_C@_04NDFIEGPL@Uuid@     0000000180010744     ustring.obj
 0001:0000f750       ??_C@_0BE@LJADKLBD@WideCharToMultiByte@ 0000000180010750     ustring.obj
 0001:0000f764       ??_C@_04GFOHBGIO@subW@     0000000180010764     ustring.obj
 0001:0000f76c       ??_C@_06FHFOAHML@system@   000000018001076c     ustring.obj
 0001:0000f774       ??_C@_04NOFELICG@lenW@     0000000180010774     ustring.obj
 0001:0000f780       ??_C@_0BB@BLJKPILH@system?5error?5?$CFd?6@ 0000000180010780     ustring.obj
 0001:0000f798       ??_C@_0BJ@MEAJDMDL@invalid?5multibyte?5string@ 0000000180010798     ustring.obj
 0001:0000f7b8       ??_C@_0BG@ELIKBHAO@invalid?5UTF?916?5string@ 00000001800107b8     ustring.obj
 0001:0000f7d0       ??_C@_0M@KJGJBDLL@MaxCharSize@ 00000001800107d0     ustring.obj
 0001:0000f7e0       ??_C@_0M@IMOFNPBB@DefaultChar@ 00000001800107e0     ustring.obj
 0001:0000f7f0       ??_C@_08HIIJAENB@LeadByte@ 00000001800107f0     ustring.obj
 0001:0000f800       ??_C@_0BD@CBNPFFPH@UnicodeDefaultChar@ 0000000180010800     ustring.obj
 0001:0000f818       ??_C@_0N@DJCOCBOB@CodePageName@ 0000000180010818     ustring.obj
 0001:0000f828       ??_C@_0N@IFJMFGJK@unknown?5type@ 0000000180010828     ustring.obj
 0001:0000f838       ??_C@_0BC@GPFCFLGN@no?5root?5directory@ 0000000180010838     ustring.obj
 0001:0000f850       ??_C@_09HPGMKNKO@removable@ 0000000180010850     ustring.obj
 0001:0000f85c       ??_C@_05OFLEIIDM@fixed@    000000018001085c     ustring.obj
 0001:0000f864       ??_C@_06IMIHEKN@remote@    0000000180010864     ustring.obj
 0001:0000f86c       ??_C@_05POABADMF@cdrom@    000000018001086c     ustring.obj
 0001:0000f878       ??_C@_07BHCBOAMP@ramdisk@  0000000180010878     ustring.obj
 0001:0000f880       ??_C@_0L@PLJFMBIJ@MemoryLoad@ 0000000180010880     ustring.obj
 0001:0000f890       ??_C@_09MMAOIBBJ@TotalPhys@ 0000000180010890     ustring.obj
 0001:0000f8a0       ??_C@_09KFOEOLH@AvailPhys@ 00000001800108a0     ustring.obj
 0001:0000f8b0       ??_C@_0O@PEEMGPEP@TotalPageFile@ 00000001800108b0     ustring.obj
 0001:0000f8c0       ??_C@_0O@LLHOKNF@AvailPageFile@ 00000001800108c0     ustring.obj
 0001:0000f8d0       ??_C@_0N@LCJEOHMM@TotalVirtual@ 00000001800108d0     ustring.obj
 0001:0000f8e0       ??_C@_0N@EGHLANBF@AvailVirtual@ 00000001800108e0     ustring.obj
 0001:0000f8f0       ??_C@_0BF@KKNLCGDE@AvailExtendedVirtual@ 00000001800108f0     ustring.obj
 0001:0000f908       ??_C@_0P@KJDDGAFH@FileAttributes@ 0000000180010908     ustring.obj
 0001:0000f918       ??_C@_07JOJHCKGP@ustring@  0000000180010918     ustring.obj
 0001:000101a0       ??_C@_0DJ@KKHMCMAP@bad?5field?5?$FL?$CFd?$FN?5in?5table?5stackpo@ 00000001800111a0     util.obj
 0001:000101e0       ??_C@_0DJ@PFHHGAMM@bad?5field?5?8?$CFs?8?5in?5table?5stackpo@ 00000001800111e0     util.obj
 0001:0001021c       ??_C@_06EBGNBFIA@number@   000000018001121c     util.obj
 0001:00010230       win_funcs                  0000000180011230     win.obj
 0001:00010c70       ??_C@_0O@CFPMOCDP@CompareString@ 0000000180011c70     win.obj
 0001:00010c80       ??_C@_08PPLNFCGA@CopyFile@ 0000000180011c80     win.obj
 0001:00010c90       ??_C@_09INHPLKKM@CreateDir@ 0000000180011c90     win.obj
 0001:00010ca0       ??_C@_0L@GPLPOFDC@DeleteFile@ 0000000180011ca0     win.obj
 0001:00010cb0       ??_C@_0N@FOJPHHPH@DeleteRegKey@ 0000000180011cb0     win.obj
 0001:00010cc0       ??_C@_0P@PCCDOIAL@DeleteRegValue@ 0000000180011cc0     win.obj
 0001:00010cd0       ??_C@_0L@DGAGCFOP@EnumRegKey@ 0000000180011cd0     win.obj
 0001:00010ce0       ??_C@_0N@PFFNCIBD@EnumRegValue@ 0000000180011ce0     win.obj
 0001:00010cf0       ??_C@_0L@MGMEFCAE@ExtractKey@ 0000000180011cf0     win.obj
 0001:00010d00       ??_C@_0N@HALOIPMN@ExtractKeyEx@ 0000000180011d00     win.obj
 0001:00010d10       ??_C@_0BI@EKFDIGHI@FileTimeToLocalFileTime@ 0000000180011d10     win.obj
 0001:00010d28       ??_C@_0BF@KPJNHALE@FileTimeToSystemTime@ 0000000180011d28     win.obj
 0001:00010d40       ??_C@_0BL@NAIJNMLL@GetConsoleScreenBufferInfo@ 0000000180011d40     win.obj
 0001:00010d5c       ??_C@_06CALCCDMF@GetEnv@   0000000180011d5c     win.obj
 0001:00010d68       ??_C@_0M@EINGHLOA@GetFileInfo@ 0000000180011d68     win.obj
 0001:00010d78       ??_C@_09GFGIAJLD@GetRegKey@ 0000000180011d78     win.obj
 0001:00010d88       ??_C@_0BI@ENMDHCMK@GetSystemTimeAsFileTime@ 0000000180011d88     win.obj
 0001:00010da0       ??_C@_0P@GGGHOPAD@GetVirtualKeys@ 0000000180011da0     win.obj
 0001:00010db0       ??_C@_0P@MIPPOCAO@IsProcess64bit@ 0000000180011db0     win.obj
 0001:00010dc0       ??_C@_08CALLHOCI@MoveFile@ 0000000180011dc0     win.obj
 0001:00010dd0       ??_C@_09EDKALOCB@RemoveDir@ 0000000180011dd0     win.obj
 0001:00010de0       ??_C@_0L@HBAGBENL@RenameFile@ 0000000180011de0     win.obj
 0001:00010dec       ??_C@_06LDCDJLBI@SetEnv@   0000000180011dec     win.obj
 0001:00010df8       ??_C@_09ELCNCICB@SetRegKey@ 0000000180011df8     win.obj
 0001:00010e08       ??_C@_0N@BFFIJKHB@ShellExecute@ 0000000180011e08     win.obj
 0001:00010e18       ??_C@_0BF@HBHGIPOG@SystemTimeToFileTime@ 0000000180011e18     win.obj
 0001:00010e30       ??_C@_06DNONFAKH@wcscmp@   0000000180011e30     win.obj
 0001:00010e38       ??_C@_04CBBMIBLK@HKLM@     0000000180011e38     win.obj
 0001:00010e40       ??_C@_04LEMDOLAJ@HKCC@     0000000180011e40     win.obj
 0001:00010e48       ??_C@_04OHBKMIBJ@HKCR@     0000000180011e48     win.obj
 0001:00010e50       ??_C@_04KIFLFONO@HKCU@     0000000180011e50     win.obj
 0001:00010e58       ??_C@_03DLBIJLAB@HKU@      0000000180011e58     win.obj
 0001:00010e60       ??_C@_0DA@DKALLFDI@must?5be?5?8HKLM?8?0?5?8HKCC?8?0?5?8HKCR?8?0@ 0000000180011e60     win.obj
 0001:00010e90       ??_C@_05KDALNKAH@dword@    0000000180011e90     win.obj
 0001:00010e98       ??_C@_06FNFBAEBE@binary@   0000000180011e98     win.obj
 0001:00010ea0       ??_C@_0N@CBOMHLPN@expandstring@ 0000000180011ea0     win.obj
 0001:00010eb0       ??_C@_0M@PEGIPCHN@multistring@ 0000000180011eb0     win.obj
 0001:00010ec0       ??_C@_0BH@NOJOGNJM@unsupported?5value?5type@ 0000000180011ec0     win.obj
 0001:00010ed8       ??_C@_0BD@MJODDCFG@OpenRegKey?5failed?4@ 0000000180011ed8     win.obj
 0001:00010ef0       ??_C@_0BI@COLHBIIE@RegQueryValueEx?5failed?4@ 0000000180011ef0     win.obj
 0001:00010f08       ??_C@_1BK@BIGILECK@?$AAA?$AAd?$AAv?$AAa?$AAp?$AAi?$AA3?$AA2?$AA?4?$AAd?$AAl?$AAl@ 0000000180011f08     win.obj
 0001:00010f28       ??_C@_0BA@LILAPHGE@RegDeleteKeyExW@ 0000000180011f28     win.obj
 0001:00010f38       ??_C@_0BG@HHFHBIKG@RegOpenKeyExW?5failed?4@ 0000000180011f38     win.obj
 0001:00010f50       ??_C@_05DFPNHDMN@wYear@    0000000180011f50     win.obj
 0001:00010f58       ??_C@_06MGNNJGBJ@wMonth@   0000000180011f58     win.obj
 0001:00010f60       ??_C@_0L@OAHPHHP@wDayOfWeek@ 0000000180011f60     win.obj
 0001:00010f6c       ??_C@_04NBLBJIPP@wDay@     0000000180011f6c     win.obj
 0001:00010f74       ??_C@_05BMOPCGDH@wHour@    0000000180011f74     win.obj
 0001:00010f80       ??_C@_07HPODENI@wMinute@   0000000180011f80     win.obj
 0001:00010f88       ??_C@_07IIEDHHJN@wSecond@  0000000180011f88     win.obj
 0001:00010f90       ??_C@_0O@HBAPEOKP@wMilliseconds@ 0000000180011f90     win.obj
 0001:00010fa0       ??_C@_01LKDEMHDF@s@        0000000180011fa0     win.obj
 0001:00010fa8       ??_C@_0BA@IAFODGNM@CursorPositionX@ 0000000180011fa8     win.obj
 0001:00010fb8       ??_C@_0BA@JJEFAHJN@CursorPositionY@ 0000000180011fb8     win.obj
 0001:00010fc8       ??_C@_0L@NFCEOFBF@WindowLeft@ 0000000180011fc8     win.obj
 0001:00010fd8       ??_C@_09JHGOALHG@WindowTop@ 0000000180011fd8     win.obj
 0001:00010fe8       ??_C@_0M@HHPHMPGH@WindowRight@ 0000000180011fe8     win.obj
 0001:00010ff8       ??_C@_0N@JPIJCAOJ@WindowBottom@ 0000000180011ff8     win.obj
 0001:00011008       ??_C@_0BD@DOLDEII@MaximumWindowSizeX@ 0000000180012008     win.obj
 0001:00011020       ??_C@_0BD@BKPAAFMJ@MaximumWindowSizeY@ 0000000180012020     win.obj
 0001:00011034       ??_C@_01PFHFFBPC@t@        0000000180012034     win.obj
 0001:00011038       ??_C@_0BJ@LPJMBJJL@directory?5already?5exists@ 0000000180012038     win.obj
 0001:00011058       __real@41f0000000000000    0000000180012058     win.obj
 0001:00011060       _pDefaultRawDllMain        0000000180012060     LIBCMT:dll_dllmain.obj
 0001:00011060       _pRawDllMain               0000000180012060     LIBCMT:dll_dllmain.obj
 0001:00011068       _pDestructExceptionObject  0000000180012068     libvcruntime:ehhelpers.obj
 0001:000113a8       ??_C@_08EHJDFFNH@__based?$CI@ 00000001800123a8     libvcruntime:undname.obj
 0001:000113b8       ??_C@_07KOLFKCDI@__cdecl@  00000001800123b8     libvcruntime:undname.obj
 0001:000113c0       ??_C@_08GHMPAG@__pascal@   00000001800123c0     libvcruntime:undname.obj
 0001:000113d0       ??_C@_09IFJBGAPI@__stdcall@ 00000001800123d0     libvcruntime:undname.obj
 0001:000113e0       ??_C@_0L@NPHFGOKO@__thiscall@ 00000001800123e0     libvcruntime:undname.obj
 0001:000113f0       ??_C@_0L@JMKHOMEK@__fastcall@ 00000001800123f0     libvcruntime:undname.obj
 0001:00011400       ??_C@_0N@BCKKPABJ@__vectorcall@ 0000000180012400     libvcruntime:undname.obj
 0001:00011410       ??_C@_09HIJEGCPM@__clrcall@ 0000000180012410     libvcruntime:undname.obj
 0001:0001141c       ??_C@_06GHPCKEAG@__eabi@   000000018001241c     libvcruntime:undname.obj
 0001:00011428       ??_C@_09IOPIDJLG@__swift_1@ 0000000180012428     libvcruntime:undname.obj
 0001:00011438       ??_C@_09KFNFGKHF@__swift_2@ 0000000180012438     libvcruntime:undname.obj
 0001:00011448       ??_C@_07JOMMBBKO@__ptr64@  0000000180012448     libvcruntime:undname.obj
 0001:00011450       ??_C@_0L@PILCLIHE@__restrict@ 0000000180012450     libvcruntime:undname.obj
 0001:00011460       ??_C@_0M@GFIIJFMG@__unaligned@ 0000000180012460     libvcruntime:undname.obj
 0001:00011470       ??_C@_09DHDLOLLB@restrict?$CI@ 0000000180012470     libvcruntime:undname.obj
 0001:0001147c       ??_C@_04NIHEBCM@?5new@     000000018001247c     libvcruntime:undname.obj
 0001:00011488       ??_C@_07FPCDHGMM@?5delete@ 0000000180012488     libvcruntime:undname.obj
 0001:00011490       ??_C@_01NEMOKFLO@?$DN@     0000000180012490     libvcruntime:undname.obj
 0001:00011494       ??_C@_02GPIOPFAK@?$DO?$DO@ 0000000180012494     libvcruntime:undname.obj
 0001:00011498       ??_C@_02FODMEDOG@?$DM?$DM@ 0000000180012498     libvcruntime:undname.obj
 0001:0001149c       ??_C@_01DCLJPIOD@?$CB@     000000018001249c     libvcruntime:undname.obj
 0001:000114a0       ??_C@_02EGOFBIJA@?$DN?$DN@ 00000001800124a0     libvcruntime:undname.obj
 0001:000114a4       ??_C@_02FDNJECIE@?$CB?$DN@ 00000001800124a4     libvcruntime:undname.obj
 0001:000114a8       ??_C@_02GPECMEKF@?$FL?$FN@ 00000001800124a8     libvcruntime:undname.obj
 0001:000114b0       ??_C@_08LHJFAFGD@operator@ 00000001800124b0     libvcruntime:undname.obj
 0001:000114bc       ??_C@_02HBOOOICD@?9?$DO@   00000001800124bc     libvcruntime:undname.obj
 0001:000114c0       ??_C@_01NBENCBCI@?$CK@     00000001800124c0     libvcruntime:undname.obj
 0001:000114c4       ??_C@_02ECNGHCIF@?$CL?$CL@ 00000001800124c4     libvcruntime:undname.obj
 0001:000114c8       ??_C@_02BAABKJLB@?9?9@     00000001800124c8     libvcruntime:undname.obj
 0001:000114cc       ??_C@_01JOAMLHOP@?9@       00000001800124cc     libvcruntime:undname.obj
 0001:000114d0       ??_C@_01MIFGBAGJ@?$CL@     00000001800124d0     libvcruntime:undname.obj
 0001:000114d4       ??_C@_01HNPIGOCE@?$CG@     00000001800124d4     libvcruntime:undname.obj
 0001:000114d8       ??_C@_03MNHNFDLC@?9?$DO?$CK@ 00000001800124d8     libvcruntime:undname.obj
 0001:000114dc       ??_C@_01FGNFDNOH@?$CF@     00000001800124dc     libvcruntime:undname.obj
 0001:000114e0       ??_C@_01MNNFJEPP@?$DM@     00000001800124e0     libvcruntime:undname.obj
 0001:000114e4       ??_C@_02EHCHHCKH@?$DM?$DN@ 00000001800124e4     libvcruntime:undname.obj
 0001:000114e8       ??_C@_01PPODPGHN@?$DO@     00000001800124e8     libvcruntime:undname.obj
 0001:000114ec       ??_C@_02EEKDKGMJ@?$DO?$DN@ 00000001800124ec     libvcruntime:undname.obj
 0001:000114f0       ??_C@_01IHBHIGKO@?0@       00000001800124f0     libvcruntime:undname.obj
 0001:000114f4       ??_C@_02HCKGKOFO@?$CI?$CJ@ 00000001800124f4     libvcruntime:undname.obj
 0001:000114f8       ??_C@_01PJKLJHI@?$HO@      00000001800124f8     libvcruntime:undname.obj
 0001:000114fc       ??_C@_01JKBOJNNK@?$FO@     00000001800124fc     libvcruntime:undname.obj
 0001:00011500       ??_C@_01DNKMNLPK@?$HM@     0000000180012500     libvcruntime:undname.obj
 0001:00011504       ??_C@_02PPKAJPJL@?$CG?$CG@ 0000000180012504     libvcruntime:undname.obj
 0001:00011508       ??_C@_02NONPIBCD@?$HM?$HM@ 0000000180012508     libvcruntime:undname.obj
 0001:0001150c       ??_C@_02FPIMKNGF@?$CK?$DN@ 000000018001250c     libvcruntime:undname.obj
 0001:00011510       ??_C@_02FOEOMHFC@?$CL?$DN@ 0000000180012510     libvcruntime:undname.obj
 0001:00011514       ??_C@_02FKMDLLOA@?9?$DN@   0000000180012514     libvcruntime:undname.obj
 0001:00011518       ??_C@_02FJEHGPIO@?1?$DN@   0000000180012518     libvcruntime:undname.obj
 0001:0001151c       ??_C@_02FENAOKFI@?$CF?$DN@ 000000018001251c     libvcruntime:undname.obj
 0001:00011520       ??_C@_03IKFCCPFF@?$DO?$DO?$DN@ 0000000180012520     libvcruntime:undname.obj
 0001:00011524       ??_C@_03CDNPDDLA@?$DM?$DM?$DN@ 0000000180012524     libvcruntime:undname.obj
 0001:00011528       ??_C@_02FGJGFEAB@?$CG?$DN@ 0000000180012528     libvcruntime:undname.obj
 0001:0001152c       ??_C@_02DHLNPPGH@?$HM?$DN@ 000000018001252c     libvcruntime:undname.obj
 0001:00011530       ??_C@_02MHEGNOJ@?$FO?$DN@  0000000180012530     libvcruntime:undname.obj
 0001:00011538       ??_C@_09IFPLHPGF@?$GAvftable?8@ 0000000180012538     libvcruntime:undname.obj
 0001:00011548       ??_C@_09BLBHBJP@?$GAvbtable?8@ 0000000180012548     libvcruntime:undname.obj
 0001:00011558       ??_C@_07FEEIOKP@?$GAvcall?8@ 0000000180012558     libvcruntime:undname.obj
 0001:00011560       ??_C@_08LLFFHHDJ@?$GAtypeof?8@ 0000000180012560     libvcruntime:undname.obj
 0001:00011570       ??_C@_0BF@KDPPACIK@?$GAlocal?5static?5guard?8@ 0000000180012570     libvcruntime:undname.obj
 0001:00011588       ??_C@_08OBABFOLI@?$GAstring?8@ 0000000180012588     libvcruntime:undname.obj
 0001:00011598       ??_C@_0BD@JDLKDPAB@?$GAvbase?5destructor?8@ 0000000180012598     libvcruntime:undname.obj
 0001:000115b0       ??_C@_0BN@DEGPLNFK@?$GAvector?5deleting?5destructor?8@ 00000001800125b0     libvcruntime:undname.obj
 0001:000115d0       ??_C@_0BO@OBMKPJIG@?$GAdefault?5constructor?5closure?8@ 00000001800125d0     libvcruntime:undname.obj
 0001:000115f0       ??_C@_0BN@IMDCHIKM@?$GAscalar?5deleting?5destructor?8@ 00000001800125f0     libvcruntime:undname.obj
 0001:00011610       ??_C@_0BO@PFGOCPJJ@?$GAvector?5constructor?5iterator?8@ 0000000180012610     libvcruntime:undname.obj
 0001:00011630       ??_C@_0BN@LFPFMEDL@?$GAvector?5destructor?5iterator?8@ 0000000180012630     libvcruntime:undname.obj
 0001:00011650       ??_C@_0CE@IKBNEHA@?$GAvector?5vbase?5constructor?5itera@ 0000000180012650     libvcruntime:undname.obj
 0001:00011678       ??_C@_0BL@NILFHHPC@?$GAvirtual?5displacement?5map?8@ 0000000180012678     libvcruntime:undname.obj
 0001:00011698       ??_C@_0CB@JONCMFFK@?$GAeh?5vector?5constructor?5iterator@ 0000000180012698     libvcruntime:undname.obj
 0001:000116c0       ??_C@_0CA@GCEOPDGL@?$GAeh?5vector?5destructor?5iterator?8@ 00000001800126c0     libvcruntime:undname.obj
 0001:000116e0       ??_C@_0CH@OOJPLCPH@?$GAeh?5vector?5vbase?5constructor?5it@ 00000001800126e0     libvcruntime:undname.obj
 0001:00011708       ??_C@_0BL@LLKPOHJI@?$GAcopy?5constructor?5closure?8@ 0000000180012708     libvcruntime:undname.obj
 0001:00011728       ??_C@_0BA@KBCDOMBN@?$GAudt?5returning?8@ 0000000180012728     libvcruntime:undname.obj
 0001:00011738       ??_C@_03KLGMFNMG@?$GAEH@   0000000180012738     libvcruntime:undname.obj
 0001:0001173c       ??_C@_05KHLCHHI@?$GARTTI@  000000018001273c     libvcruntime:undname.obj
 0001:00011748       ??_C@_0BA@KKLDJDLB@?$GAlocal?5vftable?8@ 0000000180012748     libvcruntime:undname.obj
 0001:00011758       ??_C@_0CE@IIHCMGGL@?$GAlocal?5vftable?5constructor?5clos@ 0000000180012758     libvcruntime:undname.obj
 0001:0001177c       ??_C@_06FHBGPFGH@?5new?$FL?$FN@ 000000018001277c     libvcruntime:undname.obj
 0001:00011788       ??_C@_09LBNFPBCA@?5delete?$FL?$FN@ 0000000180012788     libvcruntime:undname.obj
 0001:00011798       ??_C@_0P@HJKNJFNN@?$GAomni?5callsig?8@ 0000000180012798     libvcruntime:undname.obj
 0001:000117a8       ??_C@_0BL@CNOONJFP@?$GAplacement?5delete?5closure?8@ 00000001800127a8     libvcruntime:undname.obj
 0001:000117c8       ??_C@_0BN@CKNJLHMB@?$GAplacement?5delete?$FL?$FN?5closure?8@ 00000001800127c8     libvcruntime:undname.obj
 0001:000117e8       ??_C@_0CG@CFDHKGGD@?$GAmanaged?5vector?5constructor?5ite@ 00000001800127e8     libvcruntime:undname.obj
 0001:00011810       ??_C@_0CF@IMGKMJNO@?$GAmanaged?5vector?5destructor?5iter@ 0000000180012810     libvcruntime:undname.obj
 0001:00011838       ??_C@_0CG@HLDDJMAG@?$GAeh?5vector?5copy?5constructor?5ite@ 0000000180012838     libvcruntime:undname.obj
 0001:00011860       ??_C@_0CM@FCBBDIGB@?$GAeh?5vector?5vbase?5copy?5construct@ 0000000180012860     libvcruntime:undname.obj
 0001:00011890       ??_C@_0BL@CLIPGLGB@?$GAdynamic?5initializer?5for?5?8@ 0000000180012890     libvcruntime:undname.obj
 0001:000118b0       ??_C@_0CB@PDBIFEP@?$GAdynamic?5atexit?5destructor?5for?5@ 00000001800128b0     libvcruntime:undname.obj
 0001:000118d8       ??_C@_0CD@CGAJBKEJ@?$GAvector?5copy?5constructor?5iterat@ 00000001800128d8     libvcruntime:undname.obj
 0001:00011900       ??_C@_0CJ@GJELGAMM@?$GAvector?5vbase?5copy?5constructor?5@ 0000000180012900     libvcruntime:undname.obj
 0001:00011930       ??_C@_0CL@FGIJHLCE@?$GAmanaged?5vector?5copy?5constructo@ 0000000180012930     libvcruntime:undname.obj
 0001:00011960       ??_C@_0BM@PMGGMLDN@?$GAlocal?5static?5thread?5guard?8@ 0000000180012960     libvcruntime:undname.obj
 0001:00011980       ??_C@_0N@BDNMDMOL@operator?5?$CC?$CC?5@ 0000000180012980     libvcruntime:undname.obj
 0001:00011990       ??_C@_0BC@GGEBGALA@operator?5co_await@ 0000000180012990     libvcruntime:undname.obj
 0001:000119a8       ??_C@_0BC@DAFEJGAK@?5Type?5Descriptor?8@ 00000001800129a8     libvcruntime:undname.obj
 0001:000119c0       ??_C@_0BM@LDKODKLH@?5Base?5Class?5Descriptor?5at?5?$CI@ 00000001800129c0     libvcruntime:undname.obj
 0001:000119e0       ??_C@_0BD@LGICGFMM@?5Base?5Class?5Array?8@ 00000001800129e0     libvcruntime:undname.obj
 0001:000119f8       ??_C@_0BN@MECKDCOJ@?5Class?5Hierarchy?5Descriptor?8@ 00000001800129f8     libvcruntime:undname.obj
 0001:00011a18       ??_C@_0BK@CFCOFLF@?5Complete?5Object?5Locator?8@ 0000000180012a18     libvcruntime:undname.obj
 0001:00011a50       ??_C@_1DM@KHCHBNEB@?$AAa?$AAp?$AAi?$AA?9?$AAm?$AAs?$AA?9?$AAw?$AAi?$AAn?$AA?9?$AAc?$AAo?$AAr?$AAe@ 0000000180012a50     libvcruntime:winapi_downlevel.obj
 0001:00011a90       ??_C@_1DK@LPPGFMPP@?$AAa?$AAp?$AAi?$AA?9?$AAm?$AAs?$AA?9?$AAw?$AAi?$AAn?$AA?9?$AAc?$AAo?$AAr?$AAe@ 0000000180012a90     libvcruntime:winapi_downlevel.obj
 0001:00011ad0       ??_C@_1BC@GDMECMAK@?$AAk?$AAe?$AAr?$AAn?$AAe?$AAl?$AA3?$AA2@ 0000000180012ad0     libvcruntime:winapi_downlevel.obj
 0001:00011ae8       ??_C@_1BA@PFFKHIOG@?$AAa?$AAp?$AAi?$AA?9?$AAm?$AAs?$AA?9@ 0000000180012ae8     libvcruntime:winapi_downlevel.obj
 0001:00011af8       ??_C@_1BA@IAIFMGEF@?$AAe?$AAx?$AAt?$AA?9?$AAm?$AAs?$AA?9@ 0000000180012af8     libvcruntime:winapi_downlevel.obj
 0001:00011b10       ??_C@_08KNHFBNJ@FlsAlloc@  0000000180012b10     libvcruntime:winapi_downlevel.obj
 0001:00011b28       ??_C@_07PEJMOBNF@FlsFree@  0000000180012b28     libvcruntime:winapi_downlevel.obj
 0001:00011b38       ??_C@_0M@GDNOONDI@FlsGetValue@ 0000000180012b38     libvcruntime:winapi_downlevel.obj
 0001:00011b50       ??_C@_0M@JCPCPOEF@FlsSetValue@ 0000000180012b50     libvcruntime:winapi_downlevel.obj
 0001:00011b68       ??_C@_0BM@HCFOFFN@InitializeCriticalSectionEx@ 0000000180012b68     libvcruntime:winapi_downlevel.obj
 0001:00011b90       standard_lookup_table      0000000180012b90     libucrt:output.obj
 0001:00011bf0       ??_C@_1O@CEDCILHN@?$AA?$CI?$AAn?$AAu?$AAl?$AAl?$AA?$CJ?$AA?$AA@ 0000000180012bf0     libucrt:output.obj
 0001:00011c00       ??_C@_06OJHGLDPL@?$CInull?$CJ?$AA@ 0000000180012c00     libucrt:output.obj
 0001:00011d80       ??_C@_0EA@FCLIIPNN@Visual?5C?$CL?$CL?5CRT?3?5Not?5enough?5memor@ 0000000180012d80     libucrt:strerror.obj
 0001:00011e10       ?large_power_data@?1??multiply_by_power_of_ten@__crt_strtox@@YA_NAEAUbig_integer@2@I@Z@4QBIB 0000000180012e10     libucrt:input.obj
 0001:00012720       ?large_power_indices@?1??multiply_by_power_of_ten@__crt_strtox@@YA_NAEAUbig_integer@2@I@Z@4QBUunpack_index@?1??12@YA_N0I@Z@B 0000000180013720     libucrt:input.obj
 0001:000127b8       ?small_powers_of_ten@?1??multiply_by_power_of_ten@__crt_strtox@@YA_NAEAUbig_integer@2@I@Z@4QBIB 00000001800137b8     libucrt:input.obj
 0001:000127e0       ??_C@_1GE@DPGDJKLM@?$AAm?$AAi?$AAn?$AAk?$AAe?$AAr?$AAn?$AAe?$AAl?$AA?2?$AAc?$AAr?$AAt?$AAs?$AA?2?$AAu?$AAc?$AAr?$AAt?$AA?2?$AAi?$AAn?$AAc?$AA?2?$AAc?$AAo?$AAr?$AAe?$AAc?$AAr?$AAt?$AA_@ 00000001800137e0     libucrt:input.obj
 0001:00012850       ??_C@_1FM@FELNCOBF@?$AA_?$AA_?$AAc?$AAr?$AAt?$AA_?$AAs?$AAt?$AAr?$AAt?$AAo?$AAx?$AA?3?$AA?3?$AAf?$AAl?$AAo?$AAa?$AAt?$AAi?$AAn?$AAg?$AA_?$AAp?$AAo?$AAi?$AAn?$AAt?$AA_?$AAv?$AAa?$AAl@ 0000000180013850     libucrt:input.obj
 0001:000128b0       ??_C@_1BG@GEMHBGAF@?$AA_?$AAi?$AAs?$AA_?$AAd?$AAo?$AAu?$AAb?$AAl?$AAe?$AA?$AA@ 00000001800138b0     libucrt:input.obj
 0001:000128d0       ??_C@_1FK@JOJELFFO@?$AA_?$AA_?$AAc?$AAr?$AAt?$AA_?$AAs?$AAt?$AAr?$AAt?$AAo?$AAx?$AA?3?$AA?3?$AAf?$AAl?$AAo?$AAa?$AAt?$AAi?$AAn?$AAg?$AA_?$AAp?$AAo?$AAi?$AAn?$AAt?$AA_?$AAv?$AAa?$AAl@ 00000001800138d0     libucrt:input.obj
 0001:00012930       ??_C@_1BI@BANMPGJI@?$AA?$CB?$AA_?$AAi?$AAs?$AA_?$AAd?$AAo?$AAu?$AAb?$AAl?$AAe?$AA?$AA@ 0000000180013930     libucrt:input.obj
 0001:00012950       ?constraints@?1??is_length_valid@__crt_stdio_input@@YA_NW4conversion_mode@2@W4length_modifier@2@@Z@4QAY0M@$$CBEA 0000000180013950     libucrt:input.obj
 0001:000129c8       ?inf_uppercase@?1???$parse_floating_point_possible_infinity@DV?$input_adapter_character_source@V?$stream_input_adapter@D@__crt_stdio_input@@@__crt_strtox@@_K@__crt_strtox@@YA?AW4floating_point_parse_result@1@AEADAEAV?$input_adapter_character_source@V?$stream_input_adapter@D@__crt_stdio_input@@@1@_K@Z@4QBDB 00000001800139c8     libucrt:input.obj
 0001:000129cc       ?inf_lowercase@?1???$parse_floating_point_possible_infinity@DV?$input_adapter_character_source@V?$stream_input_adapter@D@__crt_stdio_input@@@__crt_strtox@@_K@__crt_strtox@@YA?AW4floating_point_parse_result@1@AEADAEAV?$input_adapter_character_source@V?$stream_input_adapter@D@__crt_stdio_input@@@1@_K@Z@4QBDB 00000001800139cc     libucrt:input.obj
 0001:000129d0       ?inity_uppercase@?1???$parse_floating_point_possible_infinity@DV?$input_adapter_character_source@V?$stream_input_adapter@D@__crt_stdio_input@@@__crt_strtox@@_K@__crt_strtox@@YA?AW4floating_point_parse_result@1@AEADAEAV?$input_adapter_character_source@V?$stream_input_adapter@D@__crt_stdio_input@@@1@_K@Z@4QBDB 00000001800139d0     libucrt:input.obj
 0001:000129d8       ?inity_lowercase@?1???$parse_floating_point_possible_infinity@DV?$input_adapter_character_source@V?$stream_input_adapter@D@__crt_stdio_input@@@__crt_strtox@@_K@__crt_strtox@@YA?AW4floating_point_parse_result@1@AEADAEAV?$input_adapter_character_source@V?$stream_input_adapter@D@__crt_stdio_input@@@1@_K@Z@4QBDB 00000001800139d8     libucrt:input.obj
 0001:000129e0       ?uppercase@?1???$parse_floating_point_possible_nan@DV?$input_adapter_character_source@V?$stream_input_adapter@D@__crt_stdio_input@@@__crt_strtox@@_K@__crt_strtox@@YA?AW4floating_point_parse_result@1@AEADAEAV?$input_adapter_character_source@V?$stream_input_adapter@D@__crt_stdio_input@@@1@_K@Z@4QBDB 00000001800139e0     libucrt:input.obj
 0001:000129e4       ?lowercase@?1???$parse_floating_point_possible_nan@DV?$input_adapter_character_source@V?$stream_input_adapter@D@__crt_stdio_input@@@__crt_strtox@@_K@__crt_strtox@@YA?AW4floating_point_parse_result@1@AEADAEAV?$input_adapter_character_source@V?$stream_input_adapter@D@__crt_stdio_input@@@1@_K@Z@4QBDB 00000001800139e4     libucrt:input.obj
 0001:000129e8       ?uppercase@?1???$parse_floating_point_possible_nan_is_snan@DV?$input_adapter_character_source@V?$stream_input_adapter@D@__crt_stdio_input@@@__crt_strtox@@@__crt_strtox@@YA_NAEADAEAV?$input_adapter_character_source@V?$stream_input_adapter@D@__crt_stdio_input@@@1@@Z@4QBDB 00000001800139e8     libucrt:input.obj
 0001:000129f0       ?lowercase@?1???$parse_floating_point_possible_nan_is_snan@DV?$input_adapter_character_source@V?$stream_input_adapter@D@__crt_stdio_input@@@__crt_strtox@@@__crt_strtox@@YA_NAEADAEAV?$input_adapter_character_source@V?$stream_input_adapter@D@__crt_stdio_input@@@1@@Z@4QBDB 00000001800139f0     libucrt:input.obj
 0001:000129f8       ?uppercase@?1???$parse_floating_point_possible_nan_is_ind@DV?$input_adapter_character_source@V?$stream_input_adapter@D@__crt_stdio_input@@@__crt_strtox@@@__crt_strtox@@YA_NAEADAEAV?$input_adapter_character_source@V?$stream_input_adapter@D@__crt_stdio_input@@@1@@Z@4QBDB 00000001800139f8     libucrt:input.obj
 0001:000129fc       ?lowercase@?1???$parse_floating_point_possible_nan_is_ind@DV?$input_adapter_character_source@V?$stream_input_adapter@D@__crt_stdio_input@@@__crt_strtox@@@__crt_strtox@@YA_NAEADAEAV?$input_adapter_character_source@V?$stream_input_adapter@D@__crt_stdio_input@@@1@@Z@4QBDB 00000001800139fc     libucrt:input.obj
 0001:00012a30       __acrt_exception_action_table 0000000180013a30     libucrt:exception_filter.obj
 0001:00012af0       __acrt_signal_action_table_count 0000000180013af0     libucrt:exception_filter.obj
 0001:00012af8       __acrt_signal_action_first_fpe_index 0000000180013af8     libucrt:exception_filter.obj
 0001:00012b00       __acrt_signal_action_fpe_count 0000000180013b00     libucrt:exception_filter.obj
 0001:00012b08       ??_C@_1BI@BGOHAHKC@?$AAm?$AAs?$AAc?$AAo?$AAr?$AAe?$AAe?$AA?4?$AAd?$AAl?$AAl?$AA?$AA@ 0000000180013b08     libucrt:exit.obj
 0001:00012b20       ??_C@_0P@MIGLKIOC@CorExitProcess?$AA@ 0000000180013b20     libucrt:exit.obj
 0001:00012c30       ??_C@_03OEIAHPBN@INF?$AA@  0000000180013c30     libucrt:cvt.obj
 0001:00012c34       ??_C@_03OJHLLCGB@inf?$AA@  0000000180013c34     libucrt:cvt.obj
 0001:00012c38       ??_C@_03LKNCIKJB@NAN?$AA@  0000000180013c38     libucrt:cvt.obj
 0001:00012c3c       ??_C@_03LHCJEHON@nan?$AA@  0000000180013c3c     libucrt:cvt.obj
 0001:00012c40       ??_C@_09OFJJIMPC@NAN?$CISNAN?$CJ?$AA@ 0000000180013c40     libucrt:cvt.obj
 0001:00012c50       ??_C@_09IPFBKMDL@nan?$CIsnan?$CJ?$AA@ 0000000180013c50     libucrt:cvt.obj
 0001:00012c60       ??_C@_08IKHNHAJ@NAN?$CIIND?$CJ?$AA@ 0000000180013c60     libucrt:cvt.obj
 0001:00012c70       ??_C@_08OFCDMILK@nan?$CIind?$CJ?$AA@ 0000000180013c70     libucrt:cvt.obj
 0001:00012c7c       ??_C@_05KLBDPFGC@e?$CL000?$AA@ 0000000180013c7c     libucrt:cvt.obj
 0001:00012c90       __lc_time_c                0000000180013c90     libucrt:nlsdata.obj
 0001:00012f50       ??_C@_03KOEHGMDN@Sun?$AA@  0000000180013f50     libucrt:nlsdata.obj
 0001:00012f54       ??_C@_03PDAGKDH@Mon?$AA@   0000000180013f54     libucrt:nlsdata.obj
 0001:00012f58       ??_C@_03NAGEINEP@Tue?$AA@  0000000180013f58     libucrt:nlsdata.obj
 0001:00012f5c       ??_C@_03MHOMLAJA@Wed?$AA@  0000000180013f5c     libucrt:nlsdata.obj
 0001:00012f60       ??_C@_03IOFIKPDN@Thu?$AA@  0000000180013f60     libucrt:nlsdata.obj
 0001:00012f64       ??_C@_03IDIOELNC@Fri?$AA@  0000000180013f64     libucrt:nlsdata.obj
 0001:00012f68       ??_C@_03FEFJNEK@Sat?$AA@   0000000180013f68     libucrt:nlsdata.obj
 0001:00012f6c       ??_C@_06OOPIFAJ@Sunday?$AA@ 0000000180013f6c     libucrt:nlsdata.obj
 0001:00012f74       ??_C@_06JLEDEDGH@Monday?$AA@ 0000000180013f74     libucrt:nlsdata.obj
 0001:00012f80       ??_C@_07BAAGCFCM@Tuesday?$AA@ 0000000180013f80     libucrt:nlsdata.obj
 0001:00012f88       ??_C@_09DLIGFAKA@Wednesday?$AA@ 0000000180013f88     libucrt:nlsdata.obj
 0001:00012f98       ??_C@_08HACCIKIA@Thursday?$AA@ 0000000180013f98     libucrt:nlsdata.obj
 0001:00012fa4       ??_C@_06JECMNKMI@Friday?$AA@ 0000000180013fa4     libucrt:nlsdata.obj
 0001:00012fb0       ??_C@_08INBOOONO@Saturday?$AA@ 0000000180013fb0     libucrt:nlsdata.obj
 0001:00012fbc       ??_C@_03JIHJHPIE@Jan?$AA@  0000000180013fbc     libucrt:nlsdata.obj
 0001:00012fc0       ??_C@_03HJBDCHOM@Feb?$AA@  0000000180013fc0     libucrt:nlsdata.obj
 0001:00012fc4       ??_C@_03ODNJBKGA@Mar?$AA@  0000000180013fc4     libucrt:nlsdata.obj
 0001:00012fc8       ??_C@_03LEOLGMJP@Apr?$AA@  0000000180013fc8     libucrt:nlsdata.obj
 0001:00012fcc       ??_C@_03CNMDKL@May?$AA@    0000000180013fcc     libucrt:nlsdata.obj
 0001:00012fd0       ??_C@_03IDFGHECI@Jun?$AA@  0000000180013fd0     libucrt:nlsdata.obj
 0001:00012fd4       ??_C@_03LBGABGKK@Jul?$AA@  0000000180013fd4     libucrt:nlsdata.obj
 0001:00012fd8       ??_C@_03IFJFEIGA@Aug?$AA@  0000000180013fd8     libucrt:nlsdata.obj
 0001:00012fdc       ??_C@_03GGCAPAJC@Sep?$AA@  0000000180013fdc     libucrt:nlsdata.obj
 0001:00012fe0       ??_C@_03BMAOKBAD@Oct?$AA@  0000000180013fe0     libucrt:nlsdata.obj
 0001:00012fe4       ??_C@_03JPJOFNIA@Nov?$AA@  0000000180013fe4     libucrt:nlsdata.obj
 0001:00012fe8       ??_C@_03MKABNOCG@Dec?$AA@  0000000180013fe8     libucrt:nlsdata.obj
 0001:00012ff0       ??_C@_07CGJPFGJA@January?$AA@ 0000000180013ff0     libucrt:nlsdata.obj
 0001:00012ff8       ??_C@_08GNJGEPFN@February?$AA@ 0000000180013ff8     libucrt:nlsdata.obj
 0001:00013004       ??_C@_05HPCKOFNC@March?$AA@ 0000000180014004     libucrt:nlsdata.obj
 0001:0001300c       ??_C@_05DMJDNLEJ@April?$AA@ 000000018001400c     libucrt:nlsdata.obj
 0001:00013014       ??_C@_04CNLMGBGM@June?$AA@ 0000000180014014     libucrt:nlsdata.obj
 0001:0001301c       ??_C@_04MIEPOIFP@July?$AA@ 000000018001401c     libucrt:nlsdata.obj
 0001:00013024       ??_C@_06LBBHFDDG@August?$AA@ 0000000180014024     libucrt:nlsdata.obj
 0001:00013030       ??_C@_09BHHEALKD@September?$AA@ 0000000180014030     libucrt:nlsdata.obj
 0001:00013040       ??_C@_07JJNFCEND@October?$AA@ 0000000180014040     libucrt:nlsdata.obj
 0001:00013048       ??_C@_08HCHEGEOA@November?$AA@ 0000000180014048     libucrt:nlsdata.obj
 0001:00013058       ??_C@_08EDHMEBNP@December?$AA@ 0000000180014058     libucrt:nlsdata.obj
 0001:00013064       ??_C@_02DEDBPAFC@AM?$AA@   0000000180014064     libucrt:nlsdata.obj
 0001:00013068       ??_C@_02CJNFDJBF@PM?$AA@   0000000180014068     libucrt:nlsdata.obj
 0001:00013070       ??_C@_08BPBNCDIB@MM?1dd?1yy?$AA@ 0000000180014070     libucrt:nlsdata.obj
 0001:00013080       ??_C@_0BE@CKGJFCPC@dddd?0?5MMMM?5dd?0?5yyyy?$AA@ 0000000180014080     libucrt:nlsdata.obj
 0001:00013098       ??_C@_08JCCMCCIL@HH?3mm?3ss?$AA@ 0000000180014098     libucrt:nlsdata.obj
 0001:000130a8       ??_C@_17MBGCMIPB@?$AAS?$AAu?$AAn?$AA?$AA@ 00000001800140a8     libucrt:nlsdata.obj
 0001:000130b0       ??_C@_17KBOMKBF@?$AAM?$AAo?$AAn?$AA?$AA@ 00000001800140b0     libucrt:nlsdata.obj
 0001:000130b8       ??_C@_17BMKGEGOJ@?$AAT?$AAu?$AAe?$AA?$AA@ 00000001800140b8     libucrt:nlsdata.obj
 0001:000130c0       ??_C@_17CJEDCEPE@?$AAW?$AAe?$AAd?$AA?$AA@ 00000001800140c0     libucrt:nlsdata.obj
 0001:000130c8       ??_C@_17PDPHAADD@?$AAT?$AAh?$AAu?$AA?$AA@ 00000001800140c8     libucrt:nlsdata.obj
 0001:000130d0       ??_C@_17HFOLPPLP@?$AAF?$AAr?$AAi?$AA?$AA@ 00000001800140d0     libucrt:nlsdata.obj
 0001:000130d8       ??_C@_17GGIBDPIH@?$AAS?$AAa?$AAt?$AA?$AA@ 00000001800140d8     libucrt:nlsdata.obj
 0001:000130e0       ??_C@_1O@IHNHDHPB@?$AAS?$AAu?$AAn?$AAd?$AAa?$AAy?$AA?$AA@ 00000001800140e0     libucrt:nlsdata.obj
 0001:000130f0       ??_C@_1O@MMNBFLIA@?$AAM?$AAo?$AAn?$AAd?$AAa?$AAy?$AA?$AA@ 00000001800140f0     libucrt:nlsdata.obj
 0001:00013100       ??_C@_1BA@ENFBFFEK@?$AAT?$AAu?$AAe?$AAs?$AAd?$AAa?$AAy?$AA?$AA@ 0000000180014100     libucrt:nlsdata.obj
 0001:00013110       ??_C@_1BE@EBOGMDOH@?$AAW?$AAe?$AAd?$AAn?$AAe?$AAs?$AAd?$AAa?$AAy?$AA?$AA@ 0000000180014110     libucrt:nlsdata.obj
 0001:00013128       ??_C@_1BC@HHMNLIHE@?$AAT?$AAh?$AAu?$AAr?$AAs?$AAd?$AAa?$AAy?$AA?$AA@ 0000000180014128     libucrt:nlsdata.obj
 0001:00013140       ??_C@_1O@PDICJHAG@?$AAF?$AAr?$AAi?$AAd?$AAa?$AAy?$AA?$AA@ 0000000180014140     libucrt:nlsdata.obj
 0001:00013150       ??_C@_1BC@ENMNNPAJ@?$AAS?$AAa?$AAt?$AAu?$AAr?$AAd?$AAa?$AAy?$AA?$AA@ 0000000180014150     libucrt:nlsdata.obj
 0001:00013168       ??_C@_17DKNBKCHM@?$AAJ?$AAa?$AAn?$AA?$AA@ 0000000180014168     libucrt:nlsdata.obj
 0001:00013170       ??_C@_17LMDJEKJN@?$AAF?$AAe?$AAb?$AA?$AA@ 0000000180014170     libucrt:nlsdata.obj
 0001:00013178       ??_C@_17CKNLEDEC@?$AAM?$AAa?$AAr?$AA?$AA@ 0000000180014178     libucrt:nlsdata.obj
 0001:00013180       ??_C@_17LFPOIHDD@?$AAA?$AAp?$AAr?$AA?$AA@ 0000000180014180     libucrt:nlsdata.obj
 0001:00013188       ??_C@_17PNNKMEED@?$AAM?$AAa?$AAy?$AA?$AA@ 0000000180014188     libucrt:nlsdata.obj
 0001:00013190       ??_C@_17KCJGOCPB@?$AAJ?$AAu?$AAn?$AA?$AA@ 0000000180014190     libucrt:nlsdata.obj
 0001:00013198       ??_C@_17IJPCKHK@?$AAJ?$AAu?$AAl?$AA?$AA@ 0000000180014198     libucrt:nlsdata.obj
 0001:000131a0       ??_C@_17ICPELBCN@?$AAA?$AAu?$AAg?$AA?$AA@ 00000001800141a0     libucrt:nlsdata.obj
 0001:000131a8       ??_C@_17HCHCOKMG@?$AAS?$AAe?$AAp?$AA?$AA@ 00000001800141a8     libucrt:nlsdata.obj
 0001:000131b0       ??_C@_17FNLKOI@?$AAO?$AAc?$AAt?$AA?$AA@ 00000001800141b0     libucrt:nlsdata.obj
 0001:000131b8       ??_C@_17BBDMLCIG@?$AAN?$AAo?$AAv?$AA?$AA@ 00000001800141b8     libucrt:nlsdata.obj
 0001:000131c0       ??_C@_17EGKACKIF@?$AAD?$AAe?$AAc?$AA?$AA@ 00000001800141c0     libucrt:nlsdata.obj
 0001:000131c8       ??_C@_1BA@EFMEIEBA@?$AAJ?$AAa?$AAn?$AAu?$AAa?$AAr?$AAy?$AA?$AA@ 00000001800141c8     libucrt:nlsdata.obj
 0001:000131d8       ??_C@_1BC@JGDDFFAM@?$AAF?$AAe?$AAb?$AAr?$AAu?$AAa?$AAr?$AAy?$AA?$AA@ 00000001800141d8     libucrt:nlsdata.obj
 0001:000131f0       ??_C@_1M@IKEENEDF@?$AAM?$AAa?$AAr?$AAc?$AAh?$AA?$AA@ 00000001800141f0     libucrt:nlsdata.obj
 0001:00013200       ??_C@_1M@GJNLMHFD@?$AAA?$AAp?$AAr?$AAi?$AAl?$AA?$AA@ 0000000180014200     libucrt:nlsdata.obj
 0001:00013210       ??_C@_19EPFLPGAP@?$AAJ?$AAu?$AAn?$AAe?$AA?$AA@ 0000000180014210     libucrt:nlsdata.obj
 0001:00013220       ??_C@_19BIFMLPCD@?$AAJ?$AAu?$AAl?$AAy?$AA?$AA@ 0000000180014220     libucrt:nlsdata.obj
 0001:00013230       ??_C@_1O@PAHLKOAC@?$AAA?$AAu?$AAg?$AAu?$AAs?$AAt?$AA?$AA@ 0000000180014230     libucrt:nlsdata.obj
 0001:00013240       ??_C@_1BE@DKAAMBJL@?$AAS?$AAe?$AAp?$AAt?$AAe?$AAm?$AAb?$AAe?$AAr?$AA?$AA@ 0000000180014240     libucrt:nlsdata.obj
 0001:00013258       ??_C@_1BA@EPANDLNG@?$AAO?$AAc?$AAt?$AAo?$AAb?$AAe?$AAr?$AA?$AA@ 0000000180014258     libucrt:nlsdata.obj
 0001:00013268       ??_C@_1BC@BGLIFPF@?$AAN?$AAo?$AAv?$AAe?$AAm?$AAb?$AAe?$AAr?$AA?$AA@ 0000000180014268     libucrt:nlsdata.obj
 0001:00013280       ??_C@_1BC@FEMKIFH@?$AAD?$AAe?$AAc?$AAe?$AAm?$AAb?$AAe?$AAr?$AA?$AA@ 0000000180014280     libucrt:nlsdata.obj
 0001:00013294       ??_C@_15ODEHAHHF@?$AAA?$AAM?$AA?$AA@ 0000000180014294     libucrt:nlsdata.obj
 0001:0001329c       ??_C@_15CLMNNGEL@?$AAP?$AAM?$AA?$AA@ 000000018001429c     libucrt:nlsdata.obj
 0001:000132a8       ??_C@_1BC@IEBCMHCM@?$AAM?$AAM?$AA?1?$AAd?$AAd?$AA?1?$AAy?$AAy?$AA?$AA@ 00000001800142a8     libucrt:nlsdata.obj
 0001:000132c0       ??_C@_1CI@KNAKOEBC@?$AAd?$AAd?$AAd?$AAd?$AA?0?$AA?5?$AAM?$AAM?$AAM?$AAM?$AA?5?$AAd?$AAd?$AA?0?$AA?5?$AAy?$AAy?$AAy?$AAy?$AA?$AA@ 00000001800142c0     libucrt:nlsdata.obj
 0001:000132e8       ??_C@_1BC@GDGBMEMK@?$AAH?$AAH?$AA?3?$AAm?$AAm?$AA?3?$AAs?$AAs?$AA?$AA@ 00000001800142e8     libucrt:nlsdata.obj
 0001:00013300       ??_C@_1M@BMHNFIME@?$AAe?$AAn?$AA?9?$AAU?$AAS?$AA?$AA@ 0000000180014300     libucrt:nlsdata.obj
 0001:0001330c       ?ccs@?1???$__acrt_stdio_parse_mode@_W@@YA?AU__acrt_stdio_stream_mode@@QEB_W@Z@4QB_WB 000000018001430c     libucrt:openfile.obj
 0001:00013318       ?utf8_encoding@?1???$__acrt_stdio_parse_mode@_W@@YA?AU__acrt_stdio_stream_mode@@QEB_W@Z@4QB_WB 0000000180014318     libucrt:openfile.obj
 0001:00013328       ?utf16_encoding@?1???$__acrt_stdio_parse_mode@_W@@YA?AU__acrt_stdio_stream_mode@@QEB_W@Z@4QB_WB 0000000180014328     libucrt:openfile.obj
 0001:00013338       ?unicode_encoding@?1???$__acrt_stdio_parse_mode@_W@@YA?AU__acrt_stdio_stream_mode@@QEB_W@Z@4QB_WB 0000000180014338     libucrt:openfile.obj
 0001:00013360       _sys_errlist               0000000180014360     libucrt:syserr.obj
 0001:000134c0       ??_C@_08INEPGKHH@No?5error?$AA@ 00000001800144c0     libucrt:syserr.obj
 0001:000134d0       ??_C@_0BI@BJFCGOHL@Operation?5not?5permitted?$AA@ 00000001800144d0     libucrt:syserr.obj
 0001:000134e8       ??_C@_0BK@FMDHKPNF@No?5such?5file?5or?5directory?$AA@ 00000001800144e8     libucrt:syserr.obj
 0001:00013508       ??_C@_0BA@FKIAIBGA@No?5such?5process?$AA@ 0000000180014508     libucrt:syserr.obj
 0001:00013518       ??_C@_0BK@FJBOAFDK@Interrupted?5function?5call?$AA@ 0000000180014518     libucrt:syserr.obj
 0001:00013538       ??_C@_0BD@KKNFOBBD@Input?1output?5error?$AA@ 0000000180014538     libucrt:syserr.obj
 0001:00013550       ??_C@_0BK@DPKMCKJ@No?5such?5device?5or?5address?$AA@ 0000000180014550     libucrt:syserr.obj
 0001:00013570       ??_C@_0BC@MFFGCDFL@Arg?5list?5too?5long?$AA@ 0000000180014570     libucrt:syserr.obj
 0001:00013588       ??_C@_0BC@HKPNECK@Exec?5format?5error?$AA@ 0000000180014588     libucrt:syserr.obj
 0001:000135a0       ??_C@_0BE@NFGDDCEF@Bad?5file?5descriptor?$AA@ 00000001800145a0     libucrt:syserr.obj
 0001:000135b8       ??_C@_0BD@LOHELEP@No?5child?5processes?$AA@ 00000001800145b8     libucrt:syserr.obj
 0001:000135d0       ??_C@_0CB@EPFKGNAK@Resource?5temporarily?5unavailable@ 00000001800145d0     libucrt:syserr.obj
 0001:000135f8       ??_C@_0BB@IMDKMPFB@Not?5enough?5space?$AA@ 00000001800145f8     libucrt:syserr.obj
 0001:00013610       ??_C@_0BC@HFNFNKAI@Permission?5denied?$AA@ 0000000180014610     libucrt:syserr.obj
 0001:00013628       ??_C@_0M@LOEHLCJD@Bad?5address?$AA@ 0000000180014628     libucrt:syserr.obj
 0001:00013638       ??_C@_0O@NIPGCINC@Unknown?5error?$AA@ 0000000180014638     libucrt:syserr.obj
 0001:00013648       ??_C@_0BA@BIBLIOEK@Resource?5device?$AA@ 0000000180014648     libucrt:syserr.obj
 0001:00013658       ??_C@_0M@NAAJNNGH@File?5exists?$AA@ 0000000180014658     libucrt:syserr.obj
 0001:00013668       ??_C@_0O@OAMDNOCP@Improper?5link?$AA@ 0000000180014668     libucrt:syserr.obj
 0001:00013678       ??_C@_0P@NLEIANHE@No?5such?5device?$AA@ 0000000180014678     libucrt:syserr.obj
 0001:00013688       ??_C@_0BA@CJBACOOL@Not?5a?5directory?$AA@ 0000000180014688     libucrt:syserr.obj
 0001:00013698       ??_C@_0P@NDHGCGKE@Is?5a?5directory?$AA@ 0000000180014698     libucrt:syserr.obj
 0001:000136a8       ??_C@_0BB@HMGGCEBG@Invalid?5argument?$AA@ 00000001800146a8     libucrt:syserr.obj
 0001:000136c0       ??_C@_0BO@IIFBODJE@Too?5many?5open?5files?5in?5system?$AA@ 00000001800146c0     libucrt:syserr.obj
 0001:000136e0       ??_C@_0BE@INBJMKGG@Too?5many?5open?5files?$AA@ 00000001800146e0     libucrt:syserr.obj
 0001:000136f8       ??_C@_0CE@ONOKNLPF@Inappropriate?5I?1O?5control?5operat@ 00000001800146f8     libucrt:syserr.obj
 0001:00013720       ??_C@_0P@LFMMIPAE@File?5too?5large?$AA@ 0000000180014720     libucrt:syserr.obj
 0001:00013730       ??_C@_0BI@FEALHKLD@No?5space?5left?5on?5device?$AA@ 0000000180014730     libucrt:syserr.obj
 0001:00013748       ??_C@_0N@FEHLOILP@Invalid?5seek?$AA@ 0000000180014748     libucrt:syserr.obj
 0001:00013758       ??_C@_0BG@DDBFNKBH@Read?9only?5file?5system?$AA@ 0000000180014758     libucrt:syserr.obj
 0001:00013770       ??_C@_0P@PKCJJLLM@Too?5many?5links?$AA@ 0000000180014770     libucrt:syserr.obj
 0001:00013780       ??_C@_0M@LHEPIIOM@Broken?5pipe?$AA@ 0000000180014780     libucrt:syserr.obj
 0001:00013790       ??_C@_0N@MMJPGLJK@Domain?5error?$AA@ 0000000180014790     libucrt:syserr.obj
 0001:000137a0       ??_C@_0BB@FCBJFCAJ@Result?5too?5large?$AA@ 00000001800147a0     libucrt:syserr.obj
 0001:000137b8       ??_C@_0BK@JAEBMJJM@Resource?5deadlock?5avoided?$AA@ 00000001800147b8     libucrt:syserr.obj
 0001:000137d8       ??_C@_0BC@BEDIHIDK@Filename?5too?5long?$AA@ 00000001800147d8     libucrt:syserr.obj
 0001:000137f0       ??_C@_0BD@CLHBCGPB@No?5locks?5available?$AA@ 00000001800147f0     libucrt:syserr.obj
 0001:00013808       ??_C@_0BJ@IHEHINLI@Function?5not?5implemented?$AA@ 0000000180014808     libucrt:syserr.obj
 0001:00013828       ??_C@_0BE@ICMCHPHH@Directory?5not?5empty?$AA@ 0000000180014828     libucrt:syserr.obj
 0001:00013840       ??_C@_0BG@KLEAJEFJ@Illegal?5byte?5sequence?$AA@ 0000000180014840     libucrt:syserr.obj
 0001:00013858       _sys_nerr                  0000000180014858     libucrt:syserr.obj
 0001:00013900       ??_C@_1EA@JGEFHKEI@?$AAa?$AAp?$AAi?$AA?9?$AAm?$AAs?$AA?9?$AAw?$AAi?$AAn?$AA?9?$AAc?$AAo?$AAr?$AAe?$AA?9?$AAd?$AAa?$AAt?$AAe?$AAt?$AAi?$AAm?$AAe?$AA?9?$AAl?$AA1?$AA?9?$AA1?$AA?9?$AA1?$AA?$AA@ 0000000180014900     libucrt:winapi_thunks.obj
 0001:00013940       ??_C@_1DM@KHCHBNEB@?$AAa?$AAp?$AAi?$AA?9?$AAm?$AAs?$AA?9?$AAw?$AAi?$AAn?$AA?9?$AAc?$AAo?$AAr?$AAe?$AA?9?$AAf?$AAi?$AAb?$AAe?$AAr?$AAs?$AA?9?$AAl?$AA1?$AA?9?$AA1?$AA?9?$AA1?$AA?$AA@ 0000000180014940     libucrt:winapi_thunks.obj
 0001:00013980       ??_C@_1DI@IJCEHOCB@?$AAa?$AAp?$AAi?$AA?9?$AAm?$AAs?$AA?9?$AAw?$AAi?$AAn?$AA?9?$AAc?$AAo?$AAr?$AAe?$AA?9?$AAf?$AAi?$AAl?$AAe?$AA?9?$AAl?$AA1?$AA?9?$AA2?$AA?9?$AA2?$AA?$AA@ 0000000180014980     libucrt:winapi_thunks.obj
 0001:000139c0       ??_C@_1EI@MPIAOHOC@?$AAa?$AAp?$AAi?$AA?9?$AAm?$AAs?$AA?9?$AAw?$AAi?$AAn?$AA?9?$AAc?$AAo?$AAr?$AAe?$AA?9?$AAl?$AAo?$AAc?$AAa?$AAl?$AAi?$AAz?$AAa?$AAt?$AAi?$AAo?$AAn?$AA?9?$AAl?$AA1?$AA?9@ 00000001800149c0     libucrt:winapi_thunks.obj
 0001:00013a10       ??_C@_1FK@FPHCKFIE@?$AAa?$AAp?$AAi?$AA?9?$AAm?$AAs?$AA?9?$AAw?$AAi?$AAn?$AA?9?$AAc?$AAo?$AAr?$AAe?$AA?9?$AAl?$AAo?$AAc?$AAa?$AAl?$AAi?$AAz?$AAa?$AAt?$AAi?$AAo?$AAn?$AA?9?$AAo?$AAb?$AAs@ 0000000180014a10     libucrt:winapi_thunks.obj
 0001:00013a70       ??_C@_1EM@DILCGIIO@?$AAa?$AAp?$AAi?$AA?9?$AAm?$AAs?$AA?9?$AAw?$AAi?$AAn?$AA?9?$AAc?$AAo?$AAr?$AAe?$AA?9?$AAp?$AAr?$AAo?$AAc?$AAe?$AAs?$AAs?$AAt?$AAh?$AAr?$AAe?$AAa?$AAd?$AAs?$AA?9?$AAl@ 0000000180014a70     libucrt:winapi_thunks.obj
 0001:00013ac0       ??_C@_1DM@LNCGDDPN@?$AAa?$AAp?$AAi?$AA?9?$AAm?$AAs?$AA?9?$AAw?$AAi?$AAn?$AA?9?$AAc?$AAo?$AAr?$AAe?$AA?9?$AAs?$AAt?$AAr?$AAi?$AAn?$AAg?$AA?9?$AAl?$AA1?$AA?9?$AA1?$AA?9?$AA0?$AA?$AA@ 0000000180014ac0     libucrt:winapi_thunks.obj
 0001:00013b00       ??_C@_1DK@LPPGFMPP@?$AAa?$AAp?$AAi?$AA?9?$AAm?$AAs?$AA?9?$AAw?$AAi?$AAn?$AA?9?$AAc?$AAo?$AAr?$AAe?$AA?9?$AAs?$AAy?$AAn?$AAc?$AAh?$AA?9?$AAl?$AA1?$AA?9?$AA2?$AA?9?$AA0?$AA?$AA@ 0000000180014b00     libucrt:winapi_thunks.obj
 0001:00013b40       ??_C@_1DO@FPAPJEMD@?$AAa?$AAp?$AAi?$AA?9?$AAm?$AAs?$AA?9?$AAw?$AAi?$AAn?$AA?9?$AAc?$AAo?$AAr?$AAe?$AA?9?$AAs?$AAy?$AAs?$AAi?$AAn?$AAf?$AAo?$AA?9?$AAl?$AA1?$AA?9?$AA2?$AA?9?$AA1?$AA?$AA@ 0000000180014b40     libucrt:winapi_thunks.obj
 0001:00013b80       ??_C@_1DK@NDHNAHIO@?$AAa?$AAp?$AAi?$AA?9?$AAm?$AAs?$AA?9?$AAw?$AAi?$AAn?$AA?9?$AAc?$AAo?$AAr?$AAe?$AA?9?$AAw?$AAi?$AAn?$AAr?$AAt?$AA?9?$AAl?$AA1?$AA?9?$AA1?$AA?9?$AA0?$AA?$AA@ 0000000180014b80     libucrt:winapi_thunks.obj
 0001:00013bc0       ??_C@_1DM@KGHDGBCM@?$AAa?$AAp?$AAi?$AA?9?$AAm?$AAs?$AA?9?$AAw?$AAi?$AAn?$AA?9?$AAc?$AAo?$AAr?$AAe?$AA?9?$AAx?$AAs?$AAt?$AAa?$AAt?$AAe?$AA?9?$AAl?$AA2?$AA?9?$AA1?$AA?9?$AA0?$AA?$AA@ 0000000180014bc0     libucrt:winapi_thunks.obj
 0001:00013c00       ??_C@_1EO@IJIOEFOH@?$AAa?$AAp?$AAi?$AA?9?$AAm?$AAs?$AA?9?$AAw?$AAi?$AAn?$AA?9?$AAr?$AAt?$AAc?$AAo?$AAr?$AAe?$AA?9?$AAn?$AAt?$AAu?$AAs?$AAe?$AAr?$AA?9?$AAw?$AAi?$AAn?$AAd?$AAo?$AAw?$AA?9@ 0000000180014c00     libucrt:winapi_thunks.obj
 0001:00013c50       ??_C@_1FG@HHGEKANL@?$AAa?$AAp?$AAi?$AA?9?$AAm?$AAs?$AA?9?$AAw?$AAi?$AAn?$AA?9?$AAs?$AAe?$AAc?$AAu?$AAr?$AAi?$AAt?$AAy?$AA?9?$AAs?$AAy?$AAs?$AAt?$AAe?$AAm?$AAf?$AAu?$AAn?$AAc?$AAt?$AAi@ 0000000180014c50     libucrt:winapi_thunks.obj
 0001:00013cb0       ??_C@_1EG@DBIOJECG@?$AAe?$AAx?$AAt?$AA?9?$AAm?$AAs?$AA?9?$AAw?$AAi?$AAn?$AA?9?$AAn?$AAt?$AAu?$AAs?$AAe?$AAr?$AA?9?$AAd?$AAi?$AAa?$AAl?$AAo?$AAg?$AAb?$AAo?$AAx?$AA?9?$AAl?$AA1?$AA?9?$AA1@ 0000000180014cb0     libucrt:winapi_thunks.obj
 0001:00013d00       ??_C@_1EO@FIHMJCLF@?$AAe?$AAx?$AAt?$AA?9?$AAm?$AAs?$AA?9?$AAw?$AAi?$AAn?$AA?9?$AAn?$AAt?$AAu?$AAs?$AAe?$AAr?$AA?9?$AAw?$AAi?$AAn?$AAd?$AAo?$AAw?$AAs?$AAt?$AAa?$AAt?$AAi?$AAo?$AAn?$AA?9@ 0000000180014d00     libucrt:winapi_thunks.obj
 0001:00013d50       ??_C@_1BC@DNHGCMLG@?$AAa?$AAd?$AAv?$AAa?$AAp?$AAi?$AA3?$AA2?$AA?$AA@ 0000000180014d50     libucrt:winapi_thunks.obj
 0001:00013d68       ??_C@_1BC@GDMECMAK@?$AAk?$AAe?$AAr?$AAn?$AAe?$AAl?$AA3?$AA2?$AA?$AA@ 0000000180014d68     libucrt:winapi_thunks.obj
 0001:00013d80       ??_C@_1M@OAIMIKLP@?$AAn?$AAt?$AAd?$AAl?$AAl?$AA?$AA@ 0000000180014d80     libucrt:winapi_thunks.obj
 0001:00013d90       ??_C@_1EG@DPGNFKGC@?$AAa?$AAp?$AAi?$AA?9?$AAm?$AAs?$AA?9?$AAw?$AAi?$AAn?$AA?9?$AAa?$AAp?$AAp?$AAm?$AAo?$AAd?$AAe?$AAl?$AA?9?$AAr?$AAu?$AAn?$AAt?$AAi?$AAm?$AAe?$AA?9?$AAl?$AA1?$AA?9?$AA1@ 0000000180014d90     libucrt:winapi_thunks.obj
 0001:00013dd8       ??_C@_1O@BCCLBEOE@?$AAu?$AAs?$AAe?$AAr?$AA3?$AA2?$AA?$AA@ 0000000180014dd8     libucrt:winapi_thunks.obj
 0001:00013de8       ??_C@_1BA@PFFKHIOG@?$AAa?$AAp?$AAi?$AA?9?$AAm?$AAs?$AA?9?$AA?$AA@ 0000000180014de8     libucrt:winapi_thunks.obj
 0001:00013df8       ??_C@_1BA@IAIFMGEF@?$AAe?$AAx?$AAt?$AA?9?$AAm?$AAs?$AA?9?$AA?$AA@ 0000000180014df8     libucrt:winapi_thunks.obj
 0001:00013e10       ??_C@_0BA@FHFNEAED@AreFileApisANSI?$AA@ 0000000180014e10     libucrt:winapi_thunks.obj
 0001:00013e28       ??_C@_0BA@IHGNDAEB@CompareStringEx?$AA@ 0000000180014e28     libucrt:winapi_thunks.obj
 0001:00013e40       ??_C@_08KNHFBNJ@FlsAlloc?$AA@ 0000000180014e40     libucrt:winapi_thunks.obj
 0001:00013e58       ??_C@_07PEJMOBNF@FlsFree?$AA@ 0000000180014e58     libucrt:winapi_thunks.obj
 0001:00013e68       ??_C@_0M@GDNOONDI@FlsGetValue?$AA@ 0000000180014e68     libucrt:winapi_thunks.obj
 0001:00013e80       ??_C@_0M@JCPCPOEF@FlsSetValue?$AA@ 0000000180014e80     libucrt:winapi_thunks.obj
 0001:00013e98       ??_C@_0BM@HCFOFFN@InitializeCriticalSectionEx?$AA@ 0000000180014e98     libucrt:winapi_thunks.obj
 0001:00013ec0       ??_C@_0O@KKBNKAPF@LCMapStringEx?$AA@ 0000000180014ec0     libucrt:winapi_thunks.obj
 0001:00013ed8       ??_C@_0BB@HBDEELFH@LocaleNameToLCID?$AA@ 0000000180014ed8     libucrt:winapi_thunks.obj
 0001:00013ef0       ??_C@_0CF@OJOFEIGO@AppPolicyGetProcessTerminationMe@ 0000000180014ef0     libucrt:winapi_thunks.obj
 0001:00013f20       __newctype                 0000000180014f20     libucrt:ctype.obj
 0001:00014220       __newclmap                 0000000180015220     libucrt:ctype.obj
 0001:000143a0       __newcumap                 00000001800153a0     libucrt:ctype.obj
 0001:00014520       _wctype                    0000000180015520     libucrt:ctype.obj
 0001:00014778       ??_C@_1M@HPNHIDJI@?$AAj?$AAa?$AA?9?$AAJ?$AAP?$AA?$AA@ 0000000180015778     libucrt:mbctype.obj
 0001:00014788       ??_C@_1M@BIBDDEMK@?$AAz?$AAh?$AA?9?$AAC?$AAN?$AA?$AA@ 0000000180015788     libucrt:mbctype.obj
 0001:00014798       ??_C@_1M@JLOOOEGK@?$AAk?$AAo?$AA?9?$AAK?$AAR?$AA?$AA@ 0000000180015798     libucrt:mbctype.obj
 0001:000147a8       ??_C@_1M@CLNBBOPM@?$AAz?$AAh?$AA?9?$AAT?$AAW?$AA?$AA@ 00000001800157a8     libucrt:mbctype.obj
 0001:000147b4       ??_C@_00CNPNBAHC@?$AA@     00000001800157b4     libucrt:mbrtowc.obj
 0001:000147b8       ??_C@_01GBGANLPD@0?$AA@    00000001800157b8     libucrt:cfout.obj
 0001:000147bc       ??_C@_05DNEBIAHO@1?$CDINF?$AA@ 00000001800157bc     libucrt:cfout.obj
 0001:000147c4       ??_C@_06IMKFLFPG@1?$CDQNAN?$AA@ 00000001800157c4     libucrt:cfout.obj
 0001:000147cc       ??_C@_06PGGFOGJG@1?$CDSNAN?$AA@ 00000001800157cc     libucrt:cfout.obj
 0001:000147d4       ??_C@_05PHHOCPM@1?$CDIND?$AA@ 00000001800157d4     libucrt:cfout.obj
 0001:000147dc       ??_C@_15PJPFLCCM@?$AAu?$AAk?$AA?$AA@ 00000001800157dc     libucrt:get_qualified_locale.obj
 0001:00015630       ??_C@_15EMKDOKLE@?$AAa?$AAr?$AA?$AA@ 0000000180016630     libucrt:lcidtoname_downlevel.obj
 0001:00015638       ??_C@_15KNPADPLH@?$AAb?$AAg?$AA?$AA@ 0000000180016638     libucrt:lcidtoname_downlevel.obj
 0001:00015640       ??_C@_15EDMHLDMO@?$AAc?$AAa?$AA?$AA@ 0000000180016640     libucrt:lcidtoname_downlevel.obj
 0001:00015648       ??_C@_1O@BPEAJADD@?$AAz?$AAh?$AA?9?$AAC?$AAH?$AAS?$AA?$AA@ 0000000180016648     libucrt:lcidtoname_downlevel.obj
 0001:00015658       ??_C@_15LJNHCMNK@?$AAc?$AAs?$AA?$AA@ 0000000180016658     libucrt:lcidtoname_downlevel.obj
 0001:00015660       ??_C@_15FOMCIDHG@?$AAd?$AAa?$AA?$AA@ 0000000180016660     libucrt:lcidtoname_downlevel.obj
 0001:00015668       ??_C@_15NBKABECB@?$AAd?$AAe?$AA?$AA@ 0000000180016668     libucrt:lcidtoname_downlevel.obj
 0001:00015670       ??_C@_15GHPEIIAO@?$AAe?$AAl?$AA?$AA@ 0000000180016670     libucrt:lcidtoname_downlevel.obj
 0001:00015678       ??_C@_15MNPNEAIF@?$AAe?$AAn?$AA?$AA@ 0000000180016678     libucrt:lcidtoname_downlevel.obj
 0001:00015680       ??_C@_15GPIOMPMH@?$AAe?$AAs?$AA?$AA@ 0000000180016680     libucrt:lcidtoname_downlevel.obj
 0001:00015688       ??_C@_15NGLOAKJC@?$AAf?$AAi?$AA?$AA@ 0000000180016688     libucrt:lcidtoname_downlevel.obj
 0001:00015690       ??_C@_15FBKGNKAM@?$AAf?$AAr?$AA?$AA@ 0000000180016690     libucrt:lcidtoname_downlevel.obj
 0001:00015698       ??_C@_15KGGCNEFK@?$AAh?$AAe?$AA?$AA@ 0000000180016698     libucrt:lcidtoname_downlevel.obj
 0001:000156a0       ??_C@_15PGHLIDMF@?$AAh?$AAu?$AA?$AA@ 00000001800166a0     libucrt:lcidtoname_downlevel.obj
 0001:000156a8       ??_C@_15BIEMAPLM@?$AAi?$AAs?$AA?$AA@ 00000001800166a8     libucrt:lcidtoname_downlevel.obj
 0001:000156b0       ??_C@_15IFJLDHAF@?$AAi?$AAt?$AA?$AA@ 00000001800166b0     libucrt:lcidtoname_downlevel.obj
 0001:000156b8       ??_C@_15GEMIOCAG@?$AAj?$AAa?$AA?$AA@ 00000001800166b8     libucrt:lcidtoname_downlevel.obj
 0001:000156c0       ??_C@_15EPELEGJA@?$AAk?$AAo?$AA?$AA@ 00000001800166c0     libucrt:lcidtoname_downlevel.obj
 0001:000156c8       ??_C@_15NDDHIMN@?$AAn?$AAl?$AA?$AA@ 00000001800166c8     libucrt:lcidtoname_downlevel.obj
 0001:000156d0       ??_C@_15BPIGNHCD@?$AAn?$AAo?$AA?$AA@ 00000001800166d0     libucrt:lcidtoname_downlevel.obj
 0001:000156d8       ??_C@_15DEOPBLCG@?$AAp?$AAl?$AA?$AA@ 00000001800166d8     libucrt:lcidtoname_downlevel.obj
 0001:000156e0       ??_C@_15KBECGEFG@?$AAp?$AAt?$AA?$AA@ 00000001800166e0     libucrt:lcidtoname_downlevel.obj
 0001:000156e8       ??_C@_15GLJCBFMD@?$AAr?$AAo?$AA?$AA@ 00000001800166e8     libucrt:lcidtoname_downlevel.obj
 0001:000156f0       ??_C@_15FEDGKCDI@?$AAr?$AAu?$AA?$AA@ 00000001800166f0     libucrt:lcidtoname_downlevel.obj
 0001:000156f8       ??_C@_15GLKMLLHM@?$AAh?$AAr?$AA?$AA@ 00000001800166f8     libucrt:lcidtoname_downlevel.obj
 0001:00015700       ??_C@_15CPKMFBDB@?$AAs?$AAk?$AA?$AA@ 0000000180016700     libucrt:lcidtoname_downlevel.obj
 0001:00015708       ??_C@_15BAAIOGMK@?$AAs?$AAq?$AA?$AA@ 0000000180016708     libucrt:lcidtoname_downlevel.obj
 0001:00015710       ??_C@_15INNPNOHD@?$AAs?$AAv?$AA?$AA@ 0000000180016710     libucrt:lcidtoname_downlevel.obj
 0001:00015718       ??_C@_15CABMMOGH@?$AAt?$AAh?$AA?$AA@ 0000000180016718     libucrt:lcidtoname_downlevel.obj
 0001:00015720       ??_C@_15BPLIHJJM@?$AAt?$AAr?$AA?$AA@ 0000000180016720     libucrt:lcidtoname_downlevel.obj
 0001:00015728       ??_C@_15NEOEKKDJ@?$AAu?$AAr?$AA?$AA@ 0000000180016728     libucrt:lcidtoname_downlevel.obj
 0001:00015730       ??_C@_15NFICGAJK@?$AAi?$AAd?$AA?$AA@ 0000000180016730     libucrt:lcidtoname_downlevel.obj
 0001:00015738       ??_C@_15HPJPHDM@?$AAb?$AAe?$AA?$AA@ 0000000180016738     libucrt:lcidtoname_downlevel.obj
 0001:00015740       ??_C@_15LCHLGJII@?$AAs?$AAl?$AA?$AA@ 0000000180016740     libucrt:lcidtoname_downlevel.obj
 0001:00015748       ??_C@_15PCFJPHHO@?$AAe?$AAt?$AA?$AA@ 0000000180016748     libucrt:lcidtoname_downlevel.obj
 0001:00015750       ??_C@_15HPFPGODN@?$AAl?$AAv?$AA?$AA@ 0000000180016750     libucrt:lcidtoname_downlevel.obj
 0001:00015758       ??_C@_15NFFGKGLG@?$AAl?$AAt?$AA?$AA@ 0000000180016758     libucrt:lcidtoname_downlevel.obj
 0001:00015760       ??_C@_15BDAKCCHN@?$AAf?$AAa?$AA?$AA@ 0000000180016760     libucrt:lcidtoname_downlevel.obj
 0001:00015768       ??_C@_15NFGIAIAJ@?$AAv?$AAi?$AA?$AA@ 0000000180016768     libucrt:lcidtoname_downlevel.obj
 0001:00015770       ??_C@_15LMKNDMHN@?$AAh?$AAy?$AA?$AA@ 0000000180016770     libucrt:lcidtoname_downlevel.obj
 0001:00015778       ??_C@_15IJBHMCFL@?$AAa?$AAz?$AA?$AA@ 0000000180016778     libucrt:lcidtoname_downlevel.obj
 0001:00015780       ??_C@_15EKOFJABL@?$AAe?$AAu?$AA?$AA@ 0000000180016780     libucrt:lcidtoname_downlevel.obj
 0001:00015788       ??_C@_15BGHADCNK@?$AAm?$AAk?$AA?$AA@ 0000000180016788     libucrt:lcidtoname_downlevel.obj
 0001:00015790       ??_C@_15JDNICKHM@?$AAa?$AAf?$AA?$AA@ 0000000180016790     libucrt:lcidtoname_downlevel.obj
 0001:00015798       ??_C@_15KPJEDBKD@?$AAk?$AAa?$AA?$AA@ 0000000180016798     libucrt:lcidtoname_downlevel.obj
 0001:000157a0       ??_C@_15PDNFFFEO@?$AAf?$AAo?$AA?$AA@ 00000001800167a0     libucrt:lcidtoname_downlevel.obj
 0001:000157a8       ??_C@_15OMLEGLOC@?$AAh?$AAi?$AA?$AA@ 00000001800167a8     libucrt:lcidtoname_downlevel.obj
 0001:000157b0       ??_C@_15IDNNENKK@?$AAm?$AAs?$AA?$AA@ 00000001800167b0     libucrt:lcidtoname_downlevel.obj
 0001:000157b8       ??_C@_15MACJNBMH@?$AAk?$AAk?$AA?$AA@ 00000001800167b8     libucrt:lcidtoname_downlevel.obj
 0001:000157c0       ??_C@_15DKDJEOND@?$AAk?$AAy?$AA?$AA@ 00000001800167c0     libucrt:lcidtoname_downlevel.obj
 0001:000157c8       ??_C@_15DFGDLJBG@?$AAs?$AAw?$AA?$AA@ 00000001800167c8     libucrt:lcidtoname_downlevel.obj
 0001:000157d0       ??_C@_15BBFAICNG@?$AAu?$AAz?$AA?$AA@ 00000001800167d0     libucrt:lcidtoname_downlevel.obj
 0001:000157d8       ??_C@_15DKNDCGEA@?$AAt?$AAt?$AA?$AA@ 00000001800167d8     libucrt:lcidtoname_downlevel.obj
 0001:000157e0       ??_C@_15MGIFMDPL@?$AAp?$AAa?$AA?$AA@ 00000001800167e0     libucrt:lcidtoname_downlevel.obj
 0001:000157e8       ??_C@_15HCNDBBA@?$AAg?$AAu?$AA?$AA@ 00000001800167e8     libucrt:lcidtoname_downlevel.obj
 0001:000157f0       ??_C@_15FNBEIBON@?$AAt?$AAa?$AA?$AA@ 00000001800167f0     libucrt:lcidtoname_downlevel.obj
 0001:000157f8       ??_C@_15NCHGBGLK@?$AAt?$AAe?$AA?$AA@ 00000001800167f8     libucrt:lcidtoname_downlevel.obj
 0001:00015800       ??_C@_15PHPHCBPF@?$AAk?$AAn?$AA?$AA@ 0000000180016800     libucrt:lcidtoname_downlevel.obj
 0001:00015808       ??_C@_15DLGBCKMP@?$AAm?$AAr?$AA?$AA@ 0000000180016808     libucrt:lcidtoname_downlevel.obj
 0001:00015810       ??_C@_15EABBLBFF@?$AAs?$AAa?$AA?$AA@ 0000000180016810     libucrt:lcidtoname_downlevel.obj
 0001:00015818       ??_C@_15CBKOMCOI@?$AAm?$AAn?$AA?$AA@ 0000000180016818     libucrt:lcidtoname_downlevel.obj
 0001:00015820       ??_C@_15CKDMCJAF@?$AAg?$AAl?$AA?$AA@ 0000000180016820     libucrt:lcidtoname_downlevel.obj
 0001:00015828       ??_C@_17CNJFBPG@?$AAk?$AAo?$AAk?$AA?$AA@ 0000000180016828     libucrt:lcidtoname_downlevel.obj
 0001:00015830       ??_C@_17FFBJICPL@?$AAs?$AAy?$AAr?$AA?$AA@ 0000000180016830     libucrt:lcidtoname_downlevel.obj
 0001:00015838       ??_C@_17KPNDCPAF@?$AAd?$AAi?$AAv?$AA?$AA@ 0000000180016838     libucrt:lcidtoname_downlevel.obj
 0001:00015840       ??_C@_11LOCGONAA@?$AA?$AA@ 0000000180016840     libucrt:lcidtoname_downlevel.obj
 0001:00015848       ??_C@_1M@OKAHONE@?$AAa?$AAr?$AA?9?$AAS?$AAA?$AA?$AA@ 0000000180016848     libucrt:lcidtoname_downlevel.obj
 0001:00015858       ??_C@_1M@FFFIGIGK@?$AAb?$AAg?$AA?9?$AAB?$AAG?$AA?$AA@ 0000000180016858     libucrt:lcidtoname_downlevel.obj
 0001:00015868       ??_C@_1M@BJNKEDC@?$AAc?$AAa?$AA?9?$AAE?$AAS?$AA?$AA@ 0000000180016868     libucrt:lcidtoname_downlevel.obj
 0001:00015878       ??_C@_1M@IJJHFJHA@?$AAc?$AAs?$AA?9?$AAC?$AAZ?$AA?$AA@ 0000000180016878     libucrt:lcidtoname_downlevel.obj
 0001:00015888       ??_C@_1M@CLPEOBGI@?$AAd?$AAa?$AA?9?$AAD?$AAK?$AA?$AA@ 0000000180016888     libucrt:lcidtoname_downlevel.obj
 0001:00015898       ??_C@_1M@MCMADGCB@?$AAd?$AAe?$AA?9?$AAD?$AAE?$AA?$AA@ 0000000180016898     libucrt:lcidtoname_downlevel.obj
 0001:000158a8       ??_C@_1M@OOCKEMAM@?$AAe?$AAl?$AA?9?$AAG?$AAR?$AA?$AA@ 00000001800168a8     libucrt:lcidtoname_downlevel.obj
 0001:000158b8       ??_C@_1M@DDNJFGID@?$AAf?$AAi?$AA?9?$AAF?$AAI?$AA?$AA@ 00000001800168b8     libucrt:lcidtoname_downlevel.obj
 0001:000158c8       ??_C@_1M@GLIPPMAC@?$AAf?$AAr?$AA?9?$AAF?$AAR?$AA?$AA@ 00000001800168c8     libucrt:lcidtoname_downlevel.obj
 0001:000158d8       ??_C@_1M@GFMCHPE@?$AAh?$AAe?$AA?9?$AAI?$AAL?$AA?$AA@ 00000001800168d8     libucrt:lcidtoname_downlevel.obj
 0001:000158e8       ??_C@_1M@MHLPGNKM@?$AAh?$AAu?$AA?9?$AAH?$AAU?$AA?$AA@ 00000001800168e8     libucrt:lcidtoname_downlevel.obj
 0001:000158f8       ??_C@_1M@LPDDNNPN@?$AAi?$AAs?$AA?9?$AAI?$AAS?$AA?$AA@ 00000001800168f8     libucrt:lcidtoname_downlevel.obj
 0001:00015908       ??_C@_1M@MADIPODN@?$AAi?$AAt?$AA?9?$AAI?$AAT?$AA?$AA@ 0000000180016908     libucrt:lcidtoname_downlevel.obj
 0001:00015918       ??_C@_1M@IHBJJGG@?$AAn?$AAl?$AA?9?$AAN?$AAL?$AA?$AA@ 0000000180016918     libucrt:lcidtoname_downlevel.obj
 0001:00015928       ??_C@_1M@EANAGDL@?$AAn?$AAb?$AA?9?$AAN?$AAO?$AA?$AA@ 0000000180016928     libucrt:lcidtoname_downlevel.obj
 0001:00015938       ??_C@_1M@NEIEMEGP@?$AAp?$AAl?$AA?9?$AAP?$AAL?$AA?$AA@ 0000000180016938     libucrt:lcidtoname_downlevel.obj
 0001:00015948       ??_C@_1M@BOCFIGEP@?$AAp?$AAt?$AA?9?$AAB?$AAR?$AA?$AA@ 0000000180016948     libucrt:lcidtoname_downlevel.obj
 0001:00015958       ??_C@_1M@IMPFOPBG@?$AAr?$AAo?$AA?9?$AAR?$AAO?$AA?$AA@ 0000000180016958     libucrt:lcidtoname_downlevel.obj
 0001:00015968       ??_C@_1M@IDNNEJMM@?$AAr?$AAu?$AA?9?$AAR?$AAU?$AA?$AA@ 0000000180016968     libucrt:lcidtoname_downlevel.obj
 0001:00015978       ??_C@_1M@LILEEOGM@?$AAh?$AAr?$AA?9?$AAH?$AAR?$AA?$AA@ 0000000180016978     libucrt:lcidtoname_downlevel.obj
 0001:00015988       ??_C@_1M@FKIFEHPB@?$AAs?$AAk?$AA?9?$AAS?$AAK?$AA?$AA@ 0000000180016988     libucrt:lcidtoname_downlevel.obj
 0001:00015998       ??_C@_1M@LJMAMNPJ@?$AAs?$AAq?$AA?9?$AAA?$AAL?$AA?$AA@ 0000000180016998     libucrt:lcidtoname_downlevel.obj
 0001:000159a8       ??_C@_1M@GIAKDKJK@?$AAs?$AAv?$AA?9?$AAS?$AAE?$AA?$AA@ 00000001800169a8     libucrt:lcidtoname_downlevel.obj
 0001:000159b8       ??_C@_1M@MKJKIKCL@?$AAt?$AAh?$AA?9?$AAT?$AAH?$AA?$AA@ 00000001800169b8     libucrt:lcidtoname_downlevel.obj
 0001:000159c8       ??_C@_1M@MFLCCMPB@?$AAt?$AAr?$AA?9?$AAT?$AAR?$AA?$AA@ 00000001800169c8     libucrt:lcidtoname_downlevel.obj
 0001:000159d8       ??_C@_1M@OIJHDKJN@?$AAu?$AAr?$AA?9?$AAP?$AAK?$AA?$AA@ 00000001800169d8     libucrt:lcidtoname_downlevel.obj
 0001:000159e8       ??_C@_1M@LHIPCIEK@?$AAi?$AAd?$AA?9?$AAI?$AAD?$AA?$AA@ 00000001800169e8     libucrt:lcidtoname_downlevel.obj
 0001:000159f8       ??_C@_1M@MFMOBGI@?$AAu?$AAk?$AA?9?$AAU?$AAA?$AA?$AA@ 00000001800169f8     libucrt:lcidtoname_downlevel.obj
 0001:00015a08       ??_C@_1M@OBGLJIPL@?$AAb?$AAe?$AA?9?$AAB?$AAY?$AA?$AA@ 0000000180016a08     libucrt:lcidtoname_downlevel.obj
 0001:00015a18       ??_C@_1M@BCFAJEAD@?$AAs?$AAl?$AA?9?$AAS?$AAI?$AA?$AA@ 0000000180016a18     libucrt:lcidtoname_downlevel.obj
 0001:00015a28       ??_C@_1M@FKFFEDDN@?$AAe?$AAt?$AA?9?$AAE?$AAE?$AA?$AA@ 0000000180016a28     libucrt:lcidtoname_downlevel.obj
 0001:00015a38       ??_C@_1M@KGKKAACI@?$AAl?$AAv?$AA?9?$AAL?$AAV?$AA?$AA@ 0000000180016a38     libucrt:lcidtoname_downlevel.obj
 0001:00015a48       ??_C@_1M@IFGBIJO@?$AAl?$AAt?$AA?9?$AAL?$AAT?$AA?$AA@ 0000000180016a48     libucrt:lcidtoname_downlevel.obj
 0001:00015a58       ??_C@_1M@FGEAHEDM@?$AAf?$AAa?$AA?9?$AAI?$AAR?$AA?$AA@ 0000000180016a58     libucrt:lcidtoname_downlevel.obj
 0001:00015a68       ??_C@_1M@KBMAIBFN@?$AAv?$AAi?$AA?9?$AAV?$AAN?$AA?$AA@ 0000000180016a68     libucrt:lcidtoname_downlevel.obj
 0001:00015a78       ??_C@_1M@GPCBKDJK@?$AAh?$AAy?$AA?9?$AAA?$AAM?$AA?$AA@ 0000000180016a78     libucrt:lcidtoname_downlevel.obj
 0001:00015a88       ??_C@_1BG@BECMDDJB@?$AAa?$AAz?$AA?9?$AAA?$AAZ?$AA?9?$AAL?$AAa?$AAt?$AAn?$AA?$AA@ 0000000180016a88     libucrt:lcidtoname_downlevel.obj
 0001:00015aa0       ??_C@_1M@MAOFCAEA@?$AAe?$AAu?$AA?9?$AAE?$AAS?$AA?$AA@ 0000000180016aa0     libucrt:lcidtoname_downlevel.obj
 0001:00015ab0       ??_C@_1M@IGHABKPI@?$AAm?$AAk?$AA?9?$AAM?$AAK?$AA?$AA@ 0000000180016ab0     libucrt:lcidtoname_downlevel.obj
 0001:00015ac0       ??_C@_1M@IAIGNEJG@?$AAt?$AAn?$AA?9?$AAZ?$AAA?$AA?$AA@ 0000000180016ac0     libucrt:lcidtoname_downlevel.obj
 0001:00015ad0       ??_C@_1M@IIJCOJFA@?$AAx?$AAh?$AA?9?$AAZ?$AAA?$AA?$AA@ 0000000180016ad0     libucrt:lcidtoname_downlevel.obj
 0001:00015ae0       ??_C@_1M@LGPJHNJH@?$AAz?$AAu?$AA?9?$AAZ?$AAA?$AA?$AA@ 0000000180016ae0     libucrt:lcidtoname_downlevel.obj
 0001:00015af0       ??_C@_1M@HOKAOIO@?$AAa?$AAf?$AA?9?$AAZ?$AAA?$AA?$AA@ 0000000180016af0     libucrt:lcidtoname_downlevel.obj
 0001:00015b00       ??_C@_1M@DPCLHLIE@?$AAk?$AAa?$AA?9?$AAG?$AAE?$AA?$AA@ 0000000180016b00     libucrt:lcidtoname_downlevel.obj
 0001:00015b10       ??_C@_1M@BLKMHJBI@?$AAf?$AAo?$AA?9?$AAF?$AAO?$AA?$AA@ 0000000180016b10     libucrt:lcidtoname_downlevel.obj
 0001:00015b20       ??_C@_1M@LGGJAPPB@?$AAh?$AAi?$AA?9?$AAI?$AAN?$AA?$AA@ 0000000180016b20     libucrt:lcidtoname_downlevel.obj
 0001:00015b30       ??_C@_1M@FIKPIHFE@?$AAm?$AAt?$AA?9?$AAM?$AAT?$AA?$AA@ 0000000180016b30     libucrt:lcidtoname_downlevel.obj
 0001:00015b40       ??_C@_1M@HEGGPBFA@?$AAs?$AAe?$AA?9?$AAN?$AAO?$AA?$AA@ 0000000180016b40     libucrt:lcidtoname_downlevel.obj
 0001:00015b50       ??_C@_1M@EIBJEEPA@?$AAm?$AAs?$AA?9?$AAM?$AAY?$AA?$AA@ 0000000180016b50     libucrt:lcidtoname_downlevel.obj
 0001:00015b60       ??_C@_1M@FHLBGMPP@?$AAk?$AAk?$AA?9?$AAK?$AAZ?$AA?$AA@ 0000000180016b60     libucrt:lcidtoname_downlevel.obj
 0001:00015b70       ??_C@_1M@NGJJLCGI@?$AAk?$AAy?$AA?9?$AAK?$AAG?$AA?$AA@ 0000000180016b70     libucrt:lcidtoname_downlevel.obj
 0001:00015b80       ??_C@_1M@GIENNBFC@?$AAs?$AAw?$AA?9?$AAK?$AAE?$AA?$AA@ 0000000180016b80     libucrt:lcidtoname_downlevel.obj
 0001:00015b90       ??_C@_1BG@NDGMJIMJ@?$AAu?$AAz?$AA?9?$AAU?$AAZ?$AA?9?$AAL?$AAa?$AAt?$AAn?$AA?$AA@ 0000000180016b90     libucrt:lcidtoname_downlevel.obj
 0001:00015ba8       ??_C@_1M@IDCCIHBC@?$AAt?$AAt?$AA?9?$AAR?$AAU?$AA?$AA@ 0000000180016ba8     libucrt:lcidtoname_downlevel.obj
 0001:00015bb8       ??_C@_1M@LOICPMOJ@?$AAb?$AAn?$AA?9?$AAI?$AAN?$AA?$AA@ 0000000180016bb8     libucrt:lcidtoname_downlevel.obj
 0001:00015bc8       ??_C@_1M@KPKKNEAH@?$AAp?$AAa?$AA?9?$AAI?$AAN?$AA?$AA@ 0000000180016bc8     libucrt:lcidtoname_downlevel.obj
 0001:00015bd8       ??_C@_1M@PJGPPBOG@?$AAg?$AAu?$AA?9?$AAI?$AAN?$AA?$AA@ 0000000180016bd8     libucrt:lcidtoname_downlevel.obj
 0001:00015be8       ??_C@_1M@KMKMOPHI@?$AAt?$AAa?$AA?9?$AAI?$AAN?$AA?$AA@ 0000000180016be8     libucrt:lcidtoname_downlevel.obj
 0001:00015bf8       ??_C@_1M@KFEHEPAC@?$AAt?$AAe?$AA?9?$AAI?$AAN?$AA?$AA@ 0000000180016bf8     libucrt:lcidtoname_downlevel.obj
 0001:00015c08       ??_C@_1M@CDCLMGHI@?$AAk?$AAn?$AA?9?$AAI?$AAN?$AA?$AA@ 0000000180016c08     libucrt:lcidtoname_downlevel.obj
 0001:00015c18       ??_C@_1M@MIODLDKF@?$AAm?$AAl?$AA?9?$AAI?$AAN?$AA?$AA@ 0000000180016c18     libucrt:lcidtoname_downlevel.obj
 0001:00015c28       ??_C@_1M@PBIEACPO@?$AAm?$AAr?$AA?9?$AAI?$AAN?$AA?$AA@ 0000000180016c28     libucrt:lcidtoname_downlevel.obj
 0001:00015c38       ??_C@_1M@NIDEAGPH@?$AAs?$AAa?$AA?9?$AAI?$AAN?$AA?$AA@ 0000000180016c38     libucrt:lcidtoname_downlevel.obj
 0001:00015c48       ??_C@_1M@FHIHCBIO@?$AAm?$AAn?$AA?9?$AAM?$AAN?$AA?$AA@ 0000000180016c48     libucrt:lcidtoname_downlevel.obj
 0001:00015c58       ??_C@_1M@JAIJPENP@?$AAc?$AAy?$AA?9?$AAG?$AAB?$AA?$AA@ 0000000180016c58     libucrt:lcidtoname_downlevel.obj
 0001:00015c68       ??_C@_1M@PHGFBEPN@?$AAg?$AAl?$AA?9?$AAE?$AAS?$AA?$AA@ 0000000180016c68     libucrt:lcidtoname_downlevel.obj
 0001:00015c78       ??_C@_1O@KPIPDNCP@?$AAk?$AAo?$AAk?$AA?9?$AAI?$AAN?$AA?$AA@ 0000000180016c78     libucrt:lcidtoname_downlevel.obj
 0001:00015c88       ??_C@_1O@KNHJLDJA@?$AAs?$AAy?$AAr?$AA?9?$AAS?$AAY?$AA?$AA@ 0000000180016c88     libucrt:lcidtoname_downlevel.obj
 0001:00015c98       ??_C@_1O@MKEKBLAH@?$AAd?$AAi?$AAv?$AA?9?$AAM?$AAV?$AA?$AA@ 0000000180016c98     libucrt:lcidtoname_downlevel.obj
 0001:00015ca8       ??_C@_1O@OHDCKDDF@?$AAq?$AAu?$AAz?$AA?9?$AAB?$AAO?$AA?$AA@ 0000000180016ca8     libucrt:lcidtoname_downlevel.obj
 0001:00015cb8       ??_C@_1M@LEPJNLFD@?$AAn?$AAs?$AA?9?$AAZ?$AAA?$AA?$AA@ 0000000180016cb8     libucrt:lcidtoname_downlevel.obj
 0001:00015cc8       ??_C@_1M@OMLEIIJB@?$AAm?$AAi?$AA?9?$AAN?$AAZ?$AA?$AA@ 0000000180016cc8     libucrt:lcidtoname_downlevel.obj
 0001:00015cd8       ??_C@_1M@PMPEAILG@?$AAa?$AAr?$AA?9?$AAI?$AAQ?$AA?$AA@ 0000000180016cd8     libucrt:lcidtoname_downlevel.obj
 0001:00015ce8       ??_C@_1M@CNKPNOEE@?$AAd?$AAe?$AA?9?$AAC?$AAH?$AA?$AA@ 0000000180016ce8     libucrt:lcidtoname_downlevel.obj
 0001:00015cf8       ??_C@_1M@LKMGMLKO@?$AAe?$AAn?$AA?9?$AAG?$AAB?$AA?$AA@ 0000000180016cf8     libucrt:lcidtoname_downlevel.obj
 0001:00015d08       ??_C@_1M@PGKJFFGL@?$AAe?$AAs?$AA?9?$AAM?$AAX?$AA?$AA@ 0000000180016d08     libucrt:lcidtoname_downlevel.obj
 0001:00015d18       ??_C@_1M@DNNANBDC@?$AAf?$AAr?$AA?9?$AAB?$AAE?$AA?$AA@ 0000000180016d18     libucrt:lcidtoname_downlevel.obj
 0001:00015d28       ??_C@_1M@HLGMDFHM@?$AAi?$AAt?$AA?9?$AAC?$AAH?$AA?$AA@ 0000000180016d28     libucrt:lcidtoname_downlevel.obj
 0001:00015d38       ??_C@_1M@CLLBGJH@?$AAn?$AAl?$AA?9?$AAB?$AAE?$AA?$AA@ 0000000180016d38     libucrt:lcidtoname_downlevel.obj
 0001:00015d48       ??_C@_1M@BODBOGLF@?$AAn?$AAn?$AA?9?$AAN?$AAO?$AA?$AA@ 0000000180016d48     libucrt:lcidtoname_downlevel.obj
 0001:00015d58       ??_C@_1M@HFFAHKAD@?$AAp?$AAt?$AA?9?$AAP?$AAT?$AA?$AA@ 0000000180016d58     libucrt:lcidtoname_downlevel.obj
 0001:00015d68       ??_C@_1BG@LNOAKHIE@?$AAs?$AAr?$AA?9?$AAS?$AAP?$AA?9?$AAL?$AAa?$AAt?$AAn?$AA?$AA@ 0000000180016d68     libucrt:lcidtoname_downlevel.obj
 0001:00015d80       ??_C@_1M@HBMHBGAK@?$AAs?$AAv?$AA?9?$AAF?$AAI?$AA?$AA@ 0000000180016d80     libucrt:lcidtoname_downlevel.obj
 0001:00015d90       ??_C@_1BG@DGCJGJBE@?$AAa?$AAz?$AA?9?$AAA?$AAZ?$AA?9?$AAC?$AAy?$AAr?$AAl?$AA?$AA@ 0000000180016d90     libucrt:lcidtoname_downlevel.obj
 0001:00015da8       ??_C@_1M@KEJDAAHB@?$AAs?$AAe?$AA?9?$AAS?$AAE?$AA?$AA@ 0000000180016da8     libucrt:lcidtoname_downlevel.obj
 0001:00015db8       ??_C@_1M@HEIBJJAD@?$AAm?$AAs?$AA?9?$AAB?$AAN?$AA?$AA@ 0000000180016db8     libucrt:lcidtoname_downlevel.obj
 0001:00015dc8       ??_C@_1BG@PBGJMCEM@?$AAu?$AAz?$AA?9?$AAU?$AAZ?$AA?9?$AAC?$AAy?$AAr?$AAl?$AA?$AA@ 0000000180016dc8     libucrt:lcidtoname_downlevel.obj
 0001:00015de0       ??_C@_1O@LAOBCMDF@?$AAq?$AAu?$AAz?$AA?9?$AAE?$AAC?$AA?$AA@ 0000000180016de0     libucrt:lcidtoname_downlevel.obj
 0001:00015df0       ??_C@_1M@POEEMAIO@?$AAa?$AAr?$AA?9?$AAE?$AAG?$AA?$AA@ 0000000180016df0     libucrt:lcidtoname_downlevel.obj
 0001:00015e00       ??_C@_1M@EFAKDEDL@?$AAz?$AAh?$AA?9?$AAH?$AAK?$AA?$AA@ 0000000180016e00     libucrt:lcidtoname_downlevel.obj
 0001:00015e10       ??_C@_1M@HKKIJHGI@?$AAd?$AAe?$AA?9?$AAA?$AAT?$AA?$AA@ 0000000180016e10     libucrt:lcidtoname_downlevel.obj
 0001:00015e20       ??_C@_1M@KBFBEHJF@?$AAe?$AAn?$AA?9?$AAA?$AAU?$AA?$AA@ 0000000180016e20     libucrt:lcidtoname_downlevel.obj
 0001:00015e30       ??_C@_1M@MNPLFAAH@?$AAe?$AAs?$AA?9?$AAE?$AAS?$AA?$AA@ 0000000180016e30     libucrt:lcidtoname_downlevel.obj
 0001:00015e40       ??_C@_1M@HJOOJFMA@?$AAf?$AAr?$AA?9?$AAC?$AAA?$AA?$AA@ 0000000180016e40     libucrt:lcidtoname_downlevel.obj
 0001:00015e50       ??_C@_1BG@JPOFPNAB@?$AAs?$AAr?$AA?9?$AAS?$AAP?$AA?9?$AAC?$AAy?$AAr?$AAl?$AA?$AA@ 0000000180016e50     libucrt:lcidtoname_downlevel.obj
 0001:00015e68       ??_C@_1M@LNFOCMOB@?$AAs?$AAe?$AA?9?$AAF?$AAI?$AA?$AA@ 0000000180016e68     libucrt:lcidtoname_downlevel.obj
 0001:00015e78       ??_C@_1O@MGJBOAMB@?$AAq?$AAu?$AAz?$AA?9?$AAP?$AAE?$AA?$AA@ 0000000180016e78     libucrt:lcidtoname_downlevel.obj
 0001:00015e88       ??_C@_1M@GJINLBOK@?$AAa?$AAr?$AA?9?$AAL?$AAY?$AA?$AA@ 0000000180016e88     libucrt:lcidtoname_downlevel.obj
 0001:00015e98       ??_C@_1M@GGMNHJNL@?$AAz?$AAh?$AA?9?$AAS?$AAG?$AA?$AA@ 0000000180016e98     libucrt:lcidtoname_downlevel.obj
 0001:00015ea8       ??_C@_1M@HOIKODND@?$AAd?$AAe?$AA?9?$AAL?$AAU?$AA?$AA@ 0000000180016ea8     libucrt:lcidtoname_downlevel.obj
 0001:00015eb8       ??_C@_1M@DDOCCGFG@?$AAe?$AAn?$AA?9?$AAC?$AAA?$AA?$AA@ 0000000180016eb8     libucrt:lcidtoname_downlevel.obj
 0001:00015ec8       ??_C@_1M@BNOEMJLF@?$AAe?$AAs?$AA?9?$AAG?$AAT?$AA?$AA@ 0000000180016ec8     libucrt:lcidtoname_downlevel.obj
 0001:00015ed8       ??_C@_1M@EOGNKEK@?$AAf?$AAr?$AA?9?$AAC?$AAH?$AA?$AA@ 0000000180016ed8     libucrt:lcidtoname_downlevel.obj
 0001:00015ee8       ??_C@_1M@FLIDJFHL@?$AAh?$AAr?$AA?9?$AAB?$AAA?$AA?$AA@ 0000000180016ee8     libucrt:lcidtoname_downlevel.obj
 0001:00015ef8       ??_C@_1O@FMCELNAJ@?$AAs?$AAm?$AAj?$AA?9?$AAN?$AAO?$AA?$AA@ 0000000180016ef8     libucrt:lcidtoname_downlevel.obj
 0001:00015f08       ??_C@_1M@JHGLJMGJ@?$AAa?$AAr?$AA?9?$AAD?$AAZ?$AA?$AA@ 0000000180016f08     libucrt:lcidtoname_downlevel.obj
 0001:00015f18       ??_C@_1M@JKKFDCNP@?$AAz?$AAh?$AA?9?$AAM?$AAO?$AA?$AA@ 0000000180016f18     libucrt:lcidtoname_downlevel.obj
 0001:00015f28       ??_C@_1M@GEEFALPE@?$AAd?$AAe?$AA?9?$AAL?$AAI?$AA?$AA@ 0000000180016f28     libucrt:lcidtoname_downlevel.obj
 0001:00015f38       ??_C@_1M@IGEOFBG@?$AAe?$AAn?$AA?9?$AAN?$AAZ?$AA?$AA@ 0000000180016f38     libucrt:lcidtoname_downlevel.obj
 0001:00015f48       ??_C@_1M@KDBONEHP@?$AAe?$AAs?$AA?9?$AAC?$AAR?$AA?$AA@ 0000000180016f48     libucrt:lcidtoname_downlevel.obj
 0001:00015f58       ??_C@_1M@FHMDOHNN@?$AAf?$AAr?$AA?9?$AAL?$AAU?$AA?$AA@ 0000000180016f58     libucrt:lcidtoname_downlevel.obj
 0001:00015f68       ??_C@_1BG@NFKKMAFG@?$AAb?$AAs?$AA?9?$AAB?$AAA?$AA?9?$AAL?$AAa?$AAt?$AAn?$AA?$AA@ 0000000180016f68     libucrt:lcidtoname_downlevel.obj
 0001:00015f80       ??_C@_1O@IMNBEMCI@?$AAs?$AAm?$AAj?$AA?9?$AAS?$AAE?$AA?$AA@ 0000000180016f80     libucrt:lcidtoname_downlevel.obj
 0001:00015f90       ??_C@_1M@DHHMBNDP@?$AAa?$AAr?$AA?9?$AAM?$AAA?$AA?$AA@ 0000000180016f90     libucrt:lcidtoname_downlevel.obj
 0001:00015fa0       ??_C@_1M@BNBLJCGH@?$AAe?$AAn?$AA?9?$AAI?$AAE?$AA?$AA@ 0000000180016fa0     libucrt:lcidtoname_downlevel.obj
 0001:00015fb0       ??_C@_1M@GEPAFMDL@?$AAe?$AAs?$AA?9?$AAP?$AAA?$AA?$AA@ 0000000180016fb0     libucrt:lcidtoname_downlevel.obj
 0001:00015fc0       ??_C@_1M@OJONDMDL@?$AAf?$AAr?$AA?9?$AAM?$AAC?$AA?$AA@ 0000000180016fc0     libucrt:lcidtoname_downlevel.obj
 0001:00015fd0       ??_C@_1BG@OBCNFJB@?$AAs?$AAr?$AA?9?$AAB?$AAA?$AA?9?$AAL?$AAa?$AAt?$AAn?$AA?$AA@ 0000000180016fd0     libucrt:lcidtoname_downlevel.obj
 0001:00015fe8       ??_C@_1O@KEMEEGPO@?$AAs?$AAm?$AAa?$AA?9?$AAN?$AAO?$AA?$AA@ 0000000180016fe8     libucrt:lcidtoname_downlevel.obj
 0001:00015ff8       ??_C@_1M@ELMGFODK@?$AAa?$AAr?$AA?9?$AAT?$AAN?$AA?$AA@ 0000000180016ff8     libucrt:lcidtoname_downlevel.obj
 0001:00016008       ??_C@_1M@BHDLHFAF@?$AAe?$AAn?$AA?9?$AAZ?$AAA?$AA?$AA@ 0000000180017008     libucrt:lcidtoname_downlevel.obj
 0001:00016018       ??_C@_1M@BMGIGLIF@?$AAe?$AAs?$AA?9?$AAD?$AAO?$AA?$AA@ 0000000180017018     libucrt:lcidtoname_downlevel.obj
 0001:00016028       ??_C@_1BG@CMBHIPBE@?$AAs?$AAr?$AA?9?$AAB?$AAA?$AA?9?$AAC?$AAy?$AAr?$AAl?$AA?$AA@ 0000000180017028     libucrt:lcidtoname_downlevel.obj
 0001:00016040       ??_C@_1O@HEDBLHNP@?$AAs?$AAm?$AAa?$AA?9?$AAS?$AAE?$AA?$AA@ 0000000180017040     libucrt:lcidtoname_downlevel.obj
 0001:00016050       ??_C@_1M@DAGCADIM@?$AAa?$AAr?$AA?9?$AAO?$AAM?$AA?$AA@ 0000000180017050     libucrt:lcidtoname_downlevel.obj
 0001:00016060       ??_C@_1M@FODLMICG@?$AAe?$AAn?$AA?9?$AAJ?$AAM?$AA?$AA@ 0000000180017060     libucrt:lcidtoname_downlevel.obj
 0001:00016070       ??_C@_1M@DNMLCIHB@?$AAe?$AAs?$AA?9?$AAV?$AAE?$AA?$AA@ 0000000180017070     libucrt:lcidtoname_downlevel.obj
 0001:00016080       ??_C@_1O@EOKHMKJK@?$AAs?$AAm?$AAs?$AA?9?$AAF?$AAI?$AA?$AA@ 0000000180017080     libucrt:lcidtoname_downlevel.obj
 0001:00016090       ??_C@_1M@CAFJMKOF@?$AAa?$AAr?$AA?9?$AAY?$AAE?$AA?$AA@ 0000000180017090     libucrt:lcidtoname_downlevel.obj
 0001:000160a0       ??_C@_1M@CBFHIJLI@?$AAe?$AAn?$AA?9?$AAC?$AAB?$AA?$AA@ 00000001800170a0     libucrt:lcidtoname_downlevel.obj
 0001:000160b0       ??_C@_1M@BGNFLDN@?$AAe?$AAs?$AA?9?$AAC?$AAO?$AA?$AA@ 00000001800170b0     libucrt:lcidtoname_downlevel.obj
 0001:000160c0       ??_C@_1O@JMPHMAMC@?$AAs?$AAm?$AAn?$AA?9?$AAF?$AAI?$AA?$AA@ 00000001800170c0     libucrt:lcidtoname_downlevel.obj
 0001:000160d0       ??_C@_1M@JLANABKE@?$AAa?$AAr?$AA?9?$AAS?$AAY?$AA?$AA@ 00000001800170d0     libucrt:lcidtoname_downlevel.obj
 0001:000160e0       ??_C@_1M@HPKGCFGN@?$AAe?$AAn?$AA?9?$AAB?$AAZ?$AA?$AA@ 00000001800170e0     libucrt:lcidtoname_downlevel.obj
 0001:000160f0       ??_C@_1M@OLJCMLGM@?$AAe?$AAs?$AA?9?$AAP?$AAE?$AA?$AA@ 00000001800170f0     libucrt:lcidtoname_downlevel.obj
 0001:00016100       ??_C@_1M@MKKGFKLE@?$AAa?$AAr?$AA?9?$AAJ?$AAO?$AA?$AA@ 0000000180017100     libucrt:lcidtoname_downlevel.obj
 0001:00016110       ??_C@_1M@EKPGLDNI@?$AAe?$AAn?$AA?9?$AAT?$AAT?$AA?$AA@ 0000000180017110     libucrt:lcidtoname_downlevel.obj
 0001:00016120       ??_C@_1M@OONGHFHE@?$AAe?$AAs?$AA?9?$AAA?$AAR?$AA?$AA@ 0000000180017120     libucrt:lcidtoname_downlevel.obj
 0001:00016130       ??_C@_1M@OOJFGBHE@?$AAa?$AAr?$AA?9?$AAL?$AAB?$AA?$AA@ 0000000180017130     libucrt:lcidtoname_downlevel.obj
 0001:00016140       ??_C@_1M@GCEJHNEG@?$AAe?$AAn?$AA?9?$AAZ?$AAW?$AA?$AA@ 0000000180017140     libucrt:lcidtoname_downlevel.obj
 0001:00016150       ??_C@_1M@JNOCAHJI@?$AAe?$AAs?$AA?9?$AAE?$AAC?$AA?$AA@ 0000000180017150     libucrt:lcidtoname_downlevel.obj
 0001:00016160       ??_C@_1M@JEFHPGGB@?$AAa?$AAr?$AA?9?$AAK?$AAW?$AA?$AA@ 0000000180017160     libucrt:lcidtoname_downlevel.obj
 0001:00016170       ??_C@_1M@MLKIBJOJ@?$AAe?$AAn?$AA?9?$AAP?$AAH?$AA?$AA@ 0000000180017170     libucrt:lcidtoname_downlevel.obj
 0001:00016180       ??_C@_1M@BDNIPEND@?$AAe?$AAs?$AA?9?$AAC?$AAL?$AA?$AA@ 0000000180017180     libucrt:lcidtoname_downlevel.obj
 0001:00016190       ??_C@_1M@MPNMEKBD@?$AAa?$AAr?$AA?9?$AAA?$AAE?$AA?$AA@ 0000000180017190     libucrt:lcidtoname_downlevel.obj
 0001:000161a0       ??_C@_1M@KBJALCPI@?$AAe?$AAs?$AA?9?$AAU?$AAY?$AA?$AA@ 00000001800171a0     libucrt:lcidtoname_downlevel.obj
 0001:000161b0       ??_C@_1M@LLCCOAGA@?$AAa?$AAr?$AA?9?$AAB?$AAH?$AA?$AA@ 00000001800171b0     libucrt:lcidtoname_downlevel.obj
 0001:000161c0       ??_C@_1M@PBFNCDEL@?$AAe?$AAs?$AA?9?$AAP?$AAY?$AA?$AA@ 00000001800171c0     libucrt:lcidtoname_downlevel.obj
 0001:000161d0       ??_C@_1M@EDGINPNP@?$AAa?$AAr?$AA?9?$AAQ?$AAA?$AA?$AA@ 00000001800171d0     libucrt:lcidtoname_downlevel.obj
 0001:000161e0       ??_C@_1M@MKDBIIJI@?$AAe?$AAs?$AA?9?$AAB?$AAO?$AA?$AA@ 00000001800171e0     libucrt:lcidtoname_downlevel.obj
 0001:000161f0       ??_C@_1M@CPKKEBLD@?$AAe?$AAs?$AA?9?$AAS?$AAV?$AA?$AA@ 00000001800171f0     libucrt:lcidtoname_downlevel.obj
 0001:00016200       ??_C@_1M@NDBGMMJL@?$AAe?$AAs?$AA?9?$AAH?$AAN?$AA?$AA@ 0000000180017200     libucrt:lcidtoname_downlevel.obj
 0001:00016210       ??_C@_1M@JIJIBHDP@?$AAe?$AAs?$AA?9?$AAN?$AAI?$AA?$AA@ 0000000180017210     libucrt:lcidtoname_downlevel.obj
 0001:00016220       ??_C@_1M@CGFMKEEK@?$AAe?$AAs?$AA?9?$AAP?$AAR?$AA?$AA@ 0000000180017220     libucrt:lcidtoname_downlevel.obj
 0001:00016230       ??_C@_1O@ICJHKIIK@?$AAz?$AAh?$AA?9?$AAC?$AAH?$AAT?$AA?$AA@ 0000000180017230     libucrt:lcidtoname_downlevel.obj
 0001:00016240       ??_C@_15CLNEJCE@?$AAs?$AAr?$AA?$AA@ 0000000180017240     libucrt:lcidtoname_downlevel.obj
 0001:00017090       ??_C@_1M@KAHEKEIG@?$AAa?$AAf?$AA?9?$AAz?$AAa?$AA?$AA@ 0000000180018090     libucrt:lcidtoname_downlevel.obj
 0001:000170a0       ??_C@_1M@GIECOABL@?$AAa?$AAr?$AA?9?$AAa?$AAe?$AA?$AA@ 00000001800180a0     libucrt:lcidtoname_downlevel.obj
 0001:000170b0       ??_C@_1M@BMLMEKGI@?$AAa?$AAr?$AA?9?$AAb?$AAh?$AA?$AA@ 00000001800180b0     libucrt:lcidtoname_downlevel.obj
 0001:000170c0       ??_C@_1M@DAPFDGGB@?$AAa?$AAr?$AA?9?$AAd?$AAz?$AA?$AA@ 00000001800180c0     libucrt:lcidtoname_downlevel.obj
 0001:000170d0       ??_C@_1M@FJNKGKIG@?$AAa?$AAr?$AA?9?$AAe?$AAg?$AA?$AA@ 00000001800180d0     libucrt:lcidtoname_downlevel.obj
 0001:000170e0       ??_C@_1M@FLGKKCLO@?$AAa?$AAr?$AA?9?$AAi?$AAq?$AA?$AA@ 00000001800180e0     libucrt:lcidtoname_downlevel.obj
 0001:000170f0       ??_C@_1M@GNDIPALM@?$AAa?$AAr?$AA?9?$AAj?$AAo?$AA?$AA@ 00000001800180f0     libucrt:lcidtoname_downlevel.obj
 0001:00017100       ??_C@_1M@DDMJFMGJ@?$AAa?$AAr?$AA?9?$AAk?$AAw?$AA?$AA@ 0000000180018100     libucrt:lcidtoname_downlevel.obj
 0001:00017110       ??_C@_1M@EJALMLHM@?$AAa?$AAr?$AA?9?$AAl?$AAb?$AA?$AA@ 0000000180018110     libucrt:lcidtoname_downlevel.obj
 0001:00017120       ??_C@_1M@MOBDBLOC@?$AAa?$AAr?$AA?9?$AAl?$AAy?$AA?$AA@ 0000000180018120     libucrt:lcidtoname_downlevel.obj
 0001:00017130       ??_C@_1M@JAOCLHDH@?$AAa?$AAr?$AA?9?$AAm?$AAa?$AA?$AA@ 0000000180018130     libucrt:lcidtoname_downlevel.obj
 0001:00017140       ??_C@_1M@JHPMKJIE@?$AAa?$AAr?$AA?9?$AAo?$AAm?$AA?$AA@ 0000000180018140     libucrt:lcidtoname_downlevel.obj
 0001:00017150       ??_C@_1M@OEPGHFNH@?$AAa?$AAr?$AA?9?$AAq?$AAa?$AA?$AA@ 0000000180018150     libucrt:lcidtoname_downlevel.obj
 0001:00017160       ??_C@_1M@KJDONENM@?$AAa?$AAr?$AA?9?$AAs?$AAa?$AA?$AA@ 0000000180018160     libucrt:lcidtoname_downlevel.obj
 0001:00017170       ??_C@_1M@DMJDKLKM@?$AAa?$AAr?$AA?9?$AAs?$AAy?$AA?$AA@ 0000000180018170     libucrt:lcidtoname_downlevel.obj
 0001:00017180       ??_C@_1M@OMFIPEDC@?$AAa?$AAr?$AA?9?$AAt?$AAn?$AA?$AA@ 0000000180018180     libucrt:lcidtoname_downlevel.obj
 0001:00017190       ??_C@_1M@IHMHGAON@?$AAa?$AAr?$AA?9?$AAy?$AAe?$AA?$AA@ 0000000180018190     libucrt:lcidtoname_downlevel.obj
 0001:000171a0       ??_C@_1BG@KDCPGJGB@?$AAa?$AAz?$AA?9?$AAa?$AAz?$AA?9?$AAc?$AAy?$AAr?$AAl?$AA?$AA@ 00000001800181a0     libucrt:lcidtoname_downlevel.obj
 0001:000171b8       ??_C@_1BG@IBCKDDOE@?$AAa?$AAz?$AA?9?$AAa?$AAz?$AA?9?$AAl?$AAa?$AAt?$AAn?$AA?$AA@ 00000001800181b8     libucrt:lcidtoname_downlevel.obj
 0001:000171d0       ??_C@_1M@EGPFDCPD@?$AAb?$AAe?$AA?9?$AAb?$AAy?$AA?$AA@ 00000001800181d0     libucrt:lcidtoname_downlevel.obj
 0001:000171e0       ??_C@_1M@PCMGMCGC@?$AAb?$AAg?$AA?9?$AAb?$AAg?$AA?$AA@ 00000001800181e0     libucrt:lcidtoname_downlevel.obj
 0001:000171f0       ??_C@_1M@BJBMFGOB@?$AAb?$AAn?$AA?9?$AAi?$AAn?$AA?$AA@ 00000001800181f0     libucrt:lcidtoname_downlevel.obj
 0001:00017200       ??_C@_1BG@EAKMMACD@?$AAb?$AAs?$AA?9?$AAb?$AAa?$AA?9?$AAl?$AAa?$AAt?$AAn?$AA?$AA@ 0000000180018200     libucrt:lcidtoname_downlevel.obj
 0001:00017218       ??_C@_1M@KGADAODK@?$AAc?$AAa?$AA?9?$AAe?$AAs?$AA?$AA@ 0000000180018218     libucrt:lcidtoname_downlevel.obj
 0001:00017228       ??_C@_1M@COAJPDHI@?$AAc?$AAs?$AA?9?$AAc?$AAz?$AA?$AA@ 0000000180018228     libucrt:lcidtoname_downlevel.obj
 0001:00017238       ??_C@_1M@DHBHFONH@?$AAc?$AAy?$AA?9?$AAg?$AAb?$AA?$AA@ 0000000180018238     libucrt:lcidtoname_downlevel.obj
 0001:00017248       ??_C@_1M@IMGKELGA@?$AAd?$AAa?$AA?9?$AAd?$AAk?$AA?$AA@ 0000000180018248     libucrt:lcidtoname_downlevel.obj
 0001:00017258       ??_C@_1M@NNDGDNGA@?$AAd?$AAe?$AA?9?$AAa?$AAt?$AA?$AA@ 0000000180018258     libucrt:lcidtoname_downlevel.obj
 0001:00017268       ??_C@_1M@IKDBHEEM@?$AAd?$AAe?$AA?9?$AAc?$AAh?$AA?$AA@ 0000000180018268     libucrt:lcidtoname_downlevel.obj
 0001:00017278       ??_C@_1M@GFFOJMCJ@?$AAd?$AAe?$AA?9?$AAd?$AAe?$AA?$AA@ 0000000180018278     libucrt:lcidtoname_downlevel.obj
 0001:00017288       ??_C@_1M@MDNLKBPM@?$AAd?$AAe?$AA?9?$AAl?$AAi?$AA?$AA@ 0000000180018288     libucrt:lcidtoname_downlevel.obj
 0001:00017298       ??_C@_1M@NJBEEJNL@?$AAd?$AAe?$AA?9?$AAl?$AAu?$AA?$AA@ 0000000180018298     libucrt:lcidtoname_downlevel.obj
 0001:000172a8       ??_C@_1O@GNNELBAP@?$AAd?$AAi?$AAv?$AA?9?$AAm?$AAv?$AA?$AA@ 00000001800182a8     libucrt:lcidtoname_downlevel.obj
 0001:000172b8       ??_C@_1M@EJLEOGAE@?$AAe?$AAl?$AA?9?$AAg?$AAr?$AA?$AA@ 00000001800182b8     libucrt:lcidtoname_downlevel.obj
 0001:000172c8       ??_C@_1M@GMPONJN@?$AAe?$AAn?$AA?9?$AAa?$AAu?$AA?$AA@ 00000001800182c8     libucrt:lcidtoname_downlevel.obj
 0001:000172d8       ??_C@_1M@NIDIIPGF@?$AAe?$AAn?$AA?9?$AAb?$AAz?$AA?$AA@ 00000001800182d8     libucrt:lcidtoname_downlevel.obj
 0001:000172e8       ??_C@_1M@JEHMIMFO@?$AAe?$AAn?$AA?9?$AAc?$AAa?$AA?$AA@ 00000001800182e8     libucrt:lcidtoname_downlevel.obj
 0001:000172f8       ??_C@_1M@IGMJCDLA@?$AAe?$AAn?$AA?9?$AAc?$AAb?$AA?$AA@ 00000001800182f8     libucrt:lcidtoname_downlevel.obj
 0001:00017308       ??_C@_1M@BNFIGBKG@?$AAe?$AAn?$AA?9?$AAg?$AAb?$AA?$AA@ 0000000180018308     libucrt:lcidtoname_downlevel.obj
 0001:00017318       ??_C@_1M@LKIFDIGP@?$AAe?$AAn?$AA?9?$AAi?$AAe?$AA?$AA@ 0000000180018318     libucrt:lcidtoname_downlevel.obj
 0001:00017328       ??_C@_1M@PJKFGCCO@?$AAe?$AAn?$AA?9?$AAj?$AAm?$AA?$AA@ 0000000180018328     libucrt:lcidtoname_downlevel.obj
 0001:00017338       ??_C@_1M@KPPKEPBO@?$AAe?$AAn?$AA?9?$AAn?$AAz?$AA?$AA@ 0000000180018338     libucrt:lcidtoname_downlevel.obj
 0001:00017348       ??_C@_1M@GMDGLDOB@?$AAe?$AAn?$AA?9?$AAp?$AAh?$AA?$AA@ 0000000180018348     libucrt:lcidtoname_downlevel.obj
 0001:00017358       ??_C@_1M@ONGIBJNA@?$AAe?$AAn?$AA?9?$AAt?$AAt?$AA?$AA@ 0000000180018358     libucrt:lcidtoname_downlevel.obj
 0001:00017368       ??_C@_1M@LLODPCMM@?$AAe?$AAn?$AA?9?$AAu?$AAs?$AA?$AA@ 0000000180018368     libucrt:lcidtoname_downlevel.obj
 0001:00017378       ??_C@_1M@LAKFNPAN@?$AAe?$AAn?$AA?9?$AAz?$AAa?$AA?$AA@ 0000000180018378     libucrt:lcidtoname_downlevel.obj
 0001:00017388       ??_C@_1M@MFNHNHEO@?$AAe?$AAn?$AA?9?$AAz?$AAw?$AA?$AA@ 0000000180018388     libucrt:lcidtoname_downlevel.obj
 0001:00017398       ??_C@_1M@EJEINPHM@?$AAe?$AAs?$AA?9?$AAa?$AAr?$AA?$AA@ 0000000180018398     libucrt:lcidtoname_downlevel.obj
 0001:000173a8       ??_C@_1M@GNKPCCJA@?$AAe?$AAs?$AA?9?$AAb?$AAo?$AA?$AA@ 00000001800183a8     libucrt:lcidtoname_downlevel.obj
 0001:000173b8       ??_C@_1M@LEEGFONL@?$AAe?$AAs?$AA?9?$AAc?$AAl?$AA?$AA@ 00000001800183b8     libucrt:lcidtoname_downlevel.obj
 0001:000173c8       ??_C@_1M@KGPDPBDF@?$AAe?$AAs?$AA?9?$AAc?$AAo?$AA?$AA@ 00000001800183c8     libucrt:lcidtoname_downlevel.obj
 0001:000173d8       ??_C@_1M@EIAHOHH@?$AAe?$AAs?$AA?9?$AAc?$AAr?$AA?$AA@ 00000001800183d8     libucrt:lcidtoname_downlevel.obj
 0001:000173e8       ??_C@_1M@LLPGMBIN@?$AAe?$AAs?$AA?9?$AAd?$AAo?$AA?$AA@ 00000001800183e8     libucrt:lcidtoname_downlevel.obj
 0001:000173f8       ??_C@_1M@DKHMKNJA@?$AAe?$AAs?$AA?9?$AAe?$AAc?$AA?$AA@ 00000001800183f8     libucrt:lcidtoname_downlevel.obj
 0001:00017408       ??_C@_1M@GKGFPKAP@?$AAe?$AAs?$AA?9?$AAe?$AAs?$AA?$AA@ 0000000180018408     libucrt:lcidtoname_downlevel.obj
 0001:00017418       ??_C@_1M@LKHKGDLN@?$AAe?$AAs?$AA?9?$AAg?$AAt?$AA?$AA@ 0000000180018418     libucrt:lcidtoname_downlevel.obj
 0001:00017428       ??_C@_1M@HEIIGGJD@?$AAe?$AAs?$AA?9?$AAh?$AAn?$AA?$AA@ 0000000180018428     libucrt:lcidtoname_downlevel.obj
 0001:00017438       ??_C@_1M@FBDHPPGD@?$AAe?$AAs?$AA?9?$AAm?$AAx?$AA?$AA@ 0000000180018438     libucrt:lcidtoname_downlevel.obj
 0001:00017448       ??_C@_1M@DPAGLNDH@?$AAe?$AAs?$AA?9?$AAn?$AAi?$AA?$AA@ 0000000180018448     libucrt:lcidtoname_downlevel.obj
 0001:00017458       ??_C@_1M@MDGOPGDD@?$AAe?$AAs?$AA?9?$AAp?$AAa?$AA?$AA@ 0000000180018458     libucrt:lcidtoname_downlevel.obj
 0001:00017468       ??_C@_1M@EMAMGBGE@?$AAe?$AAs?$AA?9?$AAp?$AAe?$AA?$AA@ 0000000180018468     libucrt:lcidtoname_downlevel.obj
 0001:00017478       ??_C@_1M@IBMCAOEC@?$AAe?$AAs?$AA?9?$AAp?$AAr?$AA?$AA@ 0000000180018478     libucrt:lcidtoname_downlevel.obj
 0001:00017488       ??_C@_1M@FGMDIJED@?$AAe?$AAs?$AA?9?$AAp?$AAy?$AA?$AA@ 0000000180018488     libucrt:lcidtoname_downlevel.obj
 0001:00017498       ??_C@_1M@IIDEOLLL@?$AAe?$AAs?$AA?9?$AAs?$AAv?$AA?$AA@ 0000000180018498     libucrt:lcidtoname_downlevel.obj
 0001:000174a8       ??_C@_1M@GAOBIPA@?$AAe?$AAs?$AA?9?$AAu?$AAy?$AA?$AA@ 00000001800184a8     libucrt:lcidtoname_downlevel.obj
 0001:000174b8       ??_C@_1M@JKFFICHJ@?$AAe?$AAs?$AA?9?$AAv?$AAe?$AA?$AA@ 00000001800184b8     libucrt:lcidtoname_downlevel.obj
 0001:000174c8       ??_C@_1M@PNMLOJDF@?$AAe?$AAt?$AA?9?$AAe?$AAe?$AA?$AA@ 00000001800184c8     libucrt:lcidtoname_downlevel.obj
 0001:000174d8       ??_C@_1M@GHHLIKEI@?$AAe?$AAu?$AA?9?$AAe?$AAs?$AA?$AA@ 00000001800184d8     libucrt:lcidtoname_downlevel.obj
 0001:000174e8       ??_C@_1M@PBNONODE@?$AAf?$AAa?$AA?9?$AAi?$AAr?$AA?$AA@ 00000001800184e8     libucrt:lcidtoname_downlevel.obj
 0001:000174f8       ??_C@_1M@JEEHPMIL@?$AAf?$AAi?$AA?9?$AAf?$AAi?$AA?$AA@ 00000001800184f8     libucrt:lcidtoname_downlevel.obj
 0001:00017508       ??_C@_1M@LMDCNDBA@?$AAf?$AAo?$AA?9?$AAf?$AAo?$AA?$AA@ 0000000180018508     libucrt:lcidtoname_downlevel.obj
 0001:00017518       ??_C@_1M@JKEOHLDK@?$AAf?$AAr?$AA?9?$AAb?$AAe?$AA?$AA@ 0000000180018518     libucrt:lcidtoname_downlevel.obj
 0001:00017528       ??_C@_1M@NOHADPMI@?$AAf?$AAr?$AA?9?$AAc?$AAa?$AA?$AA@ 0000000180018528     libucrt:lcidtoname_downlevel.obj
 0001:00017538       ??_C@_1M@KDHIHAEC@?$AAf?$AAr?$AA?9?$AAc?$AAh?$AA?$AA@ 0000000180018538     libucrt:lcidtoname_downlevel.obj
 0001:00017548       ??_C@_1M@MMBBFGAK@?$AAf?$AAr?$AA?9?$AAf?$AAr?$AA?$AA@ 0000000180018548     libucrt:lcidtoname_downlevel.obj
 0001:00017558       ??_C@_1M@PAFNENNF@?$AAf?$AAr?$AA?9?$AAl?$AAu?$AA?$AA@ 0000000180018558     libucrt:lcidtoname_downlevel.obj
 0001:00017568       ??_C@_1M@EOHDJGDD@?$AAf?$AAr?$AA?9?$AAm?$AAc?$AA?$AA@ 0000000180018568     libucrt:lcidtoname_downlevel.obj
 0001:00017578       ??_C@_1M@FAPLLOPF@?$AAg?$AAl?$AA?9?$AAe?$AAs?$AA?$AA@ 0000000180018578     libucrt:lcidtoname_downlevel.obj
 0001:00017588       ??_C@_1M@FOPBFLOO@?$AAg?$AAu?$AA?9?$AAi?$AAn?$AA?$AA@ 0000000180018588     libucrt:lcidtoname_downlevel.obj
 0001:00017598       ??_C@_1M@KBMCINPM@?$AAh?$AAe?$AA?9?$AAi?$AAl?$AA?$AA@ 0000000180018598     libucrt:lcidtoname_downlevel.obj
 0001:000175a8       ??_C@_1M@BBPHKFPJ@?$AAh?$AAi?$AA?9?$AAi?$AAn?$AA?$AA@ 00000001800185a8     libucrt:lcidtoname_downlevel.obj
 0001:000175b8       ??_C@_1M@PMBNDPHD@?$AAh?$AAr?$AA?9?$AAb?$AAa?$AA?$AA@ 00000001800185b8     libucrt:lcidtoname_downlevel.obj
 0001:000175c8       ??_C@_1M@BPCKOEGE@?$AAh?$AAr?$AA?9?$AAh?$AAr?$AA?$AA@ 00000001800185c8     libucrt:lcidtoname_downlevel.obj
 0001:000175d8       ??_C@_1M@GACBMHKE@?$AAh?$AAu?$AA?9?$AAh?$AAu?$AA?$AA@ 00000001800185d8     libucrt:lcidtoname_downlevel.obj
 0001:000175e8       ??_C@_1M@MILPAJJC@?$AAh?$AAy?$AA?9?$AAa?$AAm?$AA?$AA@ 00000001800185e8     libucrt:lcidtoname_downlevel.obj
 0001:000175f8       ??_C@_1M@BABBICEC@?$AAi?$AAd?$AA?9?$AAi?$AAd?$AA?$AA@ 00000001800185f8     libucrt:lcidtoname_downlevel.obj
 0001:00017608       ??_C@_1M@BIKNHHPF@?$AAi?$AAs?$AA?9?$AAi?$AAs?$AA?$AA@ 0000000180018608     libucrt:lcidtoname_downlevel.obj
 0001:00017618       ??_C@_1M@NMPCJPHE@?$AAi?$AAt?$AA?9?$AAc?$AAh?$AA?$AA@ 0000000180018618     libucrt:lcidtoname_downlevel.obj
 0001:00017628       ??_C@_1M@GHKGFEDF@?$AAi?$AAt?$AA?9?$AAi?$AAt?$AA?$AA@ 0000000180018628     libucrt:lcidtoname_downlevel.obj
 0001:00017638       ??_C@_1M@NIEJCJJA@?$AAj?$AAa?$AA?9?$AAj?$AAp?$AA?$AA@ 0000000180018638     libucrt:lcidtoname_downlevel.obj
 0001:00017648       ??_C@_1M@JILFNBIM@?$AAk?$AAa?$AA?9?$AAg?$AAe?$AA?$AA@ 0000000180018648     libucrt:lcidtoname_downlevel.obj
 0001:00017658       ??_C@_1M@PACPMGPH@?$AAk?$AAk?$AA?9?$AAk?$AAz?$AA?$AA@ 0000000180018658     libucrt:lcidtoname_downlevel.obj
 0001:00017668       ??_C@_1M@IELFGMHA@?$AAk?$AAn?$AA?9?$AAi?$AAn?$AA?$AA@ 0000000180018668     libucrt:lcidtoname_downlevel.obj
 0001:00017678       ??_C@_1O@IBBJHCH@?$AAk?$AAo?$AAk?$AA?9?$AAi?$AAn?$AA?$AA@ 0000000180018678     libucrt:lcidtoname_downlevel.obj
 0001:00017688       ??_C@_1M@DMHAEOGC@?$AAk?$AAo?$AA?9?$AAk?$AAr?$AA?$AA@ 0000000180018688     libucrt:lcidtoname_downlevel.obj
 0001:00017698       ??_C@_1M@HBAHBIGA@?$AAk?$AAy?$AA?9?$AAk?$AAg?$AA?$AA@ 0000000180018698     libucrt:lcidtoname_downlevel.obj
 0001:000176a8       ??_C@_1M@KPMILCJG@?$AAl?$AAt?$AA?9?$AAl?$AAt?$AA?$AA@ 00000001800186a8     libucrt:lcidtoname_downlevel.obj
 0001:000176b8       ??_C@_1M@BDEKKCA@?$AAl?$AAv?$AA?9?$AAl?$AAv?$AA?$AA@ 00000001800186b8     libucrt:lcidtoname_downlevel.obj
 0001:000176c8       ??_C@_1M@ELCKCCJJ@?$AAm?$AAi?$AA?9?$AAn?$AAz?$AA?$AA@ 00000001800186c8     libucrt:lcidtoname_downlevel.obj
 0001:000176d8       ??_C@_1M@CBOOLAPA@?$AAm?$AAk?$AA?9?$AAm?$AAk?$AA?$AA@ 00000001800186d8     libucrt:lcidtoname_downlevel.obj
 0001:000176e8       ??_C@_1M@GPHNBJKN@?$AAm?$AAl?$AA?9?$AAi?$AAn?$AA?$AA@ 00000001800186e8     libucrt:lcidtoname_downlevel.obj
 0001:000176f8       ??_C@_1M@PABJILIG@?$AAm?$AAn?$AA?9?$AAm?$AAn?$AA?$AA@ 00000001800186f8     libucrt:lcidtoname_downlevel.obj
 0001:00017708       ??_C@_1M@FGBKKIPG@?$AAm?$AAr?$AA?9?$AAi?$AAn?$AA?$AA@ 0000000180018708     libucrt:lcidtoname_downlevel.obj
 0001:00017718       ??_C@_1M@NDBPDDAL@?$AAm?$AAs?$AA?9?$AAb?$AAn?$AA?$AA@ 0000000180018718     libucrt:lcidtoname_downlevel.obj
 0001:00017728       ??_C@_1M@OPIHOOPI@?$AAm?$AAs?$AA?9?$AAm?$AAy?$AA?$AA@ 0000000180018728     libucrt:lcidtoname_downlevel.obj
 0001:00017738       ??_C@_1M@PPDBCNFM@?$AAm?$AAt?$AA?9?$AAm?$AAt?$AA?$AA@ 0000000180018738     libucrt:lcidtoname_downlevel.obj
 0001:00017748       ??_C@_1M@KDJDKMDD@?$AAn?$AAb?$AA?9?$AAn?$AAo?$AA?$AA@ 0000000180018748     libucrt:lcidtoname_downlevel.obj
 0001:00017758       ??_C@_1M@KFCFLMJP@?$AAn?$AAl?$AA?9?$AAb?$AAe?$AA?$AA@ 0000000180018758     libucrt:lcidtoname_downlevel.obj
 0001:00017768       ??_C@_1M@KPOPDDGO@?$AAn?$AAl?$AA?9?$AAn?$AAl?$AA?$AA@ 0000000180018768     libucrt:lcidtoname_downlevel.obj
 0001:00017778       ??_C@_1M@LJKPEMLN@?$AAn?$AAn?$AA?9?$AAn?$AAo?$AA?$AA@ 0000000180018778     libucrt:lcidtoname_downlevel.obj
 0001:00017788       ??_C@_1M@BDGHHBFL@?$AAn?$AAs?$AA?9?$AAz?$AAa?$AA?$AA@ 0000000180018788     libucrt:lcidtoname_downlevel.obj
 0001:00017798       ??_C@_1M@IDEHOAP@?$AAp?$AAa?$AA?9?$AAi?$AAn?$AA?$AA@ 0000000180018798     libucrt:lcidtoname_downlevel.obj
 0001:000177a8       ??_C@_1M@HDBKGOGH@?$AAp?$AAl?$AA?9?$AAp?$AAl?$AA?$AA@ 00000001800187a8     libucrt:lcidtoname_downlevel.obj
 0001:000177b8       ??_C@_1M@LJLLCMEH@?$AAp?$AAt?$AA?9?$AAb?$AAr?$AA?$AA@ 00000001800187b8     libucrt:lcidtoname_downlevel.obj
 0001:000177c8       ??_C@_1M@NCMONAAL@?$AAp?$AAt?$AA?9?$AAp?$AAt?$AA?$AA@ 00000001800187c8     libucrt:lcidtoname_downlevel.obj
 0001:000177d8       ??_C@_1O@EAKMAJDN@?$AAq?$AAu?$AAz?$AA?9?$AAb?$AAo?$AA?$AA@ 00000001800187d8     libucrt:lcidtoname_downlevel.obj
 0001:000177e8       ??_C@_1O@BHHPIGDN@?$AAq?$AAu?$AAz?$AA?9?$AAe?$AAc?$AA?$AA@ 00000001800187e8     libucrt:lcidtoname_downlevel.obj
 0001:000177f8       ??_C@_1O@GBAPEKMJ@?$AAq?$AAu?$AAz?$AA?9?$AAp?$AAe?$AA?$AA@ 00000001800187f8     libucrt:lcidtoname_downlevel.obj
 0001:00017808       ??_C@_1M@CLGLEFBO@?$AAr?$AAo?$AA?9?$AAr?$AAo?$AA?$AA@ 0000000180018808     libucrt:lcidtoname_downlevel.obj
 0001:00017818       ??_C@_1M@CEEDODME@?$AAr?$AAu?$AA?9?$AAr?$AAu?$AA?$AA@ 0000000180018818     libucrt:lcidtoname_downlevel.obj
 0001:00017828       ??_C@_1M@HPKKKMPP@?$AAs?$AAa?$AA?9?$AAi?$AAn?$AA?$AA@ 0000000180018828     libucrt:lcidtoname_downlevel.obj
 0001:00017838       ??_C@_1M@BKMAIGOJ@?$AAs?$AAe?$AA?9?$AAf?$AAi?$AA?$AA@ 0000000180018838     libucrt:lcidtoname_downlevel.obj
 0001:00017848       ??_C@_1M@NDPIFLFI@?$AAs?$AAe?$AA?9?$AAn?$AAo?$AA?$AA@ 0000000180018848     libucrt:lcidtoname_downlevel.obj
 0001:00017858       ??_C@_1M@DANKKHJ@?$AAs?$AAe?$AA?9?$AAs?$AAe?$AA?$AA@ 0000000180018858     libucrt:lcidtoname_downlevel.obj
 0001:00017868       ??_C@_1M@PNBLONPJ@?$AAs?$AAk?$AA?9?$AAs?$AAk?$AA?$AA@ 0000000180018868     libucrt:lcidtoname_downlevel.obj
 0001:00017878       ??_C@_1M@LFMODOAL@?$AAs?$AAl?$AA?9?$AAs?$AAi?$AA?$AA@ 0000000180018878     libucrt:lcidtoname_downlevel.obj
 0001:00017888       ??_C@_1O@DFKOMPG@?$AAs?$AAm?$AAa?$AA?9?$AAn?$AAo?$AA?$AA@ 0000000180018888     libucrt:lcidtoname_downlevel.obj
 0001:00017898       ??_C@_1O@NDKPBNNH@?$AAs?$AAm?$AAa?$AA?9?$AAs?$AAe?$AA?$AA@ 0000000180018898     libucrt:lcidtoname_downlevel.obj
 0001:000178a8       ??_C@_1O@PLLKBHAB@?$AAs?$AAm?$AAj?$AA?9?$AAn?$AAo?$AA?$AA@ 00000001800188a8     libucrt:lcidtoname_downlevel.obj
 0001:000178b8       ??_C@_1O@CLEPOGCA@?$AAs?$AAm?$AAj?$AA?9?$AAs?$AAe?$AA?$AA@ 00000001800188b8     libucrt:lcidtoname_downlevel.obj
 0001:000178c8       ??_C@_1O@DLGJGKMK@?$AAs?$AAm?$AAn?$AA?9?$AAf?$AAi?$AA?$AA@ 00000001800188c8     libucrt:lcidtoname_downlevel.obj
 0001:000178d8       ??_C@_1O@OJDJGAJC@?$AAs?$AAm?$AAs?$AA?9?$AAf?$AAi?$AA?$AA@ 00000001800188d8     libucrt:lcidtoname_downlevel.obj
 0001:000178e8       ??_C@_1M@BOFOGHPB@?$AAs?$AAq?$AA?9?$AAa?$AAl?$AA?$AA@ 00000001800188e8     libucrt:lcidtoname_downlevel.obj
 0001:000178f8       ??_C@_1BG@LJBBIPGB@?$AAs?$AAr?$AA?9?$AAb?$AAa?$AA?9?$AAc?$AAy?$AAr?$AAl?$AA?$AA@ 00000001800188f8     libucrt:lcidtoname_downlevel.obj
 0001:00017910       ??_C@_1BG@JLBENFOE@?$AAs?$AAr?$AA?9?$AAb?$AAa?$AA?9?$AAl?$AAa?$AAt?$AAn?$AA?$AA@ 0000000180018910     libucrt:lcidtoname_downlevel.obj
 0001:00017928       ??_C@_1BG@KODPNHE@?$AAs?$AAr?$AA?9?$AAs?$AAp?$AA?9?$AAc?$AAy?$AAr?$AAl?$AA?$AA@ 0000000180018928     libucrt:lcidtoname_downlevel.obj
 0001:00017940       ??_C@_1BG@CIOGKHPB@?$AAs?$AAr?$AA?9?$AAs?$AAp?$AA?9?$AAl?$AAa?$AAt?$AAn?$AA?$AA@ 0000000180018940     libucrt:lcidtoname_downlevel.obj
 0001:00017958       ??_C@_1M@NGFJLMAC@?$AAs?$AAv?$AA?9?$AAf?$AAi?$AA?$AA@ 0000000180018958     libucrt:lcidtoname_downlevel.obj
 0001:00017968       ??_C@_1M@MPJEJAJC@?$AAs?$AAv?$AA?9?$AAs?$AAe?$AA?$AA@ 0000000180018968     libucrt:lcidtoname_downlevel.obj
 0001:00017978       ??_C@_1M@MPNDHLFK@?$AAs?$AAw?$AA?9?$AAk?$AAe?$AA?$AA@ 0000000180018978     libucrt:lcidtoname_downlevel.obj
 0001:00017988       ??_C@_1O@KOHBJJI@?$AAs?$AAy?$AAr?$AA?9?$AAs?$AAy?$AA?$AA@ 0000000180018988     libucrt:lcidtoname_downlevel.obj
 0001:00017998       ??_C@_1M@LDCEFHA@?$AAt?$AAa?$AA?9?$AAi?$AAn?$AA?$AA@ 0000000180018998     libucrt:lcidtoname_downlevel.obj
 0001:000179a8       ??_C@_1M@CNJOFAK@?$AAt?$AAe?$AA?9?$AAi?$AAn?$AA?$AA@ 00000001800189a8     libucrt:lcidtoname_downlevel.obj
 0001:000179b8       ??_C@_1M@GNAECACD@?$AAt?$AAh?$AA?9?$AAt?$AAh?$AA?$AA@ 00000001800189b8     libucrt:lcidtoname_downlevel.obj
 0001:000179c8       ??_C@_1M@CHBIHOJO@?$AAt?$AAn?$AA?9?$AAz?$AAa?$AA?$AA@ 00000001800189c8     libucrt:lcidtoname_downlevel.obj
 0001:000179d8       ??_C@_1M@GCCMIGPJ@?$AAt?$AAr?$AA?9?$AAt?$AAr?$AA?$AA@ 00000001800189d8     libucrt:lcidtoname_downlevel.obj
 0001:000179e8       ??_C@_1M@CELMCNBK@?$AAt?$AAt?$AA?9?$AAr?$AAu?$AA?$AA@ 00000001800189e8     libucrt:lcidtoname_downlevel.obj
 0001:000179f8       ??_C@_1M@KLMCELGA@?$AAu?$AAk?$AA?9?$AAu?$AAa?$AA?$AA@ 00000001800189f8     libucrt:lcidtoname_downlevel.obj
 0001:00017a08       ??_C@_1M@EPAJJAJF@?$AAu?$AAr?$AA?9?$AAp?$AAk?$AA?$AA@ 0000000180018a08     libucrt:lcidtoname_downlevel.obj
 0001:00017a18       ??_C@_1BG@GEGPMCDJ@?$AAu?$AAz?$AA?9?$AAu?$AAz?$AA?9?$AAc?$AAy?$AAr?$AAl?$AA?$AA@ 0000000180018a18     libucrt:lcidtoname_downlevel.obj
 0001:00017a30       ??_C@_1BG@EGGKJILM@?$AAu?$AAz?$AA?9?$AAu?$AAz?$AA?9?$AAl?$AAa?$AAt?$AAn?$AA?$AA@ 0000000180018a30     libucrt:lcidtoname_downlevel.obj
 0001:00017a48       ??_C@_1M@GFOCLFF@?$AAv?$AAi?$AA?9?$AAv?$AAn?$AA?$AA@ 0000000180018a48     libucrt:lcidtoname_downlevel.obj
 0001:00017a58       ??_C@_1M@CPAMEDFI@?$AAx?$AAh?$AA?9?$AAz?$AAa?$AA?$AA@ 0000000180018a58     libucrt:lcidtoname_downlevel.obj
 0001:00017a68       ??_C@_1O@EBKIFIGN@?$AAz?$AAh?$AA?9?$AAc?$AAh?$AAs?$AA?$AA@ 0000000180018a68     libucrt:lcidtoname_downlevel.obj
 0001:00017a78       ??_C@_1O@NMHPGANE@?$AAz?$AAh?$AA?9?$AAc?$AAh?$AAt?$AA?$AA@ 0000000180018a78     libucrt:lcidtoname_downlevel.obj
 0001:00017a88       ??_C@_1M@LPINJOMC@?$AAz?$AAh?$AA?9?$AAc?$AAn?$AA?$AA@ 0000000180018a88     libucrt:lcidtoname_downlevel.obj
 0001:00017a98       ??_C@_1M@OCJEJODD@?$AAz?$AAh?$AA?9?$AAh?$AAk?$AA?$AA@ 0000000180018a98     libucrt:lcidtoname_downlevel.obj
 0001:00017aa8       ??_C@_1M@DNDLJINH@?$AAz?$AAh?$AA?9?$AAm?$AAo?$AA?$AA@ 0000000180018aa8     libucrt:lcidtoname_downlevel.obj
 0001:00017ab8       ??_C@_1M@MBFDNDND@?$AAz?$AAh?$AA?9?$AAs?$AAg?$AA?$AA@ 0000000180018ab8     libucrt:lcidtoname_downlevel.obj
 0001:00017ac8       ??_C@_1M@IMEPLEPE@?$AAz?$AAh?$AA?9?$AAt?$AAw?$AA?$AA@ 0000000180018ac8     libucrt:lcidtoname_downlevel.obj
 0001:00017ad8       ??_C@_1M@BBGHNHJP@?$AAz?$AAu?$AA?9?$AAz?$AAa?$AA?$AA@ 0000000180018ad8     libucrt:lcidtoname_downlevel.obj
 0001:00017d40       ??_C@_1BA@BALFACEM@?$AAC?$AAO?$AAN?$AAO?$AAU?$AAT?$AA$?$AA?$AA@ 0000000180018d40     libucrt:initcon.obj
 0001:00017d50       __log10_256_lead           0000000180018d50     libucrt:log10_256_lead_tail_table.obj
 0001:00018560       __log10_256_tail           0000000180019560     libucrt:log10_256_lead_tail_table.obj
 0001:00018d70       __log_F_inv_qword          0000000180019d70     libucrt:log_f_inv_qword_table.obj
 0001:00019580       ??_C@_05HGHHAHAP@log10?$AA@ 000000018001a580     libucrt:log_special.obj
 0001:000195c0       _load_config_used          000000018001a5c0     LIBCMT:loadcfg.obj
 0001:00019940       __rtc_iaa                  000000018001a940     LIBCMT:initsect.obj
 0001:00019948       __rtc_izz                  000000018001a948     LIBCMT:initsect.obj
 0001:00019950       __rtc_taa                  000000018001a950     LIBCMT:initsect.obj
 0001:00019958       __rtc_tzz                  000000018001a958     LIBCMT:initsect.obj
 0001:00019970       __chkstk                   000000018001a970 f   chkstk.obj
 0001:00019970       _alloca_probe              000000018001a970 f   chkstk.obj
 0001:0001a4c0       __local_stdio_printf_options 000000018001b4c0 f i bit64.obj
 0001:0001a4d0       bit64_getvalue             000000018001b4d0 f   bit64.obj
 0001:0001a580       bit64_push                 000000018001b580 f   bit64.obj
 0001:0001a610       bit64_pushuserdata         000000018001b610 f   bit64.obj
 0001:0001a7a0       luaopen_bit64              000000018001b7a0 f   bit64.obj
 0001:0001a7f0       sprintf                    000000018001b7f0 f i bit64.obj
 0001:0001a850       AddBufToCollector          000000018001b850 f   exported.obj
 0001:0001a8d0       CreateStringsArray         000000018001b8d0 f   exported.obj
 0001:0001a9e0       FarPanelItemFreeCallback   000000018001b9e0 f   exported.obj
 0001:0001acc0       FillFindData               000000018001bcc0 f   exported.obj
 0001:0001afd0       FillPluginPanelItem        000000018001bfd0 f   exported.obj
 0001:0001b2c0       GetExportFunction          000000018001c2c0 f   exported.obj
 0001:0001b370       LF_Analyse                 000000018001c370 f   exported.obj
 0001:0001b430       LF_CloseAnalyse            000000018001c430 f   exported.obj
 0001:0001b440       LF_ClosePanel              000000018001c440 f   exported.obj
 0001:0001b520       LF_Compare                 000000018001c520 f   exported.obj
 0001:0001b620       LF_Configure               000000018001c620 f   exported.obj
 0001:0001b6b0       LF_DeleteFiles             000000018001c6b0 f   exported.obj
 0001:0001b7a0       LF_ExitFAR                 000000018001c7a0 f   exported.obj
 0001:0001b800       LF_FreeContentData         000000018001c800 f   exported.obj
 0001:0001b850       LF_FreeFindData            000000018001c850 f   exported.obj
 0001:0001b8c0       LF_GetContentData          000000018001c8c0 f   exported.obj
 0001:0001ba20       LF_GetContentFields        000000018001ca20 f   exported.obj
 0001:0001baf0       LF_GetFiles                000000018001caf0 f   exported.obj
 0001:0001bc90       LF_GetFindData             000000018001cc90 f   exported.obj
 0001:0001bda0       LF_GetGlobalInfo           000000018001cda0 f   exported.obj
 0001:0001c200       LF_GetOpenPanelInfo        000000018001d200 f   exported.obj
 0001:0001cbe0       LF_GetPluginInfo           000000018001dbe0 f   exported.obj
 0001:0001cd30       LF_MakeDirectory           000000018001dd30 f   exported.obj
 0001:0001ce80       LF_Open                    000000018001de80 f   exported.obj
 0001:0001d290       LF_ProcessConsoleInput     000000018001e290 f   exported.obj
 0001:0001d380       LF_ProcessDialogEvent      000000018001e380 f   exported.obj
 0001:0001d5a0       LF_ProcessEditorEvent      000000018001e5a0 f   exported.obj
 0001:0001d710       LF_ProcessEditorInput      000000018001e710 f   exported.obj
 0001:0001d790       LF_ProcessHostFile         000000018001e790 f   exported.obj
 0001:0001d8b0       LF_ProcessPanelEvent       000000018001e8b0 f   exported.obj
 0001:0001d990       LF_ProcessPanelInput       000000018001e990 f   exported.obj
 0001:0001da60       LF_ProcessSynchroEvent     000000018001ea60 f   exported.obj
 0001:0001dc50       LF_ProcessViewerEvent      000000018001ec50 f   exported.obj
 0001:0001dd00       LF_PutFiles                000000018001ed00 f   exported.obj
 0001:0001de40       LF_RunDefaultScript        000000018001ee40 f   exported.obj
 0001:0001de50       LF_SetDirectory            000000018001ee50 f   exported.obj
 0001:0001df60       LF_SetFindList             000000018001ef60 f   exported.obj
 0001:0001e040       PackMacroValues            000000018001f040 f   exported.obj
 0001:0001e240       PushFarMacroValue          000000018001f240 f   exported.obj
 0001:0001e370       PushPluginObject           000000018001f370 f   exported.obj
 0001:0001e3b0       PushPluginPair             000000018001f3b0 f   exported.obj
 0001:0001e480       ReplacePluginInfoCollector 000000018001f480 f   exported.obj
 0001:0001e4c0       RunDefaultScript           000000018001f4c0 f   exported.obj
 0001:0001e700       UpdateFileSelection        000000018001f700 f   exported.obj
 0001:0001e7e0       _AddStringToCollector      000000018001f7e0 f   exported.obj
 0001:0001e860       getPluginMenuItems         000000018001f860 f   exported.obj
 0001:0001e930       pcall_msg                  000000018001f930 f   exported.obj
 0001:0001ea30       traceback                  000000018001fa30 f   exported.obj
 0001:0001eaf0       push_flags_table           000000018001faf0 f   flags.obj
 0001:0001eb70       SetFarColors               000000018001fb70 f   keysandcolors.obj
 0001:0001ebe0       LF_Gsub                    000000018001fbe0 f   lflua.obj
 0001:0001ed20       LF_LoadFile                000000018001fd20 f   lflua.obj
 0001:0001f080       luaB_dofileW               0000000180020080 f   lflua.obj
 0001:0001f0f0       luaB_loadfileW             00000001800200f0 f   lflua.obj
 0001:0001f140       method_gc                  0000000180020140 f   lregex.obj
 0001:0001f1c0       method_tostring            00000001800201c0 f   lregex.obj
 0001:0001f230       func_Gmatch                0000000180020230 f   lregex.obj
 0001:0001f240       func_GmatchW               0000000180020240 f   lregex.obj
 0001:0001f250       method_bracketscount       0000000180020250 f   lregex.obj
 0001:0001f2d0       func_New                   00000001800202d0 f   lregex.obj
 0001:0001f320       method_find                0000000180020320 f   lregex.obj
 0001:0001f330       func_find                  0000000180020330 f   lregex.obj
 0001:0001f340       method_findW               0000000180020340 f   lregex.obj
 0001:0001f350       func_findW                 0000000180020350 f   lregex.obj
 0001:0001f360       method_match               0000000180020360 f   lregex.obj
 0001:0001f370       func_match                 0000000180020370 f   lregex.obj
 0001:0001f380       method_matchW              0000000180020380 f   lregex.obj
 0001:0001f3a0       func_matchW                00000001800203a0 f   lregex.obj
 0001:0001f3b0       method_exec                00000001800203b0 f   lregex.obj
 0001:0001f3c0       func_exec                  00000001800203c0 f   lregex.obj
 0001:0001f3d0       method_execW               00000001800203d0 f   lregex.obj
 0001:0001f3f0       func_execW                 00000001800203f0 f   lregex.obj
 0001:0001f410       method_gsub                0000000180020410 f   lregex.obj
 0001:0001f420       func_gsub                  0000000180020420 f   lregex.obj
 0001:0001f430       method_gsubW               0000000180020430 f   lregex.obj
 0001:0001f440       func_gsubW                 0000000180020440 f   lregex.obj
 0001:0001f450       _Gmatch                    0000000180020450 f   lregex.obj
 0001:0001f570       _regex_gmatch_closure      0000000180020570 f   lregex.obj
 0001:0001f6b0       check_regex_pattern        00000001800206b0 f   lregex.obj
 0001:0001f790       luaopen_regex              0000000180020790 f   lregex.obj
 0001:0001f820       push_far_regex             0000000180020820 f   lregex.obj
 0001:0001f8d0       regex_gmatch_closure       00000001800208d0 f   lregex.obj
 0001:0001f8e0       regex_gmatch_closureW      00000001800208e0 f   lregex.obj
 0001:0001f8f0       rx_find_match              00000001800208f0 f   lregex.obj
 0001:0001fc60       rx_gsub                    0000000180020c60 f   lregex.obj
 0001:00020560       Open_Luamacro              0000000180021560 f   luamacro.obj
 0001:00020960       far_FarMacroCallToLua      0000000180021960 f   luamacro.obj
 0001:00020a00       far_MacroCallFar           0000000180021a00 f   luamacro.obj
 0001:00020c50       uc_len                     0000000180021c50 f   lusercontrol.obj
 0001:00020f70       CheckFarUserControl        0000000180021f70 f   lusercontrol.obj
 0001:00020f80       luaopen_usercontrol        0000000180021f80 f   lusercontrol.obj
 0001:00020fd0       CreateRegKey               0000000180021fd0 f   reg.obj
 0001:00021030       OpenRegKey                 0000000180022030 f   reg.obj
 0001:00021070       SetRegKeyArr               0000000180022070 f   reg.obj
 0001:00021130       SetRegKeyDword             0000000180022130 f   reg.obj
 0001:000211f0       SetRegKeyStr               00000001800221f0 f   reg.obj
 0001:0002c570       ConvertLuaValue            000000018002d570 f   service.obj
 0001:0002c6b0       CreateList                 000000018002d6b0 f   service.obj
 0001:0002c8b0       DeleteLuaStateTimerQueue   000000018002d8b0 f   service.obj
 0001:0002c8e0       DialogHandleEqual          000000018002d8e0 f   service.obj
 0001:0002c940       DllMain                    000000018002d940 f   service.obj
 0001:0002cb90       FillInputRecord            000000018002db90 f   service.obj
 0001:0002d0f0       GetFarColor                000000018002e0f0 f   service.obj
 0001:0002d260       GetFlagCombination         000000018002e260 f   service.obj
 0001:0002d480       GetFlagsFromTable          000000018002e480 f   service.obj
 0001:0002d4c0       GetLuaStateTimerQueue      000000018002e4c0 f   service.obj
 0001:0002d510       GetPluginData              000000018002e510 f   service.obj
 0001:0002d530       IsLuaJIT                   000000018002e530 f   service.obj
 0001:0002d540       LF_DlgProc                 000000018002e540 f   service.obj
 0001:0002d730       LF_DoFile                  000000018002e730 f   service.obj
 0001:0002d800       LF_Error                   000000018002e800 f   service.obj
 0001:0002d900       LF_GetLuafarAPI            000000018002e900 f   service.obj
 0001:0002d940       LF_InitLuaState1           000000018002e940 f   service.obj
 0001:0002db50       LF_InitLuaState2           000000018002eb50 f   service.obj
 0001:0002dc20       LF_MacroCallback           000000018002ec20 f   service.obj
 0001:0002dc30       LF_Message                 000000018002ec30 f   service.obj
 0001:0002e120       _guard_check_icall_nop     000000018002f120 f   LIBCMT:guard_support.obj
 0001:0002e120       LF_ProcessEnvVars          000000018002f120 f   service.obj
 0001:0002e130       LF_RunLuafarInit           000000018002f130 f   service.obj
 0001:0002e210       MacroAddCallback           000000018002f210 f   service.obj
 0001:0002e470       NewDialogData              000000018002f470 f   service.obj
 0001:0002e530       NewVirtualKeyTable         000000018002f530 f   service.obj
 0001:0002e5f0       OptFlags                   000000018002f5f0 f   service.obj
 0001:0002e660       OptHandle                  000000018002f660 f   service.obj
 0001:0002e7d0       ProcessDNResult            000000018002f7d0 f   service.obj
 0001:0002ec40       PushDMParams               000000018002fc40 f   service.obj
 0001:0002ed40       PushDNParams               000000018002fd40 f   service.obj
 0001:0002f350       PushFarColor               0000000180030350 f   service.obj
 0001:0002f3d0       PushInputRecord            00000001800303d0 f   service.obj
 0001:0002f5b0       PushPanelItem              00000001800305b0 f   service.obj
 0001:0002f820       PushPanelItems             0000000180030820 f   service.obj
 0001:0002fb50       PutFlagsToTable            0000000180030b50 f   service.obj
 0001:00030460       TimerCallback              0000000180031460 f   service.obj
 0001:00030b10       dir_exist                  0000000180031b10 f   service.obj
 0001:00030b40       fprintf                    0000000180031b40 f i service.obj
 0001:00031340       luaopen_luafar3            0000000180032340 f   service.obj
 0001:00031510       pushFileTime               0000000180032510 f   service.obj
 0001:00032cd0       _snwprintf                 0000000180033cd0 f i slnunico.obj
 0001:000331f0       luaopen_unicode            00000001800341f0 f   slnunico.obj
 0001:000356a0       __local_stdio_scanf_options 00000001800366a0 f i uliolib51.obj
 0001:00035770       fscanf                     0000000180036770 f i uliolib51.obj
 0001:00035e40       luaopen_uio                0000000180036e40 f   uliolib51.obj
 0001:00037050       luaopen_upackage           0000000180038050 f   uloadlib51.obj
 0001:00037410       ustring_WideCharToMultiByte 0000000180038410 f   ustring.obj
 0001:000375a0       ustring_MultiByteToWideChar 00000001800385a0 f   ustring.obj
 0001:00037730       ustring_OemToUtf8          0000000180038730 f   ustring.obj
 0001:00037830       ustring_Utf8ToOem          0000000180038830 f   ustring.obj
 0001:00037920       ustring_Utf16ToUtf8        0000000180038920 f   ustring.obj
 0001:00037970       ustring_Utf8ToUtf16        0000000180038970 f   ustring.obj
 0001:00037a50       ustring_GetACP             0000000180038a50 f   ustring.obj
 0001:00037a80       ustring_GetOEMCP           0000000180038a80 f   ustring.obj
 0001:00037ab0       ustring_GetConsoleCP       0000000180038ab0 f   ustring.obj
 0001:00037ae0       ustring_SetConsoleCP       0000000180038ae0 f   ustring.obj
 0001:00037b50       ustring_GetConsoleOutputCP 0000000180038b50 f   ustring.obj
 0001:00037b80       ustring_SetConsoleOutputCP 0000000180038b80 f   ustring.obj
 0001:00037bf0       ustring_EnumSystemCodePages 0000000180038bf0 f   ustring.obj
 0001:00037c80       ustring_GetCPInfo          0000000180038c80 f   ustring.obj
 0001:00037f20       ustring_GetLogicalDriveStrings 0000000180038f20 f   ustring.obj
 0001:00038040       ustring_GetDriveType       0000000180039040 f   ustring.obj
 0001:00038150       ustring_Uuid               0000000180039150 f   ustring.obj
 0001:00038220       ustring_SearchPath         0000000180039220 f   ustring.obj
 0001:00038430       ustring_GlobalMemoryStatus 0000000180039430 f   ustring.obj
 0001:00038640       ustring_Sleep              0000000180039640 f   ustring.obj
 0001:00038660       ustring_SetFileAttr        0000000180039660 f   ustring.obj
 0001:00038890       ustring_GetFileAttr        0000000180039890 f   ustring.obj
 0001:000389b0       ustring_SHGetFolderPath    00000001800399b0 f   ustring.obj
 0001:00038af0       ustring_sub                0000000180039af0 f   ustring.obj
 0001:00038bb0       ustring_len                0000000180039bb0 f   ustring.obj
 0001:00038e60       ustring_GetCurrentDir      0000000180039e60 f   ustring.obj
 0001:00038ff0       ustring_SetCurrentDir      0000000180039ff0 f   ustring.obj
 0001:00039110       ustring_GetKeyState        000000018003a110 f   ustring.obj
 0001:00039160       DecodeAttributes           000000018003a160 f   ustring.obj
 0001:00039260       EnumCodePagesProc          000000018003a260 f   ustring.obj
 0001:000392d0       GetBoolFromTable           000000018003a2d0 f   ustring.obj
 0001:00039320       GetOptBoolFromTable        000000018003a320 f   ustring.obj
 0001:00039380       GetOptIntFromArray         000000018003a380 f   ustring.obj
 0001:000393e0       GetOptIntFromTable         000000018003a3e0 f   ustring.obj
 0001:00039440       GetOptNumFromTable         000000018003a440 f   ustring.obj
 0001:000394a0       PushAttrString             000000018003a4a0 f   ustring.obj
 0001:00039590       PutAttrToTable             000000018003a590 f   ustring.obj
 0001:000395c0       PutBoolToTable             000000018003a5c0 f   ustring.obj
 0001:00039600       PutIntToArray              000000018003a600 f   ustring.obj
 0001:00039640       PutIntToTable              000000018003a640 f   ustring.obj
 0001:00039680       PutLStrToTable             000000018003a680 f   ustring.obj
 0001:000396c0       PutNumToTable              000000018003a6c0 f   ustring.obj
 0001:00039700       PutStrToArray              000000018003a700 f   ustring.obj
 0001:00039740       PutStrToTable              000000018003a740 f   ustring.obj
 0001:00039780       PutWStrToArray             000000018003a780 f   ustring.obj
 0001:000397e0       PutWStrToTable             000000018003a7e0 f   ustring.obj
 0001:00039820       SysErrorReturn             000000018003a820 f   ustring.obj
 0001:00039860       check_utf16_string         000000018003a860 f   ustring.obj
 0001:00039890       check_utf8_string          000000018003a890 f   ustring.obj
 0001:000398c0       convert_multibyte_string   000000018003a8c0 f   ustring.obj
 0001:000399f0       luaopen_ustring            000000018003a9f0 f   ustring.obj
 0001:00039a50       opt_utf16_string           000000018003aa50 f   ustring.obj
 0001:00039a60       opt_utf8_string            000000018003aa60 f   ustring.obj
 0001:00039b70       push_multibyte_string      000000018003ab70 f   ustring.obj
 0001:00039c80       push_utf16_string          000000018003ac80 f   ustring.obj
 0001:00039cb0       push_utf8_string           000000018003acb0 f   ustring.obj
 0001:00039ce0       pusherror                  000000018003ace0 f   ustring.obj
 0001:00039d00       pusherrorcode              000000018003ad00 f   ustring.obj
 0001:00039da0       utf8_to_utf16              000000018003ada0 f   ustring.obj
 0001:00039dd0       GetAttrFromTable           000000018003add0 f   util.obj
 0001:00039e30       GetFileSizeFromTable       000000018003ae30 f   util.obj
 0001:00039ec0       GetFileTimeFromTable       000000018003aec0 f   util.obj
 0001:00039f50       GetIntFromArray            000000018003af50 f   util.obj
 0001:0003a010       PutFileTimeToTable         000000018003b010 f   util.obj
 0001:0003a050       luaLF_FieldError           000000018003b050 f   util.obj
 0001:0003a0d0       luaLF_SlotError            000000018003b0d0 f   util.obj
 0001:0003b910       luaopen_win                000000018003c910 f   win.obj
 0001:0003bbac       lua_gettop                 000000018003cbac f   lua51:lua51.dll
 0001:0003bbb2       lua_settop                 000000018003cbb2 f   lua51:lua51.dll
 0001:0003bbb8       lua_type                   000000018003cbb8 f   lua51:lua51.dll
 0001:0003bbbe       lua_rawequal               000000018003cbbe f   lua51:lua51.dll
 0001:0003bbc4       lua_tonumber               000000018003cbc4 f   lua51:lua51.dll
 0001:0003bbca       lua_tolstring              000000018003cbca f   lua51:lua51.dll
 0001:0003bbd0       lua_touserdata             000000018003cbd0 f   lua51:lua51.dll
 0001:0003bbd6       lua_pushnil                000000018003cbd6 f   lua51:lua51.dll
 0001:0003bbdc       lua_pushnumber             000000018003cbdc f   lua51:lua51.dll
 0001:0003bbe2       lua_pushstring             000000018003cbe2 f   lua51:lua51.dll
 0001:0003bbe8       lua_pushboolean            000000018003cbe8 f   lua51:lua51.dll
 0001:0003bbee       lua_getfield               000000018003cbee f   lua51:lua51.dll
 0001:0003bbf4       lua_newuserdata            000000018003cbf4 f   lua51:lua51.dll
 0001:0003bbfa       lua_getmetatable           000000018003cbfa f   lua51:lua51.dll
 0001:0003bc00       lua_setmetatable           000000018003cc00 f   lua51:lua51.dll
 0001:0003bc06       luaL_register              000000018003cc06 f   lua51:lua51.dll
 0001:0003bc0c       luaL_argerror              000000018003cc0c f   lua51:lua51.dll
 0001:0003bc12       luaL_checkinteger          000000018003cc12 f   lua51:lua51.dll
 0001:0003bc18       luaL_newmetatable          000000018003cc18 f   lua51:lua51.dll
 0001:0003bc1e       lua_pushvalue              000000018003cc1e f   lua51:lua51.dll
 0001:0003bc24       lua_remove                 000000018003cc24 f   lua51:lua51.dll
 0001:0003bc2a       lua_insert                 000000018003cc2a f   lua51:lua51.dll
 0001:0003bc30       lua_isnumber               000000018003cc30 f   lua51:lua51.dll
 0001:0003bc36       lua_isstring               000000018003cc36 f   lua51:lua51.dll
 0001:0003bc3c       lua_tointeger              000000018003cc3c f   lua51:lua51.dll
 0001:0003bc42       lua_toboolean              000000018003cc42 f   lua51:lua51.dll
 0001:0003bc48       lua_objlen                 000000018003cc48 f   lua51:lua51.dll
 0001:0003bc4e       lua_pushinteger            000000018003cc4e f   lua51:lua51.dll
 0001:0003bc54       lua_pushlstring            000000018003cc54 f   lua51:lua51.dll
 0001:0003bc5a       lua_pushcclosure           000000018003cc5a f   lua51:lua51.dll
 0001:0003bc60       lua_pushlightuserdata      000000018003cc60 f   lua51:lua51.dll
 0001:0003bc66       lua_gettable               000000018003cc66 f   lua51:lua51.dll
 0001:0003bc6c       lua_rawgeti                000000018003cc6c f   lua51:lua51.dll
 0001:0003bc72       lua_createtable            000000018003cc72 f   lua51:lua51.dll
 0001:0003bc78       lua_setfield               000000018003cc78 f   lua51:lua51.dll
 0001:0003bc7e       lua_rawseti                000000018003cc7e f   lua51:lua51.dll
 0001:0003bc84       lua_call                   000000018003cc84 f   lua51:lua51.dll
 0001:0003bc8a       lua_pcall                  000000018003cc8a f   lua51:lua51.dll
 0001:0003bc90       lua_gc                     000000018003cc90 f   lua51:lua51.dll
 0001:0003bc96       luaL_ref                   000000018003cc96 f   lua51:lua51.dll
 0001:0003bc9c       luaL_unref                 000000018003cc9c f   lua51:lua51.dll
 0001:0003bca2       luaL_loadstring            000000018003cca2 f   lua51:lua51.dll
 0001:0003bca8       lua_pushfstring            000000018003cca8 f   lua51:lua51.dll
 0001:0003bcae       lua_load                   000000018003ccae f   lua51:lua51.dll
 0001:0003bcb4       lua_error                  000000018003ccb4 f   lua51:lua51.dll
 0001:0003bcba       lua_concat                 000000018003ccba f   lua51:lua51.dll
 0001:0003bcc0       luaL_buffinit              000000018003ccc0 f   lua51:lua51.dll
 0001:0003bcc6       luaL_addlstring            000000018003ccc6 f   lua51:lua51.dll
 0001:0003bccc       luaL_pushresult            000000018003cccc f   lua51:lua51.dll
 0001:0003bcd2       lua_replace                000000018003ccd2 f   lua51:lua51.dll
 0001:0003bcd8       lua_checkstack             000000018003ccd8 f   lua51:lua51.dll
 0001:0003bcde       luaL_checklstring          000000018003ccde f   lua51:lua51.dll
 0001:0003bce4       luaL_optlstring            000000018003cce4 f   lua51:lua51.dll
 0001:0003bcea       luaL_optinteger            000000018003ccea f   lua51:lua51.dll
 0001:0003bcf0       luaL_checkudata            000000018003ccf0 f   lua51:lua51.dll
 0001:0003bcf6       luaL_error                 000000018003ccf6 f   lua51:lua51.dll
 0001:0003bcfc       luaL_addvalue              000000018003ccfc f   lua51:lua51.dll
 0001:0003bd02       lua_getstack               000000018003cd02 f   lua51:lua51.dll
 0001:0003bd08       lua_getinfo                000000018003cd08 f   lua51:lua51.dll
 0001:0003bd0e       luaL_checktype             000000018003cd0e f   lua51:lua51.dll
 0001:0003bd14       luaopen_base               000000018003cd14 f   lua51:lua51.dll
 0001:0003bd1a       luaopen_table              000000018003cd1a f   lua51:lua51.dll
 0001:0003bd20       luaopen_os                 000000018003cd20 f   lua51:lua51.dll
 0001:0003bd26       luaopen_string             000000018003cd26 f   lua51:lua51.dll
 0001:0003bd2c       luaopen_math               000000018003cd2c f   lua51:lua51.dll
 0001:0003bd32       luaopen_debug              000000018003cd32 f   lua51:lua51.dll
 0001:0003bd38       lua_rawget                 000000018003cd38 f   lua51:lua51.dll
 0001:0003bd3e       lua_getfenv                000000018003cd3e f   lua51:lua51.dll
 0001:0003bd44       lua_settable               000000018003cd44 f   lua51:lua51.dll
 0001:0003bd4a       lua_rawset                 000000018003cd4a f   lua51:lua51.dll
 0001:0003bd50       lua_setfenv                000000018003cd50 f   lua51:lua51.dll
 0001:0003bd56       lua_next                   000000018003cd56 f   lua51:lua51.dll
 0001:0003bd5c       lua_getallocf              000000018003cd5c f   lua51:lua51.dll
 0001:0003bd62       lua_setallocf              000000018003cd62 f   lua51:lua51.dll
 0001:0003bd68       luaL_typerror              000000018003cd68 f   lua51:lua51.dll
 0001:0003bd6e       luaL_checknumber           000000018003cd6e f   lua51:lua51.dll
 0001:0003bd74       luaL_optnumber             000000018003cd74 f   lua51:lua51.dll
 0001:0003bd7a       luaL_checkany              000000018003cd7a f   lua51:lua51.dll
 0001:0003bd80       luaL_findtable             000000018003cd80 f   lua51:lua51.dll
 0001:0003bd86       lua_typename               000000018003cd86 f   lua51:lua51.dll
 0001:0003bd8c       lua_dump                   000000018003cd8c f   lua51:lua51.dll
 0001:0003bd92       luaL_checkstack            000000018003cd92 f   lua51:lua51.dll
 0001:0003bd98       luaL_prepbuffer            000000018003cd98 f   lua51:lua51.dll
 0001:0003bd9e       lua_tocfunction            000000018003cd9e f   lua51:lua51.dll
 0001:0003bda4       luaL_checkoption           000000018003cda4 f   lua51:lua51.dll
 0001:0003bdaa       lua_iscfunction            000000018003cdaa f   lua51:lua51.dll
 0001:0003bdb0       luaL_gsub                  000000018003cdb0 f   lua51:lua51.dll
 0001:0003bdb6       lua_isuserdata             000000018003cdb6 f   lua51:lua51.dll
 0001:0003c0ec       _DllMainCRTStartup         000000018003d0ec f   LIBCMT:dll_dllmain.obj
 0001:0003c12c       __security_init_cookie     000000018003d12c f   LIBCMT:gs_support.obj
 0001:0003c1d8       ?__scrt_initialize_type_info@@YAXXZ 000000018003d1d8 f   LIBCMT:tncleanup.obj
 0001:0003c1e8       ?__scrt_uninitialize_type_info@@YAXXZ 000000018003d1e8 f   LIBCMT:tncleanup.obj
 0001:0003c1f4       __scrt_initialize_default_local_stdio_options 000000018003d1f4 f   LIBCMT:default_local_stdio_options.obj
 0001:0003c210       __scrt_acquire_startup_lock 000000018003d210 f   LIBCMT:utility.obj
 0001:0003c24c       __scrt_dllmain_after_initialize_c 000000018003d24c f   LIBCMT:utility.obj
 0001:0003c280       __scrt_dllmain_before_initialize_c 000000018003d280 f   LIBCMT:utility.obj
 0001:0003c298       __scrt_dllmain_crt_thread_attach 000000018003d298 f   LIBCMT:utility.obj
 0001:0003c2c0       __scrt_dllmain_crt_thread_detach 000000018003d2c0 f   LIBCMT:utility.obj
 0001:0003c2d8       __scrt_dllmain_exception_filter 000000018003d2d8 f   LIBCMT:utility.obj
 0001:0003c338       __scrt_dllmain_uninitialize_c 000000018003d338 f   LIBCMT:utility.obj
 0001:0003c368       __scrt_dllmain_uninitialize_critical 000000018003d368 f   LIBCMT:utility.obj
 0001:0003c37c       __scrt_initialize_crt      000000018003d37c f   LIBCMT:utility.obj
 0001:0003c3c8       __scrt_initialize_onexit_tables 000000018003d3c8 f   LIBCMT:utility.obj
 0001:0003c4a0       __scrt_is_nonwritable_in_current_image 000000018003d4a0 f   LIBCMT:utility.obj
 0001:0003c53c       __scrt_release_startup_lock 000000018003d53c f   LIBCMT:utility.obj
 0001:0003c560       __scrt_uninitialize_crt    000000018003d560 f   LIBCMT:utility.obj
 0001:0003c58c       __scrt_get_dyn_tls_init_callback 000000018003d58c f   LIBCMT:dyn_tls_init.obj
 0001:0003c594       __crt_debugger_hook        000000018003d594 f   LIBCMT:utility_desktop.obj
 0001:0003c59c       __scrt_fastfail            000000018003d59c f   LIBCMT:utility_desktop.obj
 0001:0003c6e8       _RTC_Initialize            000000018003d6e8 f   LIBCMT:initsect.obj
 0001:0003c724       _RTC_Terminate             000000018003d724 f   LIBCMT:initsect.obj
 0001:0003c760       __isa_available_init       000000018003d760 f   LIBCMT:cpu_disp.obj
 0001:0003c91c       _get_startup_argv_mode     000000018003d91c f   LIBCMT:argv_mode.obj
 0001:0003c924       __scrt_is_ucrt_dll_in_use  000000018003d924 f   LIBCMT:ucrt_detection.obj
 0001:0003c930       wcsrchr                    000000018003d930 f   libvcruntime:wcsrchr.obj
 0001:0003ca00       memcpy_repmovs             000000018003da00 f   libvcruntime:memcpy.obj
 0001:0003ca20       memmove                    000000018003da20 f   libvcruntime:memcpy.obj
 0001:0003ca20       memcpy                     000000018003da20 f   libvcruntime:memcpy.obj
 0001:0003ce70       memset_repmovs             000000018003de70 f   libvcruntime:memset.obj
 0001:0003ce90       memset                     000000018003de90 f   libvcruntime:memset.obj
 0001:0003d020       wcsstr                     000000018003e020 f   libvcruntime:wcsstr.obj
 0001:0003d23c       strchr                     000000018003e23c f   libvcruntime:strchr.obj
 0001:0003d2c8       wcschr                     000000018003e2c8 f   libvcruntime:wcschr.obj
 0001:0003d370       memchr                     000000018003e370 f   libvcruntime:memchr.obj
 0001:0003d3f0       memcmp                     000000018003e3f0 f   libvcruntime:memcmp.obj
 0001:0003d4b8       strrchr                    000000018003e4b8 f   libvcruntime:strrchr.obj
 0001:0003d604       __C_specific_handler       000000018003e604 f   libvcruntime:riscchandler.obj
 0001:0003d810       __std_type_info_destroy_list 000000018003e810 f   libvcruntime:std_type_info.obj
 0001:0003d83c       __vcrt_initialize          000000018003e83c f   libvcruntime:initialization.obj
 0001:0003d870       __vcrt_thread_attach       000000018003e870 f   libvcruntime:initialization.obj
 0001:0003d884       __vcrt_thread_detach       000000018003e884 f   libvcruntime:initialization.obj
 0001:0003d898       __vcrt_uninitialize        000000018003e898 f   libvcruntime:initialization.obj
 0001:0003d8b8       __vcrt_uninitialize_critical 000000018003e8b8 f   libvcruntime:initialization.obj
 0001:0003d8e0       _NLG_Notify                000000018003e8e0 f   libvcruntime:notify.obj
 0001:0003d900       __NLG_Dispatch2            000000018003e900 f   libvcruntime:notify.obj
 0001:0003d910       __NLG_Return2              000000018003e910 f   libvcruntime:notify.obj
 0001:0003d914       __except_validate_context_record 000000018003e914 f   libvcruntime:jbcxrval.obj
 0001:0003d94c       __DestructExceptionObject  000000018003e94c f   libvcruntime:ehhelpers.obj
 0001:0003d9c0       ?_CallMemberFunction0@@YAXQEAX0@Z 000000018003e9c0 f i libvcruntime:ehhelpers.obj
 0001:0003d9c4       __vcrt_freefls             000000018003e9c4 f   libvcruntime:per_thread_data.obj
 0001:0003d9e4       __vcrt_freeptd             000000018003e9e4 f   libvcruntime:per_thread_data.obj
 0001:0003da34       __vcrt_getptd_noexit       000000018003ea34 f   libvcruntime:per_thread_data.obj
 0001:0003db00       __vcrt_initialize_ptd      000000018003eb00 f   libvcruntime:per_thread_data.obj
 0001:0003db54       __vcrt_uninitialize_ptd    000000018003eb54 f   libvcruntime:per_thread_data.obj
 0001:0003db78       __vcrt_initialize_locks    000000018003eb78 f   libvcruntime:locks.obj
 0001:0003dbc0       __vcrt_uninitialize_locks  000000018003ebc0 f   libvcruntime:locks.obj
 0001:0003ddd0       __vcrt_FlsAlloc            000000018003edd0 f   libvcruntime:winapi_downlevel.obj
 0001:0003de18       __vcrt_FlsFree             000000018003ee18 f   libvcruntime:winapi_downlevel.obj
 0001:0003de60       __vcrt_FlsGetValue         000000018003ee60 f   libvcruntime:winapi_downlevel.obj
 0001:0003dea8       __vcrt_FlsSetValue         000000018003eea8 f   libvcruntime:winapi_downlevel.obj
 0001:0003defc       __vcrt_InitializeCriticalSectionEx 000000018003eefc f   libvcruntime:winapi_downlevel.obj
 0001:0003df60       __vcrt_initialize_winapi_thunks 000000018003ef60 f   libvcruntime:winapi_downlevel.obj
 0001:0003df90       __vcrt_uninitialize_winapi_thunks 000000018003ef90 f   libvcruntime:winapi_downlevel.obj
 0001:0003dfd0       __vcrt_initialize_pure_virtual_call_handler 000000018003efd0 f   libvcruntime:purevirt_data.obj
 0001:0003dff0       _CallSettingFrame          000000018003eff0 f   libvcruntime:handlers.obj
 0001:0003e040       _CallSettingFrameEncoded   000000018003f040 f   libvcruntime:handlers.obj
 0001:0003e468       ??$ensure_buffer_is_big_enough@D@formatting_buffer@__crt_stdio_output@@QEAA_N_K@Z 000000018003f468 f i libucrt:output.obj
 0001:0003e510       ??$ensure_buffer_is_big_enough@_W@formatting_buffer@__crt_stdio_output@@QEAA_N_K@Z 000000018003f510 f i libucrt:output.obj
 0001:0003e5bc       ??$is_wide_character_specifier@_W@__crt_stdio_output@@YA_N_K_WW4length_modifier@0@@Z 000000018003f5bc f i libucrt:output.obj
 0001:0003e5fc       ??$type_case_integer_parse_into_buffer@I@?$output_processor@DV?$stream_output_adapter@D@__crt_stdio_output@@V?$standard_base@DV?$stream_output_adapter@D@__crt_stdio_output@@@2@@__crt_stdio_output@@AEAAXII_N@Z 000000018003f5fc f i libucrt:output.obj
 0001:0003e5fc       ??$type_case_integer_parse_into_buffer@I@?$output_processor@DV?$string_output_adapter@D@__crt_stdio_output@@V?$standard_base@DV?$string_output_adapter@D@__crt_stdio_output@@@2@@__crt_stdio_output@@AEAAXII_N@Z 000000018003f5fc f i libucrt:output.obj
 0001:0003e68c       ??$type_case_integer_parse_into_buffer@I@?$output_processor@_WV?$string_output_adapter@_W@__crt_stdio_output@@V?$standard_base@_WV?$string_output_adapter@_W@__crt_stdio_output@@@2@@__crt_stdio_output@@AEAAXII_N@Z 000000018003f68c f i libucrt:output.obj
 0001:0003e730       ??$type_case_integer_parse_into_buffer@_K@?$output_processor@DV?$stream_output_adapter@D@__crt_stdio_output@@V?$standard_base@DV?$stream_output_adapter@D@__crt_stdio_output@@@2@@__crt_stdio_output@@AEAAX_KI_N@Z 000000018003f730 f i libucrt:output.obj
 0001:0003e730       ??$type_case_integer_parse_into_buffer@_K@?$output_processor@DV?$string_output_adapter@D@__crt_stdio_output@@V?$standard_base@DV?$string_output_adapter@D@__crt_stdio_output@@@2@@__crt_stdio_output@@AEAAX_KI_N@Z 000000018003f730 f i libucrt:output.obj
 0001:0003e7c4       ??$type_case_integer_parse_into_buffer@_K@?$output_processor@_WV?$string_output_adapter@_W@__crt_stdio_output@@V?$standard_base@_WV?$string_output_adapter@_W@__crt_stdio_output@@@2@@__crt_stdio_output@@AEAAX_KI_N@Z 000000018003f7c4 f i libucrt:output.obj
 0001:0003e868       ??$write_multiple_characters@V?$stream_output_adapter@D@__crt_stdio_output@@D@__crt_stdio_output@@YAXAEBV?$stream_output_adapter@D@0@DHQEAH@Z 000000018003f868 f i libucrt:output.obj
 0001:0003e8f4       ??$write_multiple_characters@V?$string_output_adapter@D@__crt_stdio_output@@D@__crt_stdio_output@@YAXAEBV?$string_output_adapter@D@0@DHQEAH@Z 000000018003f8f4 f i libucrt:output.obj
 0001:0003e96c       ??$write_multiple_characters@V?$string_output_adapter@_W@__crt_stdio_output@@D@__crt_stdio_output@@YAXAEBV?$string_output_adapter@_W@0@DHQEAH@Z 000000018003f96c f i libucrt:output.obj
 0001:0003e9e8       ??0_LocaleUpdate@@QEAA@QEAU__crt_locale_pointers@@@Z 000000018003f9e8 f i libucrt:output.obj
 0001:0003ebb4       ?crop_zeroes@__crt_stdio_output@@YAXPEADQEAU__crt_locale_pointers@@@Z 000000018003fbb4 f i libucrt:output.obj
 0001:0003ec20       ?force_decimal_point@__crt_stdio_output@@YAXPEADQEAU__crt_locale_pointers@@@Z 000000018003fc20 f i libucrt:output.obj
 0001:0003ec90       ?parse_int_from_format_string@?$output_processor@DV?$stream_output_adapter@D@__crt_stdio_output@@V?$standard_base@DV?$stream_output_adapter@D@__crt_stdio_output@@@2@@__crt_stdio_output@@AEAA_NQEAH@Z 000000018003fc90 f i libucrt:output.obj
 0001:0003ec90       ?parse_int_from_format_string@?$output_processor@DV?$string_output_adapter@D@__crt_stdio_output@@V?$standard_base@DV?$string_output_adapter@D@__crt_stdio_output@@@2@@__crt_stdio_output@@AEAA_NQEAH@Z 000000018003fc90 f i libucrt:output.obj
 0001:0003ed34       ?parse_int_from_format_string@?$output_processor@_WV?$string_output_adapter@_W@__crt_stdio_output@@V?$standard_base@_WV?$string_output_adapter@_W@__crt_stdio_output@@@2@@__crt_stdio_output@@AEAA_NQEAH@Z 000000018003fd34 f i libucrt:output.obj
 0001:0003edd8       ?process@?$output_processor@DV?$stream_output_adapter@D@__crt_stdio_output@@V?$standard_base@DV?$stream_output_adapter@D@__crt_stdio_output@@@2@@__crt_stdio_output@@QEAAHXZ 000000018003fdd8 f i libucrt:output.obj
 0001:0003eff0       ?process@?$output_processor@DV?$string_output_adapter@D@__crt_stdio_output@@V?$standard_base@DV?$string_output_adapter@D@__crt_stdio_output@@@2@@__crt_stdio_output@@QEAAHXZ 000000018003fff0 f i libucrt:output.obj
 0001:0003f1fc       ?process@?$output_processor@_WV?$string_output_adapter@_W@__crt_stdio_output@@V?$standard_base@_WV?$string_output_adapter@_W@__crt_stdio_output@@@2@@__crt_stdio_output@@QEAAHXZ 00000001800401fc f i libucrt:output.obj
 0001:0003f478       ?state_case_normal@?$output_processor@DV?$stream_output_adapter@D@__crt_stdio_output@@V?$standard_base@DV?$stream_output_adapter@D@__crt_stdio_output@@@2@@__crt_stdio_output@@AEAA_NXZ 0000000180040478 f i libucrt:output.obj
 0001:0003f4e8       ?state_case_normal@?$output_processor@DV?$string_output_adapter@D@__crt_stdio_output@@V?$standard_base@DV?$string_output_adapter@D@__crt_stdio_output@@@2@@__crt_stdio_output@@AEAA_NXZ 00000001800404e8 f i libucrt:output.obj
 0001:0003f55c       ?state_case_normal_tchar@?$output_processor@DV?$stream_output_adapter@D@__crt_stdio_output@@V?$standard_base@DV?$stream_output_adapter@D@__crt_stdio_output@@@2@@__crt_stdio_output@@AEAA_ND@Z 000000018004055c f i libucrt:output.obj
 0001:0003f600       ?state_case_normal_tchar@?$output_processor@DV?$string_output_adapter@D@__crt_stdio_output@@V?$standard_base@DV?$string_output_adapter@D@__crt_stdio_output@@@2@@__crt_stdio_output@@AEAA_ND@Z 0000000180040600 f i libucrt:output.obj
 0001:0003f6a8       ?state_case_size@?$output_processor@DV?$stream_output_adapter@D@__crt_stdio_output@@V?$standard_base@DV?$stream_output_adapter@D@__crt_stdio_output@@@2@@__crt_stdio_output@@AEAA_NXZ 00000001800406a8 f i libucrt:output.obj
 0001:0003f81c       ?state_case_size@?$output_processor@DV?$string_output_adapter@D@__crt_stdio_output@@V?$standard_base@DV?$string_output_adapter@D@__crt_stdio_output@@@2@@__crt_stdio_output@@AEAA_NXZ 000000018004081c f i libucrt:output.obj
 0001:0003f990       ?state_case_size@?$output_processor@_WV?$string_output_adapter@_W@__crt_stdio_output@@V?$standard_base@_WV?$string_output_adapter@_W@__crt_stdio_output@@@2@@__crt_stdio_output@@AEAA_NXZ 0000000180040990 f i libucrt:output.obj
 0001:0003fb28       ?state_case_type@?$output_processor@DV?$stream_output_adapter@D@__crt_stdio_output@@V?$standard_base@DV?$stream_output_adapter@D@__crt_stdio_output@@@2@@__crt_stdio_output@@AEAA_NXZ 0000000180040b28 f i libucrt:output.obj
 0001:0003fdac       ?state_case_type@?$output_processor@DV?$string_output_adapter@D@__crt_stdio_output@@V?$standard_base@DV?$string_output_adapter@D@__crt_stdio_output@@@2@@__crt_stdio_output@@AEAA_NXZ 0000000180040dac f i libucrt:output.obj
 0001:00040014       ?state_case_type@?$output_processor@_WV?$string_output_adapter@_W@__crt_stdio_output@@V?$standard_base@_WV?$string_output_adapter@_W@__crt_stdio_output@@@2@@__crt_stdio_output@@AEAA_NXZ 0000000180041014 f i libucrt:output.obj
 0001:000402e0       ?type_case_Z@?$output_processor@DV?$string_output_adapter@D@__crt_stdio_output@@V?$standard_base@DV?$string_output_adapter@D@__crt_stdio_output@@@2@@__crt_stdio_output@@AEAA_NXZ 00000001800412e0 f i libucrt:output.obj
 0001:000402e0       ?type_case_Z@?$output_processor@DV?$stream_output_adapter@D@__crt_stdio_output@@V?$standard_base@DV?$stream_output_adapter@D@__crt_stdio_output@@@2@@__crt_stdio_output@@AEAA_NXZ 00000001800412e0 f i libucrt:output.obj
 0001:00040358       ?type_case_Z@?$output_processor@_WV?$string_output_adapter@_W@__crt_stdio_output@@V?$standard_base@_WV?$string_output_adapter@_W@__crt_stdio_output@@@2@@__crt_stdio_output@@AEAA_NXZ 0000000180041358 f i libucrt:output.obj
 0001:000403d4       ?type_case_a@?$output_processor@DV?$string_output_adapter@D@__crt_stdio_output@@V?$standard_base@DV?$string_output_adapter@D@__crt_stdio_output@@@2@@__crt_stdio_output@@AEAA_NXZ 00000001800413d4 f i libucrt:output.obj
 0001:000403d4       ?type_case_a@?$output_processor@DV?$stream_output_adapter@D@__crt_stdio_output@@V?$standard_base@DV?$stream_output_adapter@D@__crt_stdio_output@@@2@@__crt_stdio_output@@AEAA_NXZ 00000001800413d4 f i libucrt:output.obj
 0001:00040590       ?type_case_a@?$output_processor@_WV?$string_output_adapter@_W@__crt_stdio_output@@V?$standard_base@_WV?$string_output_adapter@_W@__crt_stdio_output@@@2@@__crt_stdio_output@@AEAA_NXZ 0000000180041590 f i libucrt:output.obj
 0001:00040770       ?type_case_c_tchar@?$output_processor@DV?$string_output_adapter@D@__crt_stdio_output@@V?$standard_base@DV?$string_output_adapter@D@__crt_stdio_output@@@2@@__crt_stdio_output@@AEAA_ND@Z 0000000180041770 f i libucrt:output.obj
 0001:00040770       ?type_case_c_tchar@?$output_processor@DV?$stream_output_adapter@D@__crt_stdio_output@@V?$standard_base@DV?$stream_output_adapter@D@__crt_stdio_output@@@2@@__crt_stdio_output@@AEAA_ND@Z 0000000180041770 f i libucrt:output.obj
 0001:0004082c       ?type_case_c_tchar@?$output_processor@_WV?$string_output_adapter@_W@__crt_stdio_output@@V?$standard_base@_WV?$string_output_adapter@_W@__crt_stdio_output@@@2@@__crt_stdio_output@@AEAA_N_W@Z 000000018004182c f i libucrt:output.obj
 0001:000408d4       ?type_case_integer@?$output_processor@DV?$stream_output_adapter@D@__crt_stdio_output@@V?$standard_base@DV?$stream_output_adapter@D@__crt_stdio_output@@@2@@__crt_stdio_output@@AEAA_NI_N@Z 00000001800418d4 f i libucrt:output.obj
 0001:000408d4       ?type_case_integer@?$output_processor@DV?$string_output_adapter@D@__crt_stdio_output@@V?$standard_base@DV?$string_output_adapter@D@__crt_stdio_output@@@2@@__crt_stdio_output@@AEAA_NI_N@Z 00000001800418d4 f i libucrt:output.obj
 0001:00040a9c       ?type_case_integer@?$output_processor@_WV?$string_output_adapter@_W@__crt_stdio_output@@V?$standard_base@_WV?$string_output_adapter@_W@__crt_stdio_output@@@2@@__crt_stdio_output@@AEAA_NI_N@Z 0000000180041a9c f i libucrt:output.obj
 0001:00040c68       ?type_case_n@?$output_processor@DV?$string_output_adapter@D@__crt_stdio_output@@V?$standard_base@DV?$string_output_adapter@D@__crt_stdio_output@@@2@@__crt_stdio_output@@AEAA_NXZ 0000000180041c68 f i libucrt:output.obj
 0001:00040c68       ?type_case_n@?$output_processor@_WV?$string_output_adapter@_W@__crt_stdio_output@@V?$standard_base@_WV?$string_output_adapter@_W@__crt_stdio_output@@@2@@__crt_stdio_output@@AEAA_NXZ 0000000180041c68 f i libucrt:output.obj
 0001:00040c68       ?type_case_n@?$output_processor@DV?$stream_output_adapter@D@__crt_stdio_output@@V?$standard_base@DV?$stream_output_adapter@D@__crt_stdio_output@@@2@@__crt_stdio_output@@AEAA_NXZ 0000000180041c68 f i libucrt:output.obj
 0001:00040d44       ?type_case_s@?$output_processor@DV?$string_output_adapter@D@__crt_stdio_output@@V?$standard_base@DV?$string_output_adapter@D@__crt_stdio_output@@@2@@__crt_stdio_output@@AEAA_NXZ 0000000180041d44 f i libucrt:output.obj
 0001:00040d44       ?type_case_s@?$output_processor@DV?$stream_output_adapter@D@__crt_stdio_output@@V?$standard_base@DV?$stream_output_adapter@D@__crt_stdio_output@@@2@@__crt_stdio_output@@AEAA_NXZ 0000000180041d44 f i libucrt:output.obj
 0001:00040ddc       ?type_case_s@?$output_processor@_WV?$string_output_adapter@_W@__crt_stdio_output@@V?$standard_base@_WV?$string_output_adapter@_W@__crt_stdio_output@@@2@@__crt_stdio_output@@AEAA_NXZ 0000000180041ddc f i libucrt:output.obj
 0001:00040ea4       ?validate_stream_is_ansi_if_required@?$__acrt_stdio_char_traits@D@@SA_NQEAU_iobuf@@@Z 0000000180041ea4 f i libucrt:output.obj
 0001:00040f40       ?write_stored_string_tchar@?$output_processor@DV?$stream_output_adapter@D@__crt_stdio_output@@V?$standard_base@DV?$stream_output_adapter@D@__crt_stdio_output@@@2@@__crt_stdio_output@@AEAA_ND@Z 0000000180041f40 f i libucrt:output.obj
 0001:00041064       ?write_stored_string_tchar@?$output_processor@DV?$string_output_adapter@D@__crt_stdio_output@@V?$standard_base@DV?$string_output_adapter@D@__crt_stdio_output@@@2@@__crt_stdio_output@@AEAA_ND@Z 0000000180042064 f i libucrt:output.obj
 0001:0004113c       ?write_stored_string_tchar@?$output_processor@_WV?$string_output_adapter@_W@__crt_stdio_output@@V?$standard_base@_WV?$string_output_adapter@_W@__crt_stdio_output@@@2@@__crt_stdio_output@@AEAA_N_W@Z 000000018004213c f i libucrt:output.obj
 0001:00041228       ?write_string@?$string_output_adapter@D@__crt_stdio_output@@QEBAXQEBDHQEAHAEAV__crt_deferred_errno_cache@@@Z 0000000180042228 f i libucrt:output.obj
 0001:000412cc       ?write_string@?$string_output_adapter@_W@__crt_stdio_output@@QEBAXQEB_WHQEAHAEAV__crt_deferred_errno_cache@@@Z 00000001800422cc f i libucrt:output.obj
 0001:00041374       ?write_string_impl@?$output_adapter_common@DV?$stream_output_adapter@D@__crt_stdio_output@@@__crt_stdio_output@@IEBAXQEBDHQEAHAEAV__crt_deferred_errno_cache@@@Z 0000000180042374 f i libucrt:output.obj
 0001:0004146c       __stdio_common_vfprintf    000000018004246c f   libucrt:output.obj
 0001:000414f8       __stdio_common_vsprintf    00000001800424f8 f   libucrt:output.obj
 0001:00041500       __stdio_common_vswprintf   0000000180042500 f   libucrt:output.obj
 0001:00041508       wcsdup                     0000000180042508 f   libucrt:wcsdup.obj
 0001:00041508       _wcsdup                    0000000180042508 f   libucrt:wcsdup.obj
 0001:0004158c       free                       000000018004258c f   libucrt:free.obj
 0001:000415a0       malloc                     00000001800425a0 f   libucrt:malloc.obj
 0001:00041674       _wfopen                    0000000180042674 f   libucrt:fopen.obj
 0001:00041680       _fclose_nolock             0000000180042680 f   libucrt:fclose.obj
 0001:00041704       fclose                     0000000180042704 f   libucrt:fclose.obj
 0001:00041768       _clearfp                   0000000180042768 f   libucrt:ieee.obj
 0001:000417d8       _control87                 00000001800427d8 f   libucrt:ieee.obj
 0001:00041aa0       __acrt_errno_from_os_error 0000000180042aa0 f   libucrt:errno.obj
 0001:00041ae8       __acrt_errno_map_os_error  0000000180042ae8 f   libucrt:errno.obj
 0001:00041b38       __doserrno                 0000000180042b38 f   libucrt:errno.obj
 0001:00041b58       _errno                     0000000180042b58 f   libucrt:errno.obj
 0001:00041b78       strerror                   0000000180042b78 f   libucrt:strerror.obj
 0001:00041c20       __acrt_initialize_stdio    0000000180042c20 f   libucrt:_file.obj
 0001:00041d40       __acrt_iob_func            0000000180042d40 f   libucrt:_file.obj
 0001:00041d54       __acrt_uninitialize_stdio  0000000180042d54 f   libucrt:_file.obj
 0001:00041db0       _lock_file                 0000000180042db0 f   libucrt:_file.obj
 0001:00041dbc       _unlock_file               0000000180042dbc f   libucrt:_file.obj
 0001:00041ec8       _wfreopen                  0000000180042ec8 f   libucrt:freopen.obj
 0001:00041ef8       feof                       0000000180042ef8 f   libucrt:feoferr.obj
 0001:00041f24       ferror                     0000000180042f24 f   libucrt:feoferr.obj
 0001:00041f50       _fread_nolock_s            0000000180042f50 f   libucrt:fread.obj
 0001:000421e0       fread                      00000001800431e0 f   libucrt:fread.obj
 0001:00042200       fread_s                    0000000180043200 f   libucrt:fread.obj
 0001:000422a8       _fgetc_nolock              00000001800432a8 f   libucrt:fgetc.obj
 0001:000422ec       _getc_nolock               00000001800432ec f   libucrt:fgetc.obj
 0001:000422f4       fgetc                      00000001800432f4 f   libucrt:fgetc.obj
 0001:000423fc       getc                       00000001800433fc f   libucrt:fgetc.obj
 0001:00042404       rewind                     0000000180043404 f   libucrt:rewind.obj
 0001:000424c8       _ungetc_nolock             00000001800434c8 f   libucrt:ungetc.obj
 0001:000425f0       ungetc                     00000001800435f0 f   libucrt:ungetc.obj
 0001:00042660       strcmp                     0000000180043660 f   libucrt:strcmp.obj
 0001:000426c8       iswctype                   00000001800436c8 f   libucrt:iswctype.obj
 0001:00042738       isdigit                    0000000180043738 f i libucrt:_ctype.obj
 0001:000427cc       isspace                    00000001800437cc f i libucrt:_ctype.obj
 0001:00042860       wcsncpy                    0000000180043860 f   libucrt:wcsncpy.obj
 0001:000428a8       _wcsicmp                   00000001800438a8 f   libucrt:wcsicmp.obj
 0001:00042940       _wcsicmp_l                 0000000180043940 f   libucrt:wcsicmp.obj
 0001:00042a50       strncmp                    0000000180043a50 f   libucrt:strncmp.obj
 0001:00042ae0       strncpy                    0000000180043ae0 f   libucrt:strncpy.obj
 0001:00042cf0       strpbrk                    0000000180043cf0 f   libucrt:strpbrk.obj
 0001:000437dc       _pclose                    00000001800447dc f   libucrt:popen.obj
 0001:000438b4       _wpopen                    00000001800448b4 f   libucrt:popen.obj
 0001:000438bc       clearerr                   00000001800448bc f   libucrt:clearerr.obj
 0001:000438c4       clearerr_s                 00000001800448c4 f   libucrt:clearerr.obj
 0001:00043b88       __acrt_stdio_flush_nolock  0000000180044b88 f   libucrt:fflush.obj
 0001:00043c04       _fflush_nolock             0000000180044c04 f   libucrt:fflush.obj
 0001:00043c50       _flushall                  0000000180044c50 f   libucrt:fflush.obj
 0001:00043c58       fflush                     0000000180044c58 f   libucrt:fflush.obj
 0001:00043d8c       fgets                      0000000180044d8c f   libucrt:fgets.obj
 0001:00043f9c       fseek                      0000000180044f9c f   libucrt:fseek.obj
 0001:00044490       _ftelli64_nolock           0000000180045490 f   libucrt:ftell.obj
 0001:00044498       ftell                      0000000180045498 f   libucrt:ftell.obj
 0001:00044544       _fwrite_nolock             0000000180045544 f   libucrt:fwrite.obj
 0001:000446f0       fwrite                     00000001800456f0 f   libucrt:fwrite.obj
 0001:00044894       setvbuf                    0000000180045894 f   libucrt:setvbuf.obj
 0001:00044cd0       __acrt_stdio_free_tmpfile_name_buffers_nolock 0000000180045cd0 f   libucrt:tmpfile.obj
 0001:00044d58       tmpfile                    0000000180045d58 f   libucrt:tmpfile.obj
 0001:00044dbc       ??$is_overflow_condition@_K@__crt_strtox@@YA_NI_K@Z 0000000180045dbc f i libucrt:input.obj
 0001:00044dec       ??$parse_floating_point@V?$input_adapter_character_source@V?$stream_input_adapter@D@__crt_stdio_input@@@__crt_strtox@@M@__crt_strtox@@YA?AW4SLD_STATUS@@QEAU__crt_locale_pointers@@V?$input_adapter_character_source@V?$stream_input_adapter@D@__crt_stdio_input@@@0@QEAM@Z 0000000180045dec f i libucrt:input.obj
 0001:00044e94       ??$parse_floating_point@V?$input_adapter_character_source@V?$stream_input_adapter@D@__crt_stdio_input@@@__crt_strtox@@N@__crt_strtox@@YA?AW4SLD_STATUS@@QEAU__crt_locale_pointers@@V?$input_adapter_character_source@V?$stream_input_adapter@D@__crt_stdio_input@@@0@QEAN@Z 0000000180045e94 f i libucrt:input.obj
 0001:00044f3c       ??$parse_floating_point_from_source@V?$input_adapter_character_source@V?$stream_input_adapter@D@__crt_stdio_input@@@__crt_strtox@@@__crt_strtox@@YA?AW4floating_point_parse_result@0@QEAU__crt_locale_pointers@@AEAV?$input_adapter_character_source@V?$stream_input_adapter@D@__crt_stdio_input@@@0@AEAUfloating_point_string@0@@Z 0000000180045f3c f i libucrt:input.obj
 0001:000457e0       ??$parse_floating_point_possible_infinity@DV?$input_adapter_character_source@V?$stream_input_adapter@D@__crt_stdio_input@@@__crt_strtox@@_K@__crt_strtox@@YA?AW4floating_point_parse_result@0@AEADAEAV?$input_adapter_character_source@V?$stream_input_adapter@D@__crt_stdio_input@@@0@_K@Z 00000001800467e0 f i libucrt:input.obj
 0001:00045a50       ??$parse_floating_point_possible_nan@DV?$input_adapter_character_source@V?$stream_input_adapter@D@__crt_stdio_input@@@__crt_strtox@@_K@__crt_strtox@@YA?AW4floating_point_parse_result@0@AEADAEAV?$input_adapter_character_source@V?$stream_input_adapter@D@__crt_stdio_input@@@0@_K@Z 0000000180046a50 f i libucrt:input.obj
 0001:00045cec       ??$parse_floating_point_possible_nan_is_ind@DV?$input_adapter_character_source@V?$stream_input_adapter@D@__crt_stdio_input@@@__crt_strtox@@@__crt_strtox@@YA_NAEADAEAV?$input_adapter_character_source@V?$stream_input_adapter@D@__crt_stdio_input@@@0@@Z 0000000180046cec f i libucrt:input.obj
 0001:00045d84       ??$parse_floating_point_possible_nan_is_snan@DV?$input_adapter_character_source@V?$stream_input_adapter@D@__crt_stdio_input@@@__crt_strtox@@@__crt_strtox@@YA_NAEADAEAV?$input_adapter_character_source@V?$stream_input_adapter@D@__crt_stdio_input@@@0@@Z 0000000180046d84 f i libucrt:input.obj
 0001:00045e1c       ??$parse_floating_point_write_result@M@__crt_strtox@@YA?AW4SLD_STATUS@@W4floating_point_parse_result@0@AEBUfloating_point_string@0@QEAM@Z 0000000180046e1c f i libucrt:input.obj
 0001:00045f8c       ??$parse_floating_point_write_result@N@__crt_strtox@@YA?AW4SLD_STATUS@@W4floating_point_parse_result@0@AEBUfloating_point_string@0@QEAN@Z 0000000180046f8c f i libucrt:input.obj
 0001:0004616c       ??$parse_integer@_KV?$input_adapter_character_source@V?$stream_input_adapter@D@__crt_stdio_input@@@__crt_strtox@@@__crt_strtox@@YA_KQEAU__crt_locale_pointers@@V?$input_adapter_character_source@V?$stream_input_adapter@D@__crt_stdio_input@@@0@H_N@Z 000000018004716c f i libucrt:input.obj
 0001:000465f0       ??$process_floating_point_specifier_t@M@?$input_processor@DV?$stream_input_adapter@D@__crt_stdio_input@@@__crt_stdio_input@@AEAA_NXZ 00000001800475f0 f i libucrt:input.obj
 0001:00046690       ??$process_floating_point_specifier_t@N@?$input_processor@DV?$stream_input_adapter@D@__crt_stdio_input@@@__crt_stdio_input@@AEAA_NXZ 0000000180047690 f i libucrt:input.obj
 0001:00046730       ??$process_string_specifier_tchar@D@?$input_processor@DV?$stream_input_adapter@D@__crt_stdio_input@@@__crt_stdio_input@@AEAA_NW4conversion_mode@1@D@Z 0000000180047730 f i libucrt:input.obj
 0001:000468cc       ??$process_string_specifier_tchar@_W@?$input_processor@DV?$stream_input_adapter@D@__crt_stdio_input@@@__crt_stdio_input@@AEAA_NW4conversion_mode@1@_W@Z 00000001800478cc f i libucrt:input.obj
 0001:00046aa0       ??$skip_whitespace@Vstream_input_adapter@__crt_stdio_input@@D@__crt_stdio_input@@YAHAEAV?$stream_input_adapter@D@0@QEAU__crt_locale_pointers@@@Z 0000000180047aa0 f i libucrt:input.obj
 0001:00046c80       ?advance@?$format_string_parser@D@__crt_stdio_input@@QEAA_NXZ 0000000180047c80 f i libucrt:input.obj
 0001:00046e48       ?as_double@floating_point_value@__crt_strtox@@QEBAAEANXZ 0000000180047e48 f i libucrt:input.obj
 0001:00046e84       ?as_float@floating_point_value@__crt_strtox@@QEBAAEAMXZ 0000000180047e84 f i libucrt:input.obj
 0001:00046ec0       ?assemble_floating_point_value@__crt_strtox@@YA?AW4SLD_STATUS@@_KH_N1AEBVfloating_point_value@1@@Z 0000000180047ec0 f i libucrt:input.obj
 0001:00047268       ?assemble_floating_point_value_from_big_integer@__crt_strtox@@YA?AW4SLD_STATUS@@AEBUbig_integer@1@I_N1AEBVfloating_point_value@1@@Z 0000000180048268 f i libucrt:input.obj
 0001:000473cc       ?convert_decimal_string_to_floating_type_common@__crt_strtox@@YA?AW4SLD_STATUS@@AEBUfloating_point_string@1@AEBVfloating_point_value@1@@Z 00000001800483cc f i libucrt:input.obj
 0001:0004914c       ?convert_hexadecimal_string_to_floating_type_common@__crt_strtox@@YA?AW4SLD_STATUS@@AEBUfloating_point_string@1@AEBVfloating_point_value@1@@Z 000000018004a14c f i libucrt:input.obj
 0001:00049200       ?divide@__crt_strtox@@YA_KAEAUbig_integer@1@AEBU21@@Z 000000018004a200 f i libucrt:input.obj
 0001:0004962c       ?length@?$format_string_parser@D@__crt_stdio_input@@QEBA_KXZ 000000018004a62c f i libucrt:input.obj
 0001:000496c8       ?process@?$input_processor@DV?$stream_input_adapter@D@__crt_stdio_input@@@__crt_stdio_input@@QEAAHXZ 000000018004a6c8 f i libucrt:input.obj
 0001:00049788       ?process_conversion_specifier@?$input_processor@DV?$stream_input_adapter@D@__crt_stdio_input@@@__crt_stdio_input@@AEAA_NXZ 000000018004a788 f i libucrt:input.obj
 0001:000498a4       ?process_floating_point_specifier@?$input_processor@DV?$stream_input_adapter@D@__crt_stdio_input@@@__crt_stdio_input@@AEAA_NXZ 000000018004a8a4 f i libucrt:input.obj
 0001:00049908       ?process_integer_specifier@?$input_processor@DV?$stream_input_adapter@D@__crt_stdio_input@@@__crt_stdio_input@@AEAA_NI_N@Z 000000018004a908 f i libucrt:input.obj
 0001:000499b4       ?process_literal_character_tchar@?$input_processor@DV?$stream_input_adapter@D@__crt_stdio_input@@@__crt_stdio_input@@AEAA_ND@Z 000000018004a9b4 f i libucrt:input.obj
 0001:00049a28       ?process_state@?$input_processor@DV?$stream_input_adapter@D@__crt_stdio_input@@@__crt_stdio_input@@AEAA_NXZ 000000018004aa28 f i libucrt:input.obj
 0001:00049ae4       ?process_string_specifier@?$input_processor@DV?$stream_input_adapter@D@__crt_stdio_input@@@__crt_stdio_input@@AEAA_NW4conversion_mode@2@@Z 000000018004aae4 f i libucrt:input.obj
 0001:00049b64       ?scan_conversion_specifier@?$format_string_parser@D@__crt_stdio_input@@AEAA_NXZ 000000018004ab64 f i libucrt:input.obj
 0001:00049d08       ?scan_optional_field_width@?$format_string_parser@D@__crt_stdio_input@@AEAA_NXZ 000000018004ad08 f i libucrt:input.obj
 0001:00049db0       ?scan_optional_length_modifier@?$format_string_parser@D@__crt_stdio_input@@AEAAXXZ 000000018004adb0 f i libucrt:input.obj
 0001:00049eec       ?scan_scanset_range@?$format_string_parser@D@__crt_stdio_input@@AEAA_NXZ 000000018004aeec f i libucrt:input.obj
 0001:0004a0a0       ?write_character@?$input_processor@DV?$stream_input_adapter@D@__crt_stdio_input@@@__crt_stdio_input@@AEAA_NQEFA_W_KAEAPEFA_WAEA_KD@Z 000000018004b0a0 f i libucrt:input.obj
 0001:0004a134       ?write_integer@?$input_processor@DV?$stream_input_adapter@D@__crt_stdio_input@@@__crt_stdio_input@@AEAA_N_K@Z 000000018004b134 f i libucrt:input.obj
 0001:0004a1a8       __stdio_common_vfscanf     000000018004b1a8 f   libucrt:input.obj
 0001:0004a4a8       _wdupenv_s                 000000018004b4a8 f   libucrt:getenv.obj
 0001:0004a4c8       _wgetenv                   000000018004b4c8 f   libucrt:getenv.obj
 0001:0004a4d0       _wsystem                   000000018004b4d0 f   libucrt:system.obj
 0001:0004a608       wcscmp                     000000018004b608 f   libucrt:wcscmp.obj
 0001:0004a640       _initterm                  000000018004b640 f   libucrt:initterm.obj
 0001:0004a6a4       _initterm_e                000000018004b6a4 f   libucrt:initterm.obj
 0001:0004a6e4       _seh_filter_dll            000000018004b6e4 f   libucrt:exception_filter.obj
 0001:0004a6f8       _seh_filter_exe            000000018004b6f8 f   libucrt:exception_filter.obj
 0001:0004aae8       __acrt_initialize_thread_local_exit_callback 000000018004bae8 f   libucrt:exit.obj
 0001:0004aaf0       _cexit                     000000018004baf0 f   libucrt:exit.obj
 0001:0004ab00       _exit                      000000018004bb00 f   libucrt:exit.obj
 0001:0004ab0c       _is_c_termination_complete 000000018004bb0c f   libucrt:exit.obj
 0001:0004acd8       __acrt_allocate_buffer_for_argv 000000018004bcd8 f   libucrt:argv_parsing.obj
 0001:0004ad38       _configure_narrow_argv     000000018004bd38 f   libucrt:argv_parsing.obj
 0001:0004b2e0       __dcrt_get_or_create_wide_environment_nolock 000000018004c2e0 f   libucrt:environment_initialization.obj
 0001:0004b31c       __dcrt_uninitialize_environments_nolock 000000018004c31c f   libucrt:environment_initialization.obj
 0001:0004b354       _initialize_narrow_environment 000000018004c354 f   libucrt:environment_initialization.obj
 0001:0004b4b0       _execute_onexit_table      000000018004c4b0 f   libucrt:onexit.obj
 0001:0004b4ec       _initialize_onexit_table   000000018004c4ec f   libucrt:onexit.obj
 0001:0004b54c       __acrt_uninitialize_command_line 000000018004c54c f   libucrt:argv_data.obj
 0001:0004b644       __acrt_initialize          000000018004c644 f   libucrt:initialization.obj
 0001:0004b658       __acrt_thread_attach       000000018004c658 f   libucrt:initialization.obj
 0001:0004b66c       __acrt_thread_detach       000000018004c66c f   libucrt:initialization.obj
 0001:0004b67c       __acrt_uninitialize        000000018004c67c f   libucrt:initialization.obj
 0001:0004b6b4       __acrt_uninitialize_critical 000000018004c6b4 f   libucrt:initialization.obj
 0001:0004b6c4       terminate                  000000018004c6c4 f   libucrt:terminate.obj
 0001:0004b8e8       strupr                     000000018004c8e8 f   libucrt:strupr.obj
 0001:0004b8e8       _strupr                    000000018004c8e8 f   libucrt:strupr.obj
 0001:0004b948       _strupr_s_l                000000018004c948 f   libucrt:strupr.obj
 0001:0004b994       strcpy_s                   000000018004c994 f   libucrt:strcpy_s.obj
 0001:0004b9f4       ??$parse_integer@KV?$c_string_character_source@D@__crt_strtox@@@__crt_strtox@@YAKQEAU__crt_locale_pointers@@V?$c_string_character_source@D@0@H_N@Z 000000018004c9f4 f i libucrt:atox.obj
 0001:0004bd30       ??$parse_integer@KV?$c_string_character_source@_W@__crt_strtox@@@__crt_strtox@@YAKQEAU__crt_locale_pointers@@V?$c_string_character_source@_W@0@H_N@Z 000000018004cd30 f i libucrt:atox.obj
 0001:0004c3e4       ??$parse_integer@_KV?$c_string_character_source@D@__crt_strtox@@@__crt_strtox@@YA_KQEAU__crt_locale_pointers@@V?$c_string_character_source@D@0@H_N@Z 000000018004d3e4 f i libucrt:atox.obj
 0001:0004c714       abort                      000000018004d714 f   libucrt:abort.obj
 0001:0004c76c       calloc                     000000018004d76c f   libucrt:calloc.obj
 0001:0004c774       wcsncmp                    000000018004d774 f   libucrt:wcsncmp.obj
 0001:0004c7a0       __acrt_call_reportfault    000000018004d7a0 f   libucrt:invalid_parameter.obj
 0001:0004c8fc       __acrt_initialize_invalid_parameter_handler 000000018004d8fc f   libucrt:invalid_parameter.obj
 0001:0004c904       _invalid_parameter         000000018004d904 f   libucrt:invalid_parameter.obj
 0001:0004c9b4       _invalid_parameter_noinfo  000000018004d9b4 f   libucrt:invalid_parameter.obj
 0001:0004c9d4       _invoke_watson             000000018004d9d4 f   libucrt:invalid_parameter.obj
 0001:0004ca7c       _tolower_l                 000000018004da7c f   libucrt:tolower_toupper.obj
 0001:0004cbbc       tolower                    000000018004dbbc f   libucrt:tolower_toupper.obj
 0001:0004cbe8       _free_base                 000000018004dbe8 f   libucrt:free_base.obj
 0001:0004cc28       _malloc_base               000000018004dc28 f   libucrt:malloc_base.obj
 0001:0004cc88       strtol                     000000018004dc88 f   libucrt:strtox.obj
 0001:0004ccb4       strtoull                   000000018004dcb4 f   libucrt:strtox.obj
 0001:0004cce0       wcstol                     000000018004dce0 f   libucrt:strtox.obj
 0001:0004cd0c       _mbtowc_l                  000000018004dd0c f   libucrt:mbtowc.obj
 0001:0004ce88       mbtowc                     000000018004de88 f   libucrt:mbtowc.obj
 0001:0004ce90       _wctomb_s_l                000000018004de90 f   libucrt:wctomb.obj
 0001:0004d030       wctomb_s                   000000018004e030 f   libucrt:wctomb.obj
 0001:0004d044       strnlen                    000000018004e044 f   libucrt:strnlen.obj
 0001:0004d194       wcsnlen                    000000018004e194 f   libucrt:strnlen.obj
 0001:0004d6e4       __acrt_freeptd             000000018004e6e4 f   libucrt:per_thread_data.obj
 0001:0004d728       __acrt_getptd              000000018004e728 f   libucrt:per_thread_data.obj
 0001:0004d7fc       __acrt_getptd_head         000000018004e7fc f   libucrt:per_thread_data.obj
 0001:0004d8a4       __acrt_getptd_noexit       000000018004e8a4 f   libucrt:per_thread_data.obj
 0001:0004d970       __acrt_initialize_ptd      000000018004e970 f   libucrt:per_thread_data.obj
 0001:0004d9ac       __acrt_uninitialize_ptd    000000018004e9ac f   libucrt:per_thread_data.obj
 0001:0004d9d0       __acrt_update_locale_info  000000018004e9d0 f   libucrt:locale_update.obj
 0001:0004da04       __acrt_update_multibyte_info 000000018004ea04 f   libucrt:locale_update.obj
 0001:0004e40c       __acrt_fp_format           000000018004f40c f   libucrt:cvt.obj
 0001:0004e694       _fileno                    000000018004f694 f   libucrt:fileno.obj
 0001:0004e6bc       _fputc_nolock              000000018004f6bc f   libucrt:fputc.obj
 0001:0004e6d4       _get_printf_count_output   000000018004f6d4 f   libucrt:printf_count_output.obj
 0001:0004e6ec       __acrt_stdio_begin_temporary_buffering_nolock 000000018004f6ec f   libucrt:_sftbuf.obj
 0001:0004e7bc       __acrt_stdio_end_temporary_buffering_nolock 000000018004f7bc f   libucrt:_sftbuf.obj
 0001:0004e868       __acrt_set_locale_changed  000000018004f868 f   libucrt:wsetlocale.obj
 0001:0004e874       __acrt_uninitialize_locale 000000018004f874 f   libucrt:wsetlocale.obj
 0001:0004eaa0       __acrt_initialize_lowio    000000018004faa0 f   libucrt:ioinit.obj
 0001:0004eadc       __acrt_uninitialize_lowio  000000018004fadc f   libucrt:ioinit.obj
 0001:0004eb1c       wcscpy_s                   000000018004fb1c f   libucrt:wcscpy_s.obj
 0001:0004eb84       ?__acrt_stdio_allocate_stream@@YA?AV__crt_stdio_stream@@XZ 000000018004fb84 f   libucrt:stream.obj
 0001:0004ebdc       ?__acrt_stdio_free_stream@@YAXV__crt_stdio_stream@@@Z 000000018004fbdc f   libucrt:stream.obj
 0001:0004ece4       ??$__acrt_stdio_parse_mode@_W@@YA?AU__acrt_stdio_stream_mode@@QEB_W@Z 000000018004fce4 f i libucrt:openfile.obj
 0001:0004efe8       _wopenfile                 000000018004ffe8 f   libucrt:openfile.obj
 0001:0004f0f8       _close                     00000001800500f8 f   libucrt:close.obj
 0001:0004f19c       _close_nolock              000000018005019c f   libucrt:close.obj
 0001:0004f25c       __acrt_stdio_free_buffer_nolock 000000018005025c f   libucrt:_freebuf.obj
 0001:0004f2b0       _get_fpsr                  00000001800502b0 f   libucrt:fpsr.obj
 0001:0004f2c0       _set_fpsr                  00000001800502c0 f   libucrt:fpsr.obj
 0001:0004f2ca       _fclrf                     00000001800502ca f   libucrt:fpsr.obj
 0001:0004f2de       _frnd                      00000001800502de f   libucrt:fpsr.obj
 0001:0004f300       _calloc_base               0000000180050300 f   libucrt:calloc_base.obj
 0001:0004f378       __sys_errlist              0000000180050378 f   libucrt:syserr.obj
 0001:0004f380       __sys_nerr                 0000000180050380 f   libucrt:syserr.obj
 0001:0004f388       strncpy_s                  0000000180050388 f   libucrt:strncpy_s.obj
 0001:0004f634       __acrt_AppPolicyGetProcessTerminationMethodInternal 0000000180050634 f   libucrt:winapi_thunks.obj
 0001:0004f684       __acrt_AreFileApisANSI     0000000180050684 f   libucrt:winapi_thunks.obj
 0001:0004f6c0       __acrt_CompareStringEx     00000001800506c0 f   libucrt:winapi_thunks.obj
 0001:0004f79c       __acrt_FlsAlloc            000000018005079c f   libucrt:winapi_thunks.obj
 0001:0004f7e4       __acrt_FlsFree             00000001800507e4 f   libucrt:winapi_thunks.obj
 0001:0004f82c       __acrt_FlsGetValue         000000018005082c f   libucrt:winapi_thunks.obj
 0001:0004f874       __acrt_FlsSetValue         0000000180050874 f   libucrt:winapi_thunks.obj
 0001:0004f8c8       __acrt_InitializeCriticalSectionEx 00000001800508c8 f   libucrt:winapi_thunks.obj
 0001:0004f92c       __acrt_LCMapStringEx       000000018005092c f   libucrt:winapi_thunks.obj
 0001:0004fa08       __acrt_LocaleNameToLCID    0000000180050a08 f   libucrt:winapi_thunks.obj
 0001:0004fa58       __acrt_initialize_winapi_thunks 0000000180050a58 f   libucrt:winapi_thunks.obj
 0001:0004fa8c       __acrt_uninitialize_winapi_thunks 0000000180050a8c f   libucrt:winapi_thunks.obj
 0001:0004fad0       _fcloseall                 0000000180050ad0 f   libucrt:closeall.obj
 0001:00050158       _read                      0000000180051158 f   libucrt:read.obj
 0001:00050274       _read_nolock               0000000180051274 f   libucrt:read.obj
 0001:000506cc       __acrt_stdio_refill_and_read_narrow_nolock 00000001800516cc f   libucrt:_filbuf.obj
 0001:00050ba4       _lseek                     0000000180051ba4 f   libucrt:lseek.obj
 0001:00050bac       _lseeki64                  0000000180051bac f   libucrt:lseek.obj
 0001:00050bb4       _lseeki64_nolock           0000000180051bb4 f   libucrt:lseek.obj
 0001:00050bbc       __acrt_stdio_allocate_buffer_nolock 0000000180051bbc f   libucrt:_getbuf.obj
 0001:00050c24       __acrt_GetStringTypeW      0000000180051c24 f   libucrt:getstringtypew.obj
 0001:00050c2c       __pctype_func              0000000180051c2c f   libucrt:ctype.obj
 0001:00050c5c       _isctype_l                 0000000180051c5c f   libucrt:isctype.obj
 0001:00050d6c       _towlower_l                0000000180051d6c f   libucrt:towlower.obj
 0001:00050e30       _recalloc_base             0000000180051e30 f   libucrt:recalloc.obj
 0001:00050ec8       wcscat_s                   0000000180051ec8 f   libucrt:wcscat_s.obj
 0001:00050f48       _cwait                     0000000180051f48 f   libucrt:wait.obj
 0001:00051000       __acrt_wgetpath            0000000180052000 f   libucrt:getpath.obj
 0001:000510f4       ??$__acrt_mbs_to_wcs_cp@U__crt_win32_buffer_internal_dynamic_resizing@@@@YAHQEBDAEAV?$__crt_win32_buffer@_WU__crt_win32_buffer_internal_dynamic_resizing@@@@I@Z 00000001800520f4 f i libucrt:createprocessa.obj
 0001:0005126c       __acrt_initialize_locks    000000018005226c f   libucrt:locks.obj
 0001:000512b4       __acrt_lock                00000001800522b4 f   libucrt:locks.obj
 0001:000512d0       __acrt_uninitialize_locks  00000001800522d0 f   libucrt:locks.obj
 0001:00051308       __acrt_unlock              0000000180052308 f   libucrt:locks.obj
 0001:00051324       _waccess_s                 0000000180052324 f   libucrt:waccess.obj
 0001:000513d0       _pipe                      00000001800523d0 f   libucrt:pipe.obj
 0001:00051760       _wfdopen                   0000000180052760 f   libucrt:fdopen.obj
 0001:000517f4       _commit                    00000001800527f4 f   libucrt:commit.obj
 0001:000520f4       _write                     00000001800530f4 f   libucrt:write.obj
 0001:000521e0       _write_nolock              00000001800531e0 f   libucrt:write.obj
 0001:00052618       __acrt_stdio_flush_and_write_narrow_nolock 0000000180053618 f   libucrt:_flsbuf.obj
 0001:00052838       _ui64toa_s                 0000000180053838 f   libucrt:xtoa.obj
 0001:0005284c       _strdup                    000000018005384c f   libucrt:strdup.obj
 0001:000528c4       __acrt_GetTempPathA        00000001800538c4 f   libucrt:gettemppath.obj
 0001:00053058       _sopen_nolock              0000000180054058 f   libucrt:open.obj
 0001:00053170       _sopen_s                   0000000180054170 f   libucrt:open.obj
 0001:000531a4       _wsopen_nolock             00000001800541a4 f   libucrt:open.obj
 0001:0005358c       _wsopen_s                  000000018005458c f   libucrt:open.obj
 0001:000535c0       __acrt_uninitialize_tmpfile 00000001800545c0 f   libucrt:rmtmp.obj
 0001:000535d4       _rmtmp                     00000001800545d4 f   libucrt:rmtmp.obj
 0001:00053668       fegetround                 0000000180054668 f   libucrt:fegetround.obj
 0001:0005367c       _wcsnicoll                 000000018005467c f   libucrt:wcsnicol.obj
 0001:0005372c       _wcsnicoll_l               000000018005472c f   libucrt:wcsnicol.obj
 0001:00053fb4       _wspawnve                  0000000180054fb4 f   libucrt:spawnv.obj
 0001:000542e4       _wspawnvpe                 00000001800552e4 f   libucrt:spawnvp.obj
 0001:000542ec       __acrt_get_process_end_policy 00000001800552ec f   libucrt:win_policies.obj
 0001:0005433c       ??$__acrt_wcs_to_mbs_cp@U__crt_win32_buffer_internal_dynamic_resizing@@@@YAHQEB_WAEAV?$__crt_win32_buffer@DU__crt_win32_buffer_internal_dynamic_resizing@@@@I@Z 000000018005533c f i libucrt:argv_wildcards.obj
 0001:00054b6c       __acrt_expand_narrow_argv_wildcards 0000000180055b6c f   libucrt:argv_wildcards.obj
 0001:00054b74       ??$__acrt_wcs_to_mbs_cp@U__crt_win32_buffer_no_resizing@@@@YAHQEB_WAEAV?$__crt_win32_buffer@DU__crt_win32_buffer_no_resizing@@@@I@Z 0000000180055b74 f i libucrt:getmodulefilenamea.obj
 0001:00054c88       __acrt_GetModuleFileNameA  0000000180055c88 f   libucrt:getmodulefilenamea.obj
 0001:000554d4       __acrt_initialize_multibyte 00000001800564d4 f   libucrt:mbctype.obj
 0001:00055534       __acrt_update_thread_multibyte_data 0000000180056534 f   libucrt:mbctype.obj
 0001:00055550       _setmbcp_nolock            0000000180056550 f   libucrt:mbctype.obj
 0001:00055884       _ismbblead                 0000000180056884 f   libucrt:ismbbyte.obj
 0001:00055898       __acrt_initialize_command_line 0000000180056898 f   libucrt:argv_data.obj
 0001:000558c0       __acrt_MultiByteToWideChar 00000001800568c0 f   libucrt:multibytetowidechar.obj
 0001:0005591c       __acrt_WideCharToMultiByte 000000018005691c f   libucrt:widechartomultibyte.obj
 0001:000559b4       __dcrt_get_narrow_environment_from_os 00000001800569b4 f   libucrt:get_environment_from_os.obj
 0001:00055ab8       __dcrt_get_wide_environment_from_os 0000000180056ab8 f   libucrt:get_environment_from_os.obj
 0001:00055f6c       __dcrt_set_variable_in_wide_environment_nolock 0000000180056f6c f   libucrt:setenv.obj
 0001:00055f74       __acrt_initialize_heap     0000000180056f74 f   libucrt:heap_handle.obj
 0001:00055f90       __acrt_uninitialize_heap   0000000180056f90 f   libucrt:heap_handle.obj
 0001:00055f9c       __acrt_execute_initializers 0000000180056f9c f   libucrt:shared_initialization.obj
 0001:0005601c       __acrt_execute_uninitializers 000000018005701c f   libucrt:shared_initialization.obj
 0001:00056058       __acrt_initialize_new_handler 0000000180057058 f   libucrt:new_handler.obj
 0001:00056060       _callnewh                  0000000180057060 f   libucrt:new_handler.obj
 0001:00056090       _query_new_handler         0000000180057090 f   libucrt:new_handler.obj
 0001:0005610c       __acrt_get_sigabrt_handler 000000018005710c f   libucrt:signal.obj
 0001:0005613c       __acrt_initialize_signal_handlers 000000018005713c f   libucrt:signal.obj
 0001:0005615c       raise                      000000018005715c f   libucrt:signal.obj
 0001:000563c8       __acrt_has_user_matherr    00000001800573c8 f   libucrt:matherr.obj
 0001:000563e8       __acrt_initialize_user_matherr 00000001800573e8 f   libucrt:matherr.obj
 0001:000563f0       __acrt_invoke_user_matherr 00000001800573f0 f   libucrt:matherr.obj
 0001:00056738       __acrt_LCMapStringA        0000000180057738 f   libucrt:lcmapstringa.obj
 0001:000567d0       _isleadbyte_l              00000001800577d0 f i libucrt:_wctype.obj
 0001:0005681c       _query_new_mode            000000018005781c f   libucrt:new_mode.obj
 0001:00056824       ?__mbrtowc_utf8@__crt_mbstring@@YA_KPEA_WPEBD_KPEAU_Mbstatet@@@Z 0000000180057824 f   libucrt:mbrtowc.obj
 0001:00056860       ?__mbsrtowcs_utf8@__crt_mbstring@@YA_KPEA_WPEAPEBD_KPEAU_Mbstatet@@@Z 0000000180057860 f   libucrt:mbrtowc.obj
 0001:000569d8       ?__c32rtomb_utf8@__crt_mbstring@@YA_KPEAD_UPEAU_Mbstatet@@@Z 00000001800579d8 f   libucrt:c32rtomb.obj
 0001:00056a90       __acrt_add_locale_ref      0000000180057a90 f   libucrt:locale_refcounting.obj
 0001:00056b1c       __acrt_free_locale         0000000180057b1c f   libucrt:locale_refcounting.obj
 0001:00056c94       __acrt_locale_add_lc_time_reference 0000000180057c94 f   libucrt:locale_refcounting.obj
 0001:00056cbc       __acrt_locale_free_lc_time_if_unreferenced 0000000180057cbc f   libucrt:locale_refcounting.obj
 0001:00056cf4       __acrt_locale_release_lc_time_reference 0000000180057cf4 f   libucrt:locale_refcounting.obj
 0001:00056d1c       __acrt_release_locale_ref  0000000180057d1c f   libucrt:locale_refcounting.obj
 0001:00056dc4       __acrt_update_thread_locale_data 0000000180057dc4 f   libucrt:locale_refcounting.obj
 0001:00056e34       _updatetlocinfoEx_nolock   0000000180057e34 f   libucrt:locale_refcounting.obj
 0001:00056e9c       __acrt_fp_strflt_to_string 0000000180057e9c f   libucrt:_fptostr.obj
 0001:00056f80       __acrt_fltout              0000000180057f80 f   libucrt:cfout.obj
 0001:000581b4       _isatty                    00000001800591b4 f   libucrt:isatty.obj
 0001:00058214       __acrt_locale_free_monetary 0000000180059214 f   libucrt:initmon.obj
 0001:00058320       __acrt_locale_free_numeric 0000000180059320 f   libucrt:initnum.obj
 0001:000583e4       __acrt_locale_free_time    00000001800593e4 f   libucrt:inittime.obj
 0001:000584ec       __acrt_GetStringTypeA      00000001800594ec f   libucrt:getstringtypea.obj
 0001:0005867c       __acrt_lowio_create_handle_array 000000018005967c f   libucrt:osfinfo.obj
 0001:00058724       __acrt_lowio_destroy_handle_array 0000000180059724 f   libucrt:osfinfo.obj
 0001:00058774       __acrt_lowio_ensure_fh_exists 0000000180059774 f   libucrt:osfinfo.obj
 0001:0005881c       __acrt_lowio_lock_fh       000000018005981c f   libucrt:osfinfo.obj
 0001:00058844       __acrt_lowio_set_os_handle 0000000180059844 f   libucrt:osfinfo.obj
 0001:00058904       __acrt_lowio_unlock_fh     0000000180059904 f   libucrt:osfinfo.obj
 0001:0005892c       _alloc_osfhnd              000000018005992c f   libucrt:osfinfo.obj
 0001:00058a6c       _free_osfhnd               0000000180059a6c f   libucrt:osfinfo.obj
 0001:00058b28       _get_osfhandle             0000000180059b28 f   libucrt:osfinfo.obj
 0001:00058ba0       _wcsnicmp                  0000000180059ba0 f   libucrt:wcsnicmp.obj
 0001:00058c4c       _wcsnicmp_l                0000000180059c4c f   libucrt:wcsnicmp.obj
 0001:00058e5c       __acrt_DownlevelLocaleNameToLCID 0000000180059e5c f   libucrt:lcidtoname_downlevel.obj
 0001:00058e90       __acrt_LCMapStringW        0000000180059e90 f   libucrt:lcmapstringw.obj
 0001:00058f18       _msize_base                0000000180059f18 f   libucrt:msize.obj
 0001:00058f54       _realloc_base              0000000180059f54 f   libucrt:realloc_base.obj
 0001:00058fd0       _get_fmode                 0000000180059fd0 f   libucrt:setmode.obj
 0001:00059000       _setmode_nolock            000000018005a000 f   libucrt:setmode.obj
 0001:000590e0       _putwch_nolock             000000018005a0e0 f   libucrt:putwch.obj
 0001:0005911c       _chsize_nolock             000000018005a11c f   libucrt:chsize.obj
 0001:00059288       __acrt_fenv_get_common_round_control 000000018005a288 f   libucrt:_fenvutils.obj
 0001:00059294       __acrt_fenv_get_control    000000018005a294 f   libucrt:_fenvutils.obj
 0001:00059388       __acrt_fenv_get_status     000000018005a388 f   libucrt:_fenvutils.obj
 0001:000593dc       __acrt_fenv_set_control    000000018005a3dc f   libucrt:_fenvutils.obj
 0001:00059524       __acrt_fenv_set_status     000000018005a524 f   libucrt:_fenvutils.obj
 0001:000595a8       __acrt_CompareStringW      000000018005a5a8 f   libucrt:comparestringw.obj
 0001:00059988       __acrt_pack_wide_command_line_and_environment 000000018005a988 f   libucrt:cenvarg.obj
 0001:00059b10       qsort                      000000018005ab10 f   libucrt:qsort.obj
 0001:00059ed0       _mbsdec                    000000018005aed0 f   libucrt:mbsdec.obj
 0001:00059ed8       _mbsdec_l                  000000018005aed8 f   libucrt:mbsdec.obj
 0001:00059f84       __strncnt                  000000018005af84 f   libucrt:strncnt.obj
 0001:00059f9c       ?__mbrtoc32_utf8@__crt_mbstring@@YA_KPEA_UPEBD_KPEAU_Mbstatet@@@Z 000000018005af9c f   libucrt:mbrtoc32.obj
 0001:0005a178       fegetenv                   000000018005b178 f   libucrt:fegetenv.obj
 0001:0005a198       fesetenv                   000000018005b198 f   libucrt:fesetenv.obj
 0001:0005a1e8       feholdexcept               000000018005b1e8 f   libucrt:feholdexcept.obj
 0001:0005a238       ceil                       000000018005b238 f   libucrt:ceil.obj
 0001:0005a300       log10                      000000018005b300 f   libucrt:log10.obj
 0001:0005a8ac       _query_app_type            000000018005b8ac f   libucrt:report_runtime_error.obj
 0001:0005a8b4       __dcrt_lowio_ensure_console_output_initialized 000000018005b8b4 f   libucrt:initcon.obj
 0001:0005a908       __dcrt_terminate_console_output 000000018005b908 f   libucrt:initcon.obj
 0001:0005a924       __dcrt_write_console       000000018005b924 f   libucrt:initcon.obj
 0001:0005ab08       _handle_error              000000018005bb08 f   libucrt:libm_error.obj
 0001:0005ac30       _handle_nan                000000018005bc30 f   libucrt:libm_error.obj
 0001:0005ac50       __acrt_initialize_fma3     000000018005bc50 f   libucrt:fma3_available.obj
 0001:0005acc0       _log10_special             000000018005bcc0 f   libucrt:log_special.obj
 0001:0005ad78       _raise_exc                 000000018005bd78 f   libucrt:fpexcept.obj
 0001:0005ada0       _raise_exc_ex              000000018005bda0 f   libucrt:fpexcept.obj
 0001:0005b0b0       _set_errno_from_matherr    000000018005c0b0 f   libucrt:fpexcept.obj
 0001:0005b0e0       _clrfp                     000000018005c0e0 f   libucrt:fpctrl.obj
 0001:0005b100       _ctrlfp                    000000018005c100 f   libucrt:fpctrl.obj
 0001:0005b17c       _set_statfp                000000018005c17c f   libucrt:fpctrl.obj
 0001:0005b19c       _statfp                    000000018005c19c f   libucrt:fpctrl.obj
 0001:0005b1ad       IsProcessorFeaturePresent  000000018005c1ad f   kernel32:KERNEL32.dll
 0001:0005b1c0       _FindPESection             000000018005c1c0 f   LIBCMT:pesect.obj
 0001:0005b210       _IsNonwritableInCurrentImage 000000018005c210 f   LIBCMT:pesect.obj
 0001:0005b260       _ValidateImageBase         000000018005c260 f   LIBCMT:pesect.obj
 0001:0005b290       __GSHandlerCheck           000000018005c290 f   LIBCMT:gshandler.obj
 0001:0005b2b0       __GSHandlerCheckCommon     000000018005c2b0 f   LIBCMT:gshandler.obj
 0001:0005b320       __security_check_cookie    000000018005c320 f   LIBCMT:amdsecgs.obj
 0001:0005b344       __GSHandlerCheck_SEH       000000018005c344 f   LIBCMT:gshandlerseh.obj
 0001:0005b3cc       __raise_securityfailure    000000018005c3cc f   LIBCMT:gs_report.obj
 0001:0005b400       __report_gsfailure         000000018005c400 f   LIBCMT:gs_report.obj
 0001:0005b4d4       __report_rangecheckfailure 000000018005c4d4 f   LIBCMT:gs_report.obj
 0001:0005b4e8       __report_securityfailure   000000018005c4e8 f   LIBCMT:gs_report.obj
 0001:0005b668       _local_unwind              000000018005c668 f   libvcruntime:jmpuwind.obj
 0001:0005b6b0       _guard_dispatch_icall_nop  000000018005c6b0 f   LIBCMT:guard_dispatch.obj
 0002:00000000       Keys                       0000000180061000     flags.obj
 0002:00001650       VirtualKeyStrings          0000000180062650     service.obj
 0002:000054fc       _fltused                   00000001800664fc     LIBCMT:fltused.obj
 0002:00005500       __scrt_native_dllmain_reason 0000000180066500     LIBCMT:utility.obj
 0002:00005508       __security_cookie_complement 0000000180066508     LIBCMT:gs_cookie.obj
 0002:00005510       __security_cookie          0000000180066510     LIBCMT:gs_cookie.obj
 0002:00005518       __isa_available            0000000180066518     LIBCMT:cpu_disp.obj
 0002:0000551c       __isa_enabled              000000018006651c     LIBCMT:cpu_disp.obj
 0002:00005520       __memcpy_nt_iters          0000000180066520     LIBCMT:cpu_disp.obj
 0002:00005550       _iob                       0000000180066550     libucrt:_file.obj
 0002:00005660       __abort_behavior           0000000180066660     libucrt:abort.obj
 0002:00005670       __acrt_initial_locale_data 0000000180066670     libucrt:nlsdata.obj
 0002:000057c8       __acrt_initial_locale_pointers 00000001800667c8     libucrt:nlsdata.obj
 0002:000057d8       __acrt_wide_c_locale_string 00000001800667d8     libucrt:nlsdata.obj
 0002:000057e0       __badioinfo                00000001800667e0     libucrt:ioinit.obj
 0002:00005830       _lookuptrailbytes          0000000180066830     libucrt:read.obj
 0002:00005930       _pwctype                   0000000180066930     libucrt:ctype.obj
 0002:00005c50       __acrt_initial_multibyte_data 0000000180066c50     libucrt:mbctype.obj
 0002:00005e78       __globallocalestatus       0000000180066e78     libucrt:glstatus.obj
 0002:00005e80       __acrt_lconv_c             0000000180066e80     libucrt:localeconv.obj
 0002:00005f18       __acrt_lconv_static_decimal 0000000180066f18     libucrt:localeconv.obj
 0002:00005f1c       __acrt_lconv_static_W_decimal 0000000180066f1c     libucrt:localeconv.obj
 0002:00005f60       ?__type_info_root_node@@3U__type_info_node@@A 0000000180066f60     LIBCMT:tncleanup.obj
 0002:00005f70       __scrt_current_native_startup_state 0000000180066f70     LIBCMT:utility.obj
 0002:00005f78       __scrt_native_startup_lock 0000000180066f78     LIBCMT:utility.obj
 0002:00005fb8       __scrt_debugger_hook_flag  0000000180066fb8     LIBCMT:utility_desktop.obj
 0002:00005fbc       __favor                    0000000180066fbc     LIBCMT:cpu_disp.obj
 0002:00005fc0       ?__WinRTOutOfMemoryExceptionCallback@@3P6APEAXXZEA 0000000180066fc0     libvcruntime:ehhelpers.obj
 0002:00005fc8       ?pArgList@UnDecorator@@0PEAVReplicator@@EA 0000000180066fc8     libvcruntime:undname.obj
 0002:00005fd0       ?pZNameList@UnDecorator@@0PEAVReplicator@@EA 0000000180066fd0     libvcruntime:undname.obj
 0002:00005fd8       ?pTemplateArgList@UnDecorator@@0PEAVReplicator@@EA 0000000180066fd8     libvcruntime:undname.obj
 0002:00005fe0       ?gName@UnDecorator@@0PEBDEB 0000000180066fe0     libvcruntime:undname.obj
 0002:00005fe8       ?name@UnDecorator@@0PEBDEB 0000000180066fe8     libvcruntime:undname.obj
 0002:00005ff0       ?disableFlags@UnDecorator@@0KA 0000000180066ff0     libvcruntime:undname.obj
 0002:00005ff4       ?fExplicitTemplateParams@UnDecorator@@0_NA 0000000180066ff4     libvcruntime:undname.obj
 0002:00005ff5       ?fGetTemplateArgumentList@UnDecorator@@0_NA 0000000180066ff5     libvcruntime:undname.obj
 0002:00005ff8       ?m_pGetParameter@UnDecorator@@0P6APEADJ@ZEA 0000000180066ff8     libvcruntime:undname.obj
 0002:00006000       ?m_CHPENameOffset@UnDecorator@@0KA 0000000180067000     libvcruntime:undname.obj
 0002:00006004       ?m_recursionLevel@UnDecorator@@0KA 0000000180067004     libvcruntime:undname.obj
 0002:00006130       __pPurecall                0000000180067130     libvcruntime:purevirt_data.obj
 0002:00006138       _nstream                   0000000180067138     libucrt:_file.obj
 0002:00006140       __piob                     0000000180067140     libucrt:_file.obj
 0002:00006148       _cflush                    0000000180067148     libucrt:_file.obj
 0002:000061a0       ?c_exit_complete@?1???R<lambda_6e4b09c48022b2350581041d5f6b0c4c>@@QEBA@XZ@4_NA 00000001800671a0     libucrt:exit.obj
 0002:000062b8       _environ_table             00000001800672b8     libucrt:environment_initialization.obj
 0002:000062c0       _wenviron_table            00000001800672c0     libucrt:environment_initialization.obj
 0002:000062c8       __dcrt_initial_wide_environment 00000001800672c8     libucrt:environment_initialization.obj
 0002:000062d0       __dcrt_initial_narrow_environment 00000001800672d0     libucrt:environment_initialization.obj
 0002:000062d8       __acrt_atexit_table        00000001800672d8     libucrt:onexit.obj
 0002:000062f0       __acrt_at_quick_exit_table 00000001800672f0     libucrt:onexit.obj
 0002:00006320       __acrt_stdout_buffer       0000000180067320     libucrt:_sftbuf.obj
 0002:00006328       __acrt_stderr_buffer       0000000180067328     libucrt:_sftbuf.obj
 0002:00006330       __acrt_locale_changed_data 0000000180067330     libucrt:wsetlocale.obj
 0002:00006338       __acrt_current_locale_data 0000000180067338     libucrt:nlsdata.obj
 0002:00006340       __pioinfo                  0000000180067340     libucrt:ioinit.obj
 0002:00006740       _nhandle                   0000000180067740     libucrt:ioinit.obj
 0002:00006b34       _commode                   0000000180067b34     libucrt:ncommode.obj
 0002:00006b38       _mbctype                   0000000180067b38     libucrt:mbctype.obj
 0002:00006b40       _mbcasemap                 0000000180067b40     libucrt:mbctype.obj
 0002:00006b48       __acrt_current_multibyte_data 0000000180067b48     libucrt:mbctype.obj
 0002:00006b58       _pgmptr                    0000000180067b58     libucrt:argv_data.obj
 0002:00006b60       __argc                     0000000180067b60     libucrt:argv_data.obj
 0002:00006b68       __argv                     0000000180067b68     libucrt:argv_data.obj
 0002:00006b70       __wargv                    0000000180067b70     libucrt:argv_data.obj
 0002:00006b78       _acmdln                    0000000180067b78     libucrt:argv_data.obj
 0002:00006b80       _wcmdln                    0000000180067b80     libucrt:argv_data.obj
 0002:00006b88       __acrt_heap                0000000180067b88     libucrt:heap_handle.obj
 0002:00006bc4       __acrt_lconv_static_null   0000000180067bc4     libucrt:localeconv.obj
 0002:00006bc8       __acrt_lconv_static_W_null 0000000180067bc8     libucrt:localeconv.obj
 0002:00006bcc       _umaskval                  0000000180067bcc     libucrt:umask.obj
 0002:00006bdc       _fmode                     0000000180067bdc     libucrt:txtmode.obj
 0002:00006be0       __fma3_is_available        0000000180067be0     libucrt:fma3_available.obj
 0002:00006be4       __use_fma3_lib             0000000180067be4     libucrt:fma3_available.obj
 0002:00007160       EnumCP                     0000000180068160     <common>
 0002:00007170       ?_OptionsStorage@?1??__local_stdio_scanf_options@@9@9 0000000180068170     <common>
 0002:00007178       ?_OptionsStorage@?1??__local_stdio_printf_options@@9@9 0000000180068178     <common>
 0002:00007180       __scrt_ucrt_dll_is_in_use  0000000180068180     <common>
 0002:00007188       __dyn_tls_init_callback    0000000180068188     <common>
 0004:00000000       __imp_RegEnumValueW        000000018006d000     advapi32:ADVAPI32.dll
 0004:00000008       __imp_RegEnumKeyExW        000000018006d008     advapi32:ADVAPI32.dll
 0004:00000010       __imp_RegDeleteValueW      000000018006d010     advapi32:ADVAPI32.dll
 0004:00000018       __imp_RegDeleteKeyW        000000018006d018     advapi32:ADVAPI32.dll
 0004:00000020       __imp_RegSetValueExW       000000018006d020     advapi32:ADVAPI32.dll
 0004:00000028       __imp_RegQueryValueExW     000000018006d028     advapi32:ADVAPI32.dll
 0004:00000030       __imp_RegOpenKeyExW        000000018006d030     advapi32:ADVAPI32.dll
 0004:00000038       __imp_RegCreateKeyExW      000000018006d038     advapi32:ADVAPI32.dll
 0004:00000040       __imp_RegCloseKey          000000018006d040     advapi32:ADVAPI32.dll
 0004:00000048       \177ADVAPI32_NULL_THUNK_DATA 000000018006d048     advapi32:ADVAPI32.dll
 0004:00000050       __imp_GetConsoleScreenBufferInfo 000000018006d050     kernel32:KERNEL32.dll
 0004:00000058       __imp_FreeLibrary          000000018006d058     kernel32:KERNEL32.dll
 0004:00000060       __imp_GetModuleFileNameW   000000018006d060     kernel32:KERNEL32.dll
 0004:00000068       __imp_LoadLibraryW         000000018006d068     kernel32:KERNEL32.dll
 0004:00000070       __imp_SetCurrentDirectoryW 000000018006d070     kernel32:KERNEL32.dll
 0004:00000078       __imp_GetCurrentDirectoryW 000000018006d078     kernel32:KERNEL32.dll
 0004:00000080       __imp_SearchPathW          000000018006d080     kernel32:KERNEL32.dll
 0004:00000088       __imp_GetDriveTypeW        000000018006d088     kernel32:KERNEL32.dll
 0004:00000090       __imp_GetLogicalDriveStringsW 000000018006d090     kernel32:KERNEL32.dll
 0004:00000098       __imp_SetFileAttributesW   000000018006d098     kernel32:KERNEL32.dll
 0004:000000a0       __imp_OutputDebugStringW   000000018006d0a0     kernel32:KERNEL32.dll
 0004:000000a8       __imp_GetLastError         000000018006d0a8     kernel32:KERNEL32.dll
 0004:000000b0       __imp_Sleep                000000018006d0b0     kernel32:KERNEL32.dll
 0004:000000b8       __imp_GlobalMemoryStatusEx 000000018006d0b8     kernel32:KERNEL32.dll
 0004:000000c0       __imp_FormatMessageW       000000018006d0c0     kernel32:KERNEL32.dll
 0004:000000c8       __imp_MultiByteToWideChar  000000018006d0c8     kernel32:KERNEL32.dll
 0004:000000d0       __imp_WideCharToMultiByte  000000018006d0d0     kernel32:KERNEL32.dll
 0004:000000d8       __imp_GetACP               000000018006d0d8     kernel32:KERNEL32.dll
 0004:000000e0       __imp_GetOEMCP             000000018006d0e0     kernel32:KERNEL32.dll
 0004:000000e8       __imp_GetCPInfoExW         000000018006d0e8     kernel32:KERNEL32.dll
 0004:000000f0       __imp_EnumSystemCodePagesW 000000018006d0f0     kernel32:KERNEL32.dll
 0004:000000f8       __imp_GetProcAddress       000000018006d0f8     kernel32:KERNEL32.dll
 0004:00000100       __imp_GetConsoleOutputCP   000000018006d100     kernel32:KERNEL32.dll
 0004:00000108       __imp_SetConsoleCP         000000018006d108     kernel32:KERNEL32.dll
 0004:00000110       __imp_SetConsoleOutputCP   000000018006d110     kernel32:KERNEL32.dll
 0004:00000118       __imp_SetEnvironmentVariableW 000000018006d118     kernel32:KERNEL32.dll
 0004:00000120       __imp_CreateDirectoryW     000000018006d120     kernel32:KERNEL32.dll
 0004:00000128       __imp_DeleteFileW          000000018006d128     kernel32:KERNEL32.dll
 0004:00000130       __imp_FileTimeToLocalFileTime 000000018006d130     kernel32:KERNEL32.dll
 0004:00000138       __imp_FindClose            000000018006d138     kernel32:KERNEL32.dll
 0004:00000140       __imp_FindFirstFileW       000000018006d140     kernel32:KERNEL32.dll
 0004:00000148       __imp_RemoveDirectoryW     000000018006d148     kernel32:KERNEL32.dll
 0004:00000150       __imp_GetSystemTimeAsFileTime 000000018006d150     kernel32:KERNEL32.dll
 0004:00000158       __imp_GetModuleHandleW     000000018006d158     kernel32:KERNEL32.dll
 0004:00000160       __imp_CopyFileW            000000018006d160     kernel32:KERNEL32.dll
 0004:00000168       __imp_MoveFileExW          000000018006d168     kernel32:KERNEL32.dll
 0004:00000170       __imp_FileTimeToSystemTime 000000018006d170     kernel32:KERNEL32.dll
 0004:00000178       __imp_SystemTimeToFileTime 000000018006d178     kernel32:KERNEL32.dll
 0004:00000180       __imp_CompareStringW       000000018006d180     kernel32:KERNEL32.dll
 0004:00000188       __imp_ReadConsoleInputW    000000018006d188     kernel32:KERNEL32.dll
 0004:00000190       __imp_PeekConsoleInputW    000000018006d190     kernel32:KERNEL32.dll
 0004:00000198       __imp_WriteConsoleW        000000018006d198     kernel32:KERNEL32.dll
 0004:000001a0       __imp_SetEndOfFile         000000018006d1a0     kernel32:KERNEL32.dll
 0004:000001a8       __imp_HeapReAlloc          000000018006d1a8     kernel32:KERNEL32.dll
 0004:000001b0       __imp_GetModuleHandleA     000000018006d1b0     kernel32:KERNEL32.dll
 0004:000001b8       __imp_DeleteTimerQueueTimer 000000018006d1b8     kernel32:KERNEL32.dll
 0004:000001c0       __imp_ChangeTimerQueueTimer 000000018006d1c0     kernel32:KERNEL32.dll
 0004:000001c8       __imp_CreateTimerQueueTimer 000000018006d1c8     kernel32:KERNEL32.dll
 0004:000001d0       __imp_CreateTimerQueue     000000018006d1d0     kernel32:KERNEL32.dll
 0004:000001d8       __imp_GetFileAttributesW   000000018006d1d8     kernel32:KERNEL32.dll
 0004:000001e0       __imp_GetEnvironmentVariableW 000000018006d1e0     kernel32:KERNEL32.dll
 0004:000001e8       __imp_GetStdHandle         000000018006d1e8     kernel32:KERNEL32.dll
 0004:000001f0       __imp_GetConsoleCP         000000018006d1f0     kernel32:KERNEL32.dll
 0004:000001f8       __imp_DeleteTimerQueueEx   000000018006d1f8     kernel32:KERNEL32.dll
 0004:00000200       __imp_HeapSize             000000018006d200     kernel32:KERNEL32.dll
 0004:00000208       __imp_SetStdHandle         000000018006d208     kernel32:KERNEL32.dll
 0004:00000210       __imp_GetProcessHeap       000000018006d210     kernel32:KERNEL32.dll
 0004:00000218       __imp_FreeEnvironmentStringsW 000000018006d218     kernel32:KERNEL32.dll
 0004:00000220       __imp_GetEnvironmentStringsW 000000018006d220     kernel32:KERNEL32.dll
 0004:00000228       __imp_GetCommandLineW      000000018006d228     kernel32:KERNEL32.dll
 0004:00000230       __imp_GetCommandLineA      000000018006d230     kernel32:KERNEL32.dll
 0004:00000238       __imp_GetCPInfo            000000018006d238     kernel32:KERNEL32.dll
 0004:00000240       __imp_IsValidCodePage      000000018006d240     kernel32:KERNEL32.dll
 0004:00000248       __imp_FindNextFileW        000000018006d248     kernel32:KERNEL32.dll
 0004:00000250       __imp_FindFirstFileExW     000000018006d250     kernel32:KERNEL32.dll
 0004:00000258       __imp_CreateFileW          000000018006d258     kernel32:KERNEL32.dll
 0004:00000260       __imp_GetFileSizeEx        000000018006d260     kernel32:KERNEL32.dll
 0004:00000268       __imp_WriteFile            000000018006d268     kernel32:KERNEL32.dll
 0004:00000270       __imp_FlushFileBuffers     000000018006d270     kernel32:KERNEL32.dll
 0004:00000278       __imp_CreatePipe           000000018006d278     kernel32:KERNEL32.dll
 0004:00000280       __imp_GetFileAttributesExW 000000018006d280     kernel32:KERNEL32.dll
 0004:00000288       __imp_GetExitCodeProcess   000000018006d288     kernel32:KERNEL32.dll
 0004:00000290       __imp_WaitForSingleObject  000000018006d290     kernel32:KERNEL32.dll
 0004:00000298       __imp_GetStringTypeW       000000018006d298     kernel32:KERNEL32.dll
 0004:000002a0       __imp_SetFilePointerEx     000000018006d2a0     kernel32:KERNEL32.dll
 0004:000002a8       __imp_ReadConsoleW         000000018006d2a8     kernel32:KERNEL32.dll
 0004:000002b0       __imp_GetConsoleMode       000000018006d2b0     kernel32:KERNEL32.dll
 0004:000002b8       __imp_LCMapStringW         000000018006d2b8     kernel32:KERNEL32.dll
 0004:000002c0       __imp_GetFileType          000000018006d2c0     kernel32:KERNEL32.dll
 0004:000002c8       __imp_HeapAlloc            000000018006d2c8     kernel32:KERNEL32.dll
 0004:000002d0       __imp_HeapFree             000000018006d2d0     kernel32:KERNEL32.dll
 0004:000002d8       __imp_GetModuleHandleExW   000000018006d2d8     kernel32:KERNEL32.dll
 0004:000002e0       __imp_TerminateProcess     000000018006d2e0     kernel32:KERNEL32.dll
 0004:000002e8       __imp_ExitProcess          000000018006d2e8     kernel32:KERNEL32.dll
 0004:000002f0       __imp_GetTempPathW         000000018006d2f0     kernel32:KERNEL32.dll
 0004:000002f8       __imp_ReadFile             000000018006d2f8     kernel32:KERNEL32.dll
 0004:00000300       __imp_CreateProcessW       000000018006d300     kernel32:KERNEL32.dll
 0004:00000308       __imp_GetCurrentProcess    000000018006d308     kernel32:KERNEL32.dll
 0004:00000310       __imp_DuplicateHandle      000000018006d310     kernel32:KERNEL32.dll
 0004:00000318       __imp_CloseHandle          000000018006d318     kernel32:KERNEL32.dll
 0004:00000320       __imp_RaiseException       000000018006d320     kernel32:KERNEL32.dll
 0004:00000328       __imp_LoadLibraryExW       000000018006d328     kernel32:KERNEL32.dll
 0004:00000330       __imp_TlsFree              000000018006d330     kernel32:KERNEL32.dll
 0004:00000338       __imp_TlsSetValue          000000018006d338     kernel32:KERNEL32.dll
 0004:00000340       __imp_TlsGetValue          000000018006d340     kernel32:KERNEL32.dll
 0004:00000348       __imp_TlsAlloc             000000018006d348     kernel32:KERNEL32.dll
 0004:00000350       __imp_InitializeCriticalSectionAndSpinCount 000000018006d350     kernel32:KERNEL32.dll
 0004:00000358       __imp_DeleteCriticalSection 000000018006d358     kernel32:KERNEL32.dll
 0004:00000360       __imp_RtlUnwind            000000018006d360     kernel32:KERNEL32.dll
 0004:00000368       __imp_LeaveCriticalSection 000000018006d368     kernel32:KERNEL32.dll
 0004:00000370       __imp_EnterCriticalSection 000000018006d370     kernel32:KERNEL32.dll
 0004:00000378       __imp_SetLastError         000000018006d378     kernel32:KERNEL32.dll
 0004:00000380       __imp_InterlockedFlushSList 000000018006d380     kernel32:KERNEL32.dll
 0004:00000388       __imp_RtlUnwindEx          000000018006d388     kernel32:KERNEL32.dll
 0004:00000390       __imp_IsProcessorFeaturePresent 000000018006d390     kernel32:KERNEL32.dll
 0004:00000398       __imp_GetStartupInfoW      000000018006d398     kernel32:KERNEL32.dll
 0004:000003a0       __imp_SetUnhandledExceptionFilter 000000018006d3a0     kernel32:KERNEL32.dll
 0004:000003a8       __imp_UnhandledExceptionFilter 000000018006d3a8     kernel32:KERNEL32.dll
 0004:000003b0       __imp_IsDebuggerPresent    000000018006d3b0     kernel32:KERNEL32.dll
 0004:000003b8       __imp_RtlVirtualUnwind     000000018006d3b8     kernel32:KERNEL32.dll
 0004:000003c0       __imp_RtlLookupFunctionEntry 000000018006d3c0     kernel32:KERNEL32.dll
 0004:000003c8       __imp_RtlCaptureContext    000000018006d3c8     kernel32:KERNEL32.dll
 0004:000003d0       __imp_InitializeSListHead  000000018006d3d0     kernel32:KERNEL32.dll
 0004:000003d8       __imp_GetCurrentThreadId   000000018006d3d8     kernel32:KERNEL32.dll
 0004:000003e0       __imp_GetCurrentProcessId  000000018006d3e0     kernel32:KERNEL32.dll
 0004:000003e8       __imp_QueryPerformanceCounter 000000018006d3e8     kernel32:KERNEL32.dll
 0004:000003f0       \177KERNEL32_NULL_THUNK_DATA 000000018006d3f0     kernel32:KERNEL32.dll
 0004:000003f8       __imp_RpcStringFreeA       000000018006d3f8     rpcrt4:RPCRT4.dll
 0004:00000400       __imp_UuidCreate           000000018006d400     rpcrt4:RPCRT4.dll
 0004:00000408       __imp_UuidToStringA        000000018006d408     rpcrt4:RPCRT4.dll
 0004:00000410       __imp_UuidFromStringA      000000018006d410     rpcrt4:RPCRT4.dll
 0004:00000418       \177RPCRT4_NULL_THUNK_DATA 000000018006d418     rpcrt4:RPCRT4.dll
 0004:00000420       __imp_ShellExecuteW        000000018006d420     shell32:SHELL32.dll
 0004:00000428       __imp_SHGetFolderPathW     000000018006d428     shell32:SHELL32.dll
 0004:00000430       \177SHELL32_NULL_THUNK_DATA 000000018006d430     shell32:SHELL32.dll
 0004:00000438       __imp_GetKeyState          000000018006d438     user32:USER32.dll
 0004:00000440       \177USER32_NULL_THUNK_DATA 000000018006d440     user32:USER32.dll
 0004:00000448       __imp_luaL_checkstack      000000018006d448     lua51:lua51.dll
 0004:00000450       __imp_luaL_prepbuffer      000000018006d450     lua51:lua51.dll
 0004:00000458       __imp_lua_tocfunction      000000018006d458     lua51:lua51.dll
 0004:00000460       __imp_luaL_checkoption     000000018006d460     lua51:lua51.dll
 0004:00000468       __imp_lua_iscfunction      000000018006d468     lua51:lua51.dll
 0004:00000470       __imp_luaL_gsub            000000018006d470     lua51:lua51.dll
 0004:00000478       __imp_lua_isuserdata       000000018006d478     lua51:lua51.dll
 0004:00000480       __imp_lua_dump             000000018006d480     lua51:lua51.dll
 0004:00000488       __imp_lua_typename         000000018006d488     lua51:lua51.dll
 0004:00000490       __imp_luaL_findtable       000000018006d490     lua51:lua51.dll
 0004:00000498       __imp_luaL_checkany        000000018006d498     lua51:lua51.dll
 0004:000004a0       __imp_luaL_optnumber       000000018006d4a0     lua51:lua51.dll
 0004:000004a8       __imp_luaL_checknumber     000000018006d4a8     lua51:lua51.dll
 0004:000004b0       __imp_lua_rawset           000000018006d4b0     lua51:lua51.dll
 0004:000004b8       __imp_lua_settable         000000018006d4b8     lua51:lua51.dll
 0004:000004c0       __imp_lua_getfenv          000000018006d4c0     lua51:lua51.dll
 0004:000004c8       __imp_lua_rawget           000000018006d4c8     lua51:lua51.dll
 0004:000004d0       __imp_luaopen_debug        000000018006d4d0     lua51:lua51.dll
 0004:000004d8       __imp_luaopen_math         000000018006d4d8     lua51:lua51.dll
 0004:000004e0       __imp_luaopen_string       000000018006d4e0     lua51:lua51.dll
 0004:000004e8       __imp_luaopen_os           000000018006d4e8     lua51:lua51.dll
 0004:000004f0       __imp_luaopen_table        000000018006d4f0     lua51:lua51.dll
 0004:000004f8       __imp_luaopen_base         000000018006d4f8     lua51:lua51.dll
 0004:00000500       __imp_luaL_checktype       000000018006d500     lua51:lua51.dll
 0004:00000508       __imp_lua_getinfo          000000018006d508     lua51:lua51.dll
 0004:00000510       __imp_lua_getstack         000000018006d510     lua51:lua51.dll
 0004:00000518       __imp_luaL_addvalue        000000018006d518     lua51:lua51.dll
 0004:00000520       __imp_luaL_error           000000018006d520     lua51:lua51.dll
 0004:00000528       __imp_luaL_checkudata      000000018006d528     lua51:lua51.dll
 0004:00000530       __imp_luaL_optinteger      000000018006d530     lua51:lua51.dll
 0004:00000538       __imp_luaL_optlstring      000000018006d538     lua51:lua51.dll
 0004:00000540       __imp_lua_checkstack       000000018006d540     lua51:lua51.dll
 0004:00000548       __imp_lua_replace          000000018006d548     lua51:lua51.dll
 0004:00000550       __imp_luaL_pushresult      000000018006d550     lua51:lua51.dll
 0004:00000558       __imp_luaL_addlstring      000000018006d558     lua51:lua51.dll
 0004:00000560       __imp_luaL_buffinit        000000018006d560     lua51:lua51.dll
 0004:00000568       __imp_lua_concat           000000018006d568     lua51:lua51.dll
 0004:00000570       __imp_luaL_typerror        000000018006d570     lua51:lua51.dll
 0004:00000578       __imp_lua_load             000000018006d578     lua51:lua51.dll
 0004:00000580       __imp_lua_pushfstring      000000018006d580     lua51:lua51.dll
 0004:00000588       __imp_luaL_loadstring      000000018006d588     lua51:lua51.dll
 0004:00000590       __imp_luaL_unref           000000018006d590     lua51:lua51.dll
 0004:00000598       __imp_luaL_ref             000000018006d598     lua51:lua51.dll
 0004:000005a0       __imp_lua_gc               000000018006d5a0     lua51:lua51.dll
 0004:000005a8       __imp_lua_pcall            000000018006d5a8     lua51:lua51.dll
 0004:000005b0       __imp_lua_call             000000018006d5b0     lua51:lua51.dll
 0004:000005b8       __imp_lua_rawseti          000000018006d5b8     lua51:lua51.dll
 0004:000005c0       __imp_lua_setfield         000000018006d5c0     lua51:lua51.dll
 0004:000005c8       __imp_lua_createtable      000000018006d5c8     lua51:lua51.dll
 0004:000005d0       __imp_lua_rawgeti          000000018006d5d0     lua51:lua51.dll
 0004:000005d8       __imp_lua_gettable         000000018006d5d8     lua51:lua51.dll
 0004:000005e0       __imp_lua_pushlightuserdata 000000018006d5e0     lua51:lua51.dll
 0004:000005e8       __imp_lua_pushcclosure     000000018006d5e8     lua51:lua51.dll
 0004:000005f0       __imp_lua_pushlstring      000000018006d5f0     lua51:lua51.dll
 0004:000005f8       __imp_lua_pushinteger      000000018006d5f8     lua51:lua51.dll
 0004:00000600       __imp_lua_objlen           000000018006d600     lua51:lua51.dll
 0004:00000608       __imp_lua_toboolean        000000018006d608     lua51:lua51.dll
 0004:00000610       __imp_lua_tointeger        000000018006d610     lua51:lua51.dll
 0004:00000618       __imp_lua_isstring         000000018006d618     lua51:lua51.dll
 0004:00000620       __imp_lua_isnumber         000000018006d620     lua51:lua51.dll
 0004:00000628       __imp_lua_insert           000000018006d628     lua51:lua51.dll
 0004:00000630       __imp_lua_remove           000000018006d630     lua51:lua51.dll
 0004:00000638       __imp_lua_pushvalue        000000018006d638     lua51:lua51.dll
 0004:00000640       __imp_luaL_newmetatable    000000018006d640     lua51:lua51.dll
 0004:00000648       __imp_luaL_checkinteger    000000018006d648     lua51:lua51.dll
 0004:00000650       __imp_luaL_argerror        000000018006d650     lua51:lua51.dll
 0004:00000658       __imp_luaL_register        000000018006d658     lua51:lua51.dll
 0004:00000660       __imp_lua_setmetatable     000000018006d660     lua51:lua51.dll
 0004:00000668       __imp_lua_getmetatable     000000018006d668     lua51:lua51.dll
 0004:00000670       __imp_lua_newuserdata      000000018006d670     lua51:lua51.dll
 0004:00000678       __imp_lua_getfield         000000018006d678     lua51:lua51.dll
 0004:00000680       __imp_lua_pushboolean      000000018006d680     lua51:lua51.dll
 0004:00000688       __imp_lua_pushstring       000000018006d688     lua51:lua51.dll
 0004:00000690       __imp_lua_pushnumber       000000018006d690     lua51:lua51.dll
 0004:00000698       __imp_lua_pushnil          000000018006d698     lua51:lua51.dll
 0004:000006a0       __imp_lua_touserdata       000000018006d6a0     lua51:lua51.dll
 0004:000006a8       __imp_lua_tolstring        000000018006d6a8     lua51:lua51.dll
 0004:000006b0       __imp_lua_tonumber         000000018006d6b0     lua51:lua51.dll
 0004:000006b8       __imp_lua_rawequal         000000018006d6b8     lua51:lua51.dll
 0004:000006c0       __imp_lua_type             000000018006d6c0     lua51:lua51.dll
 0004:000006c8       __imp_lua_settop           000000018006d6c8     lua51:lua51.dll
 0004:000006d0       __imp_lua_gettop           000000018006d6d0     lua51:lua51.dll
 0004:000006d8       __imp_lua_setallocf        000000018006d6d8     lua51:lua51.dll
 0004:000006e0       __imp_lua_getallocf        000000018006d6e0     lua51:lua51.dll
 0004:000006e8       __imp_lua_next             000000018006d6e8     lua51:lua51.dll
 0004:000006f0       __imp_lua_error            000000018006d6f0     lua51:lua51.dll
 0004:000006f8       __imp_lua_setfenv          000000018006d6f8     lua51:lua51.dll
 0004:00000700       __imp_luaL_checklstring    000000018006d700     lua51:lua51.dll
 0004:00000708       \177lua51_NULL_THUNK_DATA  000000018006d708     lua51:lua51.dll
 0004:00000710       __guard_check_icall_fptr   000000018006d710     LIBCMT:guard_support.obj
 0004:00000718       __guard_dispatch_icall_fptr 000000018006d718     LIBCMT:guard_support.obj
 0004:00000720       __IMPORT_DESCRIPTOR_KERNEL32 000000018006d720     kernel32:KERNEL32.dll
 0004:00000734       __IMPORT_DESCRIPTOR_USER32 000000018006d734     user32:USER32.dll
 0004:00000748       __IMPORT_DESCRIPTOR_ADVAPI32 000000018006d748     advapi32:ADVAPI32.dll
 0004:0000075c       __IMPORT_DESCRIPTOR_SHELL32 000000018006d75c     shell32:SHELL32.dll
 0004:00000770       __IMPORT_DESCRIPTOR_lua51  000000018006d770     lua51:lua51.dll
 0004:00000784       __IMPORT_DESCRIPTOR_RPCRT4 000000018006d784     rpcrt4:RPCRT4.dll
 0004:00000798       __NULL_IMPORT_DESCRIPTOR   000000018006d798     kernel32:KERNEL32.dll

 entry point at        0001:0003c0ec

 Static symbols

 0001:00000080       funcs                      0000000180001080     bit64.obj
 0001:000001a0       metamethods                00000001800011a0     bit64.obj
 0001:000003b0       FCF_FG_4BIT                00000001800013b0     exported.obj
 0001:000003b8       FCF_BG_4BIT                00000001800013b8     exported.obj
 0001:000003c0       FCF_4BITMASK               00000001800013c0     exported.obj
 0001:000003c8       FCF_RAWATTR_MASK           00000001800013c8     exported.obj
 0001:000003d0       FCF_EXTENDEDFLAGS          00000001800013d0     exported.obj
 0001:000003d8       FCF_FG_BOLD                00000001800013d8     exported.obj
 0001:000003e0       FCF_FG_ITALIC              00000001800013e0     exported.obj
 0001:000003e8       FCF_FG_UNDERLINE           00000001800013e8     exported.obj
 0001:000003f0       FCF_STYLEMASK              00000001800013f0     exported.obj
 0001:000003f8       FCF_NONE                   00000001800013f8     exported.obj
 0001:00000400       CDF_NONE                   0000000180001400     exported.obj
 0001:00000408       FMSG_WARNING               0000000180001408     exported.obj
 0001:00000410       FMSG_ERRORTYPE             0000000180001410     exported.obj
 0001:00000418       FMSG_KEEPBACKGROUND        0000000180001418     exported.obj
 0001:00000420       FMSG_LEFTALIGN             0000000180001420     exported.obj
 0001:00000428       FMSG_ALLINONE              0000000180001428     exported.obj
 0001:00000430       FMSG_MB_OK                 0000000180001430     exported.obj
 0001:00000438       FMSG_MB_OKCANCEL           0000000180001438     exported.obj
 0001:00000440       FMSG_MB_ABORTRETRYIGNORE   0000000180001440     exported.obj
 0001:00000448       FMSG_MB_YESNO              0000000180001448     exported.obj
 0001:00000450       FMSG_MB_YESNOCANCEL        0000000180001450     exported.obj
 0001:00000458       FMSG_MB_RETRYCANCEL        0000000180001458     exported.obj
 0001:00000460       FMSG_NONE                  0000000180001460     exported.obj
 0001:00000468       DIF_BOXCOLOR               0000000180001468     exported.obj
 0001:00000470       DIF_GROUP                  0000000180001470     exported.obj
 0001:00000478       DIF_LEFTTEXT               0000000180001478     exported.obj
 0001:00000480       DIF_MOVESELECT             0000000180001480     exported.obj
 0001:00000488       DIF_SHOWAMPERSAND          0000000180001488     exported.obj
 0001:00000490       DIF_CENTERGROUP            0000000180001490     exported.obj
 0001:00000498       DIF_NOBRACKETS             0000000180001498     exported.obj
 0001:000004a0       DIF_MANUALADDHISTORY       00000001800014a0     exported.obj
 0001:000004a8       DIF_SEPARATOR              00000001800014a8     exported.obj
 0001:000004b0       DIF_SEPARATOR2             00000001800014b0     exported.obj
 0001:000004b8       DIF_EDITOR                 00000001800014b8     exported.obj
 0001:000004c0       DIF_LISTNOAMPERSAND        00000001800014c0     exported.obj
 0001:000004c8       DIF_LISTNOBOX              00000001800014c8     exported.obj
 0001:000004d0       DIF_HISTORY                00000001800014d0     exported.obj
 0001:000004d8       DIF_BTNNOCLOSE             00000001800014d8     exported.obj
 0001:000004e0       DIF_CENTERTEXT             00000001800014e0     exported.obj
 0001:000004e8       DIF_SEPARATORUSER          00000001800014e8     exported.obj
 0001:000004f0       DIF_SETSHIELD              00000001800014f0     exported.obj
 0001:000004f8       DIF_EDITEXPAND             00000001800014f8     exported.obj
 0001:00000500       DIF_DROPDOWNLIST           0000000180001500     exported.obj
 0001:00000508       DIF_USELASTHISTORY         0000000180001508     exported.obj
 0001:00000510       DIF_MASKEDIT               0000000180001510     exported.obj
 0001:00000518       DIF_LISTTRACKMOUSE         0000000180001518     exported.obj
 0001:00000520       DIF_LISTTRACKMOUSEINFOCUS  0000000180001520     exported.obj
 0001:00000528       DIF_SELECTONENTRY          0000000180001528     exported.obj
 0001:00000530       DIF_3STATE                 0000000180001530     exported.obj
 0001:00000538       DIF_EDITPATH               0000000180001538     exported.obj
 0001:00000540       DIF_LISTWRAPMODE           0000000180001540     exported.obj
 0001:00000548       DIF_NOAUTOCOMPLETE         0000000180001548     exported.obj
 0001:00000550       DIF_LISTAUTOHIGHLIGHT      0000000180001550     exported.obj
 0001:00000558       DIF_LISTNOCLOSE            0000000180001558     exported.obj
 0001:00000560       DIF_EDITPATHEXEC           0000000180001560     exported.obj
 0001:00000568       DIF_HIDDEN                 0000000180001568     exported.obj
 0001:00000570       DIF_READONLY               0000000180001570     exported.obj
 0001:00000578       DIF_NOFOCUS                0000000180001578     exported.obj
 0001:00000580       DIF_DISABLE                0000000180001580     exported.obj
 0001:00000588       DIF_DEFAULTBUTTON          0000000180001588     exported.obj
 0001:00000590       DIF_FOCUS                  0000000180001590     exported.obj
 0001:00000598       DIF_RIGHTTEXT              0000000180001598     exported.obj
 0001:000005a0       DIF_WORDWRAP               00000001800015a0     exported.obj
 0001:000005a8       DIF_NONE                   00000001800015a8     exported.obj
 0001:000005b0       LIF_SELECTED               00000001800015b0     exported.obj
 0001:000005b8       LIF_CHECKED                00000001800015b8     exported.obj
 0001:000005c0       LIF_SEPARATOR              00000001800015c0     exported.obj
 0001:000005c8       LIF_DISABLE                00000001800015c8     exported.obj
 0001:000005d0       LIF_GRAYED                 00000001800015d0     exported.obj
 0001:000005d8       LIF_HIDDEN                 00000001800015d8     exported.obj
 0001:000005e0       LIF_DELETEUSERDATA         00000001800015e0     exported.obj
 0001:000005e8       LIF_NONE                   00000001800015e8     exported.obj
 0001:000005f0       LIFIND_EXACTMATCH          00000001800015f0     exported.obj
 0001:000005f8       LIFIND_NONE                00000001800015f8     exported.obj
 0001:00000600       LINFO_SHOWNOBOX            0000000180001600     exported.obj
 0001:00000608       LINFO_AUTOHIGHLIGHT        0000000180001608     exported.obj
 0001:00000610       LINFO_REVERSEHIGHLIGHT     0000000180001610     exported.obj
 0001:00000618       LINFO_WRAPMODE             0000000180001618     exported.obj
 0001:00000620       LINFO_SHOWAMPERSAND        0000000180001620     exported.obj
 0001:00000628       LINFO_NONE                 0000000180001628     exported.obj
 0001:00000630       FDLG_WARNING               0000000180001630     exported.obj
 0001:00000638       FDLG_SMALLDIALOG           0000000180001638     exported.obj
 0001:00000640       FDLG_NODRAWSHADOW          0000000180001640     exported.obj
 0001:00000648       FDLG_NODRAWPANEL           0000000180001648     exported.obj
 0001:00000650       FDLG_KEEPCONSOLETITLE      0000000180001650     exported.obj
 0001:00000658       FDLG_NONMODAL              0000000180001658     exported.obj
 0001:00000660       FDLG_NONE                  0000000180001660     exported.obj
 0001:00000668       MIF_SELECTED               0000000180001668     exported.obj
 0001:00000670       MIF_CHECKED                0000000180001670     exported.obj
 0001:00000678       MIF_SEPARATOR              0000000180001678     exported.obj
 0001:00000680       MIF_DISABLE                0000000180001680     exported.obj
 0001:00000688       MIF_GRAYED                 0000000180001688     exported.obj
 0001:00000690       MIF_HIDDEN                 0000000180001690     exported.obj
 0001:00000698       MIF_NONE                   0000000180001698     exported.obj
 0001:000006a0       FMENU_SHOWAMPERSAND        00000001800016a0     exported.obj
 0001:000006a8       FMENU_WRAPMODE             00000001800016a8     exported.obj
 0001:000006b0       FMENU_AUTOHIGHLIGHT        00000001800016b0     exported.obj
 0001:000006b8       FMENU_REVERSEAUTOHIGHLIGHT 00000001800016b8     exported.obj
 0001:000006c0       FMENU_CHANGECONSOLETITLE   00000001800016c0     exported.obj
 0001:000006c8       FMENU_NONE                 00000001800016c8     exported.obj
 0001:000006d0       PPIF_SELECTED              00000001800016d0     exported.obj
 0001:000006d8       PPIF_PROCESSDESCR          00000001800016d8     exported.obj
 0001:000006e0       PPIF_NONE                  00000001800016e0     exported.obj
 0001:000006e8       PFLAGS_SHOWHIDDEN          00000001800016e8     exported.obj
 0001:000006f0       PFLAGS_HIGHLIGHT           00000001800016f0     exported.obj
 0001:000006f8       PFLAGS_REVERSESORTORDER    00000001800016f8     exported.obj
 0001:00000700       PFLAGS_USESORTGROUPS       0000000180001700     exported.obj
 0001:00000708       PFLAGS_SELECTEDFIRST       0000000180001708     exported.obj
 0001:00000710       PFLAGS_REALNAMES           0000000180001710     exported.obj
 0001:00000718       PFLAGS_PANELLEFT           0000000180001718     exported.obj
 0001:00000720       PFLAGS_DIRECTORIESFIRST    0000000180001720     exported.obj
 0001:00000728       PFLAGS_USECRC32            0000000180001728     exported.obj
 0001:00000730       PFLAGS_PLUGIN              0000000180001730     exported.obj
 0001:00000738       PFLAGS_VISIBLE             0000000180001738     exported.obj
 0001:00000740       PFLAGS_FOCUS               0000000180001740     exported.obj
 0001:00000748       PFLAGS_ALTERNATIVENAMES    0000000180001748     exported.obj
 0001:00000750       PFLAGS_SHORTCUT            0000000180001750     exported.obj
 0001:00000758       PFLAGS_NONE                0000000180001758     exported.obj
 0001:00000760       VF_NONMODAL                0000000180001760     exported.obj
 0001:00000768       VF_DELETEONCLOSE           0000000180001768     exported.obj
 0001:00000770       VF_ENABLE_F6               0000000180001770     exported.obj
 0001:00000778       VF_DISABLEHISTORY          0000000180001778     exported.obj
 0001:00000780       VF_IMMEDIATERETURN         0000000180001780     exported.obj
 0001:00000788       VF_DELETEONLYFILEONCLOSE   0000000180001788     exported.obj
 0001:00000790       VF_NONE                    0000000180001790     exported.obj
 0001:00000798       EF_NONMODAL                0000000180001798     exported.obj
 0001:000007a0       EF_CREATENEW               00000001800017a0     exported.obj
 0001:000007a8       EF_ENABLE_F6               00000001800017a8     exported.obj
 0001:000007b0       EF_DISABLEHISTORY          00000001800017b0     exported.obj
 0001:000007b8       EF_DELETEONCLOSE           00000001800017b8     exported.obj
 0001:000007c0       EF_IMMEDIATERETURN         00000001800017c0     exported.obj
 0001:000007c8       EF_DELETEONLYFILEONCLOSE   00000001800017c8     exported.obj
 0001:000007d0       EF_LOCKED                  00000001800017d0     exported.obj
 0001:000007d8       EF_DISABLESAVEPOS          00000001800017d8     exported.obj
 0001:000007e0       EF_OPENMODE_MASK           00000001800017e0     exported.obj
 0001:000007e8       EF_OPENMODE_QUERY          00000001800017e8     exported.obj
 0001:000007f0       EF_OPENMODE_NEWIFOPEN      00000001800017f0     exported.obj
 0001:000007f8       EF_OPENMODE_USEEXISTING    00000001800017f8     exported.obj
 0001:00000800       EF_OPENMODE_BREAKIFOPEN    0000000180001800     exported.obj
 0001:00000808       EF_OPENMODE_RELOADIFOPEN   0000000180001808     exported.obj
 0001:00000810       EN_NONE                    0000000180001810     exported.obj
 0001:00000818       FHELP_NOSHOWERROR          0000000180001818     exported.obj
 0001:00000820       FHELP_SELFHELP             0000000180001820     exported.obj
 0001:00000828       FHELP_FARHELP              0000000180001828     exported.obj
 0001:00000830       FHELP_CUSTOMFILE           0000000180001830     exported.obj
 0001:00000838       FHELP_CUSTOMPATH           0000000180001838     exported.obj
 0001:00000840       FHELP_GUID                 0000000180001840     exported.obj
 0001:00000848       FHELP_USECONTENTS          0000000180001848     exported.obj
 0001:00000850       FHELP_NONE                 0000000180001850     exported.obj
 0001:00000858       KMFLAGS_SILENTCHECK        0000000180001858     exported.obj
 0001:00000860       KMFLAGS_NOSENDKEYSTOPLUGINS 0000000180001860     exported.obj
 0001:00000868       KMFLAGS_ENABLEOUTPUT       0000000180001868     exported.obj
 0001:00000870       KMFLAGS_LANGMASK           0000000180001870     exported.obj
 0001:00000878       KMFLAGS_LUA                0000000180001878     exported.obj
 0001:00000880       KMFLAGS_MOONSCRIPT         0000000180001880     exported.obj
 0001:00000888       KMFLAGS_NONE               0000000180001888     exported.obj
 0001:00000890       AKMFLAGS_NONE              0000000180001890     exported.obj
 0001:00000898       FSETCLR_REDRAW             0000000180001898     exported.obj
 0001:000008a0       FSETCLR_NONE               00000001800018a0     exported.obj
 0001:000008a8       WIF_MODIFIED               00000001800018a8     exported.obj
 0001:000008b0       WIF_CURRENT                00000001800018b0     exported.obj
 0001:000008b8       WIF_MODAL                  00000001800018b8     exported.obj
 0001:000008c0       WIF_NONE                   00000001800018c0     exported.obj
 0001:000008c8       VOPT_SAVEFILEPOSITION      00000001800018c8     exported.obj
 0001:000008d0       VOPT_AUTODETECTCODEPAGE    00000001800018d0     exported.obj
 0001:000008d8       VOPT_SHOWTITLEBAR          00000001800018d8     exported.obj
 0001:000008e0       VOPT_SHOWKEYBAR            00000001800018e0     exported.obj
 0001:000008e8       VOPT_SHOWSCROLLBAR         00000001800018e8     exported.obj
 0001:000008f0       VOPT_QUICKVIEW             00000001800018f0     exported.obj
 0001:000008f8       VOPT_NONE                  00000001800018f8     exported.obj
 0001:00000900       VSMFL_REDRAW               0000000180001900     exported.obj
 0001:00000908       VSMFL_NONE                 0000000180001908     exported.obj
 0001:00000910       VSP_NOREDRAW               0000000180001910     exported.obj
 0001:00000918       VSP_PERCENT                0000000180001918     exported.obj
 0001:00000920       VSP_RELATIVE               0000000180001920     exported.obj
 0001:00000928       VSP_NORETNEWPOS            0000000180001928     exported.obj
 0001:00000930       VSP_NONE                   0000000180001930     exported.obj
 0001:00000938       VMF_WRAP                   0000000180001938     exported.obj
 0001:00000940       VMF_WORDWRAP               0000000180001940     exported.obj
 0001:00000948       VMF_NONE                   0000000180001948     exported.obj
 0001:00000950       ECF_TABMARKFIRST           0000000180001950     exported.obj
 0001:00000958       ECF_TABMARKCURRENT         0000000180001958     exported.obj
 0001:00000960       ECF_AUTODELETE             0000000180001960     exported.obj
 0001:00000968       ECF_NONE                   0000000180001968     exported.obj
 0001:00000970       FIB_ENABLEEMPTY            0000000180001970     exported.obj
 0001:00000978       FIB_PASSWORD               0000000180001978     exported.obj
 0001:00000980       FIB_EXPANDENV              0000000180001980     exported.obj
 0001:00000988       FIB_NOUSELASTHISTORY       0000000180001988     exported.obj
 0001:00000990       FIB_BUTTONS                0000000180001990     exported.obj
 0001:00000998       FIB_NOAMPERSAND            0000000180001998     exported.obj
 0001:000009a0       FIB_EDITPATH               00000001800019a0     exported.obj
 0001:000009a8       FIB_EDITPATHEXEC           00000001800019a8     exported.obj
 0001:000009b0       FIB_NONE                   00000001800019b0     exported.obj
 0001:000009b8       FPF_LOADED                 00000001800019b8     exported.obj
 0001:000009c0       FPF_ANSI                   00000001800019c0     exported.obj
 0001:000009c8       FPF_NONE                   00000001800019c8     exported.obj
 0001:000009d0       PN_CMPNAME                 00000001800019d0     exported.obj
 0001:000009d8       PN_CMPNAMELIST             00000001800019d8     exported.obj
 0001:000009e0       PN_GENERATENAME            00000001800019e0     exported.obj
 0001:000009e8       PN_CHECKMASK               00000001800019e8     exported.obj
 0001:000009f0       PN_SKIPPATH                00000001800019f0     exported.obj
 0001:000009f8       PN_SHOWERRORMESSAGE        00000001800019f8     exported.obj
 0001:00000a00       PN_NONE                    0000000180001a00     exported.obj
 0001:00000a08       XLAT_SWITCHKEYBLAYOUT      0000000180001a08     exported.obj
 0001:00000a10       XLAT_SWITCHKEYBBEEP        0000000180001a10     exported.obj
 0001:00000a18       XLAT_USEKEYBLAYOUTNAME     0000000180001a18     exported.obj
 0001:00000a20       XLAT_CONVERTALLCMDLINE     0000000180001a20     exported.obj
 0001:00000a28       XLAT_NONE                  0000000180001a28     exported.obj
 0001:00000a30       FRS_RETUPDIR               0000000180001a30     exported.obj
 0001:00000a38       FRS_RECUR                  0000000180001a38     exported.obj
 0001:00000a40       FRS_SCANSYMLINK            0000000180001a40     exported.obj
 0001:00000a48       FRS_NONE                   0000000180001a48     exported.obj
 0001:00000a50       MLF_SHOWERRMSG             0000000180001a50     exported.obj
 0001:00000a58       MLF_DONOTUPDATEPANEL       0000000180001a58     exported.obj
 0001:00000a60       MLF_HOLDTARGET             0000000180001a60     exported.obj
 0001:00000a68       MLF_NONE                   0000000180001a68     exported.obj
 0001:00000a70       FFFS_COMMAS                0000000180001a70     exported.obj
 0001:00000a78       FFFS_FLOATSIZE             0000000180001a78     exported.obj
 0001:00000a80       FFFS_SHOWBYTESINDEX        0000000180001a80     exported.obj
 0001:00000a88       FFFS_ECONOMIC              0000000180001a88     exported.obj
 0001:00000a90       FFFS_THOUSAND              0000000180001a90     exported.obj
 0001:00000a98       FFFS_MINSIZEINDEX          0000000180001a98     exported.obj
 0001:00000aa0       FFFS_MINSIZEINDEX_MASK     0000000180001aa0     exported.obj
 0001:00000aa8       FFFS_NONE                  0000000180001aa8     exported.obj
 0001:00000ab0       PF_PRELOAD                 0000000180001ab0     exported.obj
 0001:00000ab8       PF_DISABLEPANELS           0000000180001ab8     exported.obj
 0001:00000ac0       PF_EDITOR                  0000000180001ac0     exported.obj
 0001:00000ac8       PF_VIEWER                  0000000180001ac8     exported.obj
 0001:00000ad0       PF_FULLCMDLINE             0000000180001ad0     exported.obj
 0001:00000ad8       PF_DIALOG                  0000000180001ad8     exported.obj
 0001:00000ae0       PF_NONE                    0000000180001ae0     exported.obj
 0001:00000ae8       IPLFLAGS_SEPARATOR         0000000180001ae8     exported.obj
 0001:00000af0       IPLFLAGS_NONE              0000000180001af0     exported.obj
 0001:00000af8       PMFLAGS_FULLSCREEN         0000000180001af8     exported.obj
 0001:00000b00       PMFLAGS_DETAILEDSTATUS     0000000180001b00     exported.obj
 0001:00000b08       PMFLAGS_ALIGNEXTENSIONS    0000000180001b08     exported.obj
 0001:00000b10       PMFLAGS_CASECONVERSION     0000000180001b10     exported.obj
 0001:00000b18       PMFLAGS_NONE               0000000180001b18     exported.obj
 0001:00000b20       OPIF_DISABLEFILTER         0000000180001b20     exported.obj
 0001:00000b28       OPIF_DISABLESORTGROUPS     0000000180001b28     exported.obj
 0001:00000b30       OPIF_DISABLEHIGHLIGHTING   0000000180001b30     exported.obj
 0001:00000b38       OPIF_ADDDOTS               0000000180001b38     exported.obj
 0001:00000b40       OPIF_RAWSELECTION          0000000180001b40     exported.obj
 0001:00000b48       OPIF_REALNAMES             0000000180001b48     exported.obj
 0001:00000b50       OPIF_SHOWNAMESONLY         0000000180001b50     exported.obj
 0001:00000b58       OPIF_SHOWRIGHTALIGNNAMES   0000000180001b58     exported.obj
 0001:00000b60       OPIF_SHOWPRESERVECASE      0000000180001b60     exported.obj
 0001:00000b68       OPIF_COMPAREFATTIME        0000000180001b68     exported.obj
 0001:00000b70       OPIF_EXTERNALGET           0000000180001b70     exported.obj
 0001:00000b78       OPIF_EXTERNALPUT           0000000180001b78     exported.obj
 0001:00000b80       OPIF_EXTERNALDELETE        0000000180001b80     exported.obj
 0001:00000b88       OPIF_EXTERNALMKDIR         0000000180001b88     exported.obj
 0001:00000b90       OPIF_USEATTRHIGHLIGHTING   0000000180001b90     exported.obj
 0001:00000b98       OPIF_USECRC32              0000000180001b98     exported.obj
 0001:00000ba0       OPIF_USEFREESIZE           0000000180001ba0     exported.obj
 0001:00000ba8       OPIF_SHORTCUT              0000000180001ba8     exported.obj
 0001:00000bb0       OPIF_NONE                  0000000180001bb0     exported.obj
 0001:00000bb8       OPM_SILENT                 0000000180001bb8     exported.obj
 0001:00000bc0       OPM_FIND                   0000000180001bc0     exported.obj
 0001:00000bc8       OPM_VIEW                   0000000180001bc8     exported.obj
 0001:00000bd0       OPM_EDIT                   0000000180001bd0     exported.obj
 0001:00000bd8       OPM_TOPLEVEL               0000000180001bd8     exported.obj
 0001:00000be0       OPM_DESCR                  0000000180001be0     exported.obj
 0001:00000be8       OPM_QUICKVIEW              0000000180001be8     exported.obj
 0001:00000bf0       OPM_PGDN                   0000000180001bf0     exported.obj
 0001:00000bf8       OPM_COMMANDS               0000000180001bf8     exported.obj
 0001:00000c00       OPM_NONE                   0000000180001c00     exported.obj
 0001:00000c08       FOSF_ACTIVE                0000000180001c08     exported.obj
 0001:00000c10       FOSF_NONE                  0000000180001c10     exported.obj
 0001:00000c18       PCIF_NONE                  0000000180001c18     exported.obj
 0001:00000c20       FarGuid                    0000000180001c20     exported.obj
 0001:00000c30       PDF_DIALOGEVENTDRAWENABLE  0000000180001c30     exported.obj
 0001:00000c38       PDF_PROCESSINGERROR        0000000180001c38     exported.obj
 0001:000012e0       FCF_FG_4BIT                00000001800022e0     flags.obj
 0001:000012e8       FCF_BG_4BIT                00000001800022e8     flags.obj
 0001:000012f0       FCF_4BITMASK               00000001800022f0     flags.obj
 0001:000012f8       FCF_RAWATTR_MASK           00000001800022f8     flags.obj
 0001:00001300       FCF_EXTENDEDFLAGS          0000000180002300     flags.obj
 0001:00001308       FCF_FG_BOLD                0000000180002308     flags.obj
 0001:00001310       FCF_FG_ITALIC              0000000180002310     flags.obj
 0001:00001318       FCF_FG_UNDERLINE           0000000180002318     flags.obj
 0001:00001320       FCF_STYLEMASK              0000000180002320     flags.obj
 0001:00001328       FCF_NONE                   0000000180002328     flags.obj
 0001:00001330       CDF_NONE                   0000000180002330     flags.obj
 0001:00001338       FMSG_WARNING               0000000180002338     flags.obj
 0001:00001340       FMSG_ERRORTYPE             0000000180002340     flags.obj
 0001:00001348       FMSG_KEEPBACKGROUND        0000000180002348     flags.obj
 0001:00001350       FMSG_LEFTALIGN             0000000180002350     flags.obj
 0001:00001358       FMSG_ALLINONE              0000000180002358     flags.obj
 0001:00001360       FMSG_MB_OK                 0000000180002360     flags.obj
 0001:00001368       FMSG_MB_OKCANCEL           0000000180002368     flags.obj
 0001:00001370       FMSG_MB_ABORTRETRYIGNORE   0000000180002370     flags.obj
 0001:00001378       FMSG_MB_YESNO              0000000180002378     flags.obj
 0001:00001380       FMSG_MB_YESNOCANCEL        0000000180002380     flags.obj
 0001:00001388       FMSG_MB_RETRYCANCEL        0000000180002388     flags.obj
 0001:00001390       FMSG_NONE                  0000000180002390     flags.obj
 0001:00001398       DIF_BOXCOLOR               0000000180002398     flags.obj
 0001:000013a0       DIF_GROUP                  00000001800023a0     flags.obj
 0001:000013a8       DIF_LEFTTEXT               00000001800023a8     flags.obj
 0001:000013b0       DIF_MOVESELECT             00000001800023b0     flags.obj
 0001:000013b8       DIF_SHOWAMPERSAND          00000001800023b8     flags.obj
 0001:000013c0       DIF_CENTERGROUP            00000001800023c0     flags.obj
 0001:000013c8       DIF_NOBRACKETS             00000001800023c8     flags.obj
 0001:000013d0       DIF_MANUALADDHISTORY       00000001800023d0     flags.obj
 0001:000013d8       DIF_SEPARATOR              00000001800023d8     flags.obj
 0001:000013e0       DIF_SEPARATOR2             00000001800023e0     flags.obj
 0001:000013e8       DIF_EDITOR                 00000001800023e8     flags.obj
 0001:000013f0       DIF_LISTNOAMPERSAND        00000001800023f0     flags.obj
 0001:000013f8       DIF_LISTNOBOX              00000001800023f8     flags.obj
 0001:00001400       DIF_HISTORY                0000000180002400     flags.obj
 0001:00001408       DIF_BTNNOCLOSE             0000000180002408     flags.obj
 0001:00001410       DIF_CENTERTEXT             0000000180002410     flags.obj
 0001:00001418       DIF_SEPARATORUSER          0000000180002418     flags.obj
 0001:00001420       DIF_SETSHIELD              0000000180002420     flags.obj
 0001:00001428       DIF_EDITEXPAND             0000000180002428     flags.obj
 0001:00001430       DIF_DROPDOWNLIST           0000000180002430     flags.obj
 0001:00001438       DIF_USELASTHISTORY         0000000180002438     flags.obj
 0001:00001440       DIF_MASKEDIT               0000000180002440     flags.obj
 0001:00001448       DIF_LISTTRACKMOUSE         0000000180002448     flags.obj
 0001:00001450       DIF_LISTTRACKMOUSEINFOCUS  0000000180002450     flags.obj
 0001:00001458       DIF_SELECTONENTRY          0000000180002458     flags.obj
 0001:00001460       DIF_3STATE                 0000000180002460     flags.obj
 0001:00001468       DIF_EDITPATH               0000000180002468     flags.obj
 0001:00001470       DIF_LISTWRAPMODE           0000000180002470     flags.obj
 0001:00001478       DIF_NOAUTOCOMPLETE         0000000180002478     flags.obj
 0001:00001480       DIF_LISTAUTOHIGHLIGHT      0000000180002480     flags.obj
 0001:00001488       DIF_LISTNOCLOSE            0000000180002488     flags.obj
 0001:00001490       DIF_EDITPATHEXEC           0000000180002490     flags.obj
 0001:00001498       DIF_HIDDEN                 0000000180002498     flags.obj
 0001:000014a0       DIF_READONLY               00000001800024a0     flags.obj
 0001:000014a8       DIF_NOFOCUS                00000001800024a8     flags.obj
 0001:000014b0       DIF_DISABLE                00000001800024b0     flags.obj
 0001:000014b8       DIF_DEFAULTBUTTON          00000001800024b8     flags.obj
 0001:000014c0       DIF_FOCUS                  00000001800024c0     flags.obj
 0001:000014c8       DIF_RIGHTTEXT              00000001800024c8     flags.obj
 0001:000014d0       DIF_WORDWRAP               00000001800024d0     flags.obj
 0001:000014d8       DIF_NONE                   00000001800024d8     flags.obj
 0001:000014e0       LIF_SELECTED               00000001800024e0     flags.obj
 0001:000014e8       LIF_CHECKED                00000001800024e8     flags.obj
 0001:000014f0       LIF_SEPARATOR              00000001800024f0     flags.obj
 0001:000014f8       LIF_DISABLE                00000001800024f8     flags.obj
 0001:00001500       LIF_GRAYED                 0000000180002500     flags.obj
 0001:00001508       LIF_HIDDEN                 0000000180002508     flags.obj
 0001:00001510       LIF_DELETEUSERDATA         0000000180002510     flags.obj
 0001:00001518       LIF_NONE                   0000000180002518     flags.obj
 0001:00001520       LIFIND_EXACTMATCH          0000000180002520     flags.obj
 0001:00001528       LIFIND_NONE                0000000180002528     flags.obj
 0001:00001530       LINFO_SHOWNOBOX            0000000180002530     flags.obj
 0001:00001538       LINFO_AUTOHIGHLIGHT        0000000180002538     flags.obj
 0001:00001540       LINFO_REVERSEHIGHLIGHT     0000000180002540     flags.obj
 0001:00001548       LINFO_WRAPMODE             0000000180002548     flags.obj
 0001:00001550       LINFO_SHOWAMPERSAND        0000000180002550     flags.obj
 0001:00001558       LINFO_NONE                 0000000180002558     flags.obj
 0001:00001560       FDLG_WARNING               0000000180002560     flags.obj
 0001:00001568       FDLG_SMALLDIALOG           0000000180002568     flags.obj
 0001:00001570       FDLG_NODRAWSHADOW          0000000180002570     flags.obj
 0001:00001578       FDLG_NODRAWPANEL           0000000180002578     flags.obj
 0001:00001580       FDLG_KEEPCONSOLETITLE      0000000180002580     flags.obj
 0001:00001588       FDLG_NONMODAL              0000000180002588     flags.obj
 0001:00001590       FDLG_NONE                  0000000180002590     flags.obj
 0001:00001598       MIF_SELECTED               0000000180002598     flags.obj
 0001:000015a0       MIF_CHECKED                00000001800025a0     flags.obj
 0001:000015a8       MIF_SEPARATOR              00000001800025a8     flags.obj
 0001:000015b0       MIF_DISABLE                00000001800025b0     flags.obj
 0001:000015b8       MIF_GRAYED                 00000001800025b8     flags.obj
 0001:000015c0       MIF_HIDDEN                 00000001800025c0     flags.obj
 0001:000015c8       MIF_NONE                   00000001800025c8     flags.obj
 0001:000015d0       FMENU_SHOWAMPERSAND        00000001800025d0     flags.obj
 0001:000015d8       FMENU_WRAPMODE             00000001800025d8     flags.obj
 0001:000015e0       FMENU_AUTOHIGHLIGHT        00000001800025e0     flags.obj
 0001:000015e8       FMENU_REVERSEAUTOHIGHLIGHT 00000001800025e8     flags.obj
 0001:000015f0       FMENU_CHANGECONSOLETITLE   00000001800025f0     flags.obj
 0001:000015f8       FMENU_NONE                 00000001800025f8     flags.obj
 0001:00001600       PPIF_SELECTED              0000000180002600     flags.obj
 0001:00001608       PPIF_PROCESSDESCR          0000000180002608     flags.obj
 0001:00001610       PPIF_NONE                  0000000180002610     flags.obj
 0001:00001618       PFLAGS_SHOWHIDDEN          0000000180002618     flags.obj
 0001:00001620       PFLAGS_HIGHLIGHT           0000000180002620     flags.obj
 0001:00001628       PFLAGS_REVERSESORTORDER    0000000180002628     flags.obj
 0001:00001630       PFLAGS_USESORTGROUPS       0000000180002630     flags.obj
 0001:00001638       PFLAGS_SELECTEDFIRST       0000000180002638     flags.obj
 0001:00001640       PFLAGS_REALNAMES           0000000180002640     flags.obj
 0001:00001648       PFLAGS_PANELLEFT           0000000180002648     flags.obj
 0001:00001650       PFLAGS_DIRECTORIESFIRST    0000000180002650     flags.obj
 0001:00001658       PFLAGS_USECRC32            0000000180002658     flags.obj
 0001:00001660       PFLAGS_PLUGIN              0000000180002660     flags.obj
 0001:00001668       PFLAGS_VISIBLE             0000000180002668     flags.obj
 0001:00001670       PFLAGS_FOCUS               0000000180002670     flags.obj
 0001:00001678       PFLAGS_ALTERNATIVENAMES    0000000180002678     flags.obj
 0001:00001680       PFLAGS_SHORTCUT            0000000180002680     flags.obj
 0001:00001688       PFLAGS_NONE                0000000180002688     flags.obj
 0001:00001690       VF_NONMODAL                0000000180002690     flags.obj
 0001:00001698       VF_DELETEONCLOSE           0000000180002698     flags.obj
 0001:000016a0       VF_ENABLE_F6               00000001800026a0     flags.obj
 0001:000016a8       VF_DISABLEHISTORY          00000001800026a8     flags.obj
 0001:000016b0       VF_IMMEDIATERETURN         00000001800026b0     flags.obj
 0001:000016b8       VF_DELETEONLYFILEONCLOSE   00000001800026b8     flags.obj
 0001:000016c0       VF_NONE                    00000001800026c0     flags.obj
 0001:000016c8       EF_NONMODAL                00000001800026c8     flags.obj
 0001:000016d0       EF_CREATENEW               00000001800026d0     flags.obj
 0001:000016d8       EF_ENABLE_F6               00000001800026d8     flags.obj
 0001:000016e0       EF_DISABLEHISTORY          00000001800026e0     flags.obj
 0001:000016e8       EF_DELETEONCLOSE           00000001800026e8     flags.obj
 0001:000016f0       EF_IMMEDIATERETURN         00000001800026f0     flags.obj
 0001:000016f8       EF_DELETEONLYFILEONCLOSE   00000001800026f8     flags.obj
 0001:00001700       EF_LOCKED                  0000000180002700     flags.obj
 0001:00001708       EF_DISABLESAVEPOS          0000000180002708     flags.obj
 0001:00001710       EF_OPENMODE_MASK           0000000180002710     flags.obj
 0001:00001718       EF_OPENMODE_QUERY          0000000180002718     flags.obj
 0001:00001720       EF_OPENMODE_NEWIFOPEN      0000000180002720     flags.obj
 0001:00001728       EF_OPENMODE_USEEXISTING    0000000180002728     flags.obj
 0001:00001730       EF_OPENMODE_BREAKIFOPEN    0000000180002730     flags.obj
 0001:00001738       EF_OPENMODE_RELOADIFOPEN   0000000180002738     flags.obj
 0001:00001740       EN_NONE                    0000000180002740     flags.obj
 0001:00001748       FHELP_NOSHOWERROR          0000000180002748     flags.obj
 0001:00001750       FHELP_SELFHELP             0000000180002750     flags.obj
 0001:00001758       FHELP_FARHELP              0000000180002758     flags.obj
 0001:00001760       FHELP_CUSTOMFILE           0000000180002760     flags.obj
 0001:00001768       FHELP_CUSTOMPATH           0000000180002768     flags.obj
 0001:00001770       FHELP_GUID                 0000000180002770     flags.obj
 0001:00001778       FHELP_USECONTENTS          0000000180002778     flags.obj
 0001:00001780       FHELP_NONE                 0000000180002780     flags.obj
 0001:00001788       KMFLAGS_SILENTCHECK        0000000180002788     flags.obj
 0001:00001790       KMFLAGS_NOSENDKEYSTOPLUGINS 0000000180002790     flags.obj
 0001:00001798       KMFLAGS_ENABLEOUTPUT       0000000180002798     flags.obj
 0001:000017a0       KMFLAGS_LANGMASK           00000001800027a0     flags.obj
 0001:000017a8       KMFLAGS_LUA                00000001800027a8     flags.obj
 0001:000017b0       KMFLAGS_MOONSCRIPT         00000001800027b0     flags.obj
 0001:000017b8       KMFLAGS_NONE               00000001800027b8     flags.obj
 0001:000017c0       AKMFLAGS_NONE              00000001800027c0     flags.obj
 0001:000017c8       FSETCLR_REDRAW             00000001800027c8     flags.obj
 0001:000017d0       FSETCLR_NONE               00000001800027d0     flags.obj
 0001:000017d8       WIF_MODIFIED               00000001800027d8     flags.obj
 0001:000017e0       WIF_CURRENT                00000001800027e0     flags.obj
 0001:000017e8       WIF_MODAL                  00000001800027e8     flags.obj
 0001:000017f0       WIF_NONE                   00000001800027f0     flags.obj
 0001:000017f8       VOPT_SAVEFILEPOSITION      00000001800027f8     flags.obj
 0001:00001800       VOPT_AUTODETECTCODEPAGE    0000000180002800     flags.obj
 0001:00001808       VOPT_SHOWTITLEBAR          0000000180002808     flags.obj
 0001:00001810       VOPT_SHOWKEYBAR            0000000180002810     flags.obj
 0001:00001818       VOPT_SHOWSCROLLBAR         0000000180002818     flags.obj
 0001:00001820       VOPT_QUICKVIEW             0000000180002820     flags.obj
 0001:00001828       VOPT_NONE                  0000000180002828     flags.obj
 0001:00001830       VSMFL_REDRAW               0000000180002830     flags.obj
 0001:00001838       VSMFL_NONE                 0000000180002838     flags.obj
 0001:00001840       VSP_NOREDRAW               0000000180002840     flags.obj
 0001:00001848       VSP_PERCENT                0000000180002848     flags.obj
 0001:00001850       VSP_RELATIVE               0000000180002850     flags.obj
 0001:00001858       VSP_NORETNEWPOS            0000000180002858     flags.obj
 0001:00001860       VSP_NONE                   0000000180002860     flags.obj
 0001:00001868       VMF_WRAP                   0000000180002868     flags.obj
 0001:00001870       VMF_WORDWRAP               0000000180002870     flags.obj
 0001:00001878       VMF_NONE                   0000000180002878     flags.obj
 0001:00001880       ECF_TABMARKFIRST           0000000180002880     flags.obj
 0001:00001888       ECF_TABMARKCURRENT         0000000180002888     flags.obj
 0001:00001890       ECF_AUTODELETE             0000000180002890     flags.obj
 0001:00001898       ECF_NONE                   0000000180002898     flags.obj
 0001:000018a0       FIB_ENABLEEMPTY            00000001800028a0     flags.obj
 0001:000018a8       FIB_PASSWORD               00000001800028a8     flags.obj
 0001:000018b0       FIB_EXPANDENV              00000001800028b0     flags.obj
 0001:000018b8       FIB_NOUSELASTHISTORY       00000001800028b8     flags.obj
 0001:000018c0       FIB_BUTTONS                00000001800028c0     flags.obj
 0001:000018c8       FIB_NOAMPERSAND            00000001800028c8     flags.obj
 0001:000018d0       FIB_EDITPATH               00000001800028d0     flags.obj
 0001:000018d8       FIB_EDITPATHEXEC           00000001800028d8     flags.obj
 0001:000018e0       FIB_NONE                   00000001800028e0     flags.obj
 0001:000018e8       FPF_LOADED                 00000001800028e8     flags.obj
 0001:000018f0       FPF_ANSI                   00000001800028f0     flags.obj
 0001:000018f8       FPF_NONE                   00000001800028f8     flags.obj
 0001:00001900       PN_CMPNAME                 0000000180002900     flags.obj
 0001:00001908       PN_CMPNAMELIST             0000000180002908     flags.obj
 0001:00001910       PN_GENERATENAME            0000000180002910     flags.obj
 0001:00001918       PN_CHECKMASK               0000000180002918     flags.obj
 0001:00001920       PN_SKIPPATH                0000000180002920     flags.obj
 0001:00001928       PN_SHOWERRORMESSAGE        0000000180002928     flags.obj
 0001:00001930       PN_NONE                    0000000180002930     flags.obj
 0001:00001938       XLAT_SWITCHKEYBLAYOUT      0000000180002938     flags.obj
 0001:00001940       XLAT_SWITCHKEYBBEEP        0000000180002940     flags.obj
 0001:00001948       XLAT_USEKEYBLAYOUTNAME     0000000180002948     flags.obj
 0001:00001950       XLAT_CONVERTALLCMDLINE     0000000180002950     flags.obj
 0001:00001958       XLAT_NONE                  0000000180002958     flags.obj
 0001:00001960       FRS_RETUPDIR               0000000180002960     flags.obj
 0001:00001968       FRS_RECUR                  0000000180002968     flags.obj
 0001:00001970       FRS_SCANSYMLINK            0000000180002970     flags.obj
 0001:00001978       FRS_NONE                   0000000180002978     flags.obj
 0001:00001980       MLF_SHOWERRMSG             0000000180002980     flags.obj
 0001:00001988       MLF_DONOTUPDATEPANEL       0000000180002988     flags.obj
 0001:00001990       MLF_HOLDTARGET             0000000180002990     flags.obj
 0001:00001998       MLF_NONE                   0000000180002998     flags.obj
 0001:000019a0       FFFS_COMMAS                00000001800029a0     flags.obj
 0001:000019a8       FFFS_FLOATSIZE             00000001800029a8     flags.obj
 0001:000019b0       FFFS_SHOWBYTESINDEX        00000001800029b0     flags.obj
 0001:000019b8       FFFS_ECONOMIC              00000001800029b8     flags.obj
 0001:000019c0       FFFS_THOUSAND              00000001800029c0     flags.obj
 0001:000019c8       FFFS_MINSIZEINDEX          00000001800029c8     flags.obj
 0001:000019d0       FFFS_MINSIZEINDEX_MASK     00000001800029d0     flags.obj
 0001:000019d8       FFFS_NONE                  00000001800029d8     flags.obj
 0001:000019e0       PF_PRELOAD                 00000001800029e0     flags.obj
 0001:000019e8       PF_DISABLEPANELS           00000001800029e8     flags.obj
 0001:000019f0       PF_EDITOR                  00000001800029f0     flags.obj
 0001:000019f8       PF_VIEWER                  00000001800029f8     flags.obj
 0001:00001a00       PF_FULLCMDLINE             0000000180002a00     flags.obj
 0001:00001a08       PF_DIALOG                  0000000180002a08     flags.obj
 0001:00001a10       PF_NONE                    0000000180002a10     flags.obj
 0001:00001a18       IPLFLAGS_SEPARATOR         0000000180002a18     flags.obj
 0001:00001a20       IPLFLAGS_NONE              0000000180002a20     flags.obj
 0001:00001a28       PMFLAGS_FULLSCREEN         0000000180002a28     flags.obj
 0001:00001a30       PMFLAGS_DETAILEDSTATUS     0000000180002a30     flags.obj
 0001:00001a38       PMFLAGS_ALIGNEXTENSIONS    0000000180002a38     flags.obj
 0001:00001a40       PMFLAGS_CASECONVERSION     0000000180002a40     flags.obj
 0001:00001a48       PMFLAGS_NONE               0000000180002a48     flags.obj
 0001:00001a50       OPIF_DISABLEFILTER         0000000180002a50     flags.obj
 0001:00001a58       OPIF_DISABLESORTGROUPS     0000000180002a58     flags.obj
 0001:00001a60       OPIF_DISABLEHIGHLIGHTING   0000000180002a60     flags.obj
 0001:00001a68       OPIF_ADDDOTS               0000000180002a68     flags.obj
 0001:00001a70       OPIF_RAWSELECTION          0000000180002a70     flags.obj
 0001:00001a78       OPIF_REALNAMES             0000000180002a78     flags.obj
 0001:00001a80       OPIF_SHOWNAMESONLY         0000000180002a80     flags.obj
 0001:00001a88       OPIF_SHOWRIGHTALIGNNAMES   0000000180002a88     flags.obj
 0001:00001a90       OPIF_SHOWPRESERVECASE      0000000180002a90     flags.obj
 0001:00001a98       OPIF_COMPAREFATTIME        0000000180002a98     flags.obj
 0001:00001aa0       OPIF_EXTERNALGET           0000000180002aa0     flags.obj
 0001:00001aa8       OPIF_EXTERNALPUT           0000000180002aa8     flags.obj
 0001:00001ab0       OPIF_EXTERNALDELETE        0000000180002ab0     flags.obj
 0001:00001ab8       OPIF_EXTERNALMKDIR         0000000180002ab8     flags.obj
 0001:00001ac0       OPIF_USEATTRHIGHLIGHTING   0000000180002ac0     flags.obj
 0001:00001ac8       OPIF_USECRC32              0000000180002ac8     flags.obj
 0001:00001ad0       OPIF_USEFREESIZE           0000000180002ad0     flags.obj
 0001:00001ad8       OPIF_SHORTCUT              0000000180002ad8     flags.obj
 0001:00001ae0       OPIF_NONE                  0000000180002ae0     flags.obj
 0001:00001ae8       OPM_SILENT                 0000000180002ae8     flags.obj
 0001:00001af0       OPM_FIND                   0000000180002af0     flags.obj
 0001:00001af8       OPM_VIEW                   0000000180002af8     flags.obj
 0001:00001b00       OPM_EDIT                   0000000180002b00     flags.obj
 0001:00001b08       OPM_TOPLEVEL               0000000180002b08     flags.obj
 0001:00001b10       OPM_DESCR                  0000000180002b10     flags.obj
 0001:00001b18       OPM_QUICKVIEW              0000000180002b18     flags.obj
 0001:00001b20       OPM_PGDN                   0000000180002b20     flags.obj
 0001:00001b28       OPM_COMMANDS               0000000180002b28     flags.obj
 0001:00001b30       OPM_NONE                   0000000180002b30     flags.obj
 0001:00001b38       FOSF_ACTIVE                0000000180002b38     flags.obj
 0001:00001b40       FOSF_NONE                  0000000180002b40     flags.obj
 0001:00001b48       PCIF_NONE                  0000000180002b48     flags.obj
 0001:00001b50       FarGuid                    0000000180002b50     flags.obj
 0001:00006680       colors                     0000000180007680     keysandcolors.obj
 0001:000075e0       guids                      00000001800085e0     keysandcolors.obj
 0001:00008990       FCF_FG_4BIT                0000000180009990     lflua.obj
 0001:00008998       FCF_BG_4BIT                0000000180009998     lflua.obj
 0001:000089a0       FCF_4BITMASK               00000001800099a0     lflua.obj
 0001:000089a8       FCF_RAWATTR_MASK           00000001800099a8     lflua.obj
 0001:000089b0       FCF_EXTENDEDFLAGS          00000001800099b0     lflua.obj
 0001:000089b8       FCF_FG_BOLD                00000001800099b8     lflua.obj
 0001:000089c0       FCF_FG_ITALIC              00000001800099c0     lflua.obj
 0001:000089c8       FCF_FG_UNDERLINE           00000001800099c8     lflua.obj
 0001:000089d0       FCF_STYLEMASK              00000001800099d0     lflua.obj
 0001:000089d8       FCF_NONE                   00000001800099d8     lflua.obj
 0001:000089e0       CDF_NONE                   00000001800099e0     lflua.obj
 0001:000089e8       FMSG_WARNING               00000001800099e8     lflua.obj
 0001:000089f0       FMSG_ERRORTYPE             00000001800099f0     lflua.obj
 0001:000089f8       FMSG_KEEPBACKGROUND        00000001800099f8     lflua.obj
 0001:00008a00       FMSG_LEFTALIGN             0000000180009a00     lflua.obj
 0001:00008a08       FMSG_ALLINONE              0000000180009a08     lflua.obj
 0001:00008a10       FMSG_MB_OK                 0000000180009a10     lflua.obj
 0001:00008a18       FMSG_MB_OKCANCEL           0000000180009a18     lflua.obj
 0001:00008a20       FMSG_MB_ABORTRETRYIGNORE   0000000180009a20     lflua.obj
 0001:00008a28       FMSG_MB_YESNO              0000000180009a28     lflua.obj
 0001:00008a30       FMSG_MB_YESNOCANCEL        0000000180009a30     lflua.obj
 0001:00008a38       FMSG_MB_RETRYCANCEL        0000000180009a38     lflua.obj
 0001:00008a40       FMSG_NONE                  0000000180009a40     lflua.obj
 0001:00008a48       DIF_BOXCOLOR               0000000180009a48     lflua.obj
 0001:00008a50       DIF_GROUP                  0000000180009a50     lflua.obj
 0001:00008a58       DIF_LEFTTEXT               0000000180009a58     lflua.obj
 0001:00008a60       DIF_MOVESELECT             0000000180009a60     lflua.obj
 0001:00008a68       DIF_SHOWAMPERSAND          0000000180009a68     lflua.obj
 0001:00008a70       DIF_CENTERGROUP            0000000180009a70     lflua.obj
 0001:00008a78       DIF_NOBRACKETS             0000000180009a78     lflua.obj
 0001:00008a80       DIF_MANUALADDHISTORY       0000000180009a80     lflua.obj
 0001:00008a88       DIF_SEPARATOR              0000000180009a88     lflua.obj
 0001:00008a90       DIF_SEPARATOR2             0000000180009a90     lflua.obj
 0001:00008a98       DIF_EDITOR                 0000000180009a98     lflua.obj
 0001:00008aa0       DIF_LISTNOAMPERSAND        0000000180009aa0     lflua.obj
 0001:00008aa8       DIF_LISTNOBOX              0000000180009aa8     lflua.obj
 0001:00008ab0       DIF_HISTORY                0000000180009ab0     lflua.obj
 0001:00008ab8       DIF_BTNNOCLOSE             0000000180009ab8     lflua.obj
 0001:00008ac0       DIF_CENTERTEXT             0000000180009ac0     lflua.obj
 0001:00008ac8       DIF_SEPARATORUSER          0000000180009ac8     lflua.obj
 0001:00008ad0       DIF_SETSHIELD              0000000180009ad0     lflua.obj
 0001:00008ad8       DIF_EDITEXPAND             0000000180009ad8     lflua.obj
 0001:00008ae0       DIF_DROPDOWNLIST           0000000180009ae0     lflua.obj
 0001:00008ae8       DIF_USELASTHISTORY         0000000180009ae8     lflua.obj
 0001:00008af0       DIF_MASKEDIT               0000000180009af0     lflua.obj
 0001:00008af8       DIF_LISTTRACKMOUSE         0000000180009af8     lflua.obj
 0001:00008b00       DIF_LISTTRACKMOUSEINFOCUS  0000000180009b00     lflua.obj
 0001:00008b08       DIF_SELECTONENTRY          0000000180009b08     lflua.obj
 0001:00008b10       DIF_3STATE                 0000000180009b10     lflua.obj
 0001:00008b18       DIF_EDITPATH               0000000180009b18     lflua.obj
 0001:00008b20       DIF_LISTWRAPMODE           0000000180009b20     lflua.obj
 0001:00008b28       DIF_NOAUTOCOMPLETE         0000000180009b28     lflua.obj
 0001:00008b30       DIF_LISTAUTOHIGHLIGHT      0000000180009b30     lflua.obj
 0001:00008b38       DIF_LISTNOCLOSE            0000000180009b38     lflua.obj
 0001:00008b40       DIF_EDITPATHEXEC           0000000180009b40     lflua.obj
 0001:00008b48       DIF_HIDDEN                 0000000180009b48     lflua.obj
 0001:00008b50       DIF_READONLY               0000000180009b50     lflua.obj
 0001:00008b58       DIF_NOFOCUS                0000000180009b58     lflua.obj
 0001:00008b60       DIF_DISABLE                0000000180009b60     lflua.obj
 0001:00008b68       DIF_DEFAULTBUTTON          0000000180009b68     lflua.obj
 0001:00008b70       DIF_FOCUS                  0000000180009b70     lflua.obj
 0001:00008b78       DIF_RIGHTTEXT              0000000180009b78     lflua.obj
 0001:00008b80       DIF_WORDWRAP               0000000180009b80     lflua.obj
 0001:00008b88       DIF_NONE                   0000000180009b88     lflua.obj
 0001:00008b90       LIF_SELECTED               0000000180009b90     lflua.obj
 0001:00008b98       LIF_CHECKED                0000000180009b98     lflua.obj
 0001:00008ba0       LIF_SEPARATOR              0000000180009ba0     lflua.obj
 0001:00008ba8       LIF_DISABLE                0000000180009ba8     lflua.obj
 0001:00008bb0       LIF_GRAYED                 0000000180009bb0     lflua.obj
 0001:00008bb8       LIF_HIDDEN                 0000000180009bb8     lflua.obj
 0001:00008bc0       LIF_DELETEUSERDATA         0000000180009bc0     lflua.obj
 0001:00008bc8       LIF_NONE                   0000000180009bc8     lflua.obj
 0001:00008bd0       LIFIND_EXACTMATCH          0000000180009bd0     lflua.obj
 0001:00008bd8       LIFIND_NONE                0000000180009bd8     lflua.obj
 0001:00008be0       LINFO_SHOWNOBOX            0000000180009be0     lflua.obj
 0001:00008be8       LINFO_AUTOHIGHLIGHT        0000000180009be8     lflua.obj
 0001:00008bf0       LINFO_REVERSEHIGHLIGHT     0000000180009bf0     lflua.obj
 0001:00008bf8       LINFO_WRAPMODE             0000000180009bf8     lflua.obj
 0001:00008c00       LINFO_SHOWAMPERSAND        0000000180009c00     lflua.obj
 0001:00008c08       LINFO_NONE                 0000000180009c08     lflua.obj
 0001:00008c10       FDLG_WARNING               0000000180009c10     lflua.obj
 0001:00008c18       FDLG_SMALLDIALOG           0000000180009c18     lflua.obj
 0001:00008c20       FDLG_NODRAWSHADOW          0000000180009c20     lflua.obj
 0001:00008c28       FDLG_NODRAWPANEL           0000000180009c28     lflua.obj
 0001:00008c30       FDLG_KEEPCONSOLETITLE      0000000180009c30     lflua.obj
 0001:00008c38       FDLG_NONMODAL              0000000180009c38     lflua.obj
 0001:00008c40       FDLG_NONE                  0000000180009c40     lflua.obj
 0001:00008c48       MIF_SELECTED               0000000180009c48     lflua.obj
 0001:00008c50       MIF_CHECKED                0000000180009c50     lflua.obj
 0001:00008c58       MIF_SEPARATOR              0000000180009c58     lflua.obj
 0001:00008c60       MIF_DISABLE                0000000180009c60     lflua.obj
 0001:00008c68       MIF_GRAYED                 0000000180009c68     lflua.obj
 0001:00008c70       MIF_HIDDEN                 0000000180009c70     lflua.obj
 0001:00008c78       MIF_NONE                   0000000180009c78     lflua.obj
 0001:00008c80       FMENU_SHOWAMPERSAND        0000000180009c80     lflua.obj
 0001:00008c88       FMENU_WRAPMODE             0000000180009c88     lflua.obj
 0001:00008c90       FMENU_AUTOHIGHLIGHT        0000000180009c90     lflua.obj
 0001:00008c98       FMENU_REVERSEAUTOHIGHLIGHT 0000000180009c98     lflua.obj
 0001:00008ca0       FMENU_CHANGECONSOLETITLE   0000000180009ca0     lflua.obj
 0001:00008ca8       FMENU_NONE                 0000000180009ca8     lflua.obj
 0001:00008cb0       PPIF_SELECTED              0000000180009cb0     lflua.obj
 0001:00008cb8       PPIF_PROCESSDESCR          0000000180009cb8     lflua.obj
 0001:00008cc0       PPIF_NONE                  0000000180009cc0     lflua.obj
 0001:00008cc8       PFLAGS_SHOWHIDDEN          0000000180009cc8     lflua.obj
 0001:00008cd0       PFLAGS_HIGHLIGHT           0000000180009cd0     lflua.obj
 0001:00008cd8       PFLAGS_REVERSESORTORDER    0000000180009cd8     lflua.obj
 0001:00008ce0       PFLAGS_USESORTGROUPS       0000000180009ce0     lflua.obj
 0001:00008ce8       PFLAGS_SELECTEDFIRST       0000000180009ce8     lflua.obj
 0001:00008cf0       PFLAGS_REALNAMES           0000000180009cf0     lflua.obj
 0001:00008cf8       PFLAGS_PANELLEFT           0000000180009cf8     lflua.obj
 0001:00008d00       PFLAGS_DIRECTORIESFIRST    0000000180009d00     lflua.obj
 0001:00008d08       PFLAGS_USECRC32            0000000180009d08     lflua.obj
 0001:00008d10       PFLAGS_PLUGIN              0000000180009d10     lflua.obj
 0001:00008d18       PFLAGS_VISIBLE             0000000180009d18     lflua.obj
 0001:00008d20       PFLAGS_FOCUS               0000000180009d20     lflua.obj
 0001:00008d28       PFLAGS_ALTERNATIVENAMES    0000000180009d28     lflua.obj
 0001:00008d30       PFLAGS_SHORTCUT            0000000180009d30     lflua.obj
 0001:00008d38       PFLAGS_NONE                0000000180009d38     lflua.obj
 0001:00008d40       VF_NONMODAL                0000000180009d40     lflua.obj
 0001:00008d48       VF_DELETEONCLOSE           0000000180009d48     lflua.obj
 0001:00008d50       VF_ENABLE_F6               0000000180009d50     lflua.obj
 0001:00008d58       VF_DISABLEHISTORY          0000000180009d58     lflua.obj
 0001:00008d60       VF_IMMEDIATERETURN         0000000180009d60     lflua.obj
 0001:00008d68       VF_DELETEONLYFILEONCLOSE   0000000180009d68     lflua.obj
 0001:00008d70       VF_NONE                    0000000180009d70     lflua.obj
 0001:00008d78       EF_NONMODAL                0000000180009d78     lflua.obj
 0001:00008d80       EF_CREATENEW               0000000180009d80     lflua.obj
 0001:00008d88       EF_ENABLE_F6               0000000180009d88     lflua.obj
 0001:00008d90       EF_DISABLEHISTORY          0000000180009d90     lflua.obj
 0001:00008d98       EF_DELETEONCLOSE           0000000180009d98     lflua.obj
 0001:00008da0       EF_IMMEDIATERETURN         0000000180009da0     lflua.obj
 0001:00008da8       EF_DELETEONLYFILEONCLOSE   0000000180009da8     lflua.obj
 0001:00008db0       EF_LOCKED                  0000000180009db0     lflua.obj
 0001:00008db8       EF_DISABLESAVEPOS          0000000180009db8     lflua.obj
 0001:00008dc0       EF_OPENMODE_MASK           0000000180009dc0     lflua.obj
 0001:00008dc8       EF_OPENMODE_QUERY          0000000180009dc8     lflua.obj
 0001:00008dd0       EF_OPENMODE_NEWIFOPEN      0000000180009dd0     lflua.obj
 0001:00008dd8       EF_OPENMODE_USEEXISTING    0000000180009dd8     lflua.obj
 0001:00008de0       EF_OPENMODE_BREAKIFOPEN    0000000180009de0     lflua.obj
 0001:00008de8       EF_OPENMODE_RELOADIFOPEN   0000000180009de8     lflua.obj
 0001:00008df0       EN_NONE                    0000000180009df0     lflua.obj
 0001:00008df8       FHELP_NOSHOWERROR          0000000180009df8     lflua.obj
 0001:00008e00       FHELP_SELFHELP             0000000180009e00     lflua.obj
 0001:00008e08       FHELP_FARHELP              0000000180009e08     lflua.obj
 0001:00008e10       FHELP_CUSTOMFILE           0000000180009e10     lflua.obj
 0001:00008e18       FHELP_CUSTOMPATH           0000000180009e18     lflua.obj
 0001:00008e20       FHELP_GUID                 0000000180009e20     lflua.obj
 0001:00008e28       FHELP_USECONTENTS          0000000180009e28     lflua.obj
 0001:00008e30       FHELP_NONE                 0000000180009e30     lflua.obj
 0001:00008e38       KMFLAGS_SILENTCHECK        0000000180009e38     lflua.obj
 0001:00008e40       KMFLAGS_NOSENDKEYSTOPLUGINS 0000000180009e40     lflua.obj
 0001:00008e48       KMFLAGS_ENABLEOUTPUT       0000000180009e48     lflua.obj
 0001:00008e50       KMFLAGS_LANGMASK           0000000180009e50     lflua.obj
 0001:00008e58       KMFLAGS_LUA                0000000180009e58     lflua.obj
 0001:00008e60       KMFLAGS_MOONSCRIPT         0000000180009e60     lflua.obj
 0001:00008e68       KMFLAGS_NONE               0000000180009e68     lflua.obj
 0001:00008e70       AKMFLAGS_NONE              0000000180009e70     lflua.obj
 0001:00008e78       FSETCLR_REDRAW             0000000180009e78     lflua.obj
 0001:00008e80       FSETCLR_NONE               0000000180009e80     lflua.obj
 0001:00008e88       WIF_MODIFIED               0000000180009e88     lflua.obj
 0001:00008e90       WIF_CURRENT                0000000180009e90     lflua.obj
 0001:00008e98       WIF_MODAL                  0000000180009e98     lflua.obj
 0001:00008ea0       WIF_NONE                   0000000180009ea0     lflua.obj
 0001:00008ea8       VOPT_SAVEFILEPOSITION      0000000180009ea8     lflua.obj
 0001:00008eb0       VOPT_AUTODETECTCODEPAGE    0000000180009eb0     lflua.obj
 0001:00008eb8       VOPT_SHOWTITLEBAR          0000000180009eb8     lflua.obj
 0001:00008ec0       VOPT_SHOWKEYBAR            0000000180009ec0     lflua.obj
 0001:00008ec8       VOPT_SHOWSCROLLBAR         0000000180009ec8     lflua.obj
 0001:00008ed0       VOPT_QUICKVIEW             0000000180009ed0     lflua.obj
 0001:00008ed8       VOPT_NONE                  0000000180009ed8     lflua.obj
 0001:00008ee0       VSMFL_REDRAW               0000000180009ee0     lflua.obj
 0001:00008ee8       VSMFL_NONE                 0000000180009ee8     lflua.obj
 0001:00008ef0       VSP_NOREDRAW               0000000180009ef0     lflua.obj
 0001:00008ef8       VSP_PERCENT                0000000180009ef8     lflua.obj
 0001:00008f00       VSP_RELATIVE               0000000180009f00     lflua.obj
 0001:00008f08       VSP_NORETNEWPOS            0000000180009f08     lflua.obj
 0001:00008f10       VSP_NONE                   0000000180009f10     lflua.obj
 0001:00008f18       VMF_WRAP                   0000000180009f18     lflua.obj
 0001:00008f20       VMF_WORDWRAP               0000000180009f20     lflua.obj
 0001:00008f28       VMF_NONE                   0000000180009f28     lflua.obj
 0001:00008f30       ECF_TABMARKFIRST           0000000180009f30     lflua.obj
 0001:00008f38       ECF_TABMARKCURRENT         0000000180009f38     lflua.obj
 0001:00008f40       ECF_AUTODELETE             0000000180009f40     lflua.obj
 0001:00008f48       ECF_NONE                   0000000180009f48     lflua.obj
 0001:00008f50       FIB_ENABLEEMPTY            0000000180009f50     lflua.obj
 0001:00008f58       FIB_PASSWORD               0000000180009f58     lflua.obj
 0001:00008f60       FIB_EXPANDENV              0000000180009f60     lflua.obj
 0001:00008f68       FIB_NOUSELASTHISTORY       0000000180009f68     lflua.obj
 0001:00008f70       FIB_BUTTONS                0000000180009f70     lflua.obj
 0001:00008f78       FIB_NOAMPERSAND            0000000180009f78     lflua.obj
 0001:00008f80       FIB_EDITPATH               0000000180009f80     lflua.obj
 0001:00008f88       FIB_EDITPATHEXEC           0000000180009f88     lflua.obj
 0001:00008f90       FIB_NONE                   0000000180009f90     lflua.obj
 0001:00008f98       FPF_LOADED                 0000000180009f98     lflua.obj
 0001:00008fa0       FPF_ANSI                   0000000180009fa0     lflua.obj
 0001:00008fa8       FPF_NONE                   0000000180009fa8     lflua.obj
 0001:00008fb0       PN_CMPNAME                 0000000180009fb0     lflua.obj
 0001:00008fb8       PN_CMPNAMELIST             0000000180009fb8     lflua.obj
 0001:00008fc0       PN_GENERATENAME            0000000180009fc0     lflua.obj
 0001:00008fc8       PN_CHECKMASK               0000000180009fc8     lflua.obj
 0001:00008fd0       PN_SKIPPATH                0000000180009fd0     lflua.obj
 0001:00008fd8       PN_SHOWERRORMESSAGE        0000000180009fd8     lflua.obj
 0001:00008fe0       PN_NONE                    0000000180009fe0     lflua.obj
 0001:00008fe8       XLAT_SWITCHKEYBLAYOUT      0000000180009fe8     lflua.obj
 0001:00008ff0       XLAT_SWITCHKEYBBEEP        0000000180009ff0     lflua.obj
 0001:00008ff8       XLAT_USEKEYBLAYOUTNAME     0000000180009ff8     lflua.obj
 0001:00009000       XLAT_CONVERTALLCMDLINE     000000018000a000     lflua.obj
 0001:00009008       XLAT_NONE                  000000018000a008     lflua.obj
 0001:00009010       FRS_RETUPDIR               000000018000a010     lflua.obj
 0001:00009018       FRS_RECUR                  000000018000a018     lflua.obj
 0001:00009020       FRS_SCANSYMLINK            000000018000a020     lflua.obj
 0001:00009028       FRS_NONE                   000000018000a028     lflua.obj
 0001:00009030       MLF_SHOWERRMSG             000000018000a030     lflua.obj
 0001:00009038       MLF_DONOTUPDATEPANEL       000000018000a038     lflua.obj
 0001:00009040       MLF_HOLDTARGET             000000018000a040     lflua.obj
 0001:00009048       MLF_NONE                   000000018000a048     lflua.obj
 0001:00009050       FFFS_COMMAS                000000018000a050     lflua.obj
 0001:00009058       FFFS_FLOATSIZE             000000018000a058     lflua.obj
 0001:00009060       FFFS_SHOWBYTESINDEX        000000018000a060     lflua.obj
 0001:00009068       FFFS_ECONOMIC              000000018000a068     lflua.obj
 0001:00009070       FFFS_THOUSAND              000000018000a070     lflua.obj
 0001:00009078       FFFS_MINSIZEINDEX          000000018000a078     lflua.obj
 0001:00009080       FFFS_MINSIZEINDEX_MASK     000000018000a080     lflua.obj
 0001:00009088       FFFS_NONE                  000000018000a088     lflua.obj
 0001:00009090       PF_PRELOAD                 000000018000a090     lflua.obj
 0001:00009098       PF_DISABLEPANELS           000000018000a098     lflua.obj
 0001:000090a0       PF_EDITOR                  000000018000a0a0     lflua.obj
 0001:000090a8       PF_VIEWER                  000000018000a0a8     lflua.obj
 0001:000090b0       PF_FULLCMDLINE             000000018000a0b0     lflua.obj
 0001:000090b8       PF_DIALOG                  000000018000a0b8     lflua.obj
 0001:000090c0       PF_NONE                    000000018000a0c0     lflua.obj
 0001:000090c8       IPLFLAGS_SEPARATOR         000000018000a0c8     lflua.obj
 0001:000090d0       IPLFLAGS_NONE              000000018000a0d0     lflua.obj
 0001:000090d8       PMFLAGS_FULLSCREEN         000000018000a0d8     lflua.obj
 0001:000090e0       PMFLAGS_DETAILEDSTATUS     000000018000a0e0     lflua.obj
 0001:000090e8       PMFLAGS_ALIGNEXTENSIONS    000000018000a0e8     lflua.obj
 0001:000090f0       PMFLAGS_CASECONVERSION     000000018000a0f0     lflua.obj
 0001:000090f8       PMFLAGS_NONE               000000018000a0f8     lflua.obj
 0001:00009100       OPIF_DISABLEFILTER         000000018000a100     lflua.obj
 0001:00009108       OPIF_DISABLESORTGROUPS     000000018000a108     lflua.obj
 0001:00009110       OPIF_DISABLEHIGHLIGHTING   000000018000a110     lflua.obj
 0001:00009118       OPIF_ADDDOTS               000000018000a118     lflua.obj
 0001:00009120       OPIF_RAWSELECTION          000000018000a120     lflua.obj
 0001:00009128       OPIF_REALNAMES             000000018000a128     lflua.obj
 0001:00009130       OPIF_SHOWNAMESONLY         000000018000a130     lflua.obj
 0001:00009138       OPIF_SHOWRIGHTALIGNNAMES   000000018000a138     lflua.obj
 0001:00009140       OPIF_SHOWPRESERVECASE      000000018000a140     lflua.obj
 0001:00009148       OPIF_COMPAREFATTIME        000000018000a148     lflua.obj
 0001:00009150       OPIF_EXTERNALGET           000000018000a150     lflua.obj
 0001:00009158       OPIF_EXTERNALPUT           000000018000a158     lflua.obj
 0001:00009160       OPIF_EXTERNALDELETE        000000018000a160     lflua.obj
 0001:00009168       OPIF_EXTERNALMKDIR         000000018000a168     lflua.obj
 0001:00009170       OPIF_USEATTRHIGHLIGHTING   000000018000a170     lflua.obj
 0001:00009178       OPIF_USECRC32              000000018000a178     lflua.obj
 0001:00009180       OPIF_USEFREESIZE           000000018000a180     lflua.obj
 0001:00009188       OPIF_SHORTCUT              000000018000a188     lflua.obj
 0001:00009190       OPIF_NONE                  000000018000a190     lflua.obj
 0001:00009198       OPM_SILENT                 000000018000a198     lflua.obj
 0001:000091a0       OPM_FIND                   000000018000a1a0     lflua.obj
 0001:000091a8       OPM_VIEW                   000000018000a1a8     lflua.obj
 0001:000091b0       OPM_EDIT                   000000018000a1b0     lflua.obj
 0001:000091b8       OPM_TOPLEVEL               000000018000a1b8     lflua.obj
 0001:000091c0       OPM_DESCR                  000000018000a1c0     lflua.obj
 0001:000091c8       OPM_QUICKVIEW              000000018000a1c8     lflua.obj
 0001:000091d0       OPM_PGDN                   000000018000a1d0     lflua.obj
 0001:000091d8       OPM_COMMANDS               000000018000a1d8     lflua.obj
 0001:000091e0       OPM_NONE                   000000018000a1e0     lflua.obj
 0001:000091e8       FOSF_ACTIVE                000000018000a1e8     lflua.obj
 0001:000091f0       FOSF_NONE                  000000018000a1f0     lflua.obj
 0001:000091f8       PCIF_NONE                  000000018000a1f8     lflua.obj
 0001:00009200       FarGuid                    000000018000a200     lflua.obj
 0001:00009210       PDF_DIALOGEVENTDRAWENABLE  000000018000a210     lflua.obj
 0001:00009218       PDF_PROCESSINGERROR        000000018000a218     lflua.obj
 0001:000093f0       FCF_FG_4BIT                000000018000a3f0     lregex.obj
 0001:000093f8       FCF_BG_4BIT                000000018000a3f8     lregex.obj
 0001:00009400       FCF_4BITMASK               000000018000a400     lregex.obj
 0001:00009408       FCF_RAWATTR_MASK           000000018000a408     lregex.obj
 0001:00009410       FCF_EXTENDEDFLAGS          000000018000a410     lregex.obj
 0001:00009418       FCF_FG_BOLD                000000018000a418     lregex.obj
 0001:00009420       FCF_FG_ITALIC              000000018000a420     lregex.obj
 0001:00009428       FCF_FG_UNDERLINE           000000018000a428     lregex.obj
 0001:00009430       FCF_STYLEMASK              000000018000a430     lregex.obj
 0001:00009438       FCF_NONE                   000000018000a438     lregex.obj
 0001:00009440       CDF_NONE                   000000018000a440     lregex.obj
 0001:00009448       FMSG_WARNING               000000018000a448     lregex.obj
 0001:00009450       FMSG_ERRORTYPE             000000018000a450     lregex.obj
 0001:00009458       FMSG_KEEPBACKGROUND        000000018000a458     lregex.obj
 0001:00009460       FMSG_LEFTALIGN             000000018000a460     lregex.obj
 0001:00009468       FMSG_ALLINONE              000000018000a468     lregex.obj
 0001:00009470       FMSG_MB_OK                 000000018000a470     lregex.obj
 0001:00009478       FMSG_MB_OKCANCEL           000000018000a478     lregex.obj
 0001:00009480       FMSG_MB_ABORTRETRYIGNORE   000000018000a480     lregex.obj
 0001:00009488       FMSG_MB_YESNO              000000018000a488     lregex.obj
 0001:00009490       FMSG_MB_YESNOCANCEL        000000018000a490     lregex.obj
 0001:00009498       FMSG_MB_RETRYCANCEL        000000018000a498     lregex.obj
 0001:000094a0       FMSG_NONE                  000000018000a4a0     lregex.obj
 0001:000094a8       DIF_BOXCOLOR               000000018000a4a8     lregex.obj
 0001:000094b0       DIF_GROUP                  000000018000a4b0     lregex.obj
 0001:000094b8       DIF_LEFTTEXT               000000018000a4b8     lregex.obj
 0001:000094c0       DIF_MOVESELECT             000000018000a4c0     lregex.obj
 0001:000094c8       DIF_SHOWAMPERSAND          000000018000a4c8     lregex.obj
 0001:000094d0       DIF_CENTERGROUP            000000018000a4d0     lregex.obj
 0001:000094d8       DIF_NOBRACKETS             000000018000a4d8     lregex.obj
 0001:000094e0       DIF_MANUALADDHISTORY       000000018000a4e0     lregex.obj
 0001:000094e8       DIF_SEPARATOR              000000018000a4e8     lregex.obj
 0001:000094f0       DIF_SEPARATOR2             000000018000a4f0     lregex.obj
 0001:000094f8       DIF_EDITOR                 000000018000a4f8     lregex.obj
 0001:00009500       DIF_LISTNOAMPERSAND        000000018000a500     lregex.obj
 0001:00009508       DIF_LISTNOBOX              000000018000a508     lregex.obj
 0001:00009510       DIF_HISTORY                000000018000a510     lregex.obj
 0001:00009518       DIF_BTNNOCLOSE             000000018000a518     lregex.obj
 0001:00009520       DIF_CENTERTEXT             000000018000a520     lregex.obj
 0001:00009528       DIF_SEPARATORUSER          000000018000a528     lregex.obj
 0001:00009530       DIF_SETSHIELD              000000018000a530     lregex.obj
 0001:00009538       DIF_EDITEXPAND             000000018000a538     lregex.obj
 0001:00009540       DIF_DROPDOWNLIST           000000018000a540     lregex.obj
 0001:00009548       DIF_USELASTHISTORY         000000018000a548     lregex.obj
 0001:00009550       DIF_MASKEDIT               000000018000a550     lregex.obj
 0001:00009558       DIF_LISTTRACKMOUSE         000000018000a558     lregex.obj
 0001:00009560       DIF_LISTTRACKMOUSEINFOCUS  000000018000a560     lregex.obj
 0001:00009568       DIF_SELECTONENTRY          000000018000a568     lregex.obj
 0001:00009570       DIF_3STATE                 000000018000a570     lregex.obj
 0001:00009578       DIF_EDITPATH               000000018000a578     lregex.obj
 0001:00009580       DIF_LISTWRAPMODE           000000018000a580     lregex.obj
 0001:00009588       DIF_NOAUTOCOMPLETE         000000018000a588     lregex.obj
 0001:00009590       DIF_LISTAUTOHIGHLIGHT      000000018000a590     lregex.obj
 0001:00009598       DIF_LISTNOCLOSE            000000018000a598     lregex.obj
 0001:000095a0       DIF_EDITPATHEXEC           000000018000a5a0     lregex.obj
 0001:000095a8       DIF_HIDDEN                 000000018000a5a8     lregex.obj
 0001:000095b0       DIF_READONLY               000000018000a5b0     lregex.obj
 0001:000095b8       DIF_NOFOCUS                000000018000a5b8     lregex.obj
 0001:000095c0       DIF_DISABLE                000000018000a5c0     lregex.obj
 0001:000095c8       DIF_DEFAULTBUTTON          000000018000a5c8     lregex.obj
 0001:000095d0       DIF_FOCUS                  000000018000a5d0     lregex.obj
 0001:000095d8       DIF_RIGHTTEXT              000000018000a5d8     lregex.obj
 0001:000095e0       DIF_WORDWRAP               000000018000a5e0     lregex.obj
 0001:000095e8       DIF_NONE                   000000018000a5e8     lregex.obj
 0001:000095f0       LIF_SELECTED               000000018000a5f0     lregex.obj
 0001:000095f8       LIF_CHECKED                000000018000a5f8     lregex.obj
 0001:00009600       LIF_SEPARATOR              000000018000a600     lregex.obj
 0001:00009608       LIF_DISABLE                000000018000a608     lregex.obj
 0001:00009610       LIF_GRAYED                 000000018000a610     lregex.obj
 0001:00009618       LIF_HIDDEN                 000000018000a618     lregex.obj
 0001:00009620       LIF_DELETEUSERDATA         000000018000a620     lregex.obj
 0001:00009628       LIF_NONE                   000000018000a628     lregex.obj
 0001:00009630       LIFIND_EXACTMATCH          000000018000a630     lregex.obj
 0001:00009638       LIFIND_NONE                000000018000a638     lregex.obj
 0001:00009640       LINFO_SHOWNOBOX            000000018000a640     lregex.obj
 0001:00009648       LINFO_AUTOHIGHLIGHT        000000018000a648     lregex.obj
 0001:00009650       LINFO_REVERSEHIGHLIGHT     000000018000a650     lregex.obj
 0001:00009658       LINFO_WRAPMODE             000000018000a658     lregex.obj
 0001:00009660       LINFO_SHOWAMPERSAND        000000018000a660     lregex.obj
 0001:00009668       LINFO_NONE                 000000018000a668     lregex.obj
 0001:00009670       FDLG_WARNING               000000018000a670     lregex.obj
 0001:00009678       FDLG_SMALLDIALOG           000000018000a678     lregex.obj
 0001:00009680       FDLG_NODRAWSHADOW          000000018000a680     lregex.obj
 0001:00009688       FDLG_NODRAWPANEL           000000018000a688     lregex.obj
 0001:00009690       FDLG_KEEPCONSOLETITLE      000000018000a690     lregex.obj
 0001:00009698       FDLG_NONMODAL              000000018000a698     lregex.obj
 0001:000096a0       FDLG_NONE                  000000018000a6a0     lregex.obj
 0001:000096a8       MIF_SELECTED               000000018000a6a8     lregex.obj
 0001:000096b0       MIF_CHECKED                000000018000a6b0     lregex.obj
 0001:000096b8       MIF_SEPARATOR              000000018000a6b8     lregex.obj
 0001:000096c0       MIF_DISABLE                000000018000a6c0     lregex.obj
 0001:000096c8       MIF_GRAYED                 000000018000a6c8     lregex.obj
 0001:000096d0       MIF_HIDDEN                 000000018000a6d0     lregex.obj
 0001:000096d8       MIF_NONE                   000000018000a6d8     lregex.obj
 0001:000096e0       FMENU_SHOWAMPERSAND        000000018000a6e0     lregex.obj
 0001:000096e8       FMENU_WRAPMODE             000000018000a6e8     lregex.obj
 0001:000096f0       FMENU_AUTOHIGHLIGHT        000000018000a6f0     lregex.obj
 0001:000096f8       FMENU_REVERSEAUTOHIGHLIGHT 000000018000a6f8     lregex.obj
 0001:00009700       FMENU_CHANGECONSOLETITLE   000000018000a700     lregex.obj
 0001:00009708       FMENU_NONE                 000000018000a708     lregex.obj
 0001:00009710       PPIF_SELECTED              000000018000a710     lregex.obj
 0001:00009718       PPIF_PROCESSDESCR          000000018000a718     lregex.obj
 0001:00009720       PPIF_NONE                  000000018000a720     lregex.obj
 0001:00009728       PFLAGS_SHOWHIDDEN          000000018000a728     lregex.obj
 0001:00009730       PFLAGS_HIGHLIGHT           000000018000a730     lregex.obj
 0001:00009738       PFLAGS_REVERSESORTORDER    000000018000a738     lregex.obj
 0001:00009740       PFLAGS_USESORTGROUPS       000000018000a740     lregex.obj
 0001:00009748       PFLAGS_SELECTEDFIRST       000000018000a748     lregex.obj
 0001:00009750       PFLAGS_REALNAMES           000000018000a750     lregex.obj
 0001:00009758       PFLAGS_PANELLEFT           000000018000a758     lregex.obj
 0001:00009760       PFLAGS_DIRECTORIESFIRST    000000018000a760     lregex.obj
 0001:00009768       PFLAGS_USECRC32            000000018000a768     lregex.obj
 0001:00009770       PFLAGS_PLUGIN              000000018000a770     lregex.obj
 0001:00009778       PFLAGS_VISIBLE             000000018000a778     lregex.obj
 0001:00009780       PFLAGS_FOCUS               000000018000a780     lregex.obj
 0001:00009788       PFLAGS_ALTERNATIVENAMES    000000018000a788     lregex.obj
 0001:00009790       PFLAGS_SHORTCUT            000000018000a790     lregex.obj
 0001:00009798       PFLAGS_NONE                000000018000a798     lregex.obj
 0001:000097a0       VF_NONMODAL                000000018000a7a0     lregex.obj
 0001:000097a8       VF_DELETEONCLOSE           000000018000a7a8     lregex.obj
 0001:000097b0       VF_ENABLE_F6               000000018000a7b0     lregex.obj
 0001:000097b8       VF_DISABLEHISTORY          000000018000a7b8     lregex.obj
 0001:000097c0       VF_IMMEDIATERETURN         000000018000a7c0     lregex.obj
 0001:000097c8       VF_DELETEONLYFILEONCLOSE   000000018000a7c8     lregex.obj
 0001:000097d0       VF_NONE                    000000018000a7d0     lregex.obj
 0001:000097d8       EF_NONMODAL                000000018000a7d8     lregex.obj
 0001:000097e0       EF_CREATENEW               000000018000a7e0     lregex.obj
 0001:000097e8       EF_ENABLE_F6               000000018000a7e8     lregex.obj
 0001:000097f0       EF_DISABLEHISTORY          000000018000a7f0     lregex.obj
 0001:000097f8       EF_DELETEONCLOSE           000000018000a7f8     lregex.obj
 0001:00009800       EF_IMMEDIATERETURN         000000018000a800     lregex.obj
 0001:00009808       EF_DELETEONLYFILEONCLOSE   000000018000a808     lregex.obj
 0001:00009810       EF_LOCKED                  000000018000a810     lregex.obj
 0001:00009818       EF_DISABLESAVEPOS          000000018000a818     lregex.obj
 0001:00009820       EF_OPENMODE_MASK           000000018000a820     lregex.obj
 0001:00009828       EF_OPENMODE_QUERY          000000018000a828     lregex.obj
 0001:00009830       EF_OPENMODE_NEWIFOPEN      000000018000a830     lregex.obj
 0001:00009838       EF_OPENMODE_USEEXISTING    000000018000a838     lregex.obj
 0001:00009840       EF_OPENMODE_BREAKIFOPEN    000000018000a840     lregex.obj
 0001:00009848       EF_OPENMODE_RELOADIFOPEN   000000018000a848     lregex.obj
 0001:00009850       EN_NONE                    000000018000a850     lregex.obj
 0001:00009858       FHELP_NOSHOWERROR          000000018000a858     lregex.obj
 0001:00009860       FHELP_SELFHELP             000000018000a860     lregex.obj
 0001:00009868       FHELP_FARHELP              000000018000a868     lregex.obj
 0001:00009870       FHELP_CUSTOMFILE           000000018000a870     lregex.obj
 0001:00009878       FHELP_CUSTOMPATH           000000018000a878     lregex.obj
 0001:00009880       FHELP_GUID                 000000018000a880     lregex.obj
 0001:00009888       FHELP_USECONTENTS          000000018000a888     lregex.obj
 0001:00009890       FHELP_NONE                 000000018000a890     lregex.obj
 0001:00009898       KMFLAGS_SILENTCHECK        000000018000a898     lregex.obj
 0001:000098a0       KMFLAGS_NOSENDKEYSTOPLUGINS 000000018000a8a0     lregex.obj
 0001:000098a8       KMFLAGS_ENABLEOUTPUT       000000018000a8a8     lregex.obj
 0001:000098b0       KMFLAGS_LANGMASK           000000018000a8b0     lregex.obj
 0001:000098b8       KMFLAGS_LUA                000000018000a8b8     lregex.obj
 0001:000098c0       KMFLAGS_MOONSCRIPT         000000018000a8c0     lregex.obj
 0001:000098c8       KMFLAGS_NONE               000000018000a8c8     lregex.obj
 0001:000098d0       AKMFLAGS_NONE              000000018000a8d0     lregex.obj
 0001:000098d8       FSETCLR_REDRAW             000000018000a8d8     lregex.obj
 0001:000098e0       FSETCLR_NONE               000000018000a8e0     lregex.obj
 0001:000098e8       WIF_MODIFIED               000000018000a8e8     lregex.obj
 0001:000098f0       WIF_CURRENT                000000018000a8f0     lregex.obj
 0001:000098f8       WIF_MODAL                  000000018000a8f8     lregex.obj
 0001:00009900       WIF_NONE                   000000018000a900     lregex.obj
 0001:00009908       VOPT_SAVEFILEPOSITION      000000018000a908     lregex.obj
 0001:00009910       VOPT_AUTODETECTCODEPAGE    000000018000a910     lregex.obj
 0001:00009918       VOPT_SHOWTITLEBAR          000000018000a918     lregex.obj
 0001:00009920       VOPT_SHOWKEYBAR            000000018000a920     lregex.obj
 0001:00009928       VOPT_SHOWSCROLLBAR         000000018000a928     lregex.obj
 0001:00009930       VOPT_QUICKVIEW             000000018000a930     lregex.obj
 0001:00009938       VOPT_NONE                  000000018000a938     lregex.obj
 0001:00009940       VSMFL_REDRAW               000000018000a940     lregex.obj
 0001:00009948       VSMFL_NONE                 000000018000a948     lregex.obj
 0001:00009950       VSP_NOREDRAW               000000018000a950     lregex.obj
 0001:00009958       VSP_PERCENT                000000018000a958     lregex.obj
 0001:00009960       VSP_RELATIVE               000000018000a960     lregex.obj
 0001:00009968       VSP_NORETNEWPOS            000000018000a968     lregex.obj
 0001:00009970       VSP_NONE                   000000018000a970     lregex.obj
 0001:00009978       VMF_WRAP                   000000018000a978     lregex.obj
 0001:00009980       VMF_WORDWRAP               000000018000a980     lregex.obj
 0001:00009988       VMF_NONE                   000000018000a988     lregex.obj
 0001:00009990       ECF_TABMARKFIRST           000000018000a990     lregex.obj
 0001:00009998       ECF_TABMARKCURRENT         000000018000a998     lregex.obj
 0001:000099a0       ECF_AUTODELETE             000000018000a9a0     lregex.obj
 0001:000099a8       ECF_NONE                   000000018000a9a8     lregex.obj
 0001:000099b0       FIB_ENABLEEMPTY            000000018000a9b0     lregex.obj
 0001:000099b8       FIB_PASSWORD               000000018000a9b8     lregex.obj
 0001:000099c0       FIB_EXPANDENV              000000018000a9c0     lregex.obj
 0001:000099c8       FIB_NOUSELASTHISTORY       000000018000a9c8     lregex.obj
 0001:000099d0       FIB_BUTTONS                000000018000a9d0     lregex.obj
 0001:000099d8       FIB_NOAMPERSAND            000000018000a9d8     lregex.obj
 0001:000099e0       FIB_EDITPATH               000000018000a9e0     lregex.obj
 0001:000099e8       FIB_EDITPATHEXEC           000000018000a9e8     lregex.obj
 0001:000099f0       FIB_NONE                   000000018000a9f0     lregex.obj
 0001:000099f8       FPF_LOADED                 000000018000a9f8     lregex.obj
 0001:00009a00       FPF_ANSI                   000000018000aa00     lregex.obj
 0001:00009a08       FPF_NONE                   000000018000aa08     lregex.obj
 0001:00009a10       PN_CMPNAME                 000000018000aa10     lregex.obj
 0001:00009a18       PN_CMPNAMELIST             000000018000aa18     lregex.obj
 0001:00009a20       PN_GENERATENAME            000000018000aa20     lregex.obj
 0001:00009a28       PN_CHECKMASK               000000018000aa28     lregex.obj
 0001:00009a30       PN_SKIPPATH                000000018000aa30     lregex.obj
 0001:00009a38       PN_SHOWERRORMESSAGE        000000018000aa38     lregex.obj
 0001:00009a40       PN_NONE                    000000018000aa40     lregex.obj
 0001:00009a48       XLAT_SWITCHKEYBLAYOUT      000000018000aa48     lregex.obj
 0001:00009a50       XLAT_SWITCHKEYBBEEP        000000018000aa50     lregex.obj
 0001:00009a58       XLAT_USEKEYBLAYOUTNAME     000000018000aa58     lregex.obj
 0001:00009a60       XLAT_CONVERTALLCMDLINE     000000018000aa60     lregex.obj
 0001:00009a68       XLAT_NONE                  000000018000aa68     lregex.obj
 0001:00009a70       FRS_RETUPDIR               000000018000aa70     lregex.obj
 0001:00009a78       FRS_RECUR                  000000018000aa78     lregex.obj
 0001:00009a80       FRS_SCANSYMLINK            000000018000aa80     lregex.obj
 0001:00009a88       FRS_NONE                   000000018000aa88     lregex.obj
 0001:00009a90       MLF_SHOWERRMSG             000000018000aa90     lregex.obj
 0001:00009a98       MLF_DONOTUPDATEPANEL       000000018000aa98     lregex.obj
 0001:00009aa0       MLF_HOLDTARGET             000000018000aaa0     lregex.obj
 0001:00009aa8       MLF_NONE                   000000018000aaa8     lregex.obj
 0001:00009ab0       FFFS_COMMAS                000000018000aab0     lregex.obj
 0001:00009ab8       FFFS_FLOATSIZE             000000018000aab8     lregex.obj
 0001:00009ac0       FFFS_SHOWBYTESINDEX        000000018000aac0     lregex.obj
 0001:00009ac8       FFFS_ECONOMIC              000000018000aac8     lregex.obj
 0001:00009ad0       FFFS_THOUSAND              000000018000aad0     lregex.obj
 0001:00009ad8       FFFS_MINSIZEINDEX          000000018000aad8     lregex.obj
 0001:00009ae0       FFFS_MINSIZEINDEX_MASK     000000018000aae0     lregex.obj
 0001:00009ae8       FFFS_NONE                  000000018000aae8     lregex.obj
 0001:00009af0       PF_PRELOAD                 000000018000aaf0     lregex.obj
 0001:00009af8       PF_DISABLEPANELS           000000018000aaf8     lregex.obj
 0001:00009b00       PF_EDITOR                  000000018000ab00     lregex.obj
 0001:00009b08       PF_VIEWER                  000000018000ab08     lregex.obj
 0001:00009b10       PF_FULLCMDLINE             000000018000ab10     lregex.obj
 0001:00009b18       PF_DIALOG                  000000018000ab18     lregex.obj
 0001:00009b20       PF_NONE                    000000018000ab20     lregex.obj
 0001:00009b28       IPLFLAGS_SEPARATOR         000000018000ab28     lregex.obj
 0001:00009b30       IPLFLAGS_NONE              000000018000ab30     lregex.obj
 0001:00009b38       PMFLAGS_FULLSCREEN         000000018000ab38     lregex.obj
 0001:00009b40       PMFLAGS_DETAILEDSTATUS     000000018000ab40     lregex.obj
 0001:00009b48       PMFLAGS_ALIGNEXTENSIONS    000000018000ab48     lregex.obj
 0001:00009b50       PMFLAGS_CASECONVERSION     000000018000ab50     lregex.obj
 0001:00009b58       PMFLAGS_NONE               000000018000ab58     lregex.obj
 0001:00009b60       OPIF_DISABLEFILTER         000000018000ab60     lregex.obj
 0001:00009b68       OPIF_DISABLESORTGROUPS     000000018000ab68     lregex.obj
 0001:00009b70       OPIF_DISABLEHIGHLIGHTING   000000018000ab70     lregex.obj
 0001:00009b78       OPIF_ADDDOTS               000000018000ab78     lregex.obj
 0001:00009b80       OPIF_RAWSELECTION          000000018000ab80     lregex.obj
 0001:00009b88       OPIF_REALNAMES             000000018000ab88     lregex.obj
 0001:00009b90       OPIF_SHOWNAMESONLY         000000018000ab90     lregex.obj
 0001:00009b98       OPIF_SHOWRIGHTALIGNNAMES   000000018000ab98     lregex.obj
 0001:00009ba0       OPIF_SHOWPRESERVECASE      000000018000aba0     lregex.obj
 0001:00009ba8       OPIF_COMPAREFATTIME        000000018000aba8     lregex.obj
 0001:00009bb0       OPIF_EXTERNALGET           000000018000abb0     lregex.obj
 0001:00009bb8       OPIF_EXTERNALPUT           000000018000abb8     lregex.obj
 0001:00009bc0       OPIF_EXTERNALDELETE        000000018000abc0     lregex.obj
 0001:00009bc8       OPIF_EXTERNALMKDIR         000000018000abc8     lregex.obj
 0001:00009bd0       OPIF_USEATTRHIGHLIGHTING   000000018000abd0     lregex.obj
 0001:00009bd8       OPIF_USECRC32              000000018000abd8     lregex.obj
 0001:00009be0       OPIF_USEFREESIZE           000000018000abe0     lregex.obj
 0001:00009be8       OPIF_SHORTCUT              000000018000abe8     lregex.obj
 0001:00009bf0       OPIF_NONE                  000000018000abf0     lregex.obj
 0001:00009bf8       OPM_SILENT                 000000018000abf8     lregex.obj
 0001:00009c00       OPM_FIND                   000000018000ac00     lregex.obj
 0001:00009c08       OPM_VIEW                   000000018000ac08     lregex.obj
 0001:00009c10       OPM_EDIT                   000000018000ac10     lregex.obj
 0001:00009c18       OPM_TOPLEVEL               000000018000ac18     lregex.obj
 0001:00009c20       OPM_DESCR                  000000018000ac20     lregex.obj
 0001:00009c28       OPM_QUICKVIEW              000000018000ac28     lregex.obj
 0001:00009c30       OPM_PGDN                   000000018000ac30     lregex.obj
 0001:00009c38       OPM_COMMANDS               000000018000ac38     lregex.obj
 0001:00009c40       OPM_NONE                   000000018000ac40     lregex.obj
 0001:00009c48       FOSF_ACTIVE                000000018000ac48     lregex.obj
 0001:00009c50       FOSF_NONE                  000000018000ac50     lregex.obj
 0001:00009c58       PCIF_NONE                  000000018000ac58     lregex.obj
 0001:00009c60       FarGuid                    000000018000ac60     lregex.obj
 0001:00009c70       PDF_DIALOGEVENTDRAWENABLE  000000018000ac70     lregex.obj
 0001:00009c78       PDF_PROCESSINGERROR        000000018000ac78     lregex.obj
 0001:00009e10       LuamacroGuid               000000018000ae10     luamacro.obj
 0001:00009e20       FCF_FG_4BIT                000000018000ae20     luamacro.obj
 0001:00009e28       FCF_BG_4BIT                000000018000ae28     luamacro.obj
 0001:00009e30       FCF_4BITMASK               000000018000ae30     luamacro.obj
 0001:00009e38       FCF_RAWATTR_MASK           000000018000ae38     luamacro.obj
 0001:00009e40       FCF_EXTENDEDFLAGS          000000018000ae40     luamacro.obj
 0001:00009e48       FCF_FG_BOLD                000000018000ae48     luamacro.obj
 0001:00009e50       FCF_FG_ITALIC              000000018000ae50     luamacro.obj
 0001:00009e58       FCF_FG_UNDERLINE           000000018000ae58     luamacro.obj
 0001:00009e60       FCF_STYLEMASK              000000018000ae60     luamacro.obj
 0001:00009e68       FCF_NONE                   000000018000ae68     luamacro.obj
 0001:00009e70       CDF_NONE                   000000018000ae70     luamacro.obj
 0001:00009e78       FMSG_WARNING               000000018000ae78     luamacro.obj
 0001:00009e80       FMSG_ERRORTYPE             000000018000ae80     luamacro.obj
 0001:00009e88       FMSG_KEEPBACKGROUND        000000018000ae88     luamacro.obj
 0001:00009e90       FMSG_LEFTALIGN             000000018000ae90     luamacro.obj
 0001:00009e98       FMSG_ALLINONE              000000018000ae98     luamacro.obj
 0001:00009ea0       FMSG_MB_OK                 000000018000aea0     luamacro.obj
 0001:00009ea8       FMSG_MB_OKCANCEL           000000018000aea8     luamacro.obj
 0001:00009eb0       FMSG_MB_ABORTRETRYIGNORE   000000018000aeb0     luamacro.obj
 0001:00009eb8       FMSG_MB_YESNO              000000018000aeb8     luamacro.obj
 0001:00009ec0       FMSG_MB_YESNOCANCEL        000000018000aec0     luamacro.obj
 0001:00009ec8       FMSG_MB_RETRYCANCEL        000000018000aec8     luamacro.obj
 0001:00009ed0       FMSG_NONE                  000000018000aed0     luamacro.obj
 0001:00009ed8       DIF_BOXCOLOR               000000018000aed8     luamacro.obj
 0001:00009ee0       DIF_GROUP                  000000018000aee0     luamacro.obj
 0001:00009ee8       DIF_LEFTTEXT               000000018000aee8     luamacro.obj
 0001:00009ef0       DIF_MOVESELECT             000000018000aef0     luamacro.obj
 0001:00009ef8       DIF_SHOWAMPERSAND          000000018000aef8     luamacro.obj
 0001:00009f00       DIF_CENTERGROUP            000000018000af00     luamacro.obj
 0001:00009f08       DIF_NOBRACKETS             000000018000af08     luamacro.obj
 0001:00009f10       DIF_MANUALADDHISTORY       000000018000af10     luamacro.obj
 0001:00009f18       DIF_SEPARATOR              000000018000af18     luamacro.obj
 0001:00009f20       DIF_SEPARATOR2             000000018000af20     luamacro.obj
 0001:00009f28       DIF_EDITOR                 000000018000af28     luamacro.obj
 0001:00009f30       DIF_LISTNOAMPERSAND        000000018000af30     luamacro.obj
 0001:00009f38       DIF_LISTNOBOX              000000018000af38     luamacro.obj
 0001:00009f40       DIF_HISTORY                000000018000af40     luamacro.obj
 0001:00009f48       DIF_BTNNOCLOSE             000000018000af48     luamacro.obj
 0001:00009f50       DIF_CENTERTEXT             000000018000af50     luamacro.obj
 0001:00009f58       DIF_SEPARATORUSER          000000018000af58     luamacro.obj
 0001:00009f60       DIF_SETSHIELD              000000018000af60     luamacro.obj
 0001:00009f68       DIF_EDITEXPAND             000000018000af68     luamacro.obj
 0001:00009f70       DIF_DROPDOWNLIST           000000018000af70     luamacro.obj
 0001:00009f78       DIF_USELASTHISTORY         000000018000af78     luamacro.obj
 0001:00009f80       DIF_MASKEDIT               000000018000af80     luamacro.obj
 0001:00009f88       DIF_LISTTRACKMOUSE         000000018000af88     luamacro.obj
 0001:00009f90       DIF_LISTTRACKMOUSEINFOCUS  000000018000af90     luamacro.obj
 0001:00009f98       DIF_SELECTONENTRY          000000018000af98     luamacro.obj
 0001:00009fa0       DIF_3STATE                 000000018000afa0     luamacro.obj
 0001:00009fa8       DIF_EDITPATH               000000018000afa8     luamacro.obj
 0001:00009fb0       DIF_LISTWRAPMODE           000000018000afb0     luamacro.obj
 0001:00009fb8       DIF_NOAUTOCOMPLETE         000000018000afb8     luamacro.obj
 0001:00009fc0       DIF_LISTAUTOHIGHLIGHT      000000018000afc0     luamacro.obj
 0001:00009fc8       DIF_LISTNOCLOSE            000000018000afc8     luamacro.obj
 0001:00009fd0       DIF_EDITPATHEXEC           000000018000afd0     luamacro.obj
 0001:00009fd8       DIF_HIDDEN                 000000018000afd8     luamacro.obj
 0001:00009fe0       DIF_READONLY               000000018000afe0     luamacro.obj
 0001:00009fe8       DIF_NOFOCUS                000000018000afe8     luamacro.obj
 0001:00009ff0       DIF_DISABLE                000000018000aff0     luamacro.obj
 0001:00009ff8       DIF_DEFAULTBUTTON          000000018000aff8     luamacro.obj
 0001:0000a000       DIF_FOCUS                  000000018000b000     luamacro.obj
 0001:0000a008       DIF_RIGHTTEXT              000000018000b008     luamacro.obj
 0001:0000a010       DIF_WORDWRAP               000000018000b010     luamacro.obj
 0001:0000a018       DIF_NONE                   000000018000b018     luamacro.obj
 0001:0000a020       LIF_SELECTED               000000018000b020     luamacro.obj
 0001:0000a028       LIF_CHECKED                000000018000b028     luamacro.obj
 0001:0000a030       LIF_SEPARATOR              000000018000b030     luamacro.obj
 0001:0000a038       LIF_DISABLE                000000018000b038     luamacro.obj
 0001:0000a040       LIF_GRAYED                 000000018000b040     luamacro.obj
 0001:0000a048       LIF_HIDDEN                 000000018000b048     luamacro.obj
 0001:0000a050       LIF_DELETEUSERDATA         000000018000b050     luamacro.obj
 0001:0000a058       LIF_NONE                   000000018000b058     luamacro.obj
 0001:0000a060       LIFIND_EXACTMATCH          000000018000b060     luamacro.obj
 0001:0000a068       LIFIND_NONE                000000018000b068     luamacro.obj
 0001:0000a070       LINFO_SHOWNOBOX            000000018000b070     luamacro.obj
 0001:0000a078       LINFO_AUTOHIGHLIGHT        000000018000b078     luamacro.obj
 0001:0000a080       LINFO_REVERSEHIGHLIGHT     000000018000b080     luamacro.obj
 0001:0000a088       LINFO_WRAPMODE             000000018000b088     luamacro.obj
 0001:0000a090       LINFO_SHOWAMPERSAND        000000018000b090     luamacro.obj
 0001:0000a098       LINFO_NONE                 000000018000b098     luamacro.obj
 0001:0000a0a0       FDLG_WARNING               000000018000b0a0     luamacro.obj
 0001:0000a0a8       FDLG_SMALLDIALOG           000000018000b0a8     luamacro.obj
 0001:0000a0b0       FDLG_NODRAWSHADOW          000000018000b0b0     luamacro.obj
 0001:0000a0b8       FDLG_NODRAWPANEL           000000018000b0b8     luamacro.obj
 0001:0000a0c0       FDLG_KEEPCONSOLETITLE      000000018000b0c0     luamacro.obj
 0001:0000a0c8       FDLG_NONMODAL              000000018000b0c8     luamacro.obj
 0001:0000a0d0       FDLG_NONE                  000000018000b0d0     luamacro.obj
 0001:0000a0d8       MIF_SELECTED               000000018000b0d8     luamacro.obj
 0001:0000a0e0       MIF_CHECKED                000000018000b0e0     luamacro.obj
 0001:0000a0e8       MIF_SEPARATOR              000000018000b0e8     luamacro.obj
 0001:0000a0f0       MIF_DISABLE                000000018000b0f0     luamacro.obj
 0001:0000a0f8       MIF_GRAYED                 000000018000b0f8     luamacro.obj
 0001:0000a100       MIF_HIDDEN                 000000018000b100     luamacro.obj
 0001:0000a108       MIF_NONE                   000000018000b108     luamacro.obj
 0001:0000a110       FMENU_SHOWAMPERSAND        000000018000b110     luamacro.obj
 0001:0000a118       FMENU_WRAPMODE             000000018000b118     luamacro.obj
 0001:0000a120       FMENU_AUTOHIGHLIGHT        000000018000b120     luamacro.obj
 0001:0000a128       FMENU_REVERSEAUTOHIGHLIGHT 000000018000b128     luamacro.obj
 0001:0000a130       FMENU_CHANGECONSOLETITLE   000000018000b130     luamacro.obj
 0001:0000a138       FMENU_NONE                 000000018000b138     luamacro.obj
 0001:0000a140       PPIF_SELECTED              000000018000b140     luamacro.obj
 0001:0000a148       PPIF_PROCESSDESCR          000000018000b148     luamacro.obj
 0001:0000a150       PPIF_NONE                  000000018000b150     luamacro.obj
 0001:0000a158       PFLAGS_SHOWHIDDEN          000000018000b158     luamacro.obj
 0001:0000a160       PFLAGS_HIGHLIGHT           000000018000b160     luamacro.obj
 0001:0000a168       PFLAGS_REVERSESORTORDER    000000018000b168     luamacro.obj
 0001:0000a170       PFLAGS_USESORTGROUPS       000000018000b170     luamacro.obj
 0001:0000a178       PFLAGS_SELECTEDFIRST       000000018000b178     luamacro.obj
 0001:0000a180       PFLAGS_REALNAMES           000000018000b180     luamacro.obj
 0001:0000a188       PFLAGS_PANELLEFT           000000018000b188     luamacro.obj
 0001:0000a190       PFLAGS_DIRECTORIESFIRST    000000018000b190     luamacro.obj
 0001:0000a198       PFLAGS_USECRC32            000000018000b198     luamacro.obj
 0001:0000a1a0       PFLAGS_PLUGIN              000000018000b1a0     luamacro.obj
 0001:0000a1a8       PFLAGS_VISIBLE             000000018000b1a8     luamacro.obj
 0001:0000a1b0       PFLAGS_FOCUS               000000018000b1b0     luamacro.obj
 0001:0000a1b8       PFLAGS_ALTERNATIVENAMES    000000018000b1b8     luamacro.obj
 0001:0000a1c0       PFLAGS_SHORTCUT            000000018000b1c0     luamacro.obj
 0001:0000a1c8       PFLAGS_NONE                000000018000b1c8     luamacro.obj
 0001:0000a1d0       VF_NONMODAL                000000018000b1d0     luamacro.obj
 0001:0000a1d8       VF_DELETEONCLOSE           000000018000b1d8     luamacro.obj
 0001:0000a1e0       VF_ENABLE_F6               000000018000b1e0     luamacro.obj
 0001:0000a1e8       VF_DISABLEHISTORY          000000018000b1e8     luamacro.obj
 0001:0000a1f0       VF_IMMEDIATERETURN         000000018000b1f0     luamacro.obj
 0001:0000a1f8       VF_DELETEONLYFILEONCLOSE   000000018000b1f8     luamacro.obj
 0001:0000a200       VF_NONE                    000000018000b200     luamacro.obj
 0001:0000a208       EF_NONMODAL                000000018000b208     luamacro.obj
 0001:0000a210       EF_CREATENEW               000000018000b210     luamacro.obj
 0001:0000a218       EF_ENABLE_F6               000000018000b218     luamacro.obj
 0001:0000a220       EF_DISABLEHISTORY          000000018000b220     luamacro.obj
 0001:0000a228       EF_DELETEONCLOSE           000000018000b228     luamacro.obj
 0001:0000a230       EF_IMMEDIATERETURN         000000018000b230     luamacro.obj
 0001:0000a238       EF_DELETEONLYFILEONCLOSE   000000018000b238     luamacro.obj
 0001:0000a240       EF_LOCKED                  000000018000b240     luamacro.obj
 0001:0000a248       EF_DISABLESAVEPOS          000000018000b248     luamacro.obj
 0001:0000a250       EF_OPENMODE_MASK           000000018000b250     luamacro.obj
 0001:0000a258       EF_OPENMODE_QUERY          000000018000b258     luamacro.obj
 0001:0000a260       EF_OPENMODE_NEWIFOPEN      000000018000b260     luamacro.obj
 0001:0000a268       EF_OPENMODE_USEEXISTING    000000018000b268     luamacro.obj
 0001:0000a270       EF_OPENMODE_BREAKIFOPEN    000000018000b270     luamacro.obj
 0001:0000a278       EF_OPENMODE_RELOADIFOPEN   000000018000b278     luamacro.obj
 0001:0000a280       EN_NONE                    000000018000b280     luamacro.obj
 0001:0000a288       FHELP_NOSHOWERROR          000000018000b288     luamacro.obj
 0001:0000a290       FHELP_SELFHELP             000000018000b290     luamacro.obj
 0001:0000a298       FHELP_FARHELP              000000018000b298     luamacro.obj
 0001:0000a2a0       FHELP_CUSTOMFILE           000000018000b2a0     luamacro.obj
 0001:0000a2a8       FHELP_CUSTOMPATH           000000018000b2a8     luamacro.obj
 0001:0000a2b0       FHELP_GUID                 000000018000b2b0     luamacro.obj
 0001:0000a2b8       FHELP_USECONTENTS          000000018000b2b8     luamacro.obj
 0001:0000a2c0       FHELP_NONE                 000000018000b2c0     luamacro.obj
 0001:0000a2c8       KMFLAGS_SILENTCHECK        000000018000b2c8     luamacro.obj
 0001:0000a2d0       KMFLAGS_NOSENDKEYSTOPLUGINS 000000018000b2d0     luamacro.obj
 0001:0000a2d8       KMFLAGS_ENABLEOUTPUT       000000018000b2d8     luamacro.obj
 0001:0000a2e0       KMFLAGS_LANGMASK           000000018000b2e0     luamacro.obj
 0001:0000a2e8       KMFLAGS_LUA                000000018000b2e8     luamacro.obj
 0001:0000a2f0       KMFLAGS_MOONSCRIPT         000000018000b2f0     luamacro.obj
 0001:0000a2f8       KMFLAGS_NONE               000000018000b2f8     luamacro.obj
 0001:0000a300       AKMFLAGS_NONE              000000018000b300     luamacro.obj
 0001:0000a308       FSETCLR_REDRAW             000000018000b308     luamacro.obj
 0001:0000a310       FSETCLR_NONE               000000018000b310     luamacro.obj
 0001:0000a318       WIF_MODIFIED               000000018000b318     luamacro.obj
 0001:0000a320       WIF_CURRENT                000000018000b320     luamacro.obj
 0001:0000a328       WIF_MODAL                  000000018000b328     luamacro.obj
 0001:0000a330       WIF_NONE                   000000018000b330     luamacro.obj
 0001:0000a338       VOPT_SAVEFILEPOSITION      000000018000b338     luamacro.obj
 0001:0000a340       VOPT_AUTODETECTCODEPAGE    000000018000b340     luamacro.obj
 0001:0000a348       VOPT_SHOWTITLEBAR          000000018000b348     luamacro.obj
 0001:0000a350       VOPT_SHOWKEYBAR            000000018000b350     luamacro.obj
 0001:0000a358       VOPT_SHOWSCROLLBAR         000000018000b358     luamacro.obj
 0001:0000a360       VOPT_QUICKVIEW             000000018000b360     luamacro.obj
 0001:0000a368       VOPT_NONE                  000000018000b368     luamacro.obj
 0001:0000a370       VSMFL_REDRAW               000000018000b370     luamacro.obj
 0001:0000a378       VSMFL_NONE                 000000018000b378     luamacro.obj
 0001:0000a380       VSP_NOREDRAW               000000018000b380     luamacro.obj
 0001:0000a388       VSP_PERCENT                000000018000b388     luamacro.obj
 0001:0000a390       VSP_RELATIVE               000000018000b390     luamacro.obj
 0001:0000a398       VSP_NORETNEWPOS            000000018000b398     luamacro.obj
 0001:0000a3a0       VSP_NONE                   000000018000b3a0     luamacro.obj
 0001:0000a3a8       VMF_WRAP                   000000018000b3a8     luamacro.obj
 0001:0000a3b0       VMF_WORDWRAP               000000018000b3b0     luamacro.obj
 0001:0000a3b8       VMF_NONE                   000000018000b3b8     luamacro.obj
 0001:0000a3c0       ECF_TABMARKFIRST           000000018000b3c0     luamacro.obj
 0001:0000a3c8       ECF_TABMARKCURRENT         000000018000b3c8     luamacro.obj
 0001:0000a3d0       ECF_AUTODELETE             000000018000b3d0     luamacro.obj
 0001:0000a3d8       ECF_NONE                   000000018000b3d8     luamacro.obj
 0001:0000a3e0       FIB_ENABLEEMPTY            000000018000b3e0     luamacro.obj
 0001:0000a3e8       FIB_PASSWORD               000000018000b3e8     luamacro.obj
 0001:0000a3f0       FIB_EXPANDENV              000000018000b3f0     luamacro.obj
 0001:0000a3f8       FIB_NOUSELASTHISTORY       000000018000b3f8     luamacro.obj
 0001:0000a400       FIB_BUTTONS                000000018000b400     luamacro.obj
 0001:0000a408       FIB_NOAMPERSAND            000000018000b408     luamacro.obj
 0001:0000a410       FIB_EDITPATH               000000018000b410     luamacro.obj
 0001:0000a418       FIB_EDITPATHEXEC           000000018000b418     luamacro.obj
 0001:0000a420       FIB_NONE                   000000018000b420     luamacro.obj
 0001:0000a428       FPF_LOADED                 000000018000b428     luamacro.obj
 0001:0000a430       FPF_ANSI                   000000018000b430     luamacro.obj
 0001:0000a438       FPF_NONE                   000000018000b438     luamacro.obj
 0001:0000a440       PN_CMPNAME                 000000018000b440     luamacro.obj
 0001:0000a448       PN_CMPNAMELIST             000000018000b448     luamacro.obj
 0001:0000a450       PN_GENERATENAME            000000018000b450     luamacro.obj
 0001:0000a458       PN_CHECKMASK               000000018000b458     luamacro.obj
 0001:0000a460       PN_SKIPPATH                000000018000b460     luamacro.obj
 0001:0000a468       PN_SHOWERRORMESSAGE        000000018000b468     luamacro.obj
 0001:0000a470       PN_NONE                    000000018000b470     luamacro.obj
 0001:0000a478       XLAT_SWITCHKEYBLAYOUT      000000018000b478     luamacro.obj
 0001:0000a480       XLAT_SWITCHKEYBBEEP        000000018000b480     luamacro.obj
 0001:0000a488       XLAT_USEKEYBLAYOUTNAME     000000018000b488     luamacro.obj
 0001:0000a490       XLAT_CONVERTALLCMDLINE     000000018000b490     luamacro.obj
 0001:0000a498       XLAT_NONE                  000000018000b498     luamacro.obj
 0001:0000a4a0       FRS_RETUPDIR               000000018000b4a0     luamacro.obj
 0001:0000a4a8       FRS_RECUR                  000000018000b4a8     luamacro.obj
 0001:0000a4b0       FRS_SCANSYMLINK            000000018000b4b0     luamacro.obj
 0001:0000a4b8       FRS_NONE                   000000018000b4b8     luamacro.obj
 0001:0000a4c0       MLF_SHOWERRMSG             000000018000b4c0     luamacro.obj
 0001:0000a4c8       MLF_DONOTUPDATEPANEL       000000018000b4c8     luamacro.obj
 0001:0000a4d0       MLF_HOLDTARGET             000000018000b4d0     luamacro.obj
 0001:0000a4d8       MLF_NONE                   000000018000b4d8     luamacro.obj
 0001:0000a4e0       FFFS_COMMAS                000000018000b4e0     luamacro.obj
 0001:0000a4e8       FFFS_FLOATSIZE             000000018000b4e8     luamacro.obj
 0001:0000a4f0       FFFS_SHOWBYTESINDEX        000000018000b4f0     luamacro.obj
 0001:0000a4f8       FFFS_ECONOMIC              000000018000b4f8     luamacro.obj
 0001:0000a500       FFFS_THOUSAND              000000018000b500     luamacro.obj
 0001:0000a508       FFFS_MINSIZEINDEX          000000018000b508     luamacro.obj
 0001:0000a510       FFFS_MINSIZEINDEX_MASK     000000018000b510     luamacro.obj
 0001:0000a518       FFFS_NONE                  000000018000b518     luamacro.obj
 0001:0000a520       PF_PRELOAD                 000000018000b520     luamacro.obj
 0001:0000a528       PF_DISABLEPANELS           000000018000b528     luamacro.obj
 0001:0000a530       PF_EDITOR                  000000018000b530     luamacro.obj
 0001:0000a538       PF_VIEWER                  000000018000b538     luamacro.obj
 0001:0000a540       PF_FULLCMDLINE             000000018000b540     luamacro.obj
 0001:0000a548       PF_DIALOG                  000000018000b548     luamacro.obj
 0001:0000a550       PF_NONE                    000000018000b550     luamacro.obj
 0001:0000a558       IPLFLAGS_SEPARATOR         000000018000b558     luamacro.obj
 0001:0000a560       IPLFLAGS_NONE              000000018000b560     luamacro.obj
 0001:0000a568       PMFLAGS_FULLSCREEN         000000018000b568     luamacro.obj
 0001:0000a570       PMFLAGS_DETAILEDSTATUS     000000018000b570     luamacro.obj
 0001:0000a578       PMFLAGS_ALIGNEXTENSIONS    000000018000b578     luamacro.obj
 0001:0000a580       PMFLAGS_CASECONVERSION     000000018000b580     luamacro.obj
 0001:0000a588       PMFLAGS_NONE               000000018000b588     luamacro.obj
 0001:0000a590       OPIF_DISABLEFILTER         000000018000b590     luamacro.obj
 0001:0000a598       OPIF_DISABLESORTGROUPS     000000018000b598     luamacro.obj
 0001:0000a5a0       OPIF_DISABLEHIGHLIGHTING   000000018000b5a0     luamacro.obj
 0001:0000a5a8       OPIF_ADDDOTS               000000018000b5a8     luamacro.obj
 0001:0000a5b0       OPIF_RAWSELECTION          000000018000b5b0     luamacro.obj
 0001:0000a5b8       OPIF_REALNAMES             000000018000b5b8     luamacro.obj
 0001:0000a5c0       OPIF_SHOWNAMESONLY         000000018000b5c0     luamacro.obj
 0001:0000a5c8       OPIF_SHOWRIGHTALIGNNAMES   000000018000b5c8     luamacro.obj
 0001:0000a5d0       OPIF_SHOWPRESERVECASE      000000018000b5d0     luamacro.obj
 0001:0000a5d8       OPIF_COMPAREFATTIME        000000018000b5d8     luamacro.obj
 0001:0000a5e0       OPIF_EXTERNALGET           000000018000b5e0     luamacro.obj
 0001:0000a5e8       OPIF_EXTERNALPUT           000000018000b5e8     luamacro.obj
 0001:0000a5f0       OPIF_EXTERNALDELETE        000000018000b5f0     luamacro.obj
 0001:0000a5f8       OPIF_EXTERNALMKDIR         000000018000b5f8     luamacro.obj
 0001:0000a600       OPIF_USEATTRHIGHLIGHTING   000000018000b600     luamacro.obj
 0001:0000a608       OPIF_USECRC32              000000018000b608     luamacro.obj
 0001:0000a610       OPIF_USEFREESIZE           000000018000b610     luamacro.obj
 0001:0000a618       OPIF_SHORTCUT              000000018000b618     luamacro.obj
 0001:0000a620       OPIF_NONE                  000000018000b620     luamacro.obj
 0001:0000a628       OPM_SILENT                 000000018000b628     luamacro.obj
 0001:0000a630       OPM_FIND                   000000018000b630     luamacro.obj
 0001:0000a638       OPM_VIEW                   000000018000b638     luamacro.obj
 0001:0000a640       OPM_EDIT                   000000018000b640     luamacro.obj
 0001:0000a648       OPM_TOPLEVEL               000000018000b648     luamacro.obj
 0001:0000a650       OPM_DESCR                  000000018000b650     luamacro.obj
 0001:0000a658       OPM_QUICKVIEW              000000018000b658     luamacro.obj
 0001:0000a660       OPM_PGDN                   000000018000b660     luamacro.obj
 0001:0000a668       OPM_COMMANDS               000000018000b668     luamacro.obj
 0001:0000a670       OPM_NONE                   000000018000b670     luamacro.obj
 0001:0000a678       FOSF_ACTIVE                000000018000b678     luamacro.obj
 0001:0000a680       FOSF_NONE                  000000018000b680     luamacro.obj
 0001:0000a688       PCIF_NONE                  000000018000b688     luamacro.obj
 0001:0000a690       FarGuid                    000000018000b690     luamacro.obj
 0001:0000a6a0       PDF_DIALOGEVENTDRAWENABLE  000000018000b6a0     luamacro.obj
 0001:0000a6a8       PDF_PROCESSINGERROR        000000018000b6a8     luamacro.obj
 0001:0000a780       FCF_FG_4BIT                000000018000b780     lusercontrol.obj
 0001:0000a788       FCF_BG_4BIT                000000018000b788     lusercontrol.obj
 0001:0000a790       FCF_4BITMASK               000000018000b790     lusercontrol.obj
 0001:0000a798       FCF_RAWATTR_MASK           000000018000b798     lusercontrol.obj
 0001:0000a7a0       FCF_EXTENDEDFLAGS          000000018000b7a0     lusercontrol.obj
 0001:0000a7a8       FCF_FG_BOLD                000000018000b7a8     lusercontrol.obj
 0001:0000a7b0       FCF_FG_ITALIC              000000018000b7b0     lusercontrol.obj
 0001:0000a7b8       FCF_FG_UNDERLINE           000000018000b7b8     lusercontrol.obj
 0001:0000a7c0       FCF_STYLEMASK              000000018000b7c0     lusercontrol.obj
 0001:0000a7c8       FCF_NONE                   000000018000b7c8     lusercontrol.obj
 0001:0000a7d0       CDF_NONE                   000000018000b7d0     lusercontrol.obj
 0001:0000a7d8       FMSG_WARNING               000000018000b7d8     lusercontrol.obj
 0001:0000a7e0       FMSG_ERRORTYPE             000000018000b7e0     lusercontrol.obj
 0001:0000a7e8       FMSG_KEEPBACKGROUND        000000018000b7e8     lusercontrol.obj
 0001:0000a7f0       FMSG_LEFTALIGN             000000018000b7f0     lusercontrol.obj
 0001:0000a7f8       FMSG_ALLINONE              000000018000b7f8     lusercontrol.obj
 0001:0000a800       FMSG_MB_OK                 000000018000b800     lusercontrol.obj
 0001:0000a808       FMSG_MB_OKCANCEL           000000018000b808     lusercontrol.obj
 0001:0000a810       FMSG_MB_ABORTRETRYIGNORE   000000018000b810     lusercontrol.obj
 0001:0000a818       FMSG_MB_YESNO              000000018000b818     lusercontrol.obj
 0001:0000a820       FMSG_MB_YESNOCANCEL        000000018000b820     lusercontrol.obj
 0001:0000a828       FMSG_MB_RETRYCANCEL        000000018000b828     lusercontrol.obj
 0001:0000a830       FMSG_NONE                  000000018000b830     lusercontrol.obj
 0001:0000a838       DIF_BOXCOLOR               000000018000b838     lusercontrol.obj
 0001:0000a840       DIF_GROUP                  000000018000b840     lusercontrol.obj
 0001:0000a848       DIF_LEFTTEXT               000000018000b848     lusercontrol.obj
 0001:0000a850       DIF_MOVESELECT             000000018000b850     lusercontrol.obj
 0001:0000a858       DIF_SHOWAMPERSAND          000000018000b858     lusercontrol.obj
 0001:0000a860       DIF_CENTERGROUP            000000018000b860     lusercontrol.obj
 0001:0000a868       DIF_NOBRACKETS             000000018000b868     lusercontrol.obj
 0001:0000a870       DIF_MANUALADDHISTORY       000000018000b870     lusercontrol.obj
 0001:0000a878       DIF_SEPARATOR              000000018000b878     lusercontrol.obj
 0001:0000a880       DIF_SEPARATOR2             000000018000b880     lusercontrol.obj
 0001:0000a888       DIF_EDITOR                 000000018000b888     lusercontrol.obj
 0001:0000a890       DIF_LISTNOAMPERSAND        000000018000b890     lusercontrol.obj
 0001:0000a898       DIF_LISTNOBOX              000000018000b898     lusercontrol.obj
 0001:0000a8a0       DIF_HISTORY                000000018000b8a0     lusercontrol.obj
 0001:0000a8a8       DIF_BTNNOCLOSE             000000018000b8a8     lusercontrol.obj
 0001:0000a8b0       DIF_CENTERTEXT             000000018000b8b0     lusercontrol.obj
 0001:0000a8b8       DIF_SEPARATORUSER          000000018000b8b8     lusercontrol.obj
 0001:0000a8c0       DIF_SETSHIELD              000000018000b8c0     lusercontrol.obj
 0001:0000a8c8       DIF_EDITEXPAND             000000018000b8c8     lusercontrol.obj
 0001:0000a8d0       DIF_DROPDOWNLIST           000000018000b8d0     lusercontrol.obj
 0001:0000a8d8       DIF_USELASTHISTORY         000000018000b8d8     lusercontrol.obj
 0001:0000a8e0       DIF_MASKEDIT               000000018000b8e0     lusercontrol.obj
 0001:0000a8e8       DIF_LISTTRACKMOUSE         000000018000b8e8     lusercontrol.obj
 0001:0000a8f0       DIF_LISTTRACKMOUSEINFOCUS  000000018000b8f0     lusercontrol.obj
 0001:0000a8f8       DIF_SELECTONENTRY          000000018000b8f8     lusercontrol.obj
 0001:0000a900       DIF_3STATE                 000000018000b900     lusercontrol.obj
 0001:0000a908       DIF_EDITPATH               000000018000b908     lusercontrol.obj
 0001:0000a910       DIF_LISTWRAPMODE           000000018000b910     lusercontrol.obj
 0001:0000a918       DIF_NOAUTOCOMPLETE         000000018000b918     lusercontrol.obj
 0001:0000a920       DIF_LISTAUTOHIGHLIGHT      000000018000b920     lusercontrol.obj
 0001:0000a928       DIF_LISTNOCLOSE            000000018000b928     lusercontrol.obj
 0001:0000a930       DIF_EDITPATHEXEC           000000018000b930     lusercontrol.obj
 0001:0000a938       DIF_HIDDEN                 000000018000b938     lusercontrol.obj
 0001:0000a940       DIF_READONLY               000000018000b940     lusercontrol.obj
 0001:0000a948       DIF_NOFOCUS                000000018000b948     lusercontrol.obj
 0001:0000a950       DIF_DISABLE                000000018000b950     lusercontrol.obj
 0001:0000a958       DIF_DEFAULTBUTTON          000000018000b958     lusercontrol.obj
 0001:0000a960       DIF_FOCUS                  000000018000b960     lusercontrol.obj
 0001:0000a968       DIF_RIGHTTEXT              000000018000b968     lusercontrol.obj
 0001:0000a970       DIF_WORDWRAP               000000018000b970     lusercontrol.obj
 0001:0000a978       DIF_NONE                   000000018000b978     lusercontrol.obj
 0001:0000a980       LIF_SELECTED               000000018000b980     lusercontrol.obj
 0001:0000a988       LIF_CHECKED                000000018000b988     lusercontrol.obj
 0001:0000a990       LIF_SEPARATOR              000000018000b990     lusercontrol.obj
 0001:0000a998       LIF_DISABLE                000000018000b998     lusercontrol.obj
 0001:0000a9a0       LIF_GRAYED                 000000018000b9a0     lusercontrol.obj
 0001:0000a9a8       LIF_HIDDEN                 000000018000b9a8     lusercontrol.obj
 0001:0000a9b0       LIF_DELETEUSERDATA         000000018000b9b0     lusercontrol.obj
 0001:0000a9b8       LIF_NONE                   000000018000b9b8     lusercontrol.obj
 0001:0000a9c0       LIFIND_EXACTMATCH          000000018000b9c0     lusercontrol.obj
 0001:0000a9c8       LIFIND_NONE                000000018000b9c8     lusercontrol.obj
 0001:0000a9d0       LINFO_SHOWNOBOX            000000018000b9d0     lusercontrol.obj
 0001:0000a9d8       LINFO_AUTOHIGHLIGHT        000000018000b9d8     lusercontrol.obj
 0001:0000a9e0       LINFO_REVERSEHIGHLIGHT     000000018000b9e0     lusercontrol.obj
 0001:0000a9e8       LINFO_WRAPMODE             000000018000b9e8     lusercontrol.obj
 0001:0000a9f0       LINFO_SHOWAMPERSAND        000000018000b9f0     lusercontrol.obj
 0001:0000a9f8       LINFO_NONE                 000000018000b9f8     lusercontrol.obj
 0001:0000aa00       FDLG_WARNING               000000018000ba00     lusercontrol.obj
 0001:0000aa08       FDLG_SMALLDIALOG           000000018000ba08     lusercontrol.obj
 0001:0000aa10       FDLG_NODRAWSHADOW          000000018000ba10     lusercontrol.obj
 0001:0000aa18       FDLG_NODRAWPANEL           000000018000ba18     lusercontrol.obj
 0001:0000aa20       FDLG_KEEPCONSOLETITLE      000000018000ba20     lusercontrol.obj
 0001:0000aa28       FDLG_NONMODAL              000000018000ba28     lusercontrol.obj
 0001:0000aa30       FDLG_NONE                  000000018000ba30     lusercontrol.obj
 0001:0000aa38       MIF_SELECTED               000000018000ba38     lusercontrol.obj
 0001:0000aa40       MIF_CHECKED                000000018000ba40     lusercontrol.obj
 0001:0000aa48       MIF_SEPARATOR              000000018000ba48     lusercontrol.obj
 0001:0000aa50       MIF_DISABLE                000000018000ba50     lusercontrol.obj
 0001:0000aa58       MIF_GRAYED                 000000018000ba58     lusercontrol.obj
 0001:0000aa60       MIF_HIDDEN                 000000018000ba60     lusercontrol.obj
 0001:0000aa68       MIF_NONE                   000000018000ba68     lusercontrol.obj
 0001:0000aa70       FMENU_SHOWAMPERSAND        000000018000ba70     lusercontrol.obj
 0001:0000aa78       FMENU_WRAPMODE             000000018000ba78     lusercontrol.obj
 0001:0000aa80       FMENU_AUTOHIGHLIGHT        000000018000ba80     lusercontrol.obj
 0001:0000aa88       FMENU_REVERSEAUTOHIGHLIGHT 000000018000ba88     lusercontrol.obj
 0001:0000aa90       FMENU_CHANGECONSOLETITLE   000000018000ba90     lusercontrol.obj
 0001:0000aa98       FMENU_NONE                 000000018000ba98     lusercontrol.obj
 0001:0000aaa0       PPIF_SELECTED              000000018000baa0     lusercontrol.obj
 0001:0000aaa8       PPIF_PROCESSDESCR          000000018000baa8     lusercontrol.obj
 0001:0000aab0       PPIF_NONE                  000000018000bab0     lusercontrol.obj
 0001:0000aab8       PFLAGS_SHOWHIDDEN          000000018000bab8     lusercontrol.obj
 0001:0000aac0       PFLAGS_HIGHLIGHT           000000018000bac0     lusercontrol.obj
 0001:0000aac8       PFLAGS_REVERSESORTORDER    000000018000bac8     lusercontrol.obj
 0001:0000aad0       PFLAGS_USESORTGROUPS       000000018000bad0     lusercontrol.obj
 0001:0000aad8       PFLAGS_SELECTEDFIRST       000000018000bad8     lusercontrol.obj
 0001:0000aae0       PFLAGS_REALNAMES           000000018000bae0     lusercontrol.obj
 0001:0000aae8       PFLAGS_PANELLEFT           000000018000bae8     lusercontrol.obj
 0001:0000aaf0       PFLAGS_DIRECTORIESFIRST    000000018000baf0     lusercontrol.obj
 0001:0000aaf8       PFLAGS_USECRC32            000000018000baf8     lusercontrol.obj
 0001:0000ab00       PFLAGS_PLUGIN              000000018000bb00     lusercontrol.obj
 0001:0000ab08       PFLAGS_VISIBLE             000000018000bb08     lusercontrol.obj
 0001:0000ab10       PFLAGS_FOCUS               000000018000bb10     lusercontrol.obj
 0001:0000ab18       PFLAGS_ALTERNATIVENAMES    000000018000bb18     lusercontrol.obj
 0001:0000ab20       PFLAGS_SHORTCUT            000000018000bb20     lusercontrol.obj
 0001:0000ab28       PFLAGS_NONE                000000018000bb28     lusercontrol.obj
 0001:0000ab30       VF_NONMODAL                000000018000bb30     lusercontrol.obj
 0001:0000ab38       VF_DELETEONCLOSE           000000018000bb38     lusercontrol.obj
 0001:0000ab40       VF_ENABLE_F6               000000018000bb40     lusercontrol.obj
 0001:0000ab48       VF_DISABLEHISTORY          000000018000bb48     lusercontrol.obj
 0001:0000ab50       VF_IMMEDIATERETURN         000000018000bb50     lusercontrol.obj
 0001:0000ab58       VF_DELETEONLYFILEONCLOSE   000000018000bb58     lusercontrol.obj
 0001:0000ab60       VF_NONE                    000000018000bb60     lusercontrol.obj
 0001:0000ab68       EF_NONMODAL                000000018000bb68     lusercontrol.obj
 0001:0000ab70       EF_CREATENEW               000000018000bb70     lusercontrol.obj
 0001:0000ab78       EF_ENABLE_F6               000000018000bb78     lusercontrol.obj
 0001:0000ab80       EF_DISABLEHISTORY          000000018000bb80     lusercontrol.obj
 0001:0000ab88       EF_DELETEONCLOSE           000000018000bb88     lusercontrol.obj
 0001:0000ab90       EF_IMMEDIATERETURN         000000018000bb90     lusercontrol.obj
 0001:0000ab98       EF_DELETEONLYFILEONCLOSE   000000018000bb98     lusercontrol.obj
 0001:0000aba0       EF_LOCKED                  000000018000bba0     lusercontrol.obj
 0001:0000aba8       EF_DISABLESAVEPOS          000000018000bba8     lusercontrol.obj
 0001:0000abb0       EF_OPENMODE_MASK           000000018000bbb0     lusercontrol.obj
 0001:0000abb8       EF_OPENMODE_QUERY          000000018000bbb8     lusercontrol.obj
 0001:0000abc0       EF_OPENMODE_NEWIFOPEN      000000018000bbc0     lusercontrol.obj
 0001:0000abc8       EF_OPENMODE_USEEXISTING    000000018000bbc8     lusercontrol.obj
 0001:0000abd0       EF_OPENMODE_BREAKIFOPEN    000000018000bbd0     lusercontrol.obj
 0001:0000abd8       EF_OPENMODE_RELOADIFOPEN   000000018000bbd8     lusercontrol.obj
 0001:0000abe0       EN_NONE                    000000018000bbe0     lusercontrol.obj
 0001:0000abe8       FHELP_NOSHOWERROR          000000018000bbe8     lusercontrol.obj
 0001:0000abf0       FHELP_SELFHELP             000000018000bbf0     lusercontrol.obj
 0001:0000abf8       FHELP_FARHELP              000000018000bbf8     lusercontrol.obj
 0001:0000ac00       FHELP_CUSTOMFILE           000000018000bc00     lusercontrol.obj
 0001:0000ac08       FHELP_CUSTOMPATH           000000018000bc08     lusercontrol.obj
 0001:0000ac10       FHELP_GUID                 000000018000bc10     lusercontrol.obj
 0001:0000ac18       FHELP_USECONTENTS          000000018000bc18     lusercontrol.obj
 0001:0000ac20       FHELP_NONE                 000000018000bc20     lusercontrol.obj
 0001:0000ac28       KMFLAGS_SILENTCHECK        000000018000bc28     lusercontrol.obj
 0001:0000ac30       KMFLAGS_NOSENDKEYSTOPLUGINS 000000018000bc30     lusercontrol.obj
 0001:0000ac38       KMFLAGS_ENABLEOUTPUT       000000018000bc38     lusercontrol.obj
 0001:0000ac40       KMFLAGS_LANGMASK           000000018000bc40     lusercontrol.obj
 0001:0000ac48       KMFLAGS_LUA                000000018000bc48     lusercontrol.obj
 0001:0000ac50       KMFLAGS_MOONSCRIPT         000000018000bc50     lusercontrol.obj
 0001:0000ac58       KMFLAGS_NONE               000000018000bc58     lusercontrol.obj
 0001:0000ac60       AKMFLAGS_NONE              000000018000bc60     lusercontrol.obj
 0001:0000ac68       FSETCLR_REDRAW             000000018000bc68     lusercontrol.obj
 0001:0000ac70       FSETCLR_NONE               000000018000bc70     lusercontrol.obj
 0001:0000ac78       WIF_MODIFIED               000000018000bc78     lusercontrol.obj
 0001:0000ac80       WIF_CURRENT                000000018000bc80     lusercontrol.obj
 0001:0000ac88       WIF_MODAL                  000000018000bc88     lusercontrol.obj
 0001:0000ac90       WIF_NONE                   000000018000bc90     lusercontrol.obj
 0001:0000ac98       VOPT_SAVEFILEPOSITION      000000018000bc98     lusercontrol.obj
 0001:0000aca0       VOPT_AUTODETECTCODEPAGE    000000018000bca0     lusercontrol.obj
 0001:0000aca8       VOPT_SHOWTITLEBAR          000000018000bca8     lusercontrol.obj
 0001:0000acb0       VOPT_SHOWKEYBAR            000000018000bcb0     lusercontrol.obj
 0001:0000acb8       VOPT_SHOWSCROLLBAR         000000018000bcb8     lusercontrol.obj
 0001:0000acc0       VOPT_QUICKVIEW             000000018000bcc0     lusercontrol.obj
 0001:0000acc8       VOPT_NONE                  000000018000bcc8     lusercontrol.obj
 0001:0000acd0       VSMFL_REDRAW               000000018000bcd0     lusercontrol.obj
 0001:0000acd8       VSMFL_NONE                 000000018000bcd8     lusercontrol.obj
 0001:0000ace0       VSP_NOREDRAW               000000018000bce0     lusercontrol.obj
 0001:0000ace8       VSP_PERCENT                000000018000bce8     lusercontrol.obj
 0001:0000acf0       VSP_RELATIVE               000000018000bcf0     lusercontrol.obj
 0001:0000acf8       VSP_NORETNEWPOS            000000018000bcf8     lusercontrol.obj
 0001:0000ad00       VSP_NONE                   000000018000bd00     lusercontrol.obj
 0001:0000ad08       VMF_WRAP                   000000018000bd08     lusercontrol.obj
 0001:0000ad10       VMF_WORDWRAP               000000018000bd10     lusercontrol.obj
 0001:0000ad18       VMF_NONE                   000000018000bd18     lusercontrol.obj
 0001:0000ad20       ECF_TABMARKFIRST           000000018000bd20     lusercontrol.obj
 0001:0000ad28       ECF_TABMARKCURRENT         000000018000bd28     lusercontrol.obj
 0001:0000ad30       ECF_AUTODELETE             000000018000bd30     lusercontrol.obj
 0001:0000ad38       ECF_NONE                   000000018000bd38     lusercontrol.obj
 0001:0000ad40       FIB_ENABLEEMPTY            000000018000bd40     lusercontrol.obj
 0001:0000ad48       FIB_PASSWORD               000000018000bd48     lusercontrol.obj
 0001:0000ad50       FIB_EXPANDENV              000000018000bd50     lusercontrol.obj
 0001:0000ad58       FIB_NOUSELASTHISTORY       000000018000bd58     lusercontrol.obj
 0001:0000ad60       FIB_BUTTONS                000000018000bd60     lusercontrol.obj
 0001:0000ad68       FIB_NOAMPERSAND            000000018000bd68     lusercontrol.obj
 0001:0000ad70       FIB_EDITPATH               000000018000bd70     lusercontrol.obj
 0001:0000ad78       FIB_EDITPATHEXEC           000000018000bd78     lusercontrol.obj
 0001:0000ad80       FIB_NONE                   000000018000bd80     lusercontrol.obj
 0001:0000ad88       FPF_LOADED                 000000018000bd88     lusercontrol.obj
 0001:0000ad90       FPF_ANSI                   000000018000bd90     lusercontrol.obj
 0001:0000ad98       FPF_NONE                   000000018000bd98     lusercontrol.obj
 0001:0000ada0       PN_CMPNAME                 000000018000bda0     lusercontrol.obj
 0001:0000ada8       PN_CMPNAMELIST             000000018000bda8     lusercontrol.obj
 0001:0000adb0       PN_GENERATENAME            000000018000bdb0     lusercontrol.obj
 0001:0000adb8       PN_CHECKMASK               000000018000bdb8     lusercontrol.obj
 0001:0000adc0       PN_SKIPPATH                000000018000bdc0     lusercontrol.obj
 0001:0000adc8       PN_SHOWERRORMESSAGE        000000018000bdc8     lusercontrol.obj
 0001:0000add0       PN_NONE                    000000018000bdd0     lusercontrol.obj
 0001:0000add8       XLAT_SWITCHKEYBLAYOUT      000000018000bdd8     lusercontrol.obj
 0001:0000ade0       XLAT_SWITCHKEYBBEEP        000000018000bde0     lusercontrol.obj
 0001:0000ade8       XLAT_USEKEYBLAYOUTNAME     000000018000bde8     lusercontrol.obj
 0001:0000adf0       XLAT_CONVERTALLCMDLINE     000000018000bdf0     lusercontrol.obj
 0001:0000adf8       XLAT_NONE                  000000018000bdf8     lusercontrol.obj
 0001:0000ae00       FRS_RETUPDIR               000000018000be00     lusercontrol.obj
 0001:0000ae08       FRS_RECUR                  000000018000be08     lusercontrol.obj
 0001:0000ae10       FRS_SCANSYMLINK            000000018000be10     lusercontrol.obj
 0001:0000ae18       FRS_NONE                   000000018000be18     lusercontrol.obj
 0001:0000ae20       MLF_SHOWERRMSG             000000018000be20     lusercontrol.obj
 0001:0000ae28       MLF_DONOTUPDATEPANEL       000000018000be28     lusercontrol.obj
 0001:0000ae30       MLF_HOLDTARGET             000000018000be30     lusercontrol.obj
 0001:0000ae38       MLF_NONE                   000000018000be38     lusercontrol.obj
 0001:0000ae40       FFFS_COMMAS                000000018000be40     lusercontrol.obj
 0001:0000ae48       FFFS_FLOATSIZE             000000018000be48     lusercontrol.obj
 0001:0000ae50       FFFS_SHOWBYTESINDEX        000000018000be50     lusercontrol.obj
 0001:0000ae58       FFFS_ECONOMIC              000000018000be58     lusercontrol.obj
 0001:0000ae60       FFFS_THOUSAND              000000018000be60     lusercontrol.obj
 0001:0000ae68       FFFS_MINSIZEINDEX          000000018000be68     lusercontrol.obj
 0001:0000ae70       FFFS_MINSIZEINDEX_MASK     000000018000be70     lusercontrol.obj
 0001:0000ae78       FFFS_NONE                  000000018000be78     lusercontrol.obj
 0001:0000ae80       PF_PRELOAD                 000000018000be80     lusercontrol.obj
 0001:0000ae88       PF_DISABLEPANELS           000000018000be88     lusercontrol.obj
 0001:0000ae90       PF_EDITOR                  000000018000be90     lusercontrol.obj
 0001:0000ae98       PF_VIEWER                  000000018000be98     lusercontrol.obj
 0001:0000aea0       PF_FULLCMDLINE             000000018000bea0     lusercontrol.obj
 0001:0000aea8       PF_DIALOG                  000000018000bea8     lusercontrol.obj
 0001:0000aeb0       PF_NONE                    000000018000beb0     lusercontrol.obj
 0001:0000aeb8       IPLFLAGS_SEPARATOR         000000018000beb8     lusercontrol.obj
 0001:0000aec0       IPLFLAGS_NONE              000000018000bec0     lusercontrol.obj
 0001:0000aec8       PMFLAGS_FULLSCREEN         000000018000bec8     lusercontrol.obj
 0001:0000aed0       PMFLAGS_DETAILEDSTATUS     000000018000bed0     lusercontrol.obj
 0001:0000aed8       PMFLAGS_ALIGNEXTENSIONS    000000018000bed8     lusercontrol.obj
 0001:0000aee0       PMFLAGS_CASECONVERSION     000000018000bee0     lusercontrol.obj
 0001:0000aee8       PMFLAGS_NONE               000000018000bee8     lusercontrol.obj
 0001:0000aef0       OPIF_DISABLEFILTER         000000018000bef0     lusercontrol.obj
 0001:0000aef8       OPIF_DISABLESORTGROUPS     000000018000bef8     lusercontrol.obj
 0001:0000af00       OPIF_DISABLEHIGHLIGHTING   000000018000bf00     lusercontrol.obj
 0001:0000af08       OPIF_ADDDOTS               000000018000bf08     lusercontrol.obj
 0001:0000af10       OPIF_RAWSELECTION          000000018000bf10     lusercontrol.obj
 0001:0000af18       OPIF_REALNAMES             000000018000bf18     lusercontrol.obj
 0001:0000af20       OPIF_SHOWNAMESONLY         000000018000bf20     lusercontrol.obj
 0001:0000af28       OPIF_SHOWRIGHTALIGNNAMES   000000018000bf28     lusercontrol.obj
 0001:0000af30       OPIF_SHOWPRESERVECASE      000000018000bf30     lusercontrol.obj
 0001:0000af38       OPIF_COMPAREFATTIME        000000018000bf38     lusercontrol.obj
 0001:0000af40       OPIF_EXTERNALGET           000000018000bf40     lusercontrol.obj
 0001:0000af48       OPIF_EXTERNALPUT           000000018000bf48     lusercontrol.obj
 0001:0000af50       OPIF_EXTERNALDELETE        000000018000bf50     lusercontrol.obj
 0001:0000af58       OPIF_EXTERNALMKDIR         000000018000bf58     lusercontrol.obj
 0001:0000af60       OPIF_USEATTRHIGHLIGHTING   000000018000bf60     lusercontrol.obj
 0001:0000af68       OPIF_USECRC32              000000018000bf68     lusercontrol.obj
 0001:0000af70       OPIF_USEFREESIZE           000000018000bf70     lusercontrol.obj
 0001:0000af78       OPIF_SHORTCUT              000000018000bf78     lusercontrol.obj
 0001:0000af80       OPIF_NONE                  000000018000bf80     lusercontrol.obj
 0001:0000af88       OPM_SILENT                 000000018000bf88     lusercontrol.obj
 0001:0000af90       OPM_FIND                   000000018000bf90     lusercontrol.obj
 0001:0000af98       OPM_VIEW                   000000018000bf98     lusercontrol.obj
 0001:0000afa0       OPM_EDIT                   000000018000bfa0     lusercontrol.obj
 0001:0000afa8       OPM_TOPLEVEL               000000018000bfa8     lusercontrol.obj
 0001:0000afb0       OPM_DESCR                  000000018000bfb0     lusercontrol.obj
 0001:0000afb8       OPM_QUICKVIEW              000000018000bfb8     lusercontrol.obj
 0001:0000afc0       OPM_PGDN                   000000018000bfc0     lusercontrol.obj
 0001:0000afc8       OPM_COMMANDS               000000018000bfc8     lusercontrol.obj
 0001:0000afd0       OPM_NONE                   000000018000bfd0     lusercontrol.obj
 0001:0000afd8       FOSF_ACTIVE                000000018000bfd8     lusercontrol.obj
 0001:0000afe0       FOSF_NONE                  000000018000bfe0     lusercontrol.obj
 0001:0000afe8       PCIF_NONE                  000000018000bfe8     lusercontrol.obj
 0001:0000aff0       FarGuid                    000000018000bff0     lusercontrol.obj
 0001:0000b120       PDF_DIALOGEVENTDRAWENABLE  000000018000c120     service.obj
 0001:0000b128       PDF_PROCESSINGERROR        000000018000c128     service.obj
 0001:0000b1f8       FCF_FG_4BIT                000000018000c1f8     service.obj
 0001:0000b200       FCF_BG_4BIT                000000018000c200     service.obj
 0001:0000b208       FCF_4BITMASK               000000018000c208     service.obj
 0001:0000b210       FCF_RAWATTR_MASK           000000018000c210     service.obj
 0001:0000b218       FCF_EXTENDEDFLAGS          000000018000c218     service.obj
 0001:0000b220       FCF_FG_BOLD                000000018000c220     service.obj
 0001:0000b228       FCF_FG_ITALIC              000000018000c228     service.obj
 0001:0000b230       FCF_FG_UNDERLINE           000000018000c230     service.obj
 0001:0000b238       FCF_STYLEMASK              000000018000c238     service.obj
 0001:0000b240       FCF_NONE                   000000018000c240     service.obj
 0001:0000b248       CDF_NONE                   000000018000c248     service.obj
 0001:0000b250       FMSG_WARNING               000000018000c250     service.obj
 0001:0000b258       FMSG_ERRORTYPE             000000018000c258     service.obj
 0001:0000b260       FMSG_KEEPBACKGROUND        000000018000c260     service.obj
 0001:0000b268       FMSG_LEFTALIGN             000000018000c268     service.obj
 0001:0000b270       FMSG_ALLINONE              000000018000c270     service.obj
 0001:0000b278       FMSG_MB_OK                 000000018000c278     service.obj
 0001:0000b280       FMSG_MB_OKCANCEL           000000018000c280     service.obj
 0001:0000b288       FMSG_MB_ABORTRETRYIGNORE   000000018000c288     service.obj
 0001:0000b290       FMSG_MB_YESNO              000000018000c290     service.obj
 0001:0000b298       FMSG_MB_YESNOCANCEL        000000018000c298     service.obj
 0001:0000b2a0       FMSG_MB_RETRYCANCEL        000000018000c2a0     service.obj
 0001:0000b2a8       FMSG_NONE                  000000018000c2a8     service.obj
 0001:0000b2b0       DIF_BOXCOLOR               000000018000c2b0     service.obj
 0001:0000b2b8       DIF_GROUP                  000000018000c2b8     service.obj
 0001:0000b2c0       DIF_LEFTTEXT               000000018000c2c0     service.obj
 0001:0000b2c8       DIF_MOVESELECT             000000018000c2c8     service.obj
 0001:0000b2d0       DIF_SHOWAMPERSAND          000000018000c2d0     service.obj
 0001:0000b2d8       DIF_CENTERGROUP            000000018000c2d8     service.obj
 0001:0000b2e0       DIF_NOBRACKETS             000000018000c2e0     service.obj
 0001:0000b2e8       DIF_MANUALADDHISTORY       000000018000c2e8     service.obj
 0001:0000b2f0       DIF_SEPARATOR              000000018000c2f0     service.obj
 0001:0000b2f8       DIF_SEPARATOR2             000000018000c2f8     service.obj
 0001:0000b300       DIF_EDITOR                 000000018000c300     service.obj
 0001:0000b308       DIF_LISTNOAMPERSAND        000000018000c308     service.obj
 0001:0000b310       DIF_LISTNOBOX              000000018000c310     service.obj
 0001:0000b318       DIF_HISTORY                000000018000c318     service.obj
 0001:0000b320       DIF_BTNNOCLOSE             000000018000c320     service.obj
 0001:0000b328       ?key@?3??far_Menu@@9@9     000000018000c328     service.obj
 0001:0000b330       DIF_CENTERTEXT             000000018000c330     service.obj
 0001:0000b338       DIF_SEPARATORUSER          000000018000c338     service.obj
 0001:0000b340       DIF_SETSHIELD              000000018000c340     service.obj
 0001:0000b348       DIF_EDITEXPAND             000000018000c348     service.obj
 0001:0000b350       DIF_DROPDOWNLIST           000000018000c350     service.obj
 0001:0000b358       DIF_USELASTHISTORY         000000018000c358     service.obj
 0001:0000b360       DIF_MASKEDIT               000000018000c360     service.obj
 0001:0000b368       DIF_LISTTRACKMOUSE         000000018000c368     service.obj
 0001:0000b370       DIF_LISTTRACKMOUSEINFOCUS  000000018000c370     service.obj
 0001:0000b378       DIF_SELECTONENTRY          000000018000c378     service.obj
 0001:0000b380       DIF_3STATE                 000000018000c380     service.obj
 0001:0000b388       DIF_EDITPATH               000000018000c388     service.obj
 0001:0000b390       DIF_LISTWRAPMODE           000000018000c390     service.obj
 0001:0000b398       DIF_NOAUTOCOMPLETE         000000018000c398     service.obj
 0001:0000b3a0       DIF_LISTAUTOHIGHLIGHT      000000018000c3a0     service.obj
 0001:0000b3a8       DIF_LISTNOCLOSE            000000018000c3a8     service.obj
 0001:0000b3b0       DIF_EDITPATHEXEC           000000018000c3b0     service.obj
 0001:0000b3b8       DIF_HIDDEN                 000000018000c3b8     service.obj
 0001:0000b3c0       DIF_READONLY               000000018000c3c0     service.obj
 0001:0000b3c8       DIF_NOFOCUS                000000018000c3c8     service.obj
 0001:0000b3d0       DIF_DISABLE                000000018000c3d0     service.obj
 0001:0000b3d8       DIF_DEFAULTBUTTON          000000018000c3d8     service.obj
 0001:0000b3e0       DIF_FOCUS                  000000018000c3e0     service.obj
 0001:0000b3e8       DIF_RIGHTTEXT              000000018000c3e8     service.obj
 0001:0000b3f0       DIF_WORDWRAP               000000018000c3f0     service.obj
 0001:0000b3f8       DIF_NONE                   000000018000c3f8     service.obj
 0001:0000b400       LIF_SELECTED               000000018000c400     service.obj
 0001:0000b408       LIF_CHECKED                000000018000c408     service.obj
 0001:0000b410       LIF_SEPARATOR              000000018000c410     service.obj
 0001:0000b418       LIF_DISABLE                000000018000c418     service.obj
 0001:0000b420       LIF_GRAYED                 000000018000c420     service.obj
 0001:0000b428       LIF_HIDDEN                 000000018000c428     service.obj
 0001:0000b430       LIF_DELETEUSERDATA         000000018000c430     service.obj
 0001:0000b438       LIF_NONE                   000000018000c438     service.obj
 0001:0000b440       LIFIND_EXACTMATCH          000000018000c440     service.obj
 0001:0000b448       LIFIND_NONE                000000018000c448     service.obj
 0001:0000b450       LINFO_SHOWNOBOX            000000018000c450     service.obj
 0001:0000b458       LINFO_AUTOHIGHLIGHT        000000018000c458     service.obj
 0001:0000b460       LINFO_REVERSEHIGHLIGHT     000000018000c460     service.obj
 0001:0000b468       LINFO_WRAPMODE             000000018000c468     service.obj
 0001:0000b470       LINFO_SHOWAMPERSAND        000000018000c470     service.obj
 0001:0000b478       LINFO_NONE                 000000018000c478     service.obj
 0001:0000b480       FDLG_WARNING               000000018000c480     service.obj
 0001:0000b488       FDLG_SMALLDIALOG           000000018000c488     service.obj
 0001:0000b490       FDLG_NODRAWSHADOW          000000018000c490     service.obj
 0001:0000b498       FDLG_NODRAWPANEL           000000018000c498     service.obj
 0001:0000b4a0       FDLG_KEEPCONSOLETITLE      000000018000c4a0     service.obj
 0001:0000b4a8       FDLG_NONMODAL              000000018000c4a8     service.obj
 0001:0000b4b0       FDLG_NONE                  000000018000c4b0     service.obj
 0001:0000b4b8       MIF_SELECTED               000000018000c4b8     service.obj
 0001:0000b4c0       MIF_CHECKED                000000018000c4c0     service.obj
 0001:0000b4c8       MIF_SEPARATOR              000000018000c4c8     service.obj
 0001:0000b4d0       MIF_DISABLE                000000018000c4d0     service.obj
 0001:0000b4d8       MIF_GRAYED                 000000018000c4d8     service.obj
 0001:0000b4e0       MIF_HIDDEN                 000000018000c4e0     service.obj
 0001:0000b4e8       MIF_NONE                   000000018000c4e8     service.obj
 0001:0000b4f0       FMENU_SHOWAMPERSAND        000000018000c4f0     service.obj
 0001:0000b4f8       FMENU_WRAPMODE             000000018000c4f8     service.obj
 0001:0000b500       FMENU_AUTOHIGHLIGHT        000000018000c500     service.obj
 0001:0000b508       FMENU_REVERSEAUTOHIGHLIGHT 000000018000c508     service.obj
 0001:0000b510       FMENU_CHANGECONSOLETITLE   000000018000c510     service.obj
 0001:0000b518       FMENU_NONE                 000000018000c518     service.obj
 0001:0000b520       PPIF_SELECTED              000000018000c520     service.obj
 0001:0000b528       PPIF_PROCESSDESCR          000000018000c528     service.obj
 0001:0000b530       PPIF_NONE                  000000018000c530     service.obj
 0001:0000b538       PFLAGS_SHOWHIDDEN          000000018000c538     service.obj
 0001:0000b540       PFLAGS_HIGHLIGHT           000000018000c540     service.obj
 0001:0000b548       PFLAGS_REVERSESORTORDER    000000018000c548     service.obj
 0001:0000b550       PFLAGS_USESORTGROUPS       000000018000c550     service.obj
 0001:0000b558       PFLAGS_SELECTEDFIRST       000000018000c558     service.obj
 0001:0000b560       PFLAGS_REALNAMES           000000018000c560     service.obj
 0001:0000b568       PFLAGS_PANELLEFT           000000018000c568     service.obj
 0001:0000b570       PFLAGS_DIRECTORIESFIRST    000000018000c570     service.obj
 0001:0000b578       PFLAGS_USECRC32            000000018000c578     service.obj
 0001:0000b580       PFLAGS_PLUGIN              000000018000c580     service.obj
 0001:0000b588       PFLAGS_VISIBLE             000000018000c588     service.obj
 0001:0000b590       PFLAGS_FOCUS               000000018000c590     service.obj
 0001:0000b598       PFLAGS_ALTERNATIVENAMES    000000018000c598     service.obj
 0001:0000b5a0       PFLAGS_SHORTCUT            000000018000c5a0     service.obj
 0001:0000b5a8       PFLAGS_NONE                000000018000c5a8     service.obj
 0001:0000b5b0       VF_NONMODAL                000000018000c5b0     service.obj
 0001:0000b5b8       VF_DELETEONCLOSE           000000018000c5b8     service.obj
 0001:0000b5c0       VF_ENABLE_F6               000000018000c5c0     service.obj
 0001:0000b5c8       VF_DISABLEHISTORY          000000018000c5c8     service.obj
 0001:0000b5d0       VF_IMMEDIATERETURN         000000018000c5d0     service.obj
 0001:0000b5d8       VF_DELETEONLYFILEONCLOSE   000000018000c5d8     service.obj
 0001:0000b5e0       VF_NONE                    000000018000c5e0     service.obj
 0001:0000b5e8       EF_NONMODAL                000000018000c5e8     service.obj
 0001:0000b5f0       EF_CREATENEW               000000018000c5f0     service.obj
 0001:0000b5f8       EF_ENABLE_F6               000000018000c5f8     service.obj
 0001:0000b600       EF_DISABLEHISTORY          000000018000c600     service.obj
 0001:0000b608       EF_DELETEONCLOSE           000000018000c608     service.obj
 0001:0000b610       EF_IMMEDIATERETURN         000000018000c610     service.obj
 0001:0000b618       EF_DELETEONLYFILEONCLOSE   000000018000c618     service.obj
 0001:0000b620       EF_LOCKED                  000000018000c620     service.obj
 0001:0000b628       EF_DISABLESAVEPOS          000000018000c628     service.obj
 0001:0000b630       EF_OPENMODE_MASK           000000018000c630     service.obj
 0001:0000b638       EF_OPENMODE_QUERY          000000018000c638     service.obj
 0001:0000b640       EF_OPENMODE_NEWIFOPEN      000000018000c640     service.obj
 0001:0000b648       EF_OPENMODE_USEEXISTING    000000018000c648     service.obj
 0001:0000b650       EF_OPENMODE_BREAKIFOPEN    000000018000c650     service.obj
 0001:0000b658       EF_OPENMODE_RELOADIFOPEN   000000018000c658     service.obj
 0001:0000b660       EN_NONE                    000000018000c660     service.obj
 0001:0000b668       FHELP_NOSHOWERROR          000000018000c668     service.obj
 0001:0000b670       FHELP_SELFHELP             000000018000c670     service.obj
 0001:0000b678       FHELP_FARHELP              000000018000c678     service.obj
 0001:0000b680       FHELP_CUSTOMFILE           000000018000c680     service.obj
 0001:0000b688       FHELP_CUSTOMPATH           000000018000c688     service.obj
 0001:0000b690       FHELP_GUID                 000000018000c690     service.obj
 0001:0000b698       FHELP_USECONTENTS          000000018000c698     service.obj
 0001:0000b6a0       FHELP_NONE                 000000018000c6a0     service.obj
 0001:0000b6a8       KMFLAGS_SILENTCHECK        000000018000c6a8     service.obj
 0001:0000b6b0       KMFLAGS_NOSENDKEYSTOPLUGINS 000000018000c6b0     service.obj
 0001:0000b6b8       KMFLAGS_ENABLEOUTPUT       000000018000c6b8     service.obj
 0001:0000b6c0       KMFLAGS_LANGMASK           000000018000c6c0     service.obj
 0001:0000b6c8       KMFLAGS_LUA                000000018000c6c8     service.obj
 0001:0000b6d0       KMFLAGS_MOONSCRIPT         000000018000c6d0     service.obj
 0001:0000b6d8       KMFLAGS_NONE               000000018000c6d8     service.obj
 0001:0000b6e0       AKMFLAGS_NONE              000000018000c6e0     service.obj
 0001:0000b6e8       FSETCLR_REDRAW             000000018000c6e8     service.obj
 0001:0000b6f0       FSETCLR_NONE               000000018000c6f0     service.obj
 0001:0000b6f8       WIF_MODIFIED               000000018000c6f8     service.obj
 0001:0000b700       WIF_CURRENT                000000018000c700     service.obj
 0001:0000b708       WIF_MODAL                  000000018000c708     service.obj
 0001:0000b710       WIF_NONE                   000000018000c710     service.obj
 0001:0000b718       VOPT_SAVEFILEPOSITION      000000018000c718     service.obj
 0001:0000b720       VOPT_AUTODETECTCODEPAGE    000000018000c720     service.obj
 0001:0000b728       VOPT_SHOWTITLEBAR          000000018000c728     service.obj
 0001:0000b730       VOPT_SHOWKEYBAR            000000018000c730     service.obj
 0001:0000b738       VOPT_SHOWSCROLLBAR         000000018000c738     service.obj
 0001:0000b740       VOPT_QUICKVIEW             000000018000c740     service.obj
 0001:0000b748       VOPT_NONE                  000000018000c748     service.obj
 0001:0000b750       VSMFL_REDRAW               000000018000c750     service.obj
 0001:0000b758       VSMFL_NONE                 000000018000c758     service.obj
 0001:0000b760       VSP_NOREDRAW               000000018000c760     service.obj
 0001:0000b768       VSP_PERCENT                000000018000c768     service.obj
 0001:0000b770       VSP_RELATIVE               000000018000c770     service.obj
 0001:0000b778       VSP_NORETNEWPOS            000000018000c778     service.obj
 0001:0000b780       VSP_NONE                   000000018000c780     service.obj
 0001:0000b788       VMF_WRAP                   000000018000c788     service.obj
 0001:0000b790       VMF_WORDWRAP               000000018000c790     service.obj
 0001:0000b798       VMF_NONE                   000000018000c798     service.obj
 0001:0000b7a0       ECF_TABMARKFIRST           000000018000c7a0     service.obj
 0001:0000b7a8       ECF_TABMARKCURRENT         000000018000c7a8     service.obj
 0001:0000b7b0       ECF_AUTODELETE             000000018000c7b0     service.obj
 0001:0000b7b8       ECF_NONE                   000000018000c7b8     service.obj
 0001:0000b7c0       FIB_ENABLEEMPTY            000000018000c7c0     service.obj
 0001:0000b7c8       FIB_PASSWORD               000000018000c7c8     service.obj
 0001:0000b7d0       FIB_EXPANDENV              000000018000c7d0     service.obj
 0001:0000b7d8       FIB_NOUSELASTHISTORY       000000018000c7d8     service.obj
 0001:0000b7e0       FIB_BUTTONS                000000018000c7e0     service.obj
 0001:0000b7e8       FIB_NOAMPERSAND            000000018000c7e8     service.obj
 0001:0000b7f0       FIB_EDITPATH               000000018000c7f0     service.obj
 0001:0000b7f8       FIB_EDITPATHEXEC           000000018000c7f8     service.obj
 0001:0000b800       FIB_NONE                   000000018000c800     service.obj
 0001:0000b808       FPF_LOADED                 000000018000c808     service.obj
 0001:0000b810       FPF_ANSI                   000000018000c810     service.obj
 0001:0000b818       FPF_NONE                   000000018000c818     service.obj
 0001:0000b820       ?C@?3??far_InputRecordToName@@9@9 000000018000c820     service.obj
 0001:0000b828       ?A@?3??far_InputRecordToName@@9@9 000000018000c828     service.obj
 0001:0000b830       ?S@?3??far_InputRecordToName@@9@9 000000018000c830     service.obj
 0001:0000b838       PN_CMPNAME                 000000018000c838     service.obj
 0001:0000b840       PN_CMPNAMELIST             000000018000c840     service.obj
 0001:0000b848       PN_GENERATENAME            000000018000c848     service.obj
 0001:0000b850       PN_CHECKMASK               000000018000c850     service.obj
 0001:0000b858       PN_SKIPPATH                000000018000c858     service.obj
 0001:0000b860       PN_SHOWERRORMESSAGE        000000018000c860     service.obj
 0001:0000b868       PN_NONE                    000000018000c868     service.obj
 0001:0000b870       XLAT_SWITCHKEYBLAYOUT      000000018000c870     service.obj
 0001:0000b878       XLAT_SWITCHKEYBBEEP        000000018000c878     service.obj
 0001:0000b880       XLAT_USEKEYBLAYOUTNAME     000000018000c880     service.obj
 0001:0000b888       XLAT_CONVERTALLCMDLINE     000000018000c888     service.obj
 0001:0000b890       XLAT_NONE                  000000018000c890     service.obj
 0001:0000b898       FRS_RETUPDIR               000000018000c898     service.obj
 0001:0000b8a0       FRS_RECUR                  000000018000c8a0     service.obj
 0001:0000b8a8       FRS_SCANSYMLINK            000000018000c8a8     service.obj
 0001:0000b8b0       FRS_NONE                   000000018000c8b0     service.obj
 0001:0000b8b8       MLF_SHOWERRMSG             000000018000c8b8     service.obj
 0001:0000b8c0       MLF_DONOTUPDATEPANEL       000000018000c8c0     service.obj
 0001:0000b8c8       MLF_HOLDTARGET             000000018000c8c8     service.obj
 0001:0000b8d0       MLF_NONE                   000000018000c8d0     service.obj
 0001:0000b8d8       FFFS_COMMAS                000000018000c8d8     service.obj
 0001:0000b8e0       FFFS_FLOATSIZE             000000018000c8e0     service.obj
 0001:0000b8e8       FFFS_SHOWBYTESINDEX        000000018000c8e8     service.obj
 0001:0000b8f0       FFFS_ECONOMIC              000000018000c8f0     service.obj
 0001:0000b8f8       FFFS_THOUSAND              000000018000c8f8     service.obj
 0001:0000b900       FFFS_MINSIZEINDEX          000000018000c900     service.obj
 0001:0000b908       FFFS_MINSIZEINDEX_MASK     000000018000c908     service.obj
 0001:0000b910       FFFS_NONE                  000000018000c910     service.obj
 0001:0000b918       PF_PRELOAD                 000000018000c918     service.obj
 0001:0000b920       PF_DISABLEPANELS           000000018000c920     service.obj
 0001:0000b928       PF_EDITOR                  000000018000c928     service.obj
 0001:0000b930       PF_VIEWER                  000000018000c930     service.obj
 0001:0000b938       PF_FULLCMDLINE             000000018000c938     service.obj
 0001:0000b940       PF_DIALOG                  000000018000c940     service.obj
 0001:0000b948       PF_NONE                    000000018000c948     service.obj
 0001:0000b950       IPLFLAGS_SEPARATOR         000000018000c950     service.obj
 0001:0000b958       IPLFLAGS_NONE              000000018000c958     service.obj
 0001:0000b960       PMFLAGS_FULLSCREEN         000000018000c960     service.obj
 0001:0000b968       PMFLAGS_DETAILEDSTATUS     000000018000c968     service.obj
 0001:0000b970       PMFLAGS_ALIGNEXTENSIONS    000000018000c970     service.obj
 0001:0000b978       PMFLAGS_CASECONVERSION     000000018000c978     service.obj
 0001:0000b980       PMFLAGS_NONE               000000018000c980     service.obj
 0001:0000b988       OPIF_DISABLEFILTER         000000018000c988     service.obj
 0001:0000b990       OPIF_DISABLESORTGROUPS     000000018000c990     service.obj
 0001:0000b998       OPIF_DISABLEHIGHLIGHTING   000000018000c998     service.obj
 0001:0000b9a0       OPIF_ADDDOTS               000000018000c9a0     service.obj
 0001:0000b9a8       OPIF_RAWSELECTION          000000018000c9a8     service.obj
 0001:0000b9b0       OPIF_REALNAMES             000000018000c9b0     service.obj
 0001:0000b9b8       OPIF_SHOWNAMESONLY         000000018000c9b8     service.obj
 0001:0000b9c0       OPIF_SHOWRIGHTALIGNNAMES   000000018000c9c0     service.obj
 0001:0000b9c8       OPIF_SHOWPRESERVECASE      000000018000c9c8     service.obj
 0001:0000b9d0       OPIF_COMPAREFATTIME        000000018000c9d0     service.obj
 0001:0000b9d8       OPIF_EXTERNALGET           000000018000c9d8     service.obj
 0001:0000b9e0       OPIF_EXTERNALPUT           000000018000c9e0     service.obj
 0001:0000b9e8       OPIF_EXTERNALDELETE        000000018000c9e8     service.obj
 0001:0000b9f0       OPIF_EXTERNALMKDIR         000000018000c9f0     service.obj
 0001:0000b9f8       OPIF_USEATTRHIGHLIGHTING   000000018000c9f8     service.obj
 0001:0000ba00       OPIF_USECRC32              000000018000ca00     service.obj
 0001:0000ba08       OPIF_USEFREESIZE           000000018000ca08     service.obj
 0001:0000ba10       OPIF_SHORTCUT              000000018000ca10     service.obj
 0001:0000ba18       OPIF_NONE                  000000018000ca18     service.obj
 0001:0000ba20       OPM_SILENT                 000000018000ca20     service.obj
 0001:0000ba28       OPM_FIND                   000000018000ca28     service.obj
 0001:0000ba30       OPM_VIEW                   000000018000ca30     service.obj
 0001:0000ba38       OPM_EDIT                   000000018000ca38     service.obj
 0001:0000ba40       OPM_TOPLEVEL               000000018000ca40     service.obj
 0001:0000ba48       OPM_DESCR                  000000018000ca48     service.obj
 0001:0000ba50       OPM_QUICKVIEW              000000018000ca50     service.obj
 0001:0000ba58       OPM_PGDN                   000000018000ca58     service.obj
 0001:0000ba60       OPM_COMMANDS               000000018000ca60     service.obj
 0001:0000ba68       OPM_NONE                   000000018000ca68     service.obj
 0001:0000ba70       FOSF_ACTIVE                000000018000ca70     service.obj
 0001:0000ba78       FOSF_NONE                  000000018000ca78     service.obj
 0001:0000ba80       PCIF_NONE                  000000018000ca80     service.obj
 0001:0000ba88       FarGuid                    000000018000ca88     service.obj
 0001:0000ba98       ?FarGuid@?1??far_CreateSettings@@9@9 000000018000ca98     service.obj
 0001:0000c860       lualibs                    000000018000d860     service.obj
 0001:0000c920       lualibs_extra              000000018000d920     service.obj
 0001:0000e790       uniclib                    000000018000f790     slnunico.obj
 0001:0000eb60       fnames                     000000018000fb60     uliolib51.obj
 0001:0000eb70       ?mode@?1??f_seek@@9@9      000000018000fb70     uliolib51.obj
 0001:0000eb80       ?modenames@?1??f_seek@@9@9 000000018000fb80     uliolib51.obj
 0001:0000eba0       ?mode@?1??f_setvbuf@@9@9   000000018000fba0     uliolib51.obj
 0001:0000ebb0       ?modenames@?1??f_setvbuf@@9@9 000000018000fbb0     uliolib51.obj
 0001:0000ebd0       iolib                      000000018000fbd0     uliolib51.obj
 0001:0000ec90       flib                       000000018000fc90     uliolib51.obj
 0001:0000ef50       sentinel_                  000000018000ff50     uloadlib51.obj
 0001:0000ef58       pk_funcs                   000000018000ff58     uloadlib51.obj
 0001:0000ef88       ll_funcs                   000000018000ff88     uloadlib51.obj
 0001:0000efb8       loaders                    000000018000ffb8     uloadlib51.obj
 0001:0000f920       FCF_FG_4BIT                0000000180010920     util.obj
 0001:0000f928       FCF_BG_4BIT                0000000180010928     util.obj
 0001:0000f930       FCF_4BITMASK               0000000180010930     util.obj
 0001:0000f938       FCF_RAWATTR_MASK           0000000180010938     util.obj
 0001:0000f940       FCF_EXTENDEDFLAGS          0000000180010940     util.obj
 0001:0000f948       FCF_FG_BOLD                0000000180010948     util.obj
 0001:0000f950       FCF_FG_ITALIC              0000000180010950     util.obj
 0001:0000f958       FCF_FG_UNDERLINE           0000000180010958     util.obj
 0001:0000f960       FCF_STYLEMASK              0000000180010960     util.obj
 0001:0000f968       FCF_NONE                   0000000180010968     util.obj
 0001:0000f970       CDF_NONE                   0000000180010970     util.obj
 0001:0000f978       FMSG_WARNING               0000000180010978     util.obj
 0001:0000f980       FMSG_ERRORTYPE             0000000180010980     util.obj
 0001:0000f988       FMSG_KEEPBACKGROUND        0000000180010988     util.obj
 0001:0000f990       FMSG_LEFTALIGN             0000000180010990     util.obj
 0001:0000f998       FMSG_ALLINONE              0000000180010998     util.obj
 0001:0000f9a0       FMSG_MB_OK                 00000001800109a0     util.obj
 0001:0000f9a8       FMSG_MB_OKCANCEL           00000001800109a8     util.obj
 0001:0000f9b0       FMSG_MB_ABORTRETRYIGNORE   00000001800109b0     util.obj
 0001:0000f9b8       FMSG_MB_YESNO              00000001800109b8     util.obj
 0001:0000f9c0       FMSG_MB_YESNOCANCEL        00000001800109c0     util.obj
 0001:0000f9c8       FMSG_MB_RETRYCANCEL        00000001800109c8     util.obj
 0001:0000f9d0       FMSG_NONE                  00000001800109d0     util.obj
 0001:0000f9d8       DIF_BOXCOLOR               00000001800109d8     util.obj
 0001:0000f9e0       DIF_GROUP                  00000001800109e0     util.obj
 0001:0000f9e8       DIF_LEFTTEXT               00000001800109e8     util.obj
 0001:0000f9f0       DIF_MOVESELECT             00000001800109f0     util.obj
 0001:0000f9f8       DIF_SHOWAMPERSAND          00000001800109f8     util.obj
 0001:0000fa00       DIF_CENTERGROUP            0000000180010a00     util.obj
 0001:0000fa08       DIF_NOBRACKETS             0000000180010a08     util.obj
 0001:0000fa10       DIF_MANUALADDHISTORY       0000000180010a10     util.obj
 0001:0000fa18       DIF_SEPARATOR              0000000180010a18     util.obj
 0001:0000fa20       DIF_SEPARATOR2             0000000180010a20     util.obj
 0001:0000fa28       DIF_EDITOR                 0000000180010a28     util.obj
 0001:0000fa30       DIF_LISTNOAMPERSAND        0000000180010a30     util.obj
 0001:0000fa38       DIF_LISTNOBOX              0000000180010a38     util.obj
 0001:0000fa40       DIF_HISTORY                0000000180010a40     util.obj
 0001:0000fa48       DIF_BTNNOCLOSE             0000000180010a48     util.obj
 0001:0000fa50       DIF_CENTERTEXT             0000000180010a50     util.obj
 0001:0000fa58       DIF_SEPARATORUSER          0000000180010a58     util.obj
 0001:0000fa60       DIF_SETSHIELD              0000000180010a60     util.obj
 0001:0000fa68       DIF_EDITEXPAND             0000000180010a68     util.obj
 0001:0000fa70       DIF_DROPDOWNLIST           0000000180010a70     util.obj
 0001:0000fa78       DIF_USELASTHISTORY         0000000180010a78     util.obj
 0001:0000fa80       DIF_MASKEDIT               0000000180010a80     util.obj
 0001:0000fa88       DIF_LISTTRACKMOUSE         0000000180010a88     util.obj
 0001:0000fa90       DIF_LISTTRACKMOUSEINFOCUS  0000000180010a90     util.obj
 0001:0000fa98       DIF_SELECTONENTRY          0000000180010a98     util.obj
 0001:0000faa0       DIF_3STATE                 0000000180010aa0     util.obj
 0001:0000faa8       DIF_EDITPATH               0000000180010aa8     util.obj
 0001:0000fab0       DIF_LISTWRAPMODE           0000000180010ab0     util.obj
 0001:0000fab8       DIF_NOAUTOCOMPLETE         0000000180010ab8     util.obj
 0001:0000fac0       DIF_LISTAUTOHIGHLIGHT      0000000180010ac0     util.obj
 0001:0000fac8       DIF_LISTNOCLOSE            0000000180010ac8     util.obj
 0001:0000fad0       DIF_EDITPATHEXEC           0000000180010ad0     util.obj
 0001:0000fad8       DIF_HIDDEN                 0000000180010ad8     util.obj
 0001:0000fae0       DIF_READONLY               0000000180010ae0     util.obj
 0001:0000fae8       DIF_NOFOCUS                0000000180010ae8     util.obj
 0001:0000faf0       DIF_DISABLE                0000000180010af0     util.obj
 0001:0000faf8       DIF_DEFAULTBUTTON          0000000180010af8     util.obj
 0001:0000fb00       DIF_FOCUS                  0000000180010b00     util.obj
 0001:0000fb08       DIF_RIGHTTEXT              0000000180010b08     util.obj
 0001:0000fb10       DIF_WORDWRAP               0000000180010b10     util.obj
 0001:0000fb18       DIF_NONE                   0000000180010b18     util.obj
 0001:0000fb20       LIF_SELECTED               0000000180010b20     util.obj
 0001:0000fb28       LIF_CHECKED                0000000180010b28     util.obj
 0001:0000fb30       LIF_SEPARATOR              0000000180010b30     util.obj
 0001:0000fb38       LIF_DISABLE                0000000180010b38     util.obj
 0001:0000fb40       LIF_GRAYED                 0000000180010b40     util.obj
 0001:0000fb48       LIF_HIDDEN                 0000000180010b48     util.obj
 0001:0000fb50       LIF_DELETEUSERDATA         0000000180010b50     util.obj
 0001:0000fb58       LIF_NONE                   0000000180010b58     util.obj
 0001:0000fb60       LIFIND_EXACTMATCH          0000000180010b60     util.obj
 0001:0000fb68       LIFIND_NONE                0000000180010b68     util.obj
 0001:0000fb70       LINFO_SHOWNOBOX            0000000180010b70     util.obj
 0001:0000fb78       LINFO_AUTOHIGHLIGHT        0000000180010b78     util.obj
 0001:0000fb80       LINFO_REVERSEHIGHLIGHT     0000000180010b80     util.obj
 0001:0000fb88       LINFO_WRAPMODE             0000000180010b88     util.obj
 0001:0000fb90       LINFO_SHOWAMPERSAND        0000000180010b90     util.obj
 0001:0000fb98       LINFO_NONE                 0000000180010b98     util.obj
 0001:0000fba0       FDLG_WARNING               0000000180010ba0     util.obj
 0001:0000fba8       FDLG_SMALLDIALOG           0000000180010ba8     util.obj
 0001:0000fbb0       FDLG_NODRAWSHADOW          0000000180010bb0     util.obj
 0001:0000fbb8       FDLG_NODRAWPANEL           0000000180010bb8     util.obj
 0001:0000fbc0       FDLG_KEEPCONSOLETITLE      0000000180010bc0     util.obj
 0001:0000fbc8       FDLG_NONMODAL              0000000180010bc8     util.obj
 0001:0000fbd0       FDLG_NONE                  0000000180010bd0     util.obj
 0001:0000fbd8       MIF_SELECTED               0000000180010bd8     util.obj
 0001:0000fbe0       MIF_CHECKED                0000000180010be0     util.obj
 0001:0000fbe8       MIF_SEPARATOR              0000000180010be8     util.obj
 0001:0000fbf0       MIF_DISABLE                0000000180010bf0     util.obj
 0001:0000fbf8       MIF_GRAYED                 0000000180010bf8     util.obj
 0001:0000fc00       MIF_HIDDEN                 0000000180010c00     util.obj
 0001:0000fc08       MIF_NONE                   0000000180010c08     util.obj
 0001:0000fc10       FMENU_SHOWAMPERSAND        0000000180010c10     util.obj
 0001:0000fc18       FMENU_WRAPMODE             0000000180010c18     util.obj
 0001:0000fc20       FMENU_AUTOHIGHLIGHT        0000000180010c20     util.obj
 0001:0000fc28       FMENU_REVERSEAUTOHIGHLIGHT 0000000180010c28     util.obj
 0001:0000fc30       FMENU_CHANGECONSOLETITLE   0000000180010c30     util.obj
 0001:0000fc38       FMENU_NONE                 0000000180010c38     util.obj
 0001:0000fc40       PPIF_SELECTED              0000000180010c40     util.obj
 0001:0000fc48       PPIF_PROCESSDESCR          0000000180010c48     util.obj
 0001:0000fc50       PPIF_NONE                  0000000180010c50     util.obj
 0001:0000fc58       PFLAGS_SHOWHIDDEN          0000000180010c58     util.obj
 0001:0000fc60       PFLAGS_HIGHLIGHT           0000000180010c60     util.obj
 0001:0000fc68       PFLAGS_REVERSESORTORDER    0000000180010c68     util.obj
 0001:0000fc70       PFLAGS_USESORTGROUPS       0000000180010c70     util.obj
 0001:0000fc78       PFLAGS_SELECTEDFIRST       0000000180010c78     util.obj
 0001:0000fc80       PFLAGS_REALNAMES           0000000180010c80     util.obj
 0001:0000fc88       PFLAGS_PANELLEFT           0000000180010c88     util.obj
 0001:0000fc90       PFLAGS_DIRECTORIESFIRST    0000000180010c90     util.obj
 0001:0000fc98       PFLAGS_USECRC32            0000000180010c98     util.obj
 0001:0000fca0       PFLAGS_PLUGIN              0000000180010ca0     util.obj
 0001:0000fca8       PFLAGS_VISIBLE             0000000180010ca8     util.obj
 0001:0000fcb0       PFLAGS_FOCUS               0000000180010cb0     util.obj
 0001:0000fcb8       PFLAGS_ALTERNATIVENAMES    0000000180010cb8     util.obj
 0001:0000fcc0       PFLAGS_SHORTCUT            0000000180010cc0     util.obj
 0001:0000fcc8       PFLAGS_NONE                0000000180010cc8     util.obj
 0001:0000fcd0       VF_NONMODAL                0000000180010cd0     util.obj
 0001:0000fcd8       VF_DELETEONCLOSE           0000000180010cd8     util.obj
 0001:0000fce0       VF_ENABLE_F6               0000000180010ce0     util.obj
 0001:0000fce8       VF_DISABLEHISTORY          0000000180010ce8     util.obj
 0001:0000fcf0       VF_IMMEDIATERETURN         0000000180010cf0     util.obj
 0001:0000fcf8       VF_DELETEONLYFILEONCLOSE   0000000180010cf8     util.obj
 0001:0000fd00       VF_NONE                    0000000180010d00     util.obj
 0001:0000fd08       EF_NONMODAL                0000000180010d08     util.obj
 0001:0000fd10       EF_CREATENEW               0000000180010d10     util.obj
 0001:0000fd18       EF_ENABLE_F6               0000000180010d18     util.obj
 0001:0000fd20       EF_DISABLEHISTORY          0000000180010d20     util.obj
 0001:0000fd28       EF_DELETEONCLOSE           0000000180010d28     util.obj
 0001:0000fd30       EF_IMMEDIATERETURN         0000000180010d30     util.obj
 0001:0000fd38       EF_DELETEONLYFILEONCLOSE   0000000180010d38     util.obj
 0001:0000fd40       EF_LOCKED                  0000000180010d40     util.obj
 0001:0000fd48       EF_DISABLESAVEPOS          0000000180010d48     util.obj
 0001:0000fd50       EF_OPENMODE_MASK           0000000180010d50     util.obj
 0001:0000fd58       EF_OPENMODE_QUERY          0000000180010d58     util.obj
 0001:0000fd60       EF_OPENMODE_NEWIFOPEN      0000000180010d60     util.obj
 0001:0000fd68       EF_OPENMODE_USEEXISTING    0000000180010d68     util.obj
 0001:0000fd70       EF_OPENMODE_BREAKIFOPEN    0000000180010d70     util.obj
 0001:0000fd78       EF_OPENMODE_RELOADIFOPEN   0000000180010d78     util.obj
 0001:0000fd80       EN_NONE                    0000000180010d80     util.obj
 0001:0000fd88       FHELP_NOSHOWERROR          0000000180010d88     util.obj
 0001:0000fd90       FHELP_SELFHELP             0000000180010d90     util.obj
 0001:0000fd98       FHELP_FARHELP              0000000180010d98     util.obj
 0001:0000fda0       FHELP_CUSTOMFILE           0000000180010da0     util.obj
 0001:0000fda8       FHELP_CUSTOMPATH           0000000180010da8     util.obj
 0001:0000fdb0       FHELP_GUID                 0000000180010db0     util.obj
 0001:0000fdb8       FHELP_USECONTENTS          0000000180010db8     util.obj
 0001:0000fdc0       FHELP_NONE                 0000000180010dc0     util.obj
 0001:0000fdc8       KMFLAGS_SILENTCHECK        0000000180010dc8     util.obj
 0001:0000fdd0       KMFLAGS_NOSENDKEYSTOPLUGINS 0000000180010dd0     util.obj
 0001:0000fdd8       KMFLAGS_ENABLEOUTPUT       0000000180010dd8     util.obj
 0001:0000fde0       KMFLAGS_LANGMASK           0000000180010de0     util.obj
 0001:0000fde8       KMFLAGS_LUA                0000000180010de8     util.obj
 0001:0000fdf0       KMFLAGS_MOONSCRIPT         0000000180010df0     util.obj
 0001:0000fdf8       KMFLAGS_NONE               0000000180010df8     util.obj
 0001:0000fe00       AKMFLAGS_NONE              0000000180010e00     util.obj
 0001:0000fe08       FSETCLR_REDRAW             0000000180010e08     util.obj
 0001:0000fe10       FSETCLR_NONE               0000000180010e10     util.obj
 0001:0000fe18       WIF_MODIFIED               0000000180010e18     util.obj
 0001:0000fe20       WIF_CURRENT                0000000180010e20     util.obj
 0001:0000fe28       WIF_MODAL                  0000000180010e28     util.obj
 0001:0000fe30       WIF_NONE                   0000000180010e30     util.obj
 0001:0000fe38       VOPT_SAVEFILEPOSITION      0000000180010e38     util.obj
 0001:0000fe40       VOPT_AUTODETECTCODEPAGE    0000000180010e40     util.obj
 0001:0000fe48       VOPT_SHOWTITLEBAR          0000000180010e48     util.obj
 0001:0000fe50       VOPT_SHOWKEYBAR            0000000180010e50     util.obj
 0001:0000fe58       VOPT_SHOWSCROLLBAR         0000000180010e58     util.obj
 0001:0000fe60       VOPT_QUICKVIEW             0000000180010e60     util.obj
 0001:0000fe68       VOPT_NONE                  0000000180010e68     util.obj
 0001:0000fe70       VSMFL_REDRAW               0000000180010e70     util.obj
 0001:0000fe78       VSMFL_NONE                 0000000180010e78     util.obj
 0001:0000fe80       VSP_NOREDRAW               0000000180010e80     util.obj
 0001:0000fe88       VSP_PERCENT                0000000180010e88     util.obj
 0001:0000fe90       VSP_RELATIVE               0000000180010e90     util.obj
 0001:0000fe98       VSP_NORETNEWPOS            0000000180010e98     util.obj
 0001:0000fea0       VSP_NONE                   0000000180010ea0     util.obj
 0001:0000fea8       VMF_WRAP                   0000000180010ea8     util.obj
 0001:0000feb0       VMF_WORDWRAP               0000000180010eb0     util.obj
 0001:0000feb8       VMF_NONE                   0000000180010eb8     util.obj
 0001:0000fec0       ECF_TABMARKFIRST           0000000180010ec0     util.obj
 0001:0000fec8       ECF_TABMARKCURRENT         0000000180010ec8     util.obj
 0001:0000fed0       ECF_AUTODELETE             0000000180010ed0     util.obj
 0001:0000fed8       ECF_NONE                   0000000180010ed8     util.obj
 0001:0000fee0       FIB_ENABLEEMPTY            0000000180010ee0     util.obj
 0001:0000fee8       FIB_PASSWORD               0000000180010ee8     util.obj
 0001:0000fef0       FIB_EXPANDENV              0000000180010ef0     util.obj
 0001:0000fef8       FIB_NOUSELASTHISTORY       0000000180010ef8     util.obj
 0001:0000ff00       FIB_BUTTONS                0000000180010f00     util.obj
 0001:0000ff08       FIB_NOAMPERSAND            0000000180010f08     util.obj
 0001:0000ff10       FIB_EDITPATH               0000000180010f10     util.obj
 0001:0000ff18       FIB_EDITPATHEXEC           0000000180010f18     util.obj
 0001:0000ff20       FIB_NONE                   0000000180010f20     util.obj
 0001:0000ff28       FPF_LOADED                 0000000180010f28     util.obj
 0001:0000ff30       FPF_ANSI                   0000000180010f30     util.obj
 0001:0000ff38       FPF_NONE                   0000000180010f38     util.obj
 0001:0000ff40       PN_CMPNAME                 0000000180010f40     util.obj
 0001:0000ff48       PN_CMPNAMELIST             0000000180010f48     util.obj
 0001:0000ff50       PN_GENERATENAME            0000000180010f50     util.obj
 0001:0000ff58       PN_CHECKMASK               0000000180010f58     util.obj
 0001:0000ff60       PN_SKIPPATH                0000000180010f60     util.obj
 0001:0000ff68       PN_SHOWERRORMESSAGE        0000000180010f68     util.obj
 0001:0000ff70       PN_NONE                    0000000180010f70     util.obj
 0001:0000ff78       XLAT_SWITCHKEYBLAYOUT      0000000180010f78     util.obj
 0001:0000ff80       XLAT_SWITCHKEYBBEEP        0000000180010f80     util.obj
 0001:0000ff88       XLAT_USEKEYBLAYOUTNAME     0000000180010f88     util.obj
 0001:0000ff90       XLAT_CONVERTALLCMDLINE     0000000180010f90     util.obj
 0001:0000ff98       XLAT_NONE                  0000000180010f98     util.obj
 0001:0000ffa0       FRS_RETUPDIR               0000000180010fa0     util.obj
 0001:0000ffa8       FRS_RECUR                  0000000180010fa8     util.obj
 0001:0000ffb0       FRS_SCANSYMLINK            0000000180010fb0     util.obj
 0001:0000ffb8       FRS_NONE                   0000000180010fb8     util.obj
 0001:0000ffc0       MLF_SHOWERRMSG             0000000180010fc0     util.obj
 0001:0000ffc8       MLF_DONOTUPDATEPANEL       0000000180010fc8     util.obj
 0001:0000ffd0       MLF_HOLDTARGET             0000000180010fd0     util.obj
 0001:0000ffd8       MLF_NONE                   0000000180010fd8     util.obj
 0001:0000ffe0       FFFS_COMMAS                0000000180010fe0     util.obj
 0001:0000ffe8       FFFS_FLOATSIZE             0000000180010fe8     util.obj
 0001:0000fff0       FFFS_SHOWBYTESINDEX        0000000180010ff0     util.obj
 0001:0000fff8       FFFS_ECONOMIC              0000000180010ff8     util.obj
 0001:00010000       FFFS_THOUSAND              0000000180011000     util.obj
 0001:00010008       FFFS_MINSIZEINDEX          0000000180011008     util.obj
 0001:00010010       FFFS_MINSIZEINDEX_MASK     0000000180011010     util.obj
 0001:00010018       FFFS_NONE                  0000000180011018     util.obj
 0001:00010020       PF_PRELOAD                 0000000180011020     util.obj
 0001:00010028       PF_DISABLEPANELS           0000000180011028     util.obj
 0001:00010030       PF_EDITOR                  0000000180011030     util.obj
 0001:00010038       PF_VIEWER                  0000000180011038     util.obj
 0001:00010040       PF_FULLCMDLINE             0000000180011040     util.obj
 0001:00010048       PF_DIALOG                  0000000180011048     util.obj
 0001:00010050       PF_NONE                    0000000180011050     util.obj
 0001:00010058       IPLFLAGS_SEPARATOR         0000000180011058     util.obj
 0001:00010060       IPLFLAGS_NONE              0000000180011060     util.obj
 0001:00010068       PMFLAGS_FULLSCREEN         0000000180011068     util.obj
 0001:00010070       PMFLAGS_DETAILEDSTATUS     0000000180011070     util.obj
 0001:00010078       PMFLAGS_ALIGNEXTENSIONS    0000000180011078     util.obj
 0001:00010080       PMFLAGS_CASECONVERSION     0000000180011080     util.obj
 0001:00010088       PMFLAGS_NONE               0000000180011088     util.obj
 0001:00010090       OPIF_DISABLEFILTER         0000000180011090     util.obj
 0001:00010098       OPIF_DISABLESORTGROUPS     0000000180011098     util.obj
 0001:000100a0       OPIF_DISABLEHIGHLIGHTING   00000001800110a0     util.obj
 0001:000100a8       OPIF_ADDDOTS               00000001800110a8     util.obj
 0001:000100b0       OPIF_RAWSELECTION          00000001800110b0     util.obj
 0001:000100b8       OPIF_REALNAMES             00000001800110b8     util.obj
 0001:000100c0       OPIF_SHOWNAMESONLY         00000001800110c0     util.obj
 0001:000100c8       OPIF_SHOWRIGHTALIGNNAMES   00000001800110c8     util.obj
 0001:000100d0       OPIF_SHOWPRESERVECASE      00000001800110d0     util.obj
 0001:000100d8       OPIF_COMPAREFATTIME        00000001800110d8     util.obj
 0001:000100e0       OPIF_EXTERNALGET           00000001800110e0     util.obj
 0001:000100e8       OPIF_EXTERNALPUT           00000001800110e8     util.obj
 0001:000100f0       OPIF_EXTERNALDELETE        00000001800110f0     util.obj
 0001:000100f8       OPIF_EXTERNALMKDIR         00000001800110f8     util.obj
 0001:00010100       OPIF_USEATTRHIGHLIGHTING   0000000180011100     util.obj
 0001:00010108       OPIF_USECRC32              0000000180011108     util.obj
 0001:00010110       OPIF_USEFREESIZE           0000000180011110     util.obj
 0001:00010118       OPIF_SHORTCUT              0000000180011118     util.obj
 0001:00010120       OPIF_NONE                  0000000180011120     util.obj
 0001:00010128       OPM_SILENT                 0000000180011128     util.obj
 0001:00010130       OPM_FIND                   0000000180011130     util.obj
 0001:00010138       OPM_VIEW                   0000000180011138     util.obj
 0001:00010140       OPM_EDIT                   0000000180011140     util.obj
 0001:00010148       OPM_TOPLEVEL               0000000180011148     util.obj
 0001:00010150       OPM_DESCR                  0000000180011150     util.obj
 0001:00010158       OPM_QUICKVIEW              0000000180011158     util.obj
 0001:00010160       OPM_PGDN                   0000000180011160     util.obj
 0001:00010168       OPM_COMMANDS               0000000180011168     util.obj
 0001:00010170       OPM_NONE                   0000000180011170     util.obj
 0001:00010178       FOSF_ACTIVE                0000000180011178     util.obj
 0001:00010180       FOSF_NONE                  0000000180011180     util.obj
 0001:00010188       PCIF_NONE                  0000000180011188     util.obj
 0001:00010190       FarGuid                    0000000180011190     util.obj
 0001:000103f0       FCF_FG_4BIT                00000001800113f0     win.obj
 0001:000103f8       FCF_BG_4BIT                00000001800113f8     win.obj
 0001:00010400       FCF_4BITMASK               0000000180011400     win.obj
 0001:00010408       FCF_RAWATTR_MASK           0000000180011408     win.obj
 0001:00010410       FCF_EXTENDEDFLAGS          0000000180011410     win.obj
 0001:00010418       FCF_FG_BOLD                0000000180011418     win.obj
 0001:00010420       FCF_FG_ITALIC              0000000180011420     win.obj
 0001:00010428       FCF_FG_UNDERLINE           0000000180011428     win.obj
 0001:00010430       FCF_STYLEMASK              0000000180011430     win.obj
 0001:00010438       FCF_NONE                   0000000180011438     win.obj
 0001:00010440       CDF_NONE                   0000000180011440     win.obj
 0001:00010448       FMSG_WARNING               0000000180011448     win.obj
 0001:00010450       FMSG_ERRORTYPE             0000000180011450     win.obj
 0001:00010458       FMSG_KEEPBACKGROUND        0000000180011458     win.obj
 0001:00010460       FMSG_LEFTALIGN             0000000180011460     win.obj
 0001:00010468       FMSG_ALLINONE              0000000180011468     win.obj
 0001:00010470       FMSG_MB_OK                 0000000180011470     win.obj
 0001:00010478       FMSG_MB_OKCANCEL           0000000180011478     win.obj
 0001:00010480       FMSG_MB_ABORTRETRYIGNORE   0000000180011480     win.obj
 0001:00010488       FMSG_MB_YESNO              0000000180011488     win.obj
 0001:00010490       FMSG_MB_YESNOCANCEL        0000000180011490     win.obj
 0001:00010498       FMSG_MB_RETRYCANCEL        0000000180011498     win.obj
 0001:000104a0       FMSG_NONE                  00000001800114a0     win.obj
 0001:000104a8       DIF_BOXCOLOR               00000001800114a8     win.obj
 0001:000104b0       DIF_GROUP                  00000001800114b0     win.obj
 0001:000104b8       DIF_LEFTTEXT               00000001800114b8     win.obj
 0001:000104c0       DIF_MOVESELECT             00000001800114c0     win.obj
 0001:000104c8       DIF_SHOWAMPERSAND          00000001800114c8     win.obj
 0001:000104d0       DIF_CENTERGROUP            00000001800114d0     win.obj
 0001:000104d8       DIF_NOBRACKETS             00000001800114d8     win.obj
 0001:000104e0       DIF_MANUALADDHISTORY       00000001800114e0     win.obj
 0001:000104e8       DIF_SEPARATOR              00000001800114e8     win.obj
 0001:000104f0       DIF_SEPARATOR2             00000001800114f0     win.obj
 0001:000104f8       DIF_EDITOR                 00000001800114f8     win.obj
 0001:00010500       DIF_LISTNOAMPERSAND        0000000180011500     win.obj
 0001:00010508       DIF_LISTNOBOX              0000000180011508     win.obj
 0001:00010510       DIF_HISTORY                0000000180011510     win.obj
 0001:00010518       DIF_BTNNOCLOSE             0000000180011518     win.obj
 0001:00010520       DIF_CENTERTEXT             0000000180011520     win.obj
 0001:00010528       DIF_SEPARATORUSER          0000000180011528     win.obj
 0001:00010530       DIF_SETSHIELD              0000000180011530     win.obj
 0001:00010538       DIF_EDITEXPAND             0000000180011538     win.obj
 0001:00010540       DIF_DROPDOWNLIST           0000000180011540     win.obj
 0001:00010548       DIF_USELASTHISTORY         0000000180011548     win.obj
 0001:00010550       DIF_MASKEDIT               0000000180011550     win.obj
 0001:00010558       DIF_LISTTRACKMOUSE         0000000180011558     win.obj
 0001:00010560       DIF_LISTTRACKMOUSEINFOCUS  0000000180011560     win.obj
 0001:00010568       DIF_SELECTONENTRY          0000000180011568     win.obj
 0001:00010570       DIF_3STATE                 0000000180011570     win.obj
 0001:00010578       DIF_EDITPATH               0000000180011578     win.obj
 0001:00010580       DIF_LISTWRAPMODE           0000000180011580     win.obj
 0001:00010588       DIF_NOAUTOCOMPLETE         0000000180011588     win.obj
 0001:00010590       DIF_LISTAUTOHIGHLIGHT      0000000180011590     win.obj
 0001:00010598       DIF_LISTNOCLOSE            0000000180011598     win.obj
 0001:000105a0       DIF_EDITPATHEXEC           00000001800115a0     win.obj
 0001:000105a8       DIF_HIDDEN                 00000001800115a8     win.obj
 0001:000105b0       DIF_READONLY               00000001800115b0     win.obj
 0001:000105b8       DIF_NOFOCUS                00000001800115b8     win.obj
 0001:000105c0       DIF_DISABLE                00000001800115c0     win.obj
 0001:000105c8       DIF_DEFAULTBUTTON          00000001800115c8     win.obj
 0001:000105d0       DIF_FOCUS                  00000001800115d0     win.obj
 0001:000105d8       DIF_RIGHTTEXT              00000001800115d8     win.obj
 0001:000105e0       DIF_WORDWRAP               00000001800115e0     win.obj
 0001:000105e8       DIF_NONE                   00000001800115e8     win.obj
 0001:000105f0       LIF_SELECTED               00000001800115f0     win.obj
 0001:000105f8       LIF_CHECKED                00000001800115f8     win.obj
 0001:00010600       LIF_SEPARATOR              0000000180011600     win.obj
 0001:00010608       LIF_DISABLE                0000000180011608     win.obj
 0001:00010610       LIF_GRAYED                 0000000180011610     win.obj
 0001:00010618       LIF_HIDDEN                 0000000180011618     win.obj
 0001:00010620       LIF_DELETEUSERDATA         0000000180011620     win.obj
 0001:00010628       LIF_NONE                   0000000180011628     win.obj
 0001:00010630       LIFIND_EXACTMATCH          0000000180011630     win.obj
 0001:00010638       LIFIND_NONE                0000000180011638     win.obj
 0001:00010640       LINFO_SHOWNOBOX            0000000180011640     win.obj
 0001:00010648       LINFO_AUTOHIGHLIGHT        0000000180011648     win.obj
 0001:00010650       LINFO_REVERSEHIGHLIGHT     0000000180011650     win.obj
 0001:00010658       LINFO_WRAPMODE             0000000180011658     win.obj
 0001:00010660       LINFO_SHOWAMPERSAND        0000000180011660     win.obj
 0001:00010668       LINFO_NONE                 0000000180011668     win.obj
 0001:00010670       FDLG_WARNING               0000000180011670     win.obj
 0001:00010678       FDLG_SMALLDIALOG           0000000180011678     win.obj
 0001:00010680       FDLG_NODRAWSHADOW          0000000180011680     win.obj
 0001:00010688       FDLG_NODRAWPANEL           0000000180011688     win.obj
 0001:00010690       FDLG_KEEPCONSOLETITLE      0000000180011690     win.obj
 0001:00010698       FDLG_NONMODAL              0000000180011698     win.obj
 0001:000106a0       FDLG_NONE                  00000001800116a0     win.obj
 0001:000106a8       MIF_SELECTED               00000001800116a8     win.obj
 0001:000106b0       MIF_CHECKED                00000001800116b0     win.obj
 0001:000106b8       MIF_SEPARATOR              00000001800116b8     win.obj
 0001:000106c0       MIF_DISABLE                00000001800116c0     win.obj
 0001:000106c8       MIF_GRAYED                 00000001800116c8     win.obj
 0001:000106d0       MIF_HIDDEN                 00000001800116d0     win.obj
 0001:000106d8       MIF_NONE                   00000001800116d8     win.obj
 0001:000106e0       FMENU_SHOWAMPERSAND        00000001800116e0     win.obj
 0001:000106e8       FMENU_WRAPMODE             00000001800116e8     win.obj
 0001:000106f0       FMENU_AUTOHIGHLIGHT        00000001800116f0     win.obj
 0001:000106f8       FMENU_REVERSEAUTOHIGHLIGHT 00000001800116f8     win.obj
 0001:00010700       FMENU_CHANGECONSOLETITLE   0000000180011700     win.obj
 0001:00010708       FMENU_NONE                 0000000180011708     win.obj
 0001:00010710       PPIF_SELECTED              0000000180011710     win.obj
 0001:00010718       PPIF_PROCESSDESCR          0000000180011718     win.obj
 0001:00010720       PPIF_NONE                  0000000180011720     win.obj
 0001:00010728       PFLAGS_SHOWHIDDEN          0000000180011728     win.obj
 0001:00010730       PFLAGS_HIGHLIGHT           0000000180011730     win.obj
 0001:00010738       PFLAGS_REVERSESORTORDER    0000000180011738     win.obj
 0001:00010740       PFLAGS_USESORTGROUPS       0000000180011740     win.obj
 0001:00010748       PFLAGS_SELECTEDFIRST       0000000180011748     win.obj
 0001:00010750       PFLAGS_REALNAMES           0000000180011750     win.obj
 0001:00010758       PFLAGS_PANELLEFT           0000000180011758     win.obj
 0001:00010760       PFLAGS_DIRECTORIESFIRST    0000000180011760     win.obj
 0001:00010768       PFLAGS_USECRC32            0000000180011768     win.obj
 0001:00010770       PFLAGS_PLUGIN              0000000180011770     win.obj
 0001:00010778       PFLAGS_VISIBLE             0000000180011778     win.obj
 0001:00010780       PFLAGS_FOCUS               0000000180011780     win.obj
 0001:00010788       PFLAGS_ALTERNATIVENAMES    0000000180011788     win.obj
 0001:00010790       PFLAGS_SHORTCUT            0000000180011790     win.obj
 0001:00010798       PFLAGS_NONE                0000000180011798     win.obj
 0001:000107a0       VF_NONMODAL                00000001800117a0     win.obj
 0001:000107a8       VF_DELETEONCLOSE           00000001800117a8     win.obj
 0001:000107b0       VF_ENABLE_F6               00000001800117b0     win.obj
 0001:000107b8       VF_DISABLEHISTORY          00000001800117b8     win.obj
 0001:000107c0       VF_IMMEDIATERETURN         00000001800117c0     win.obj
 0001:000107c8       VF_DELETEONLYFILEONCLOSE   00000001800117c8     win.obj
 0001:000107d0       VF_NONE                    00000001800117d0     win.obj
 0001:000107d8       EF_NONMODAL                00000001800117d8     win.obj
 0001:000107e0       EF_CREATENEW               00000001800117e0     win.obj
 0001:000107e8       EF_ENABLE_F6               00000001800117e8     win.obj
 0001:000107f0       EF_DISABLEHISTORY          00000001800117f0     win.obj
 0001:000107f8       EF_DELETEONCLOSE           00000001800117f8     win.obj
 0001:00010800       EF_IMMEDIATERETURN         0000000180011800     win.obj
 0001:00010808       EF_DELETEONLYFILEONCLOSE   0000000180011808     win.obj
 0001:00010810       EF_LOCKED                  0000000180011810     win.obj
 0001:00010818       EF_DISABLESAVEPOS          0000000180011818     win.obj
 0001:00010820       EF_OPENMODE_MASK           0000000180011820     win.obj
 0001:00010828       EF_OPENMODE_QUERY          0000000180011828     win.obj
 0001:00010830       EF_OPENMODE_NEWIFOPEN      0000000180011830     win.obj
 0001:00010838       EF_OPENMODE_USEEXISTING    0000000180011838     win.obj
 0001:00010840       EF_OPENMODE_BREAKIFOPEN    0000000180011840     win.obj
 0001:00010848       EF_OPENMODE_RELOADIFOPEN   0000000180011848     win.obj
 0001:00010850       EN_NONE                    0000000180011850     win.obj
 0001:00010858       FHELP_NOSHOWERROR          0000000180011858     win.obj
 0001:00010860       FHELP_SELFHELP             0000000180011860     win.obj
 0001:00010868       FHELP_FARHELP              0000000180011868     win.obj
 0001:00010870       FHELP_CUSTOMFILE           0000000180011870     win.obj
 0001:00010878       FHELP_CUSTOMPATH           0000000180011878     win.obj
 0001:00010880       FHELP_GUID                 0000000180011880     win.obj
 0001:00010888       FHELP_USECONTENTS          0000000180011888     win.obj
 0001:00010890       FHELP_NONE                 0000000180011890     win.obj
 0001:00010898       KMFLAGS_SILENTCHECK        0000000180011898     win.obj
 0001:000108a0       KMFLAGS_NOSENDKEYSTOPLUGINS 00000001800118a0     win.obj
 0001:000108a8       KMFLAGS_ENABLEOUTPUT       00000001800118a8     win.obj
 0001:000108b0       KMFLAGS_LANGMASK           00000001800118b0     win.obj
 0001:000108b8       KMFLAGS_LUA                00000001800118b8     win.obj
 0001:000108c0       KMFLAGS_MOONSCRIPT         00000001800118c0     win.obj
 0001:000108c8       KMFLAGS_NONE               00000001800118c8     win.obj
 0001:000108d0       AKMFLAGS_NONE              00000001800118d0     win.obj
 0001:000108d8       FSETCLR_REDRAW             00000001800118d8     win.obj
 0001:000108e0       FSETCLR_NONE               00000001800118e0     win.obj
 0001:000108e8       WIF_MODIFIED               00000001800118e8     win.obj
 0001:000108f0       WIF_CURRENT                00000001800118f0     win.obj
 0001:000108f8       WIF_MODAL                  00000001800118f8     win.obj
 0001:00010900       WIF_NONE                   0000000180011900     win.obj
 0001:00010908       VOPT_SAVEFILEPOSITION      0000000180011908     win.obj
 0001:00010910       VOPT_AUTODETECTCODEPAGE    0000000180011910     win.obj
 0001:00010918       VOPT_SHOWTITLEBAR          0000000180011918     win.obj
 0001:00010920       VOPT_SHOWKEYBAR            0000000180011920     win.obj
 0001:00010928       VOPT_SHOWSCROLLBAR         0000000180011928     win.obj
 0001:00010930       VOPT_QUICKVIEW             0000000180011930     win.obj
 0001:00010938       VOPT_NONE                  0000000180011938     win.obj
 0001:00010940       VSMFL_REDRAW               0000000180011940     win.obj
 0001:00010948       VSMFL_NONE                 0000000180011948     win.obj
 0001:00010950       VSP_NOREDRAW               0000000180011950     win.obj
 0001:00010958       VSP_PERCENT                0000000180011958     win.obj
 0001:00010960       VSP_RELATIVE               0000000180011960     win.obj
 0001:00010968       VSP_NORETNEWPOS            0000000180011968     win.obj
 0001:00010970       VSP_NONE                   0000000180011970     win.obj
 0001:00010978       VMF_WRAP                   0000000180011978     win.obj
 0001:00010980       VMF_WORDWRAP               0000000180011980     win.obj
 0001:00010988       VMF_NONE                   0000000180011988     win.obj
 0001:00010990       ECF_TABMARKFIRST           0000000180011990     win.obj
 0001:00010998       ECF_TABMARKCURRENT         0000000180011998     win.obj
 0001:000109a0       ECF_AUTODELETE             00000001800119a0     win.obj
 0001:000109a8       ECF_NONE                   00000001800119a8     win.obj
 0001:000109b0       FIB_ENABLEEMPTY            00000001800119b0     win.obj
 0001:000109b8       FIB_PASSWORD               00000001800119b8     win.obj
 0001:000109c0       FIB_EXPANDENV              00000001800119c0     win.obj
 0001:000109c8       FIB_NOUSELASTHISTORY       00000001800119c8     win.obj
 0001:000109d0       FIB_BUTTONS                00000001800119d0     win.obj
 0001:000109d8       FIB_NOAMPERSAND            00000001800119d8     win.obj
 0001:000109e0       FIB_EDITPATH               00000001800119e0     win.obj
 0001:000109e8       FIB_EDITPATHEXEC           00000001800119e8     win.obj
 0001:000109f0       FIB_NONE                   00000001800119f0     win.obj
 0001:000109f8       FPF_LOADED                 00000001800119f8     win.obj
 0001:00010a00       FPF_ANSI                   0000000180011a00     win.obj
 0001:00010a08       FPF_NONE                   0000000180011a08     win.obj
 0001:00010a10       PN_CMPNAME                 0000000180011a10     win.obj
 0001:00010a18       PN_CMPNAMELIST             0000000180011a18     win.obj
 0001:00010a20       PN_GENERATENAME            0000000180011a20     win.obj
 0001:00010a28       PN_CHECKMASK               0000000180011a28     win.obj
 0001:00010a30       PN_SKIPPATH                0000000180011a30     win.obj
 0001:00010a38       PN_SHOWERRORMESSAGE        0000000180011a38     win.obj
 0001:00010a40       PN_NONE                    0000000180011a40     win.obj
 0001:00010a48       XLAT_SWITCHKEYBLAYOUT      0000000180011a48     win.obj
 0001:00010a50       XLAT_SWITCHKEYBBEEP        0000000180011a50     win.obj
 0001:00010a58       XLAT_USEKEYBLAYOUTNAME     0000000180011a58     win.obj
 0001:00010a60       XLAT_CONVERTALLCMDLINE     0000000180011a60     win.obj
 0001:00010a68       XLAT_NONE                  0000000180011a68     win.obj
 0001:00010a70       FRS_RETUPDIR               0000000180011a70     win.obj
 0001:00010a78       FRS_RECUR                  0000000180011a78     win.obj
 0001:00010a80       FRS_SCANSYMLINK            0000000180011a80     win.obj
 0001:00010a88       FRS_NONE                   0000000180011a88     win.obj
 0001:00010a90       MLF_SHOWERRMSG             0000000180011a90     win.obj
 0001:00010a98       MLF_DONOTUPDATEPANEL       0000000180011a98     win.obj
 0001:00010aa0       MLF_HOLDTARGET             0000000180011aa0     win.obj
 0001:00010aa8       MLF_NONE                   0000000180011aa8     win.obj
 0001:00010ab0       FFFS_COMMAS                0000000180011ab0     win.obj
 0001:00010ab8       FFFS_FLOATSIZE             0000000180011ab8     win.obj
 0001:00010ac0       FFFS_SHOWBYTESINDEX        0000000180011ac0     win.obj
 0001:00010ac8       FFFS_ECONOMIC              0000000180011ac8     win.obj
 0001:00010ad0       FFFS_THOUSAND              0000000180011ad0     win.obj
 0001:00010ad8       FFFS_MINSIZEINDEX          0000000180011ad8     win.obj
 0001:00010ae0       FFFS_MINSIZEINDEX_MASK     0000000180011ae0     win.obj
 0001:00010ae8       FFFS_NONE                  0000000180011ae8     win.obj
 0001:00010af0       PF_PRELOAD                 0000000180011af0     win.obj
 0001:00010af8       PF_DISABLEPANELS           0000000180011af8     win.obj
 0001:00010b00       PF_EDITOR                  0000000180011b00     win.obj
 0001:00010b08       PF_VIEWER                  0000000180011b08     win.obj
 0001:00010b10       PF_FULLCMDLINE             0000000180011b10     win.obj
 0001:00010b18       PF_DIALOG                  0000000180011b18     win.obj
 0001:00010b20       PF_NONE                    0000000180011b20     win.obj
 0001:00010b28       IPLFLAGS_SEPARATOR         0000000180011b28     win.obj
 0001:00010b30       IPLFLAGS_NONE              0000000180011b30     win.obj
 0001:00010b38       PMFLAGS_FULLSCREEN         0000000180011b38     win.obj
 0001:00010b40       PMFLAGS_DETAILEDSTATUS     0000000180011b40     win.obj
 0001:00010b48       PMFLAGS_ALIGNEXTENSIONS    0000000180011b48     win.obj
 0001:00010b50       PMFLAGS_CASECONVERSION     0000000180011b50     win.obj
 0001:00010b58       PMFLAGS_NONE               0000000180011b58     win.obj
 0001:00010b60       OPIF_DISABLEFILTER         0000000180011b60     win.obj
 0001:00010b68       OPIF_DISABLESORTGROUPS     0000000180011b68     win.obj
 0001:00010b70       OPIF_DISABLEHIGHLIGHTING   0000000180011b70     win.obj
 0001:00010b78       OPIF_ADDDOTS               0000000180011b78     win.obj
 0001:00010b80       OPIF_RAWSELECTION          0000000180011b80     win.obj
 0001:00010b88       OPIF_REALNAMES             0000000180011b88     win.obj
 0001:00010b90       OPIF_SHOWNAMESONLY         0000000180011b90     win.obj
 0001:00010b98       OPIF_SHOWRIGHTALIGNNAMES   0000000180011b98     win.obj
 0001:00010ba0       OPIF_SHOWPRESERVECASE      0000000180011ba0     win.obj
 0001:00010ba8       OPIF_COMPAREFATTIME        0000000180011ba8     win.obj
 0001:00010bb0       OPIF_EXTERNALGET           0000000180011bb0     win.obj
 0001:00010bb8       OPIF_EXTERNALPUT           0000000180011bb8     win.obj
 0001:00010bc0       OPIF_EXTERNALDELETE        0000000180011bc0     win.obj
 0001:00010bc8       OPIF_EXTERNALMKDIR         0000000180011bc8     win.obj
 0001:00010bd0       OPIF_USEATTRHIGHLIGHTING   0000000180011bd0     win.obj
 0001:00010bd8       OPIF_USECRC32              0000000180011bd8     win.obj
 0001:00010be0       OPIF_USEFREESIZE           0000000180011be0     win.obj
 0001:00010be8       OPIF_SHORTCUT              0000000180011be8     win.obj
 0001:00010bf0       OPIF_NONE                  0000000180011bf0     win.obj
 0001:00010bf8       OPM_SILENT                 0000000180011bf8     win.obj
 0001:00010c00       OPM_FIND                   0000000180011c00     win.obj
 0001:00010c08       OPM_VIEW                   0000000180011c08     win.obj
 0001:00010c10       OPM_EDIT                   0000000180011c10     win.obj
 0001:00010c18       OPM_TOPLEVEL               0000000180011c18     win.obj
 0001:00010c20       OPM_DESCR                  0000000180011c20     win.obj
 0001:00010c28       OPM_QUICKVIEW              0000000180011c28     win.obj
 0001:00010c30       OPM_PGDN                   0000000180011c30     win.obj
 0001:00010c38       OPM_COMMANDS               0000000180011c38     win.obj
 0001:00010c40       OPM_NONE                   0000000180011c40     win.obj
 0001:00010c48       FOSF_ACTIVE                0000000180011c48     win.obj
 0001:00010c50       FOSF_NONE                  0000000180011c50     win.obj
 0001:00010c58       PCIF_NONE                  0000000180011c58     win.obj
 0001:00010c60       FarGuid                    0000000180011c60     win.obj
 0001:00011070       ?tokenTable@@3QBQEBDB      0000000180012070     libvcruntime:undname.obj
 0001:000110f0       ?nameTable@@3QBQEBDB       00000001800120f0     libvcruntime:undname.obj
 0001:00011380       ?rttiTable@@3QBQEBDB       0000000180012380     libvcruntime:undname.obj
 0001:00011a38       ?module_names@?A0xbfd18cd1@@3QBQEB_WB 0000000180012a38     libvcruntime:winapi_downlevel.obj
 0001:00011b08       ?candidate_modules@?1??try_get_FlsAlloc@@YAP6AKP6AXPEAX@Z@ZXZ@4QBW4module_id@?A0xbfd18cd1@@B 0000000180012b08     libvcruntime:winapi_downlevel.obj
 0001:00011b20       ?candidate_modules@?1??try_get_FlsFree@@YAP6AHK@ZXZ@4QBW4module_id@?A0xbfd18cd1@@B 0000000180012b20     libvcruntime:winapi_downlevel.obj
 0001:00011b30       ?candidate_modules@?1??try_get_FlsGetValue@@YAP6APEAXK@ZXZ@4QBW4module_id@?A0xbfd18cd1@@B 0000000180012b30     libvcruntime:winapi_downlevel.obj
 0001:00011b48       ?candidate_modules@?1??try_get_FlsSetValue@@YAP6AHKPEAX@ZXZ@4QBW4module_id@?A0xbfd18cd1@@B 0000000180012b48     libvcruntime:winapi_downlevel.obj
 0001:00011b60       ?candidate_modules@?1??try_get_InitializeCriticalSectionEx@@YAP6AHPEAU_RTL_CRITICAL_SECTION@@KK@ZXZ@4QBW4module_id@?A0xbfd18cd1@@B 0000000180012b60     libvcruntime:winapi_downlevel.obj
 0001:00011c10       ?errtable@@3QBUerrentry@?A0x31fdb9ec@@B 0000000180012c10     libucrt:errno.obj
 0001:00011dc0       ?default_cmd_exe@?1???$common_popen_nolock@_W@@YAPEAU_iobuf@@QEB_W0HAEAY01H@Z@4QB_WB 0000000180012dc0     libucrt:popen.obj
 0001:00011dd0       ?slash_c@?1???$common_popen_nolock@_W@@YAPEAU_iobuf@@QEB_W0HAEAY01H@Z@4QB_WB 0000000180012dd0     libucrt:popen.obj
 0001:00011de0       ?comspec_name@?1???$get_comspec@_W@@YAPEB_WXZ@4QB_WB 0000000180012de0     libucrt:popen.obj
 0001:00011df0       ?backslash@?L@???$get_executable_path@_W@@YAPEB_WQEB_W@Z@4QB_WB 0000000180012df0     libucrt:popen.obj
 0001:00011df8       ?path_name@?1???$get_path@_W@@YAPEB_WXZ@4QB_WB 0000000180012df8     libucrt:popen.obj
 0001:00012a00       ?comspec_name@?1???$common_system@_W@@YAHQEB_W@Z@4QB_WB 0000000180013a00     libucrt:system.obj
 0001:00012a10       ?cmd_exe@?1???$common_system@_W@@YAHQEB_W@Z@4QB_WB 0000000180013a10     libucrt:system.obj
 0001:00012a20       ?slash_c@?1???$common_system@_W@@YAHQEB_W@Z@4QB_WB 0000000180013a20     libucrt:system.obj
 0001:00012b30       __acrt_initializers        0000000180013b30     libucrt:initialization.obj
 0001:00013350       __real@433fffffffffffff    0000000180014350     libucrt:fpsr.obj
 0001:00013358       __real@c33fffffffffffff    0000000180014358     libucrt:fpsr.obj
 0001:00013860       ?module_names@?A0x391cf84c@@3QBQEB_WB 0000000180014860     libucrt:winapi_thunks.obj
 0001:00013e08       ?candidate_modules@?1??try_get_AreFileApisANSI@@YAP6AHXZXZ@4QBW4module_id@?A0x391cf84c@@B 0000000180014e08     libucrt:winapi_thunks.obj
 0001:00013e20       ?candidate_modules@?1??try_get_CompareStringEx@@YAP6AHPEB_WK0H0HPEAU_nlsversioninfo@@PEAX_J@ZXZ@4QBW4module_id@?A0x391cf84c@@B 0000000180014e20     libucrt:winapi_thunks.obj
 0001:00013e38       ?candidate_modules@?1??try_get_FlsAlloc@@YAP6AKP6AXPEAX@Z@ZXZ@4QBW4module_id@?A0x391cf84c@@B 0000000180014e38     libucrt:winapi_thunks.obj
 0001:00013e50       ?candidate_modules@?1??try_get_FlsFree@@YAP6AHK@ZXZ@4QBW4module_id@?A0x391cf84c@@B 0000000180014e50     libucrt:winapi_thunks.obj
 0001:00013e60       ?candidate_modules@?1??try_get_FlsGetValue@@YAP6APEAXK@ZXZ@4QBW4module_id@?A0x391cf84c@@B 0000000180014e60     libucrt:winapi_thunks.obj
 0001:00013e78       ?candidate_modules@?1??try_get_FlsSetValue@@YAP6AHKPEAX@ZXZ@4QBW4module_id@?A0x391cf84c@@B 0000000180014e78     libucrt:winapi_thunks.obj
 0001:00013e90       ?candidate_modules@?1??try_get_InitializeCriticalSectionEx@@YAP6AHPEAU_RTL_CRITICAL_SECTION@@KK@ZXZ@4QBW4module_id@?A0x391cf84c@@B 0000000180014e90     libucrt:winapi_thunks.obj
 0001:00013eb8       ?candidate_modules@?1??try_get_LCMapStringEx@@YAP6AHPEB_WK0HPEA_WHPEAU_nlsversioninfo@@PEAX_J@ZXZ@4QBW4module_id@?A0x391cf84c@@B 0000000180014eb8     libucrt:winapi_thunks.obj
 0001:00013ed0       ?candidate_modules@?1??try_get_LocaleNameToLCID@@YAP6AKPEB_WK@ZXZ@4QBW4module_id@?A0x391cf84c@@B 0000000180014ed0     libucrt:winapi_thunks.obj
 0001:00013eec       ?candidate_modules@?1??try_get_AppPolicyGetProcessTerminationMethod@@YAP6AJPEAXPEAW4AppPolicyProcessTerminationMethod@@@ZXZ@4QBW4module_id@?A0x391cf84c@@B 0000000180014eec     libucrt:winapi_thunks.obj
 0001:00014724       ?dot_slash@?CB@???$common_spawnv@_W@@YA_JHQEB_WQEBQEB_W1@Z@4QB_WB 0000000180015724     libucrt:spawnv.obj
 0001:00014730       ?extensions@?CP@???$common_spawnv@_W@@YA_JHQEB_WQEBQEB_W1@Z@4QAY04$$CB_WA 0000000180015730     libucrt:spawnv.obj
 0001:00014758       ?_mb_locale_names@@3QBQEB_WB 0000000180015758     libucrt:mbctype.obj
 0001:000147f0       ?LcidToLocaleNameTable@?A0x881e4c05@@3QBULcidToLocaleName@1@B 00000001800157f0     libucrt:lcidtoname_downlevel.obj
 0001:00016250       ?LocaleNameToIndexTable@?A0x881e4c05@@3QBULocaleNameIndex@1@B 0000000180017250     libucrt:lcidtoname_downlevel.obj
 0001:00017ae4       ?equal_sign@?BD@???$construct_environment_block@_W@@YAHQEBQEB_WQEAPEA_W@Z@4QB_WB 0000000180018ae4     libucrt:cenvarg.obj
 0001:00017af0       __real_ninf                0000000180018af0     libucrt:log10.obj
 0001:00017b00       __real_inf                 0000000180018b00     libucrt:log10.obj
 0001:00017b10       __real_neg_qnan            0000000180018b10     libucrt:log10.obj
 0001:00017b20       __real_qnanbit             0000000180018b20     libucrt:log10.obj
 0001:00017b30       __int_1023                 0000000180018b30     libucrt:log10.obj
 0001:00017b40       __mask_001                 0000000180018b40     libucrt:log10.obj
 0001:00017b50       __mask_mant                0000000180018b50     libucrt:log10.obj
 0001:00017b60       __mask_mant_top8           0000000180018b60     libucrt:log10.obj
 0001:00017b70       __mask_mant9               0000000180018b70     libucrt:log10.obj
 0001:00017b80       __real_log10_e             0000000180018b80     libucrt:log10.obj
 0001:00017b90       __real_log10_e_lead        0000000180018b90     libucrt:log10.obj
 0001:00017ba0       __real_log10_e_tail        0000000180018ba0     libucrt:log10.obj
 0001:00017bb0       __real_log10_2_lead        0000000180018bb0     libucrt:log10.obj
 0001:00017bc0       __real_log10_2_tail        0000000180018bc0     libucrt:log10.obj
 0001:00017bd0       __real_two                 0000000180018bd0     libucrt:log10.obj
 0001:00017be0       __real_one                 0000000180018be0     libucrt:log10.obj
 0001:00017bf0       __real_half                0000000180018bf0     libucrt:log10.obj
 0001:00017c00       __mask_100                 0000000180018c00     libucrt:log10.obj
 0001:00017c10       __real_1_over_512          0000000180018c10     libucrt:log10.obj
 0001:00017c20       __real_1_over_2            0000000180018c20     libucrt:log10.obj
 0001:00017c30       __real_1_over_3            0000000180018c30     libucrt:log10.obj
 0001:00017c40       __real_1_over_4            0000000180018c40     libucrt:log10.obj
 0001:00017c50       __real_1_over_5            0000000180018c50     libucrt:log10.obj
 0001:00017c60       __real_1_over_6            0000000180018c60     libucrt:log10.obj
 0001:00017c70       __real_neg_1023            0000000180018c70     libucrt:log10.obj
 0001:00017c80       __mask_2045                0000000180018c80     libucrt:log10.obj
 0001:00017c90       __real_threshold           0000000180018c90     libucrt:log10.obj
 0001:00017ca0       __real_near_one_lt         0000000180018ca0     libucrt:log10.obj
 0001:00017cb0       __real_near_one_gt         0000000180018cb0     libucrt:log10.obj
 0001:00017cc0       __real_min_norm            0000000180018cc0     libucrt:log10.obj
 0001:00017cd0       __real_notsign             0000000180018cd0     libucrt:log10.obj
 0001:00017ce0       __real_ca1                 0000000180018ce0     libucrt:log10.obj
 0001:00017cf0       __real_ca2                 0000000180018cf0     libucrt:log10.obj
 0001:00017d00       __real_ca3                 0000000180018d00     libucrt:log10.obj
 0001:00017d10       __real_ca4                 0000000180018d10     libucrt:log10.obj
 0001:00017d20       __mask_lower               0000000180018d20     libucrt:log10.obj
 0001:00017d30       __flag_x_zero              0000000180018d30     libucrt:log10.obj
 0001:00017d34       __flag_x_neg               0000000180018d34     libucrt:log10.obj
 0001:00017d38       __flag_x_nan               0000000180018d38     libucrt:log10.obj
 0001:00019588       GS_ExceptionPointers       000000018001a588     LIBCMT:gs_report.obj
 0001:00019960       $$000000                   000000018001a960     chkstk.obj
 0001:000199d0       f_sub                      000000018001a9d0 f   bit64.obj
 0001:00019a20       f_mul                      000000018001aa20 f   bit64.obj
 0001:00019af0       f_div                      000000018001aaf0 f   bit64.obj
 0001:00019b70       f_mod                      000000018001ab70 f   bit64.obj
 0001:00019bd0       f_unm                      000000018001abd0 f   bit64.obj
 0001:00019c00       f_eq                       000000018001ac00 f   bit64.obj
 0001:00019c50       f_lt                       000000018001ac50 f   bit64.obj
 0001:00019ca0       f_le                       000000018001aca0 f   bit64.obj
 0001:00019cf0       band                       000000018001acf0 f   bit64.obj
 0001:00019dc0       bor                        000000018001adc0 f   bit64.obj
 0001:00019e90       bxor                       000000018001ae90 f   bit64.obj
 0001:00019f60       bnot                       000000018001af60 f   bit64.obj
 0001:00019f90       lshift                     000000018001af90 f   bit64.obj
 0001:00019fe0       rshift                     000000018001afe0 f   bit64.obj
 0001:0001a030       arshift                    000000018001b030 f   bit64.obj
 0001:0001a090       f_new                      000000018001b090 f   bit64.obj
 0001:0001a300       f_tostring                 000000018001b300 f   bit64.obj
 0001:0001a350       f_type                     000000018001b350 f   bit64.obj
 0001:0001a3f0       f_add                      000000018001b3f0 f   bit64.obj
 0001:0001a660       check64                    000000018001b660 f   bit64.obj
 0001:0001aa10       FillFarMacroCall           000000018001ba10 f   exported.obj
 0001:0001ac50       FillFarMacroCall_Callback  000000018001bc50 f   exported.obj
 0001:0001e1c0       PushAnalyseInfo            000000018001f1c0 f   exported.obj
 0001:0001e410       RegisterObject             000000018001f410 f   exported.obj
 0001:0001ef70       errfile                    000000018001ff70 f   lflua.obj
 0001:0001eff0       getF                       000000018001fff0 f   lflua.obj
 0001:00020430       FL_PushParams              0000000180021430 f   luamacro.obj
 0001:000204d0       InitMPR                    00000001800214d0 f   luamacro.obj
 0001:00020540       MacroCallFarCallback       0000000180021540 f   luamacro.obj
 0001:00020c10       uc_tostring                0000000180021c10 f   lusercontrol.obj
 0001:00020c90       uc_index                   0000000180021c90 f   lusercontrol.obj
 0001:00020d90       uc_newindex                0000000180021d90 f   lusercontrol.obj
 0001:00020ea0       uc_New                     0000000180021ea0 f   lusercontrol.obj
 0001:000212d0       far_GetFileOwner           00000001800222d0 f   service.obj
 0001:00021380       far_GetNumberOfLinks       0000000180022380 f   service.obj
 0001:000213e0       far_PluginStartupInfo      00000001800223e0 f   service.obj
 0001:000214b0       far_GetCurrentDirectory    00000001800224b0 f   service.obj
 0001:00021530       editor_GetFileName         0000000180022530 f   service.obj
 0001:00021600       editor_GetInfo             0000000180022600 f   service.obj
 0001:00021980       editor_GetString           0000000180022980 f   service.obj
 0001:00021990       editor_GetStringW          0000000180022990 f   service.obj
 0001:000219a0       editor_SetString           00000001800229a0 f   service.obj
 0001:000219b0       editor_SetStringW          00000001800229b0 f   service.obj
 0001:000219c0       editor_InsertString        00000001800229c0 f   service.obj
 0001:00021a50       editor_DeleteString        0000000180022a50 f   service.obj
 0001:00021ac0       editor_InsertText          0000000180022ac0 f   service.obj
 0001:00021b40       editor_InsertTextW         0000000180022b40 f   service.obj
 0001:00021b50       editor_DeleteChar          0000000180022b50 f   service.obj
 0001:00021bc0       editor_DeleteBlock         0000000180022bc0 f   service.obj
 0001:00021c30       editor_UndoRedo            0000000180022c30 f   service.obj
 0001:00021cd0       editor_SetKeyBar           0000000180022cd0 f   service.obj
 0001:00021ce0       viewer_SetKeyBar           0000000180022ce0 f   service.obj
 0001:00021cf0       editor_SetParam            0000000180022cf0 f   service.obj
 0001:00021e50       editor_SetPosition         0000000180022e50 f   service.obj
 0001:00021f80       editor_Redraw              0000000180022f80 f   service.obj
 0001:00021ff0       editor_ExpandTabs          0000000180022ff0 f   service.obj
 0001:00022080       editor_GetBookmarks        0000000180023080 f   service.obj
 0001:00022090       editor_GetSessionBookmarks 0000000180023090 f   service.obj
 0001:000220a0       editor_AddSessionBookmark  00000001800230a0 f   service.obj
 0001:00022110       editor_ClearSessionBookmarks 0000000180023110 f   service.obj
 0001:00022180       editor_DeleteSessionBookmark 0000000180023180 f   service.obj
 0001:00022210       editor_NextSessionBookmark 0000000180023210 f   service.obj
 0001:00022280       editor_PrevSessionBookmark 0000000180023280 f   service.obj
 0001:000222f0       editor_SetTitle            00000001800232f0 f   service.obj
 0001:00022370       editor_GetTitle            0000000180023370 f   service.obj
 0001:00022430       editor_Quit                0000000180023430 f   service.obj
 0001:000224a0       editor_Select              00000001800234a0 f   service.obj
 0001:000225d0       editor_GetSelection        00000001800235d0 f   service.obj
 0001:00022970       editor_TabToReal           0000000180023970 f   service.obj
 0001:00022980       editor_RealToTab           0000000180023980 f   service.obj
 0001:00022990       editor_AddColor            0000000180023990 f   service.obj
 0001:00022b90       editor_DelColor            0000000180023b90 f   service.obj
 0001:00022cc0       editor_GetColor            0000000180023cc0 f   service.obj
 0001:00022eb0       editor_SaveFile            0000000180023eb0 f   service.obj
 0001:00022f70       editor_ReadInput           0000000180023f70 f   service.obj
 0001:00022ff0       editor_ProcessInput        0000000180023ff0 f   service.obj
 0001:00023080       editor_SubscribeChangeEvent 0000000180024080 f   service.obj
 0001:00023110       far_Menu                   0000000180024110 f   service.obj
 0001:00023b90       far_Message                0000000180024b90 f   service.obj
 0001:00023d50       panel_CheckPanelsExist     0000000180024d50 f   service.obj
 0001:00023db0       panel_ClosePanel           0000000180024db0 f   service.obj
 0001:00023e20       panel_GetPanelInfo         0000000180024e20 f   service.obj
 0001:000240c0       panel_GetPanelItem         00000001800250c0 f   service.obj
 0001:000240d0       panel_GetSelectedPanelItem 00000001800250d0 f   service.obj
 0001:000240e0       panel_GetCurrentPanelItem  00000001800250e0 f   service.obj
 0001:000240f0       panel_GetPanelFormat       00000001800250f0 f   service.obj
 0001:00024100       panel_GetPanelHostFile     0000000180025100 f   service.obj
 0001:00024110       panel_GetColumnTypes       0000000180025110 f   service.obj
 0001:00024120       panel_GetColumnWidths      0000000180025120 f   service.obj
 0001:00024130       panel_GetPanelPrefix       0000000180025130 f   service.obj
 0001:00024140       panel_RedrawPanel          0000000180025140 f   service.obj
 0001:00024250       panel_SetSortOrder         0000000180025250 f   service.obj
 0001:00024260       panel_SetDirectoriesFirst  0000000180025260 f   service.obj
 0001:00024270       panel_UpdatePanel          0000000180025270 f   service.obj
 0001:00024280       panel_SetSortMode          0000000180025280 f   service.obj
 0001:00024290       panel_SetViewMode          0000000180025290 f   service.obj
 0001:000242a0       panel_GetPanelDirectory    00000001800252a0 f   service.obj
 0001:00024400       panel_SetPanelDirectory    0000000180025400 f   service.obj
 0001:000245f0       panel_GetCmdLine           00000001800255f0 f   service.obj
 0001:00024690       panel_SetCmdLine           0000000180025690 f   service.obj
 0001:00024710       panel_GetCmdLinePos        0000000180025710 f   service.obj
 0001:00024790       panel_SetCmdLinePos        0000000180025790 f   service.obj
 0001:00024810       panel_InsertCmdLine        0000000180025810 f   service.obj
 0001:00024890       panel_GetCmdLineSelection  0000000180025890 f   service.obj
 0001:00024940       panel_SetCmdLineSelection  0000000180025940 f   service.obj
 0001:00024a00       panel_SetSelection         0000000180025a00 f   service.obj
 0001:00024a10       panel_ClearSelection       0000000180025a10 f   service.obj
 0001:00024a20       panel_SetUserScreen        0000000180025a20 f   service.obj
 0001:00024aa0       panel_GetUserScreen        0000000180025aa0 f   service.obj
 0001:00024b20       panel_IsActivePanel        0000000180025b20 f   service.obj
 0001:00024b80       panel_SetActivePanel       0000000180025b80 f   service.obj
 0001:00024c20       far_GetDirList             0000000180025c20 f   service.obj
 0001:00024f80       far_GetPluginDirList       0000000180025f80 f   service.obj
 0001:00025020       far_RestoreScreen          0000000180026020 f   service.obj
 0001:000250b0       far_SaveScreen             00000001800260b0 f   service.obj
 0001:00025190       far_SendDlgMessage         0000000180026190 f   service.obj
 0001:0002648c       $LN156                     000000018002748c     service.obj
 0001:00026498       $LN155                     0000000180027498     service.obj
 0001:000264dc       $LN154                     00000001800274dc     service.obj
 0001:00026564       $LN153                     0000000180027564     service.obj
 0001:000265b0       far_DialogInit             00000001800275b0 f   service.obj
 0001:000269b0       far_DialogRun              00000001800279b0 f   service.obj
 0001:00026a50       far_DialogFree             0000000180027a50 f   service.obj
 0001:00026a80       dialog_tostring            0000000180027a80 f   service.obj
 0001:00026ae0       dialog_rawhandle           0000000180027ae0 f   service.obj
 0001:00026b30       far_GetDlgItem             0000000180027b30 f   service.obj
 0001:00026be0       far_SetDlgItem             0000000180027be0 f   service.obj
 0001:00026c80       far_SubscribeDialogDrawEvents 0000000180027c80 f   service.obj
 0001:00026ca0       editor_Editor              0000000180027ca0 f   service.obj
 0001:00026e50       viewer_Viewer              0000000180027e50 f   service.obj
 0001:00026fe0       viewer_GetFileName         0000000180027fe0 f   service.obj
 0001:000270b0       viewer_GetInfo             00000001800280b0 f   service.obj
 0001:00027380       viewer_Quit                0000000180028380 f   service.obj
 0001:000273e0       viewer_Redraw              00000001800283e0 f   service.obj
 0001:00027440       viewer_Select              0000000180028440 f   service.obj
 0001:000274f0       viewer_SetPosition         00000001800284f0 f   service.obj
 0001:000276f0       viewer_SetMode             00000001800286f0 f   service.obj
 0001:00027820       far_ShowHelp               0000000180028820 f   service.obj
 0001:00027910       far_InputBox               0000000180028910 f   service.obj
 0001:00027b10       far_GetMsg                 0000000180028b10 f   service.obj
 0001:00027b90       far_Text                   0000000180028b90 f   service.obj
 0001:00027c40       far_CopyToClipboard        0000000180028c40 f   service.obj
 0001:00027d30       far_PasteFromClipboard     0000000180028d30 f   service.obj
 0001:00027e20       far_InputRecordToName      0000000180028e20 f   service.obj
 0001:00028020       far_NameToInputRecord      0000000180029020 f   service.obj
 0001:000280a0       far_LStricmp               00000001800290a0 f   service.obj
 0001:00028120       far_LStrnicmp              0000000180029120 f   service.obj
 0001:000281c0       far_ProcessName            00000001800291c0 f   service.obj
 0001:00028410       far_GetReparsePointInfo    0000000180029410 f   service.obj
 0001:000284b0       far_LIsAlpha               00000001800294b0 f   service.obj
 0001:00028510       far_LIsAlphanum            0000000180029510 f   service.obj
 0001:00028570       far_LIsLower               0000000180029570 f   service.obj
 0001:000285d0       far_LIsUpper               00000001800295d0 f   service.obj
 0001:00028630       far_LLowerBuf              0000000180029630 f   service.obj
 0001:000286a0       far_LUpperBuf              00000001800296a0 f   service.obj
 0001:00028710       far_MkTemp                 0000000180029710 f   service.obj
 0001:000287a0       far_MkLink                 00000001800297a0 f   service.obj
 0001:000288c0       far_GetPathRoot            00000001800298c0 f   service.obj
 0001:00028960       far_TruncPathStr           0000000180029960 f   service.obj
 0001:00028970       far_TruncStr               0000000180029970 f   service.obj
 0001:00028980       far_RecursiveSearch        0000000180029980 f   service.obj
 0001:00028af0       far_ConvertPath            0000000180029af0 f   service.obj
 0001:00028bc0       far_AdvControl             0000000180029bc0 f   service.obj
 0001:000293bc       $LN62                      000000018002a3bc     service.obj
 0001:00029430       far_MacroLoadAll           000000018002a430 f   service.obj
 0001:00029510       far_MacroSaveAll           000000018002a510 f   service.obj
 0001:00029560       far_MacroGetState          000000018002a560 f   service.obj
 0001:000295b0       far_MacroGetArea           000000018002a5b0 f   service.obj
 0001:00029600       far_MacroPost              000000018002a600 f   service.obj
 0001:00029610       far_MacroCheck             000000018002a610 f   service.obj
 0001:00029620       far_MacroGetLastError      000000018002a620 f   service.obj
 0001:00029720       far_MacroAdd               000000018002a720 f   service.obj
 0001:000299f0       far_MacroDelete            000000018002a9f0 f   service.obj
 0001:00029ab0       far_MacroExecute           000000018002aab0 f   service.obj
 0001:00029c40       far_CPluginStartupInfo     000000018002ac40 f   service.obj
 0001:00029c70       far_MakeMenuItems          000000018002ac70 f   service.obj
 0001:0002a010       far_Show                   000000018002b010 f   service.obj
 0001:0002a0c0       far_CreateFileFilter       000000018002b0c0 f   service.obj
 0001:0002a180       filefilter_Free            000000018002b180 f   service.obj
 0001:0002a210       filefilter_gc              000000018002b210 f   service.obj
 0001:0002a2a0       filefilter_tostring        000000018002b2a0 f   service.obj
 0001:0002a300       filefilter_OpenMenu        000000018002b300 f   service.obj
 0001:0002a390       filefilter_Starting        000000018002b390 f   service.obj
 0001:0002a420       filefilter_IsFileInFilter  000000018002b420 f   service.obj
 0001:0002a4f0       far_LoadPlugin             000000018002b4f0 f   service.obj
 0001:0002a500       far_ForcedLoadPlugin       000000018002b500 f   service.obj
 0001:0002a510       far_UnloadPlugin           000000018002b510 f   service.obj
 0001:0002a580       far_FindPlugin             000000018002b580 f   service.obj
 0001:0002a630       far_GetPluginInformation   000000018002b630 f   service.obj
 0001:0002a8d0       far_GetPlugins             000000018002b8d0 f   service.obj
 0001:0002a9f0       far_IsPluginLoaded         000000018002b9f0 f   service.obj
 0001:0002ab00       far_XLat                   000000018002bb00 f   service.obj
 0001:0002ac30       far_FormatFileSize         000000018002bc30 f   service.obj
 0001:0002ad80       far_FarClock               000000018002bd80 f   service.obj
 0001:0002add0       far_Timer                  000000018002bdd0 f   service.obj
 0001:0002afc0       timer_gc                   000000018002bfc0 f   service.obj
 0001:0002b060       timer_tostring             000000018002c060 f   service.obj
 0001:0002b0c0       timer_index                000000018002c0c0 f   service.obj
 0001:0002b230       timer_newindex             000000018002c230 f   service.obj
 0001:0002b3e0       far_CreateSettings         000000018002c3e0 f   service.obj
 0001:0002b5c0       Settings_set               000000018002c5c0 f   service.obj
 0001:0002b6f0       Settings_get               000000018002c6f0 f   service.obj
 0001:0002b840       Settings_delete            000000018002c840 f   service.obj
 0001:0002b910       Settings_createsubkey      000000018002c910 f   service.obj
 0001:0002ba50       Settings_opensubkey        000000018002ca50 f   service.obj
 0001:0002bb30       Settings_enum              000000018002cb30 f   service.obj
 0001:0002be50       Settings_free              000000018002ce50 f   service.obj
 0001:0002bef0       far_FreeSettings           000000018002cef0 f   service.obj
 0001:0002bf90       Settings_tostring          000000018002cf90 f   service.obj
 0001:0002bff0       far_ColorDialog            000000018002cff0 f   service.obj
 0001:0002c170       far_RunDefaultScript       000000018002d170 f   service.obj
 0001:0002c1a0       AddMacroData_gc            000000018002d1a0 f   service.obj
 0001:0002c250       ChangePanelSelection       000000018002d250 f   service.obj
 0001:0002c4f0       CheckFlagsFromTable        000000018002d4f0 f   service.obj
 0001:0002c8a0       CustomAllocator            000000018002d8a0 f   service.obj
 0001:0002c9d0       FillEditorSelect           000000018002d9d0 f   service.obj
 0001:0002cad0       FillEditorSetPosition      000000018002dad0 f   service.obj
 0001:0002cde0       FillKeyBarTitles           000000018002dde0 f   service.obj
 0001:0002cff0       FrsUserFunc                000000018002dff0 f   service.obj
 0001:0002e2e0       MacroSendString            000000018002f2e0 f   service.obj
 0001:0002e6f0       OptInputRecord             000000018002f6f0 f   service.obj
 0001:0002e7a0       PluginHandle_rawhandle     000000018002f7a0 f   service.obj
 0001:0002ea90       PushBookmarks              000000018002fa90 f   service.obj
 0001:0002ece4       $LN15                      000000018002fce4     service.obj
 0001:0002ecf0       $LN14                      000000018002fcf0     service.obj
 0001:0002ef90       $LN32                      000000018002ff90     service.obj
 0001:0002ef9c       $LN31                      000000018002ff9c     service.obj
 0001:0002efb4       $LN30                      000000018002ffb4     service.obj
 0001:0002f010       PushDlgItem                0000000180030010 f   service.obj
 0001:0002f270       PushDlgItemNum             0000000180030270 f   service.obj
 0001:0002faf0       PushPluginHandle           0000000180030af0 f   service.obj
 0001:0002fb90       PutPluginMenuItemToTable   0000000180030b90 f   service.obj
 0001:0002fcb0       PutVersionInfoToTable      0000000180030cb0 f   service.obj
 0001:0002fd50       SetDlgItem                 0000000180030d50 f   service.obj
 0001:0002fe10       SetFarDialogItem           0000000180030e10 f   service.obj
 0001:000301a0       SetKeyBar                  00000001800311a0 f   service.obj
 0001:00030300       SetPanelBooleanProperty    0000000180031300 f   service.obj
 0001:000303b0       SetPanelIntegerProperty    00000001800313b0 f   service.obj
 0001:000304b0       _EditorGetString           00000001800314b0 f   service.obj
 0001:00030750       _EditorInsertText          0000000180031750 f   service.obj
 0001:00030860       _EditorSetString           0000000180031860 f   service.obj
 0001:000309a0       _EditorTabConvert          00000001800319a0 f   service.obj
 0001:00030a60       check_env_flag             0000000180031a60 f   service.obj
 0001:00030b90       free_dialog                0000000180031b90 f   service.obj
 0001:00030c00       get_env_flag               0000000180031c00 f   service.obj
 0001:00030d30       get_panel_item             0000000180031d30 f   service.obj
 0001:00030e40       get_string_info            0000000180031e40 f   service.obj
 0001:00030f30       luaopen_far                0000000180031f30 f   service.obj
 0001:00031450       plugin_load                0000000180032450 f   service.obj
 0001:00031550       timer_Close                0000000180032550 f   service.obj
 0001:00031610       truncstring                0000000180032610 f   service.obj
 0001:00031700       unic_len                   0000000180032700 f   slnunico.obj
 0001:000317a0       unic_sub                   00000001800327a0 f   slnunico.obj
 0001:000319f0       str_reverse                00000001800329f0 f   slnunico.obj
 0001:00031bb0       unic_lower                 0000000180032bb0 f   slnunico.obj
 0001:00031d30       unic_upper                 0000000180032d30 f   slnunico.obj
 0001:00031eb0       str_rep                    0000000180032eb0 f   slnunico.obj
 0001:00031f40       unic_byte                  0000000180032f40 f   slnunico.obj
 0001:00032120       unic_char                  0000000180033120 f   slnunico.obj
 0001:00032240       str_dump                   0000000180033240 f   slnunico.obj
 0001:000322c0       unic_find                  00000001800332c0 f   slnunico.obj
 0001:000322d0       unic_match                 00000001800332d0 f   slnunico.obj
 0001:000322e0       gmatch                     00000001800332e0 f   slnunico.obj
 0001:000323b0       gfind_nodef                00000001800333b0 f   slnunico.obj
 0001:000323c0       unic_gsub                  00000001800333c0 f   slnunico.obj
 0001:00032620       str_format                 0000000180033620 f   slnunico.obj
 0001:00032b64       $LN74                      0000000180033b64     slnunico.obj
 0001:00032b80       $LN73                      0000000180033b80     slnunico.obj
 0001:00032bc0       utf8_valid                 0000000180033bc0 f   slnunico.obj
 0001:00032d30       add_value                  0000000180033d30 f   slnunico.obj
 0001:00032f50       gmatch_aux                 0000000180033f50 f   slnunico.obj
 0001:00033150       grab_one_utf8              0000000180034150 f   slnunico.obj
 0001:00033390       match                      0000000180034390 f   slnunico.obj
 0001:00033760       match_class                0000000180034760 f   slnunico.obj
 0001:000338c8       $LN26                      00000001800348c8     slnunico.obj
 0001:00033930       max_expand                 0000000180034930 f   slnunico.obj
 0001:00033aa0       min_expand                 0000000180034aa0 f   slnunico.obj
 0001:00033d80       push_captures              0000000180034d80 f   slnunico.obj
 0001:00033e80       push_onecapture            0000000180034e80 f   slnunico.obj
 0001:00033f30       singlematch                0000000180034f30 f   slnunico.obj
 0001:000341c0       start_capture              00000001800351c0 f   slnunico.obj
 0001:00034250       unic_find_aux              0000000180035250 f   slnunico.obj
 0001:000345a0       utf8_count                 00000001800355a0 f   slnunico.obj
 0001:00034680       utf8_deco                  0000000180035680 f   slnunico.obj
 0001:00034760       utf8_enco                  0000000180035760 f   slnunico.obj
 0001:00034880       utf8_graphext              0000000180035880 f   slnunico.obj
 0001:000349d0       utf8_oced                  00000001800359d0 f   slnunico.obj
 0001:00034ac0       writer                     0000000180035ac0 f   slnunico.obj
 0001:00034ae0       io_type                    0000000180035ae0 f   uliolib51.obj
 0001:00034bb0       io_close                   0000000180035bb0 f   uliolib51.obj
 0001:00034c40       io_gc                      0000000180035c40 f   uliolib51.obj
 0001:00034ca0       io_tostring                0000000180035ca0 f   uliolib51.obj
 0001:00034d00       io_open                    0000000180035d00 f   uliolib51.obj
 0001:00034e20       io_popen                   0000000180035e20 f   uliolib51.obj
 0001:00034ee0       io_tmpfile                 0000000180035ee0 f   uliolib51.obj
 0001:00034f90       io_input                   0000000180035f90 f   uliolib51.obj
 0001:00034fb0       io_output                  0000000180035fb0 f   uliolib51.obj
 0001:00034fd0       f_lines                    0000000180035fd0 f   uliolib51.obj
 0001:00035040       io_lines                   0000000180036040 f   uliolib51.obj
 0001:00035190       io_read                    0000000180036190 f   uliolib51.obj
 0001:00035200       f_read                     0000000180036200 f   uliolib51.obj
 0001:00035260       io_write                   0000000180036260 f   uliolib51.obj
 0001:000352d0       f_write                    00000001800362d0 f   uliolib51.obj
 0001:00035330       f_seek                     0000000180036330 f   uliolib51.obj
 0001:00035430       f_setvbuf                  0000000180036430 f   uliolib51.obj
 0001:00035520       io_flush                   0000000180036520 f   uliolib51.obj
 0001:000355e0       f_flush                    00000001800365e0 f   uliolib51.obj
 0001:00035690       f_rawhandle                0000000180036690 f   uliolib51.obj
 0001:000356b0       aux_close                  00000001800366b0 f   uliolib51.obj
 0001:000356f0       fileerror                  00000001800366f0 f   uliolib51.obj
 0001:000357c0       g_iofile                   00000001800367c0 f   uliolib51.obj
 0001:000358d0       g_read                     00000001800368d0 f   uliolib51.obj
 0001:00035ad0       g_write                    0000000180036ad0 f   uliolib51.obj
 0001:00035be0       io_fclose                  0000000180036be0 f   uliolib51.obj
 0001:00035c80       io_noclose                 0000000180036c80 f   uliolib51.obj
 0001:00035cb0       io_pclose                  0000000180036cb0 f   uliolib51.obj
 0001:00035d60       io_readline                0000000180036d60 f   uliolib51.obj
 0001:00036140       newfile                    0000000180037140 f   uliolib51.obj
 0001:00036190       pushresult                 0000000180037190 f   uliolib51.obj
 0001:00036260       read_chars                 0000000180037260 f   uliolib51.obj
 0001:00036310       read_line                  0000000180037310 f   uliolib51.obj
 0001:00036400       ll_loadlib                 0000000180037400 f   uloadlib51.obj
 0001:00036490       loader_Lua                 0000000180037490 f   uloadlib51.obj
 0001:000364f0       loader_C                   00000001800374f0 f   uloadlib51.obj
 0001:00036570       loader_Croot               0000000180037570 f   uloadlib51.obj
 0001:00036640       loader_preload             0000000180037640 f   uloadlib51.obj
 0001:000366e0       ll_require                 00000001800376e0 f   uloadlib51.obj
 0001:00036930       ll_module                  0000000180037930 f   uloadlib51.obj
 0001:00036b80       ll_seeall                  0000000180037b80 f   uloadlib51.obj
 0001:00036c00       findfile                   0000000180037c00 f   uloadlib51.obj
 0001:00036e20       gctm                       0000000180037e20 f   uloadlib51.obj
 0001:00036e70       ll_loadfunc                0000000180037e70 f   uloadlib51.obj
 0001:00036fe0       loaderror                  0000000180037fe0 f   uloadlib51.obj
 0001:00037240       mkfuncname                 0000000180038240 f   uloadlib51.obj
 0001:000372b0       setpath                    00000001800382b0 f   uloadlib51.obj
 0001:00038134       $LN12                      0000000180039134     ustring.obj
 0001:00038bf0       ustring_OutputDebugString  0000000180039bf0 f   ustring.obj
 0001:00038e20       ustring_system             0000000180039e20 f   ustring.obj
 0001:0003a140       win_SetRegKey              000000018003b140 f   win.obj
 0001:0003a3b0       win_GetRegKey              000000018003b3b0 f   win.obj
 0001:0003a580       win_DeleteRegKey           000000018003b580 f   win.obj
 0001:0003a640       win_DeleteRegValue         000000018003b640 f   win.obj
 0001:0003a700       win_EnumRegKey             000000018003b700 f   win.obj
 0001:0003a830       win_EnumRegValue           000000018003b830 f   win.obj
 0001:0003a960       win_ExtractKey             000000018003b960 f   win.obj
 0001:0003aa20       win_ExtractKeyEx           000000018003ba20 f   win.obj
 0001:0003aac0       win_GetFileInfo            000000018003bac0 f   win.obj
 0001:0003abf0       win_GetSystemTimeAsFileTime 000000018003bbf0 f   win.obj
 0001:0003ac20       win_FileTimeToSystemTime   000000018003bc20 f   win.obj
 0001:0003ad30       win_SystemTimeToFileTime   000000018003bd30 f   win.obj
 0001:0003ae50       win_FileTimeToLocalFileTime 000000018003be50 f   win.obj
 0001:0003aec0       win_CompareString          000000018003bec0 f   win.obj
 0001:0003b050       win_wcscmp                 000000018003c050 f   win.obj
 0001:0003b0d0       win_GetVirtualKeys         000000018003c0d0 f   win.obj
 0001:0003b0f0       win_GetConsoleScreenBufferInfo 000000018003c0f0 f   win.obj
 0001:0003b230       win_CopyFile               000000018003c230 f   win.obj
 0001:0003b2d0       win_MoveFile               000000018003c2d0 f   win.obj
 0001:0003b3e0       win_DeleteFile             000000018003c3e0 f   win.obj
 0001:0003b430       win_CreateDir              000000018003c430 f   win.obj
 0001:0003b550       win_RemoveDir              000000018003c550 f   win.obj
 0001:0003b5a0       win_ShellExecute           000000018003c5a0 f   win.obj
 0001:0003b680       win_IsProcess64bit         000000018003c680 f   win.obj
 0001:0003b6a0       win_GetEnv                 000000018003c6a0 f   win.obj
 0001:0003b770       win_SetEnv                 000000018003c770 f   win.obj
 0001:0003b7d0       CheckHKey                  000000018003c7d0 f   win.obj
 0001:0003b9a0       mkdir                      000000018003c9a0 f   win.obj
 0001:0003bdbc       ?dllmain_crt_dispatch@@YAHQEAUHINSTANCE__@@KQEAX@Z 000000018003cdbc f   LIBCMT:dll_dllmain.obj
 0001:0003be0c       ?dllmain_crt_process_attach@@YAHQEAUHINSTANCE__@@QEAX@Z 000000018003ce0c f   LIBCMT:dll_dllmain.obj
 0001:0003bf28       ?dllmain_crt_process_detach@@YAH_N@Z 000000018003cf28 f   LIBCMT:dll_dllmain.obj
 0001:0003bfb8       ?dllmain_dispatch@@YAHQEAUHINSTANCE__@@KQEAX@Z 000000018003cfb8 f   LIBCMT:dll_dllmain.obj
 0001:0003c9f0       $$000000                   000000018003d9f0     libvcruntime:memcpy.obj
 0001:0003caa7       MoveSmall                  000000018003daa7     libvcruntime:memcpy.obj
 0001:0003ce60       $$000000                   000000018003de60     libvcruntime:memset.obj
 0001:0003cf5c       MsetTab                    000000018003df5c     libvcruntime:memset.obj
 0001:0003d360       $$000000                   000000018003e360     libvcruntime:memchr.obj
 0001:0003d3e0       $$000000                   000000018003e3e0     libvcruntime:memcmp.obj
 0001:0003d8d0       $$000000                   000000018003e8d0     libvcruntime:notify.obj
 0001:0003dbf8       ?try_get_function@@YAPEAXW4function_id@?A0xbfd18cd1@@QEBDQEBW4module_id@2@2@Z 000000018003ebf8 f   libvcruntime:winapi_downlevel.obj
 0001:0003dfe0       $$000000                   000000018003efe0     libvcruntime:handlers.obj
 0001:0003e088       ??$?RV<lambda_a62c933ada0517137acf5807a1eeac1f>@@AEAV<lambda_a31071773b9a94e445cbd5d04ef99106>@@V<lambda_56065050dbf3ada7e59a83db45153de3>@@@?$__crt_seh_guarded_call@H@@QEAAH$$QEAV<lambda_a62c933ada0517137acf5807a1eeac1f>@@AEAV<lambda_a31071773b9a94e445cbd5d04ef99106>@@$$QEAV<lambda_56065050dbf3ada7e59a83db45153de3>@@@Z 000000018003f088 f   libucrt:output.obj
 0001:0003e0c8       ??$common_vsprintf@Vstandard_base@__crt_stdio_output@@D@@YAH_KQEAD0QEBDQEAU__crt_locale_pointers@@1@Z 000000018003f0c8 f   libucrt:output.obj
 0001:0003e294       ??$common_vsprintf@Vstandard_base@__crt_stdio_output@@_W@@YAH_KQEA_W0QEB_WQEAU__crt_locale_pointers@@QEAD@Z 000000018003f294 f   libucrt:output.obj
 0001:0003ea84       ??R<lambda_a31071773b9a94e445cbd5d04ef99106>@@QEBAHXZ 000000018003fa84 f   libucrt:output.obj
 0001:000415a8       ??$common_fsopen@_W@@YAPEAU_iobuf@@QEB_W0H@Z 00000001800425a8 f   libucrt:fopen.obj
 0001:000417e0       common_control87           00000001800427e0 f   libucrt:ieee.obj
 0001:00041dc8       ??$common_freopen@_W@@YAHQEAPEAU_iobuf@@QEB_W1V__crt_stdio_stream@@H@Z 0000000180042dc8 f   libucrt:freopen.obj
 0001:00042650       $$000000                   0000000180043650     libucrt:strcmp.obj
 0001:00042a40       $$000000                   0000000180043a40     libucrt:strncmp.obj
 0001:00042ad0       $$000000                   0000000180043ad0     libucrt:strncpy.obj
 0001:00042c44       fallbackMethod             0000000180043c44 f   libucrt:strpbrk.obj
 0001:00043014       $LN78                      0000000180044014     libucrt:strpbrk.obj
 0001:00043050       $LN77                      0000000180044050     libucrt:strpbrk.obj
 0001:00043090       $LN76                      0000000180044090     libucrt:strpbrk.obj
 0001:000430d0       ??$common_popen@_W@@YAPEAU_iobuf@@QEB_W0@Z 00000001800440d0 f   libucrt:popen.obj
 0001:0004329c       ??$common_popen_nolock@_W@@YAPEAU_iobuf@@QEB_W0HAEAY01H@Z 000000018004429c f   libucrt:popen.obj
 0001:000435bc       ??$get_executable_path@_W@@YAPEB_WQEB_W@Z 00000001800445bc f   libucrt:popen.obj
 0001:00043754       ?idtab@@YAPEAUprocess_handle_pair@?A0xe43b7539@@QEAU_iobuf@@@Z 0000000180044754 f   libucrt:popen.obj
 0001:0004396c       ??$?RV<lambda_842d9ff0dc9ef11c61343bbaebe7f885>@@AEAV<lambda_c5860995281e5c4ce005b3de8f5874ee>@@V<lambda_d90129c13df834fdcbf8d2b88dafcf2d>@@@?$__crt_seh_guarded_call@X@@QEAAX$$QEAV<lambda_842d9ff0dc9ef11c61343bbaebe7f885>@@AEAV<lambda_c5860995281e5c4ce005b3de8f5874ee>@@$$QEAV<lambda_d90129c13df834fdcbf8d2b88dafcf2d>@@@Z 000000018004496c f   libucrt:fflush.obj
 0001:00043a08       ??$?RV<lambda_886d6c58226a84441f68b9f2b8217b83>@@AEAV<lambda_ab61a845afdef5b7c387490eaf3616ee>@@V<lambda_f7f22ab5edc0698d5f6905b0d3f44752>@@@?$__crt_seh_guarded_call@X@@QEAAX$$QEAV<lambda_886d6c58226a84441f68b9f2b8217b83>@@AEAV<lambda_ab61a845afdef5b7c387490eaf3616ee>@@$$QEAV<lambda_f7f22ab5edc0698d5f6905b0d3f44752>@@@Z 0000000180044a08 f   libucrt:fflush.obj
 0001:00043ae8       ??$?RV<lambda_c376a267cfb53b6959b3b692ec76b120>@@AEAV<lambda_9a32fed5bf61b6b509b2d3f6003082a1>@@V<lambda_572fbb9fa0ab338edf41edfd4b5fcc8d>@@@?$__crt_seh_guarded_call@H@@QEAAH$$QEAV<lambda_c376a267cfb53b6959b3b692ec76b120>@@AEAV<lambda_9a32fed5bf61b6b509b2d3f6003082a1>@@$$QEAV<lambda_572fbb9fa0ab338edf41edfd4b5fcc8d>@@@Z 0000000180044ae8 f   libucrt:fflush.obj
 0001:00043b28       ?common_flush_all@@YAH_N@Z 0000000180044b28 f   libucrt:fflush.obj
 0001:00043cc0       ??$common_fgets@D@@YAPEADQEADHV__crt_stdio_stream@@@Z 0000000180044cc0 f   libucrt:fgets.obj
 0001:00043d94       ?common_fseek@@YAHV__crt_stdio_stream@@_JH@Z 0000000180044d94 f   libucrt:fseek.obj
 0001:00043e00       ?common_fseek_binary_mode_read_only_fast_track_nolock@@YA_NV__crt_stdio_stream@@_JH@Z 0000000180044e00 f   libucrt:fseek.obj
 0001:00043ee4       ?common_fseek_nolock@@YAHV__crt_stdio_stream@@_JH@Z 0000000180044ee4 f   libucrt:fseek.obj
 0001:00043fa4       ??$common_ftell@J@@YAJV__crt_stdio_stream@@@Z 0000000180044fa4 f   libucrt:ftell.obj
 0001:00044014       ??$common_ftell_nolock@_J@@YA_JV__crt_stdio_stream@@@Z 0000000180045014 f   libucrt:ftell.obj
 0001:00044144       ?common_ftell_read_mode_nolock@@YA_JV__crt_stdio_stream@@_J1@Z 0000000180045144 f   libucrt:ftell.obj
 0001:00044290       ?common_ftell_translated_utf8_nolock@@YA_JV__crt_stdio_stream@@_J@Z 0000000180045290 f   libucrt:ftell.obj
 0001:0004440c       ?count_newline_bytes@@YA_JQEBD0W4__crt_lowio_text_mode@@@Z 000000018004540c f   libucrt:ftell.obj
 0001:000444a0       ??$?RV<lambda_bdbcead8b570fa3d5ec6d9679862a6e5>@@AEAV<lambda_96f4279ff90247a4c5c5d9824f56f8c1>@@V<lambda_4606be27f17b5e5579e09050fab91818>@@@?$__crt_seh_guarded_call@_K@@QEAA_K$$QEAV<lambda_bdbcead8b570fa3d5ec6d9679862a6e5>@@AEAV<lambda_96f4279ff90247a4c5c5d9824f56f8c1>@@$$QEAV<lambda_4606be27f17b5e5579e09050fab91818>@@@Z 00000001800454a0 f   libucrt:fwrite.obj
 0001:000444e0       ??R<lambda_96f4279ff90247a4c5c5d9824f56f8c1>@@QEBA_KXZ 00000001800454e0 f   libucrt:fwrite.obj
 0001:00044774       ??$?RV<lambda_84ec643ea9557e2f7dc01bb0e9624395>@@AEAV<lambda_ca71763b3c0644891230e4f79ea54fa6>@@V<lambda_439a761618c59b0600e24586724d733b>@@@?$__crt_seh_guarded_call@H@@QEAAH$$QEAV<lambda_84ec643ea9557e2f7dc01bb0e9624395>@@AEAV<lambda_ca71763b3c0644891230e4f79ea54fa6>@@$$QEAV<lambda_439a761618c59b0600e24586724d733b>@@@Z 0000000180045774 f   libucrt:setvbuf.obj
 0001:000447b4       ??R<lambda_ca71763b3c0644891230e4f79ea54fa6>@@QEBAHXZ 00000001800457b4 f   libucrt:setvbuf.obj
 0001:00044930       ??$generate_tmpfile_file_name@D@@YA_NQEAD_K@Z 0000000180045930 f   libucrt:tmpfile.obj
 0001:000449cc       ??$get_tmpfile_buffer_nolock@D@@YAPEADW4buffer_id@?A0x5b9a7937@@@Z 00000001800459cc f   libucrt:tmpfile.obj
 0001:00044a10       ??$initialize_tmpfile_buffer_nolock@D@@YA_NW4buffer_id@?A0x5b9a7937@@@Z 0000000180045a10 f   libucrt:tmpfile.obj
 0001:00044aec       ?common_tmpfile@@YAHQEAPEAU_iobuf@@H@Z 0000000180045aec f   libucrt:tmpfile.obj
 0001:00044b50       ?common_tmpfile_nolock@@YAHQEAPEAU_iobuf@@H@Z 0000000180045b50 f   libucrt:tmpfile.obj
 0001:00044d7c       ??$?RV<lambda_082dd7c0feb7dbdaf245f261e54a6583>@@AEAV<lambda_f3caf1ecae5fe01a9a1a6239afa44510>@@V<lambda_c640b76c0755ae85b317b35c67c61e6b>@@@?$__crt_seh_guarded_call@H@@QEAAH$$QEAV<lambda_082dd7c0feb7dbdaf245f261e54a6583>@@AEAV<lambda_f3caf1ecae5fe01a9a1a6239afa44510>@@$$QEAV<lambda_c640b76c0755ae85b317b35c67c61e6b>@@@Z 0000000180045d7c f   libucrt:input.obj
 0001:00046b14       ??R<lambda_156378f40168adef48d7ddfcff3a1264>@@QEBA_NXZ 0000000180047b14 f   libucrt:input.obj
 0001:00046b90       ??R<lambda_f3caf1ecae5fe01a9a1a6239afa44510>@@QEBAHXZ 0000000180047b90 f   libucrt:input.obj
 0001:0004a234       memcpy_s                   000000018004b234 f   libucrt:input.obj
 0001:0004a234       memcpy_s                   000000018004b234 f   libucrt:cfout.obj
 0001:0004a2bc       ??$common_dupenv_s@_W@@YAHQEAPEA_WQEA_KQEB_WHQEBDH@Z 000000018004b2bc f   libucrt:getenv.obj
 0001:0004a3b0       ??$common_getenv@_W@@YAPEA_WQEB_W@Z 000000018004b3b0 f   libucrt:getenv.obj
 0001:0004a410       ??$common_getenv_nolock@_W@@YAPEA_WQEB_W@Z 000000018004b410 f   libucrt:getenv.obj
 0001:0004a87c       ??$?RV<lambda_d80eeec6fff315bfe5c115232f3240e3>@@AEAV<lambda_6e4b09c48022b2350581041d5f6b0c4c>@@V<lambda_2358e3775559c9db80273638284d5e45>@@@?$__crt_seh_guarded_call@X@@QEAAX$$QEAV<lambda_d80eeec6fff315bfe5c115232f3240e3>@@AEAV<lambda_6e4b09c48022b2350581041d5f6b0c4c>@@$$QEAV<lambda_2358e3775559c9db80273638284d5e45>@@@Z 000000018004b87c f   libucrt:exit.obj
 0001:0004a8b4       ??R<lambda_6e4b09c48022b2350581041d5f6b0c4c>@@QEBA@XZ 000000018004b8b4 f   libucrt:exit.obj
 0001:0004a978       ?atexit_exception_filter@@YAHK@Z 000000018004b978 f   libucrt:exit.obj
 0001:0004a984       ?common_exit@@YAXHW4_crt_exit_cleanup_mode@@W4_crt_exit_return_mode@@@Z 000000018004b984 f   libucrt:exit.obj
 0001:0004aa40       ?exit_or_terminate_process@@YAXI@Z 000000018004ba40 f   libucrt:exit.obj
 0001:0004aa8c       ?try_cor_exit_process@@YAXI@Z 000000018004ba8c f   libucrt:exit.obj
 0001:0004ab14       ??$parse_command_line@D@@YAXPEADPEAPEAD0PEA_K2@Z 000000018004bb14 f   libucrt:argv_parsing.obj
 0001:0004aec0       ??$common_initialize_environment_nolock@D@@YAHXZ 000000018004bec0 f   libucrt:environment_initialization.obj
 0001:0004af2c       ??$common_initialize_environment_nolock@_W@@YAHXZ 000000018004bf2c f   libucrt:environment_initialization.obj
 0001:0004af94       ??$create_environment@D@@YAQEAPEADQEAD@Z 000000018004bf94 f   libucrt:environment_initialization.obj
 0001:0004b09c       ??$create_environment@_W@@YAQEAPEA_WQEA_W@Z 000000018004c09c f   libucrt:environment_initialization.obj
 0001:0004b1b0       ??$free_environment@_W@@YAXQEAPEA_W@Z 000000018004c1b0 f   libucrt:environment_initialization.obj
 0001:0004b1b0       ??$free_environment@D@@YAXQEAPEAD@Z 000000018004c1b0 f   libucrt:environment_initialization.obj
 0001:0004b1f4       ??$initialize_environment_by_cloning_nolock@_W@@YAHXZ 000000018004c1f4 f   libucrt:environment_initialization.obj
 0001:0004b2a8       ??$uninitialize_environment_internal@D@@YAXAEAPEAPEAD@Z 000000018004c2a8 f   libucrt:environment_initialization.obj
 0001:0004b2c4       ??$uninitialize_environment_internal@_W@@YAXAEAPEAPEA_W@Z 000000018004c2c4 f   libucrt:environment_initialization.obj
 0001:0004b35c       ??$?RV<lambda_7777bce6b2f8c936911f934f8298dc43>@@AEAV<lambda_f03950bc5685219e0bcd2087efbe011e>@@V<lambda_3883c3dff614d5e0c5f61bb1ac94921c>@@@?$__crt_seh_guarded_call@H@@QEAAH$$QEAV<lambda_7777bce6b2f8c936911f934f8298dc43>@@AEAV<lambda_f03950bc5685219e0bcd2087efbe011e>@@$$QEAV<lambda_3883c3dff614d5e0c5f61bb1ac94921c>@@@Z 000000018004c35c f   libucrt:onexit.obj
 0001:0004b398       ??R<lambda_f03950bc5685219e0bcd2087efbe011e>@@QEBAHXZ 000000018004c398 f   libucrt:onexit.obj
 0001:0004b514       initialize_global_variables 000000018004c514 f   libucrt:initialization.obj
 0001:0004b528       initialize_c               000000018004c528 f   libucrt:initialization.obj
 0001:0004b54c       initialize_global_state_isolation 000000018004c54c f   libucrt:initialization.obj
 0001:0004b54c       uninitialize_c             000000018004c54c f   libucrt:initialization.obj
 0001:0004b54c       uninitialize_global_state_isolation 000000018004c54c f   libucrt:initialization.obj
 0001:0004b54c       initialize_environment     000000018004c54c f   libucrt:initialization.obj
 0001:0004b54c       report_memory_leaks        000000018004c54c f   libucrt:initialization.obj
 0001:0004b550       uninitialize_environment   000000018004c550 f   libucrt:initialization.obj
 0001:0004b560       initialize_pointers        000000018004c560 f   libucrt:initialization.obj
 0001:0004b5a0       uninitialize_vcruntime     000000018004c5a0 f   libucrt:initialization.obj
 0001:0004b5a8       uninitialize_allocated_memory 000000018004c5a8 f   libucrt:initialization.obj
 0001:0004b5e8       uninitialize_allocated_io_buffers 000000018004c5e8 f   libucrt:initialization.obj
 0001:0004b6e4       ?_strupr_s_l_stat@@YAHQEAD_KQEAU__crt_locale_pointers@@@Z 000000018004c6e4 f   libucrt:strupr.obj
 0001:0004ca1c       ?internal_isupper_l@@YA_NHQEAU__crt_locale_pointers@@@Z 000000018004da1c f   libucrt:tolower_toupper.obj
 0001:0004d36c       ??$?RV<lambda_0ae27a3a962d80f24befdcbee591983d>@@AEAV<lambda_8d0ee55de4b1038c4002e0adecdf1839>@@V<lambda_dc504788e8f1664fe9b84e20bfb512f2>@@@?$__crt_seh_guarded_call@X@@QEAAX$$QEAV<lambda_0ae27a3a962d80f24befdcbee591983d>@@AEAV<lambda_8d0ee55de4b1038c4002e0adecdf1839>@@$$QEAV<lambda_dc504788e8f1664fe9b84e20bfb512f2>@@@Z 000000018004e36c f   libucrt:per_thread_data.obj
 0001:0004d3ac       ??$?RV<lambda_2d41944a1d46af3157314b8a01080d33>@@AEAV<lambda_8f455de75cd7d7f24b4096f044d8b9e6>@@V<lambda_aa500f224e6afead328df44964fe2772>@@@?$__crt_seh_guarded_call@X@@QEAAX$$QEAV<lambda_2d41944a1d46af3157314b8a01080d33>@@AEAV<lambda_8f455de75cd7d7f24b4096f044d8b9e6>@@$$QEAV<lambda_aa500f224e6afead328df44964fe2772>@@@Z 000000018004e3ac f   libucrt:per_thread_data.obj
 0001:0004d3ec       ??$?RV<lambda_aa87e3671a710a21b5dc78c0bdf72e11>@@AEAV<lambda_92619d2358a28f41a33ba319515a20b9>@@V<lambda_6992ecaafeb10aed2b74cb1fae11a551>@@@?$__crt_seh_guarded_call@X@@QEAAX$$QEAV<lambda_aa87e3671a710a21b5dc78c0bdf72e11>@@AEAV<lambda_92619d2358a28f41a33ba319515a20b9>@@$$QEAV<lambda_6992ecaafeb10aed2b74cb1fae11a551>@@@Z 000000018004e3ec f   libucrt:per_thread_data.obj
 0001:0004d434       ??$?RV<lambda_f2e299630e499de9f9a165e60fcd3db5>@@AEAV<lambda_2ae9d31cdba2644fcbeaf08da7c24588>@@V<lambda_40d01ff24d0e7b3814fdbdcee8eab3c7>@@@?$__crt_seh_guarded_call@X@@QEAAX$$QEAV<lambda_f2e299630e499de9f9a165e60fcd3db5>@@AEAV<lambda_2ae9d31cdba2644fcbeaf08da7c24588>@@$$QEAV<lambda_40d01ff24d0e7b3814fdbdcee8eab3c7>@@@Z 000000018004e434 f   libucrt:per_thread_data.obj
 0001:0004d494       ?construct_ptd_array@@YAXQEAU__acrt_ptd@@@Z 000000018004e494 f   libucrt:per_thread_data.obj
 0001:0004d564       ?destroy_fls@@YAXPEAX@Z    000000018004e564 f   libucrt:per_thread_data.obj
 0001:0004d584       ?destroy_ptd_array@@YAXQEAU__acrt_ptd@@@Z 000000018004e584 f   libucrt:per_thread_data.obj
 0001:0004d67c       ?replace_current_thread_locale_nolock@@YAXQEAU__acrt_ptd@@QEAU__crt_locale_data@@@Z 000000018004e67c f   libucrt:per_thread_data.obj
 0001:0004da38       ?fp_format_a@@YAHQEBNPEAD_KQEAD2H_NIQEAU__crt_locale_pointers@@@Z 000000018004ea38 f   libucrt:cvt.obj
 0001:0004dda8       ?fp_format_e@@YAHQEBNQEAD_K12H_NIQEAU__crt_locale_pointers@@@Z 000000018004eda8 f   libucrt:cvt.obj
 0001:0004de84       ?fp_format_e_internal@@YAHQEAD_KH_NIQEAU_strflt@@2QEAU__crt_locale_pointers@@@Z 000000018004ee84 f   libucrt:cvt.obj
 0001:0004e058       ?fp_format_f_internal@@YAHQEAD_KHQEAU_strflt@@_NQEAU__crt_locale_pointers@@@Z 000000018004f058 f   libucrt:cvt.obj
 0001:0004e19c       ?fp_format_g@@YAHQEBNQEAD_K12H_NIQEAU__crt_locale_pointers@@@Z 000000018004f19c f   libucrt:cvt.obj
 0001:0004e2d0       ?fp_format_nan_or_infinity@@YAHW4__acrt_fp_class@@_NPEAD_K1@Z 000000018004f2d0 f   libucrt:cvt.obj
 0001:0004e7f8       ??$?RV<lambda_410d79af7f07d98d83a3f525b3859a53>@@AEAV<lambda_3e16ef9562a7dcce91392c22ab16ea36>@@V<lambda_38119f0e861e05405d8a144b9b982f0a>@@@?$__crt_seh_guarded_call@X@@QEAAX$$QEAV<lambda_410d79af7f07d98d83a3f525b3859a53>@@AEAV<lambda_3e16ef9562a7dcce91392c22ab16ea36>@@$$QEAV<lambda_38119f0e861e05405d8a144b9b982f0a>@@@Z 000000018004f7f8 f   libucrt:wsetlocale.obj
 0001:0004e8a4       ?initialize_inherited_file_handles_nolock@@YAXXZ 000000018004f8a4 f   libucrt:ioinit.obj
 0001:0004e994       ?initialize_stdio_handles_nolock@@YAXXZ 000000018004f994 f   libucrt:ioinit.obj
 0001:0004ebf8       ?find_or_allocate_unused_stream_nolock@@YA?AV__crt_stdio_stream@@XZ 000000018004fbf8 f   libucrt:stream.obj
 0001:0004f084       ??$?RV<lambda_751a882b2c74d4b022dec766aa51a29a>@@AEAV<lambda_628dfdc04ba53c8bfc02c9951375f3f5>@@V<lambda_f6c7be5f7998530c34de24c7437d6b54>@@@?$__crt_seh_guarded_call@H@@QEAAH$$QEAV<lambda_751a882b2c74d4b022dec766aa51a29a>@@AEAV<lambda_628dfdc04ba53c8bfc02c9951375f3f5>@@$$QEAV<lambda_f6c7be5f7998530c34de24c7437d6b54>@@@Z 0000000180050084 f   libucrt:close.obj
 0001:0004f2a0       $$000000                   00000001800502a0     libucrt:fpsr.obj
 0001:0004f45c       ?try_get_function@@YAPEAXW4function_id@?A0x391cf84c@@QEBDQEBW4module_id@2@2@Z 000000018005045c f   libucrt:winapi_thunks.obj
 0001:0004fb84       ??$translate_text_mode_nolock@D@@YAHHQEAD_K@Z 0000000180050b84 f   libucrt:read.obj
 0001:0004fd50       ??$translate_text_mode_nolock@_W@@YAHHQEA_W_K@Z 0000000180050d50 f   libucrt:read.obj
 0001:0004ffbc       ?translate_ansi_or_utf8_nolock@@YAHHQEAD_KQEA_W1@Z 0000000180050fbc f   libucrt:read.obj
 0001:00050838       ??$common_lseek@J@@YAJHJH@Z 0000000180051838 f   libucrt:lseek.obj
 0001:00050924       ??$common_lseek@_J@@YA_JH_JH@Z 0000000180051924 f   libucrt:lseek.obj
 0001:00050a14       ??$common_lseek_nolock@J@@YAJHJH@Z 0000000180051a14 f   libucrt:lseek.obj
 0001:00050b08       ??$common_lseek_nolock@_J@@YA_JH_JH@Z 0000000180051b08 f   libucrt:lseek.obj
 0001:00051674       ??$common_fdopen@_W@@YAPEAU_iobuf@@HQEB_W@Z 0000000180052674 f   libucrt:fdopen.obj
 0001:00051768       ??$?RV<lambda_a37b2b86f63e897a80ea819b0eb08c01>@@AEAV<lambda_38ce7e780aa69e748d6df282ebc68efe>@@V<lambda_99fb1378e971ab6e7edea83e3a7a83a2>@@@?$__crt_seh_guarded_call@H@@QEAAH$$QEAV<lambda_a37b2b86f63e897a80ea819b0eb08c01>@@AEAV<lambda_38ce7e780aa69e748d6df282ebc68efe>@@$$QEAV<lambda_99fb1378e971ab6e7edea83e3a7a83a2>@@@Z 0000000180052768 f   libucrt:commit.obj
 0001:00051888       ?write_double_translated_ansi_nolock@@YA?AUwrite_result@?A0x17268360@@HQEBDI@Z 0000000180052888 f   libucrt:write.obj
 0001:00051d64       ?write_text_ansi_nolock@@YA?AUwrite_result@?A0x17268360@@HQEBDI@Z 0000000180052d64 f   libucrt:write.obj
 0001:00051e68       ?write_text_utf16le_nolock@@YA?AUwrite_result@?A0x17268360@@HQEBDI@Z 0000000180052e68 f   libucrt:write.obj
 0001:00051f84       ?write_text_utf8_nolock@@YA?AUwrite_result@?A0x17268360@@HQEBDI@Z 0000000180052f84 f   libucrt:write.obj
 0001:000524bc       ??$write_buffer_nolock@D@@YA_NDV__crt_stdio_stream@@@Z 00000001800534bc f   libucrt:_flsbuf.obj
 0001:000525a0       ?stream_is_at_end_of_file_nolock@@YA_NV__crt_stdio_stream@@@Z 00000001800535a0 f   libucrt:_flsbuf.obj
 0001:00052704       ??$common_xtox@_KD@@YAH_KQEAD0I_N@Z 0000000180053704 f   libucrt:xtoa.obj
 0001:000527d0       ??$common_xtox_s@_KD@@YAH_KQEAD0I_N@Z 00000001800537d0 f   libucrt:xtoa.obj
 0001:0005296c       ??$common_sopen_dispatch@D@@YAHQEBDHHHQEAHH@Z 000000018005396c f   libucrt:open.obj
 0001:00052a30       ??$common_sopen_dispatch@_W@@YAHQEB_WHHHQEAHH@Z 0000000180053a30 f   libucrt:open.obj
 0001:00052af4       ?configure_text_mode@@YAHHUfile_options@?A0xa9d50aae@@HAEAW4__crt_lowio_text_mode@@@Z 0000000180053af4 f   libucrt:open.obj
 0001:00052d88       ?decode_options@@YA?AUfile_options@?A0xa9d50aae@@HHH@Z 0000000180053d88 f   libucrt:open.obj
 0001:00052f94       ?truncate_ctrl_z_if_present@@YAHH@Z 0000000180053f94 f   libucrt:open.obj
 0001:00053870       ??$?RV<lambda_a22f0c497e5168315e06dae667770027>@@AEAV<lambda_a094494068278ba5130ab06e1292f60a>@@V<lambda_24dc10c13f43218c635520766e23e324>@@@?$__crt_seh_guarded_call@_N@@QEAA_N$$QEAV<lambda_a22f0c497e5168315e06dae667770027>@@AEAV<lambda_a094494068278ba5130ab06e1292f60a>@@$$QEAV<lambda_24dc10c13f43218c635520766e23e324>@@@Z 0000000180054870 f   libucrt:spawnv.obj
 0001:000538b0       ??$common_spawnv@_W@@YA_JHQEB_WQEBQEB_W1@Z 00000001800548b0 f   libucrt:spawnv.obj
 0001:00053b00       ??$execute_command@_W@@YA_JHQEB_WQEBQEB_W1@Z 0000000180054b00 f   libucrt:spawnv.obj
 0001:00053d60       ??R<lambda_a094494068278ba5130ab06e1292f60a>@@QEBA_NXZ 0000000180054d60 f   libucrt:spawnv.obj
 0001:00053f5c       ?accumulate_inheritable_handles@@YA_NQEAPEAEQEA_K_N@Z 0000000180054f5c f   libucrt:spawnv.obj
 0001:00053fbc       ??$common_spawnvp@_W@@YA_JHQEB_WQEBQEB_W1@Z 0000000180054fbc f   libucrt:spawnvp.obj
 0001:00054328       ?<lambda_invoker_cdecl>@<lambda_c2303d2482d7c3675ea2e24c4cfb6115>@@CAHPEBX0@Z 0000000180055328 f   libucrt:argv_wildcards.obj
 0001:000544c8       ??$common_expand_argv_wildcards@D@@YAHQEAPEADQEAPEAPEAD@Z 00000001800554c8 f   libucrt:argv_wildcards.obj
 0001:000546d4       ??$copy_and_add_argument_to_buffer@D@@YAHQEBD0_KAEAV?$argument_list@D@?A0x5f5c8891@@@Z 00000001800556d4 f   libucrt:argv_wildcards.obj
 0001:0005485c       ??$expand_argument_wildcards@D@@YAHQEAD0AEAV?$argument_list@D@?A0x5f5c8891@@@Z 000000018005585c f   libucrt:argv_wildcards.obj
 0001:00054da8       ??$?RV<lambda_efdfa57d1f175319df784efa44bb7b81>@@AEAV<lambda_5f0a4c1567f8adc6734073e5d1e1b35c>@@V<lambda_2e8a7d3640ea6ccb4c2413664c2db6fd>@@@?$__crt_seh_guarded_call@X@@QEAAX$$QEAV<lambda_efdfa57d1f175319df784efa44bb7b81>@@AEAV<lambda_5f0a4c1567f8adc6734073e5d1e1b35c>@@$$QEAV<lambda_2e8a7d3640ea6ccb4c2413664c2db6fd>@@@Z 0000000180055da8 f   libucrt:mbctype.obj
 0001:00054f64       ?getSystemCP@@YAHH@Z       0000000180055f64 f   libucrt:mbctype.obj
 0001:00054fe4       ?setSBCS@@YAXPEAU__crt_multibyte_data@@@Z 0000000180055fe4 f   libucrt:mbctype.obj
 0001:00055074       ?setSBUpLow@@YAXPEAU__crt_multibyte_data@@@Z 0000000180056074 f   libucrt:mbctype.obj
 0001:00055258       ?setmbcp_internal@@YAHH_NQEAU__acrt_ptd@@QEAPEAU__crt_multibyte_data@@@Z 0000000180056258 f   libucrt:mbctype.obj
 0001:0005541c       ?update_thread_multibyte_data_internal@@YAPEAU__crt_multibyte_data@@QEAU__acrt_ptd@@QEAPEAU1@@Z 000000018005641c f   libucrt:mbctype.obj
 0001:0005580c       ?x_ismbbtype_l@@YAHPEAU__crt_locale_pointers@@IHH@Z 000000018005680c f   libucrt:ismbbyte.obj
 0001:00055b58       ??$common_set_variable_in_environment_nolock@_W@@YAHQEA_WH@Z 0000000180056b58 f   libucrt:setenv.obj
 0001:00055e7c       ??$copy_environment@_W@@YAPEAPEA_WQEAPEA_W@Z 0000000180056e7c f   libucrt:setenv.obj
 0001:000560c4       ??$?RV<lambda_450d765d439847d4c735a33c368b5fc0>@@AEAV<lambda_44731a7d0e6d81c3e6aa82d741081786>@@V<lambda_601a2a7da3b7a96e9554ac7215c4b07c>@@@?$__crt_seh_guarded_call@P6AXH@Z@@QEAAP6AXH@Z$$QEAV<lambda_450d765d439847d4c735a33c368b5fc0>@@AEAV<lambda_44731a7d0e6d81c3e6aa82d741081786>@@$$QEAV<lambda_601a2a7da3b7a96e9554ac7215c4b07c>@@@Z 00000001800570c4 f   libucrt:signal.obj
 0001:00056420       ?__acrt_LCMapStringA_stat@@YAHPEAU__crt_locale_pointers@@PEB_WKPEBDHPEADHHH@Z 0000000180057420 f   libucrt:lcmapstringa.obj
 0001:0005838c       ?free_crt_array_internal@@YAXQEAPEBX_K@Z 000000018005938c f   libucrt:inittime.obj
 0001:00058d74       ?GetTableIndexFromLocaleName@@YAHPEB_W@Z 0000000180059d74 f   libucrt:lcidtoname_downlevel.obj
 0001:00059668       ??$construct_environment_block@_W@@YAHQEBQEB_WQEAPEA_W@Z 000000018005a668 f   libucrt:cenvarg.obj
 0001:00059f6c       ?initialize_multibyte@@YAHXZ 000000018005af6c f   libucrt:multibyte_initializer.obj
 0001:0005a300       $$000000                   000000018005b300     libucrt:log10.obj
 0001:0005a9e4       _call_matherr              000000018005b9e4 f   libucrt:libm_error.obj
 0001:0005aa4c       _exception_enabled         000000018005ba4c f   libucrt:libm_error.obj
 0001:0005ace0       _log_special_common        000000018005bce0 f   libucrt:log_special.obj
 0001:0005b310       $$000000                   000000018005c310     LIBCMT:amdsecgs.obj
 0001:0005b584       capture_current_context    000000018005c584 f   LIBCMT:gs_report.obj
 0001:0005b5f4       capture_previous_context   000000018005c5f4 f   LIBCMT:gs_report.obj
 0001:0005b6a0       $$000000                   000000018005c6a0     LIBCMT:guard_dispatch.obj
 0001:0005b6c0       ?fin$0@?0??dllmain_crt_process_attach@@YAHQEAUHINSTANCE__@@QEAX@Z@4HA 000000018005c6c0 f   LIBCMT:dll_dllmain.obj
 0001:0005b6d7       ?fin$0@?0??dllmain_crt_process_detach@@YAH_N@Z@4HA 000000018005c6d7 f   LIBCMT:dll_dllmain.obj
 0001:0005b6f3       ?filt$0@?0??dllmain_dispatch@@YAHQEAUHINSTANCE__@@KQEAX@Z@4HA 000000018005c6f3 f   LIBCMT:dll_dllmain.obj
 0001:0005b729       __scrt_is_nonwritable_in_current_image$filt$0 000000018005c729 f   LIBCMT:utility.obj
 0001:0005b741       __DestructExceptionObject$filt$0 000000018005c741 f   libvcruntime:ehhelpers.obj
 0001:0005b759       ?fin$0@?0???$?RV<lambda_bdbcead8b570fa3d5ec6d9679862a6e5>@@AEAV<lambda_96f4279ff90247a4c5c5d9824f56f8c1>@@V<lambda_4606be27f17b5e5579e09050fab91818>@@@?$__crt_seh_guarded_call@_K@@QEAA_K$$QEAV<lambda_bdbcead8b570fa3d5ec6d9679862a6e5>@@AEAV<lambda_96f4279ff90247a4c5c5d9824f56f8c1>@@$$QEAV<lambda_4606be27f17b5e5579e09050fab91818>@@@Z@4HA 000000018005c759 f   libucrt:fwrite.obj
 0001:0005b759       ?fin$0@?0???$?RV<lambda_842d9ff0dc9ef11c61343bbaebe7f885>@@AEAV<lambda_c5860995281e5c4ce005b3de8f5874ee>@@V<lambda_d90129c13df834fdcbf8d2b88dafcf2d>@@@?$__crt_seh_guarded_call@X@@QEAAX$$QEAV<lambda_842d9ff0dc9ef11c61343bbaebe7f885>@@AEAV<lambda_c5860995281e5c4ce005b3de8f5874ee>@@$$QEAV<lambda_d90129c13df834fdcbf8d2b88dafcf2d>@@@Z@4HA 000000018005c759 f   libucrt:fflush.obj
 0001:0005b759       ?fin$0@?0???$?RV<lambda_c376a267cfb53b6959b3b692ec76b120>@@AEAV<lambda_9a32fed5bf61b6b509b2d3f6003082a1>@@V<lambda_572fbb9fa0ab338edf41edfd4b5fcc8d>@@@?$__crt_seh_guarded_call@H@@QEAAH$$QEAV<lambda_c376a267cfb53b6959b3b692ec76b120>@@AEAV<lambda_9a32fed5bf61b6b509b2d3f6003082a1>@@$$QEAV<lambda_572fbb9fa0ab338edf41edfd4b5fcc8d>@@@Z@4HA 000000018005c759 f   libucrt:fflush.obj
 0001:0005b759       ?fin$0@?0???$?RV<lambda_082dd7c0feb7dbdaf245f261e54a6583>@@AEAV<lambda_f3caf1ecae5fe01a9a1a6239afa44510>@@V<lambda_c640b76c0755ae85b317b35c67c61e6b>@@@?$__crt_seh_guarded_call@H@@QEAAH$$QEAV<lambda_082dd7c0feb7dbdaf245f261e54a6583>@@AEAV<lambda_f3caf1ecae5fe01a9a1a6239afa44510>@@$$QEAV<lambda_c640b76c0755ae85b317b35c67c61e6b>@@@Z@4HA 000000018005c759 f   libucrt:input.obj
 0001:0005b759       ?fin$0@?0???$?RV<lambda_a62c933ada0517137acf5807a1eeac1f>@@AEAV<lambda_a31071773b9a94e445cbd5d04ef99106>@@V<lambda_56065050dbf3ada7e59a83db45153de3>@@@?$__crt_seh_guarded_call@H@@QEAAH$$QEAV<lambda_a62c933ada0517137acf5807a1eeac1f>@@AEAV<lambda_a31071773b9a94e445cbd5d04ef99106>@@$$QEAV<lambda_56065050dbf3ada7e59a83db45153de3>@@@Z@4HA 000000018005c759 f   libucrt:output.obj
 0001:0005b759       ?fin$0@?0???$?RV<lambda_84ec643ea9557e2f7dc01bb0e9624395>@@AEAV<lambda_ca71763b3c0644891230e4f79ea54fa6>@@V<lambda_439a761618c59b0600e24586724d733b>@@@?$__crt_seh_guarded_call@H@@QEAAH$$QEAV<lambda_84ec643ea9557e2f7dc01bb0e9624395>@@AEAV<lambda_ca71763b3c0644891230e4f79ea54fa6>@@$$QEAV<lambda_439a761618c59b0600e24586724d733b>@@@Z@4HA 000000018005c759 f   libucrt:setvbuf.obj
 0001:0005b774       ?fin$0@?0???$common_fsopen@_W@@YAPEAU_iobuf@@QEB_W0H@Z@4HA 000000018005c774 f   libucrt:fopen.obj
 0001:0005b79f       fclose$fin$0               000000018005c79f f   libucrt:fclose.obj
 0001:0005b79f       ?fin$0@?0???$common_ftell@J@@YAJV__crt_stdio_stream@@@Z@4HA 000000018005c79f f   libucrt:ftell.obj
 0001:0005b79f       clearerr_s$fin$0           000000018005c79f f   libucrt:clearerr.obj
 0001:0005b79f       rewind$fin$0               000000018005c79f f   libucrt:rewind.obj
 0001:0005b79f       ?fin$0@?0??common_fseek@@YAHV__crt_stdio_stream@@_JH@Z@4HA 000000018005c79f f   libucrt:fseek.obj
 0001:0005b7b7       common_control87$filt$0    000000018005c7b7 f   libucrt:ieee.obj
 0001:0005b7b7       _ctrlfp$filt$0             000000018005c7b7 f   libucrt:fpctrl.obj
 0001:0005b7e3       ?fin$0@?0???$common_freopen@_W@@YAHQEAPEAU_iobuf@@QEB_W1V__crt_stdio_stream@@H@Z@4HA 000000018005c7e3 f   libucrt:freopen.obj
 0001:0005b7fb       fread_s$fin$0              000000018005c7fb f   libucrt:fread.obj
 0001:0005b813       fgetc$fin$0                000000018005c813 f   libucrt:fgetc.obj
 0001:0005b82d       ungetc$fin$0               000000018005c82d f   libucrt:ungetc.obj
 0001:0005b845       ?fin$0@?0???$common_popen@_W@@YAPEAU_iobuf@@QEB_W0@Z@4HA 000000018005c845 f   libucrt:popen.obj
 0001:0005b860       _pclose$fin$0              000000018005c860 f   libucrt:popen.obj
 0001:0005b879       ?fin$0@?0???$?RV<lambda_886d6c58226a84441f68b9f2b8217b83>@@AEAV<lambda_ab61a845afdef5b7c387490eaf3616ee>@@V<lambda_f7f22ab5edc0698d5f6905b0d3f44752>@@@?$__crt_seh_guarded_call@X@@QEAAX$$QEAV<lambda_886d6c58226a84441f68b9f2b8217b83>@@AEAV<lambda_ab61a845afdef5b7c387490eaf3616ee>@@$$QEAV<lambda_f7f22ab5edc0698d5f6905b0d3f44752>@@@Z@4HA 000000018005c879 f   libucrt:fflush.obj
 0001:0005b896       ?fin$0@?0???$common_fgets@D@@YAPEADQEADHV__crt_stdio_stream@@@Z@4HA 000000018005c896 f   libucrt:fgets.obj
 0001:0005b8ae       ?fin$0@?0??common_tmpfile@@YAHQEAPEAU_iobuf@@H@Z@4HA 000000018005c8ae f   libucrt:tmpfile.obj
 0001:0005b8c7       ?fin$0@?0??common_tmpfile_nolock@@YAHQEAPEAU_iobuf@@H@Z@4HA 000000018005c8c7 f   libucrt:tmpfile.obj
 0001:0005b8f0       ?fin$0@?0???$common_dupenv_s@_W@@YAHQEAPEA_WQEA_KQEB_WHQEBDH@Z@4HA 000000018005c8f0 f   libucrt:getenv.obj
 0001:0005b909       ?fin$0@?0???$common_getenv@_W@@YAPEA_WQEB_W@Z@4HA 000000018005c909 f   libucrt:getenv.obj
 0001:0005b922       ?fin$0@?0???$?RV<lambda_0ae27a3a962d80f24befdcbee591983d>@@AEAV<lambda_8d0ee55de4b1038c4002e0adecdf1839>@@V<lambda_dc504788e8f1664fe9b84e20bfb512f2>@@@?$__crt_seh_guarded_call@X@@QEAAX$$QEAV<lambda_0ae27a3a962d80f24befdcbee591983d>@@AEAV<lambda_8d0ee55de4b1038c4002e0adecdf1839>@@$$QEAV<lambda_dc504788e8f1664fe9b84e20bfb512f2>@@@Z@4HA 000000018005c922 f   libucrt:per_thread_data.obj
 0001:0005b922       ?fin$0@?0???$?RV<lambda_2d41944a1d46af3157314b8a01080d33>@@AEAV<lambda_8f455de75cd7d7f24b4096f044d8b9e6>@@V<lambda_aa500f224e6afead328df44964fe2772>@@@?$__crt_seh_guarded_call@X@@QEAAX$$QEAV<lambda_2d41944a1d46af3157314b8a01080d33>@@AEAV<lambda_8f455de75cd7d7f24b4096f044d8b9e6>@@$$QEAV<lambda_aa500f224e6afead328df44964fe2772>@@@Z@4HA 000000018005c922 f   libucrt:per_thread_data.obj
 0001:0005b922       ?fin$0@?0???$?RV<lambda_7777bce6b2f8c936911f934f8298dc43>@@AEAV<lambda_f03950bc5685219e0bcd2087efbe011e>@@V<lambda_3883c3dff614d5e0c5f61bb1ac94921c>@@@?$__crt_seh_guarded_call@H@@QEAAH$$QEAV<lambda_7777bce6b2f8c936911f934f8298dc43>@@AEAV<lambda_f03950bc5685219e0bcd2087efbe011e>@@$$QEAV<lambda_3883c3dff614d5e0c5f61bb1ac94921c>@@@Z@4HA 000000018005c922 f   libucrt:onexit.obj
 0001:0005b922       ?fin$0@?0???$?RV<lambda_a22f0c497e5168315e06dae667770027>@@AEAV<lambda_a094494068278ba5130ab06e1292f60a>@@V<lambda_24dc10c13f43218c635520766e23e324>@@@?$__crt_seh_guarded_call@_N@@QEAA_N$$QEAV<lambda_a22f0c497e5168315e06dae667770027>@@AEAV<lambda_a094494068278ba5130ab06e1292f60a>@@$$QEAV<lambda_24dc10c13f43218c635520766e23e324>@@@Z@4HA 000000018005c922 f   libucrt:spawnv.obj
 0001:0005b922       ?fin$0@?0???$?RV<lambda_aa87e3671a710a21b5dc78c0bdf72e11>@@AEAV<lambda_92619d2358a28f41a33ba319515a20b9>@@V<lambda_6992ecaafeb10aed2b74cb1fae11a551>@@@?$__crt_seh_guarded_call@X@@QEAAX$$QEAV<lambda_aa87e3671a710a21b5dc78c0bdf72e11>@@AEAV<lambda_92619d2358a28f41a33ba319515a20b9>@@$$QEAV<lambda_6992ecaafeb10aed2b74cb1fae11a551>@@@Z@4HA 000000018005c922 f   libucrt:per_thread_data.obj
 0001:0005b922       ?fin$0@?0???$?RV<lambda_450d765d439847d4c735a33c368b5fc0>@@AEAV<lambda_44731a7d0e6d81c3e6aa82d741081786>@@V<lambda_601a2a7da3b7a96e9554ac7215c4b07c>@@@?$__crt_seh_guarded_call@P6AXH@Z@@QEAAP6AXH@Z$$QEAV<lambda_450d765d439847d4c735a33c368b5fc0>@@AEAV<lambda_44731a7d0e6d81c3e6aa82d741081786>@@$$QEAV<lambda_601a2a7da3b7a96e9554ac7215c4b07c>@@@Z@4HA 000000018005c922 f   libucrt:signal.obj
 0001:0005b922       ?fin$0@?0???$?RV<lambda_efdfa57d1f175319df784efa44bb7b81>@@AEAV<lambda_5f0a4c1567f8adc6734073e5d1e1b35c>@@V<lambda_2e8a7d3640ea6ccb4c2413664c2db6fd>@@@?$__crt_seh_guarded_call@X@@QEAAX$$QEAV<lambda_efdfa57d1f175319df784efa44bb7b81>@@AEAV<lambda_5f0a4c1567f8adc6734073e5d1e1b35c>@@$$QEAV<lambda_2e8a7d3640ea6ccb4c2413664c2db6fd>@@@Z@4HA 000000018005c922 f   libucrt:mbctype.obj
 0001:0005b922       ?fin$0@?0???$?RV<lambda_f2e299630e499de9f9a165e60fcd3db5>@@AEAV<lambda_2ae9d31cdba2644fcbeaf08da7c24588>@@V<lambda_40d01ff24d0e7b3814fdbdcee8eab3c7>@@@?$__crt_seh_guarded_call@X@@QEAAX$$QEAV<lambda_f2e299630e499de9f9a165e60fcd3db5>@@AEAV<lambda_2ae9d31cdba2644fcbeaf08da7c24588>@@$$QEAV<lambda_40d01ff24d0e7b3814fdbdcee8eab3c7>@@@Z@4HA 000000018005c922 f   libucrt:per_thread_data.obj
 0001:0005b922       ?fin$0@?0???$?RV<lambda_d80eeec6fff315bfe5c115232f3240e3>@@AEAV<lambda_6e4b09c48022b2350581041d5f6b0c4c>@@V<lambda_2358e3775559c9db80273638284d5e45>@@@?$__crt_seh_guarded_call@X@@QEAAX$$QEAV<lambda_d80eeec6fff315bfe5c115232f3240e3>@@AEAV<lambda_6e4b09c48022b2350581041d5f6b0c4c>@@$$QEAV<lambda_2358e3775559c9db80273638284d5e45>@@@Z@4HA 000000018005c922 f   libucrt:exit.obj
 0001:0005b93c       ?filt$0@?0???R<lambda_6e4b09c48022b2350581041d5f6b0c4c>@@QEBA@XZ@4HA 000000018005c93c f   libucrt:exit.obj
 0001:0005b957       ?fin$0@?0???$?RV<lambda_410d79af7f07d98d83a3f525b3859a53>@@AEAV<lambda_3e16ef9562a7dcce91392c22ab16ea36>@@V<lambda_38119f0e861e05405d8a144b9b982f0a>@@@?$__crt_seh_guarded_call@X@@QEAAX$$QEAV<lambda_410d79af7f07d98d83a3f525b3859a53>@@AEAV<lambda_3e16ef9562a7dcce91392c22ab16ea36>@@$$QEAV<lambda_38119f0e861e05405d8a144b9b982f0a>@@@Z@4HA 000000018005c957 f   libucrt:wsetlocale.obj
 0001:0005b971       __acrt_initialize_lowio$fin$0 000000018005c971 f   libucrt:ioinit.obj
 0001:0005b971       __acrt_lowio_ensure_fh_exists$fin$0 000000018005c971 f   libucrt:osfinfo.obj
 0001:0005b971       _alloc_osfhnd$fin$0        000000018005c971 f   libucrt:osfinfo.obj
 0001:0005b98a       _fcloseall$fin$0           000000018005c98a f   libucrt:closeall.obj
 0001:0005b98a       ?fin$0@?0??__acrt_stdio_allocate_stream@@YA?AV__crt_stdio_stream@@XZ@4HA 000000018005c98a f   libucrt:stream.obj
 0001:0005b9a3       ?fin$0@?0???$?RV<lambda_a37b2b86f63e897a80ea819b0eb08c01>@@AEAV<lambda_38ce7e780aa69e748d6df282ebc68efe>@@V<lambda_99fb1378e971ab6e7edea83e3a7a83a2>@@@?$__crt_seh_guarded_call@H@@QEAAH$$QEAV<lambda_a37b2b86f63e897a80ea819b0eb08c01>@@AEAV<lambda_38ce7e780aa69e748d6df282ebc68efe>@@$$QEAV<lambda_99fb1378e971ab6e7edea83e3a7a83a2>@@@Z@4HA 000000018005c9a3 f   libucrt:commit.obj
 0001:0005b9a3       ?fin$0@?0???$?RV<lambda_751a882b2c74d4b022dec766aa51a29a>@@AEAV<lambda_628dfdc04ba53c8bfc02c9951375f3f5>@@V<lambda_f6c7be5f7998530c34de24c7437d6b54>@@@?$__crt_seh_guarded_call@H@@QEAAH$$QEAV<lambda_751a882b2c74d4b022dec766aa51a29a>@@AEAV<lambda_628dfdc04ba53c8bfc02c9951375f3f5>@@$$QEAV<lambda_f6c7be5f7998530c34de24c7437d6b54>@@@Z@4HA 000000018005c9a3 f   libucrt:close.obj
 0001:0005b9bd       _read$fin$0                000000018005c9bd f   libucrt:read.obj
 0001:0005b9d4       _write$fin$0               000000018005c9d4 f   libucrt:write.obj
 0001:0005b9d4       ?fin$0@?0???$common_lseek@_J@@YA_JH_JH@Z@4HA 000000018005c9d4 f   libucrt:lseek.obj
 0001:0005b9d4       ?fin$0@?0???$common_lseek@J@@YAJHJH@Z@4HA 000000018005c9d4 f   libucrt:lseek.obj
 0001:0005b9eb       _pipe$fin$1                000000018005c9eb f   libucrt:pipe.obj
 0001:0005ba07       _pipe$fin$0                000000018005ca07 f   libucrt:pipe.obj
 0001:0005ba23       ?fin$0@?0???$common_fdopen@_W@@YAPEAU_iobuf@@HQEB_W@Z@4HA 000000018005ca23 f   libucrt:fdopen.obj
 0001:0005ba3d       ?fin$0@?0???$common_sopen_dispatch@D@@YAHQEBDHHHQEAHH@Z@4HA 000000018005ca3d f   libucrt:open.obj
 0001:0005ba3d       ?fin$0@?0???$common_sopen_dispatch@_W@@YAHQEB_WHHHQEAHH@Z@4HA 000000018005ca3d f   libucrt:open.obj
 0001:0005ba90       _rmtmp$fin$0               000000018005ca90 f   libucrt:rmtmp.obj
 0001:0005baaa       _rmtmp$fin$1               000000018005caaa f   libucrt:rmtmp.obj
 0001:0005bac3       ?fin$0@?0??update_thread_multibyte_data_internal@@YAPEAU__crt_multibyte_data@@QEAU__acrt_ptd@@QEAPEAU1@@Z@4HA 000000018005cac3 f   libucrt:mbctype.obj
 0001:0005badc       _query_new_handler$fin$0   000000018005cadc f   libucrt:new_handler.obj
 0001:0005baf2       raise$fin$0                000000018005caf2 f   libucrt:signal.obj
 0001:0005bb13       __acrt_update_thread_locale_data$fin$0 000000018005cb13 f   libucrt:locale_refcounting.obj
 0001:0005bb30       _IsNonwritableInCurrentImage$filt$0 000000018005cb30 f   LIBCMT:pesect.obj
 0001:0005bb50       $xdatasym                  000000018005cb50     chkstk.obj
 0001:0005bb58       $unwind$sprintf            000000018005cb58     bit64.obj
 0001:0005bb58       $unwind$fprintf            000000018005cb58     service.obj
 0001:0005bb58       $unwind$fscanf             000000018005cb58     uliolib51.obj
 0001:0005bb64       $unwind$loader_Lua         000000018005cb64     uloadlib51.obj
 0001:0005bb64       $unwind$editor_ClearSessionBookmarks 000000018005cb64     service.obj
 0001:0005bb64       $unwind$ll_loadlib         000000018005cb64     uloadlib51.obj
 0001:0005bb64       $unwind$editor_AddSessionBookmark 000000018005cb64     service.obj
 0001:0005bb64       $unwind$f_write            000000018005cb64     uliolib51.obj
 0001:0005bb64       $unwind$io_write           000000018005cb64     uliolib51.obj
 0001:0005bb64       $unwind$f_read             000000018005cb64     uliolib51.obj
 0001:0005bb64       $unwind$io_read            000000018005cb64     uliolib51.obj
 0001:0005bb64       $unwind$method_gc          000000018005cb64     lregex.obj
 0001:0005bb64       $unwind$method_tostring    000000018005cb64     lregex.obj
 0001:0005bb64       $unwind$io_tmpfile         000000018005cb64     uliolib51.obj
 0001:0005bb64       $unwind$method_bracketscount 000000018005cb64     lregex.obj
 0001:0005bb64       $unwind$func_New           000000018005cb64     lregex.obj
 0001:0005bb64       $unwind$editor_Redraw      000000018005cb64     service.obj
 0001:0005bb64       $unwind$newfile            000000018005cb64     uliolib51.obj
 0001:0005bb64       $unwind$io_type            000000018005cb64     uliolib51.obj
 0001:0005bb64       $unwind$mkfuncname         000000018005cb64     uloadlib51.obj
 0001:0005bb64       $unwind$win_SetEnv         000000018005cb64     win.obj
 0001:0005bb64       $unwind$unic_len           000000018005cb64     slnunico.obj
 0001:0005bb64       $unwind$CheckHKey          000000018005cb64     win.obj
 0001:0005bb64       $unwind$luaopen_luafar3    000000018005cb64     service.obj
 0001:0005bb64       $unwind$_realloc_base      000000018005cb64     libucrt:realloc_base.obj
 0001:0005bb64       $unwind$panel_CheckPanelsExist 000000018005cb64     service.obj
 0001:0005bb64       $unwind$PutIntToArray      000000018005cb64     ustring.obj
 0001:0005bb64       $unwind$__acrt_fp_strflt_to_string 000000018005cb64     libucrt:_fptostr.obj
 0001:0005bb64       $unwind$_updatetlocinfoEx_nolock 000000018005cb64     libucrt:locale_refcounting.obj
 0001:0005bb64       $unwind$loader_preload     000000018005cb64     uloadlib51.obj
 0001:0005bb64       $unwind$editor_NextSessionBookmark 000000018005cb64     service.obj
 0001:0005bb64       $unwind$PutIntToTable      000000018005cb64     ustring.obj
 0001:0005bb64       $unwind$editor_DeleteBlock 000000018005cb64     service.obj
 0001:0005bb64       $unwind$SysErrorReturn     000000018005cb64     ustring.obj
 0001:0005bb64       $unwind$editor_DeleteChar  000000018005cb64     service.obj
 0001:0005bb64       $unwind$__acrt_execute_uninitializers 000000018005cb64     libucrt:shared_initialization.obj
 0001:0005bb64       $unwind$Settings_free      000000018005cb64     service.obj
 0001:0005bb64       $unwind$editor_PrevSessionBookmark 000000018005cb64     service.obj
 0001:0005bb64       $unwind$GetBoolFromTable   000000018005cb64     ustring.obj
 0001:0005bb64       $unwind$PutLStrToTable     000000018005cb64     ustring.obj
 0001:0005bb64       $unwind$editor_DeleteString 000000018005cb64     service.obj
 0001:0005bb64       $unwind$_RTC_Initialize    000000018005cb64     LIBCMT:initsect.obj
 0001:0005bb64       $unwind$_RTC_Terminate     000000018005cb64     LIBCMT:initsect.obj
 0001:0005bb64       $unwind$GetOptBoolFromTable 000000018005cb64     ustring.obj
 0001:0005bb64       $unwind$GetOptIntFromArray 000000018005cb64     ustring.obj
 0001:0005bb64       $unwind$PutNumToTable      000000018005cb64     ustring.obj
 0001:0005bb64       $unwind$PutStrToArray      000000018005cb64     ustring.obj
 0001:0005bb64       $unwind$__vcrt_FlsSetValue 000000018005cb64     libvcruntime:winapi_downlevel.obj
 0001:0005bb64       $unwind$?force_decimal_point@__crt_stdio_output@@YAXPEADQEAU__crt_locale_pointers@@@Z 000000018005cb64     libucrt:output.obj
 0001:0005bb64       $unwind$LF_Analyse         000000018005cb64     exported.obj
 0001:0005bb64       $unwind$far_UnloadPlugin   000000018005cb64     service.obj
 0001:0005bb64       $unwind$filefilter_Starting 000000018005cb64     service.obj
 0001:0005bb64       $unwind$filefilter_OpenMenu 000000018005cb64     service.obj
 0001:0005bb64       $unwind$PutStrToTable      000000018005cb64     ustring.obj
 0001:0005bb64       $unwind$filefilter_gc      000000018005cb64     service.obj
 0001:0005bb64       $unwind$filefilter_Free    000000018005cb64     service.obj
 0001:0005bb64       $unwind$f_le               000000018005cb64     bit64.obj
 0001:0005bb64       $unwind$GetOptIntFromTable 000000018005cb64     ustring.obj
 0001:0005bb64       $unwind$f_lt               000000018005cb64     bit64.obj
 0001:0005bb64       $unwind$LF_FreeFindData    000000018005cb64     exported.obj
 0001:0005bb64       $unwind$f_eq               000000018005cb64     bit64.obj
 0001:0005bb64       $unwind$f_div              000000018005cb64     bit64.obj
 0001:0005bb64       $unwind$__acrt_wgetpath    000000018005cb64     libucrt:getpath.obj
 0001:0005bb64       $unwind$far_Show           000000018005cb64     service.obj
 0001:0005bb64       $unwind$FillEditorSetPosition 000000018005cb64     service.obj
 0001:0005bb64       $unwind$f_sub              000000018005cb64     bit64.obj
 0001:0005bb64       $unwind$far_GetNumberOfLinks 000000018005cb64     service.obj
 0001:0005bb64       $unwind$__acrt_stdio_allocate_buffer_nolock 000000018005cb64     libucrt:_getbuf.obj
 0001:0005bb64       $unwind$LF_ProcessEditorInput 000000018005cb64     exported.obj
 0001:0005bb64       $unwind$arshift            000000018005cb64     bit64.obj
 0001:0005bb64       $unwind$rshift             000000018005cb64     bit64.obj
 0001:0005bb64       $unwind$lshift             000000018005cb64     bit64.obj
 0001:0005bb64       $unwind$PushInputRecord    000000018005cb64     service.obj
 0001:0005bb64       $unwind$??$common_initialize_environment_nolock@D@@YAHXZ 000000018005cb64     libucrt:environment_initialization.obj
 0001:0005bb64       $unwind$PushPluginHandle   000000018005cb64     service.obj
 0001:0005bb64       $unwind$bit64_push         000000018005cb64     bit64.obj
 0001:0005bb64       $unwind$PutFlagsToTable    000000018005cb64     service.obj
 0001:0005bb64       $unwind$_fclose_nolock     000000018005cb64     libucrt:fclose.obj
 0001:0005bb64       $unwind$GetFlagsFromTable  000000018005cb64     service.obj
 0001:0005bb64       $unwind$__acrt_errno_map_os_error 000000018005cb64     libucrt:errno.obj
 0001:0005bb64       $unwind$CheckFlagsFromTable 000000018005cb64     service.obj
 0001:0005bb64       $unwind$_ungetc_nolock     000000018005cb64     libucrt:ungetc.obj
 0001:0005bb64       $unwind$bit64_pushuserdata 000000018005cb64     bit64.obj
 0001:0005bb64       $unwind$far_LIsUpper       000000018005cb64     service.obj
 0001:0005bb64       $unwind$far_LIsLower       000000018005cb64     service.obj
 0001:0005bb64       $unwind$far_LIsAlphanum    000000018005cb64     service.obj
 0001:0005bb64       $unwind$PutBoolToTable     000000018005cb64     ustring.obj
 0001:0005bb64       $unwind$far_LIsAlpha       000000018005cb64     service.obj
 0001:0005bb64       $unwind$?common_fseek_binary_mode_read_only_fast_track_nolock@@YA_NV__crt_stdio_stream@@_JH@Z 000000018005cb64     libucrt:fseek.obj
 0001:0005bb64       $unwind$?replace_current_thread_locale_nolock@@YAXQEAU__acrt_ptd@@QEAU__crt_locale_data@@@Z 000000018005cb64     libucrt:per_thread_data.obj
 0001:0005bb64       $unwind$LF_FreeContentData 000000018005cb64     exported.obj
 0001:0005bb64       $unwind$__acrt_LocaleNameToLCID 000000018005cb64     libucrt:winapi_thunks.obj
 0001:0005bb64       $unwind$GetExportFunction  000000018005cb64     exported.obj
 0001:0005bb64       $unwind$PushPluginPair     000000018005cb64     exported.obj
 0001:0005bb64       $unwind$GetLuaStateTimerQueue 000000018005cb64     service.obj
 0001:0005bb64       $unwind$ustring_EnumSystemCodePages 000000018005cb64     ustring.obj
 0001:0005bb64       $unwind$__acrt_FlsSetValue 000000018005cb64     libucrt:winapi_thunks.obj
 0001:0005bb64       $unwind$far_GetMsg         000000018005cb64     service.obj
 0001:0005bb64       $unwind$strncpy_s          000000018005cb64     libucrt:strncpy_s.obj
 0001:0005bb64       $unwind$_close_nolock      000000018005cb64     libucrt:close.obj
 0001:0005bb64       $unwind$ustring_GetKeyState 000000018005cb64     ustring.obj
 0001:0005bb64       $unwind$panel_GetCmdLinePos 000000018005cb64     service.obj
 0001:0005bb64       $unwind$PushFarColor       000000018005cb64     service.obj
 0001:0005bb64       $unwind$viewer_Redraw      000000018005cb64     service.obj
 0001:0005bb64       $unwind$viewer_Quit        000000018005cb64     service.obj
 0001:0005bb64       $unwind$??$get_tmpfile_buffer_nolock@D@@YAPEADW4buffer_id@?A0x5b9a7937@@@Z 000000018005cb64     libucrt:tmpfile.obj
 0001:0005bb64       $unwind$free_dialog        000000018005cb64     service.obj
 0001:0005bb64       $unwind$RegisterObject     000000018005cb64     exported.obj
 0001:0005bb64       $unwind$?process@?$input_processor@DV?$stream_input_adapter@D@__crt_stdio_input@@@__crt_stdio_input@@QEAAHXZ 000000018005cb64     libucrt:input.obj
 0001:0005bb64       $unwind$__acrt_stdio_begin_temporary_buffering_nolock 000000018005cb64     libucrt:_sftbuf.obj
 0001:0005bb64       $unwind$?process_state@?$input_processor@DV?$stream_input_adapter@D@__crt_stdio_input@@@__crt_stdio_input@@AEAA_NXZ 000000018005cb64     libucrt:input.obj
 0001:0005bb64       $unwind$DialogHandleEqual  000000018005cb64     service.obj
 0001:0005bb64       $unwind$?process_literal_character_tchar@?$input_processor@DV?$stream_input_adapter@D@__crt_stdio_input@@@__crt_stdio_input@@AEAA_ND@Z 000000018005cb64     libucrt:input.obj
 0001:0005bb64       $unwind$GetFileSizeFromTable 000000018005cb64     util.obj
 0001:0005bb64       $unwind$?process_conversion_specifier@?$input_processor@DV?$stream_input_adapter@D@__crt_stdio_input@@@__crt_stdio_input@@AEAA_NXZ 000000018005cb64     libucrt:input.obj
 0001:0005bb64       $unwind$?process_floating_point_specifier@?$input_processor@DV?$stream_input_adapter@D@__crt_stdio_input@@@__crt_stdio_input@@AEAA_NXZ 000000018005cb64     libucrt:input.obj
 0001:0005bb64       $unwind$?write_integer@?$input_processor@DV?$stream_input_adapter@D@__crt_stdio_input@@@__crt_stdio_input@@AEAA_N_K@Z 000000018005cb64     libucrt:input.obj
 0001:0005bb64       $unwind$??R<lambda_156378f40168adef48d7ddfcff3a1264>@@QEBA_NXZ 000000018005cb64     libucrt:input.obj
 0001:0005bb64       $unwind$panel_IsActivePanel 000000018005cb64     service.obj
 0001:0005bb64       $unwind$GetAttrFromTable   000000018005cb64     util.obj
 0001:0005bb64       $unwind$_initterm_e        000000018005cb64     libucrt:initterm.obj
 0001:0005bb64       $unwind$__acrt_uninitialize_lowio 000000018005cb64     libucrt:ioinit.obj
 0001:0005bb64       $unwind$LF_ExitFAR         000000018005cb64     exported.obj
 0001:0005bb64       $unwind$PushAnalyseInfo    000000018005cb64     exported.obj
 0001:0005bb64       $unwind$LF_GetLuafarAPI    000000018005cb64     service.obj
 0001:0005bb64       $unwind$PushFarMacroValue  000000018005cb64     exported.obj
 0001:0005bb64       $unwind$editor_Quit        000000018005cb64     service.obj
 0001:0005bb64       $unwind$LF_InitLuaState2   000000018005cb64     service.obj
 0001:0005bb64       $unwind$??$common_initialize_environment_nolock@_W@@YAHXZ 000000018005cb64     libucrt:environment_initialization.obj
 0001:0005bb70       $unwind$GetFarColor        000000018005cb70     service.obj
 0001:0005bb70       $unwind$bit64_getvalue     000000018005cb70     bit64.obj
 0001:0005bb70       $unwind$?type_case_c_tchar@?$output_processor@_WV?$string_output_adapter@_W@__crt_stdio_output@@V?$standard_base@_WV?$string_output_adapter@_W@__crt_stdio_output@@@2@@__crt_stdio_output@@AEAA_N_W@Z 000000018005cb70     libucrt:output.obj
 0001:0005bb70       $unwind$LF_ProcessConsoleInput 000000018005cb70     exported.obj
 0001:0005bb70       $unwind$_cwait             000000018005cb70     libucrt:wait.obj
 0001:0005bb70       $unwind$LF_ProcessEditorEvent 000000018005cb70     exported.obj
 0001:0005bb80       $chain$0$bit64_getvalue    000000018005cb80     bit64.obj
 0001:0005bb94       $chain$1$bit64_getvalue    000000018005cb94     bit64.obj
 0001:0005bba4       $unwind$check64            000000018005cba4     bit64.obj
 0001:0005bbb4       $chain$0$check64           000000018005cbb4     bit64.obj
 0001:0005bbc8       $chain$1$check64           000000018005cbc8     bit64.obj
 0001:0005bbd8       $unwind$timer_index        000000018005cbd8     service.obj
 0001:0005bbd8       $unwind$InitMPR            000000018005cbd8     luamacro.obj
 0001:0005bbd8       $unwind$OptInputRecord     000000018005cbd8     service.obj
 0001:0005bbd8       $unwind$??$ensure_buffer_is_big_enough@_W@formatting_buffer@__crt_stdio_output@@QEAA_N_K@Z 000000018005cbd8     libucrt:output.obj
 0001:0005bbd8       $unwind$PackMacroValues    000000018005cbd8     exported.obj
 0001:0005bbd8       $unwind$_recalloc_base     000000018005cbd8     libucrt:recalloc.obj
 0001:0005bbd8       $unwind$FillInputRecord    000000018005cbd8     service.obj
 0001:0005bbd8       $unwind$__scrt_dllmain_exception_filter 000000018005cbd8     LIBCMT:utility.obj
 0001:0005bbd8       $unwind$??$ensure_buffer_is_big_enough@D@formatting_buffer@__crt_stdio_output@@QEAA_N_K@Z 000000018005cbd8     libucrt:output.obj
 0001:0005bbd8       $unwind$band               000000018005cbd8     bit64.obj
 0001:0005bbd8       $unwind$bor                000000018005cbd8     bit64.obj
 0001:0005bbd8       $unwind$_initterm          000000018005cbd8     libucrt:initterm.obj
 0001:0005bbd8       $unwind$bxor               000000018005cbd8     bit64.obj
 0001:0005bbd8       $unwind$?setSBCS@@YAXPEAU__crt_multibyte_data@@@Z 000000018005cbd8     libucrt:mbctype.obj
 0001:0005bbd8       $unwind$f_add              000000018005cbd8     bit64.obj
 0001:0005bbd8       $unwind$f_mul              000000018005cbd8     bit64.obj
 0001:0005bbd8       $unwind$??$common_getenv_nolock@_W@@YAPEA_WQEB_W@Z 000000018005cbd8     libucrt:getenv.obj
 0001:0005bbd8       $unwind$__dcrt_get_wide_environment_from_os 000000018005cbd8     libucrt:get_environment_from_os.obj
 0001:0005bbd8       $unwind$__acrt_free_locale 000000018005cbd8     libucrt:locale_refcounting.obj
 0001:0005bbd8       $unwind$pcall_msg          000000018005cbd8     exported.obj
 0001:0005bbd8       $unwind$__acrt_lowio_create_handle_array 000000018005cbd8     libucrt:osfinfo.obj
 0001:0005bbd8       $unwind$win_CopyFile       000000018005cbd8     win.obj
 0001:0005bbd8       $unwind$?find_or_allocate_unused_stream_nolock@@YA?AV__crt_stdio_stream@@XZ 000000018005cbd8     libucrt:stream.obj
 0001:0005bbd8       $unwind$win_DeleteRegKey   000000018005cbd8     win.obj
 0001:0005bbd8       $unwind$pushresult         000000018005cbd8     uliolib51.obj
 0001:0005bbd8       $unwind$_seh_filter_exe    000000018005cbd8     libucrt:exception_filter.obj
 0001:0005bbd8       $unwind$io_popen           000000018005cbd8     uliolib51.obj
 0001:0005bbd8       $unwind$push_far_regex     000000018005cbd8     lregex.obj
 0001:0005bbd8       $unwind$uc_New             000000018005cbd8     lusercontrol.obj
 0001:0005bbd8       $unwind$?scan_scanset_range@?$format_string_parser@D@__crt_stdio_input@@AEAA_NXZ 000000018005cbd8     libucrt:input.obj
 0001:0005bbd8       $unwind$findfile           000000018005cbd8     uloadlib51.obj
 0001:0005bbec       $unwind$gctm               000000018005cbec     uloadlib51.obj
 0001:0005bbec       $unwind$f_lines            000000018005cbec     uliolib51.obj
 0001:0005bbec       $unwind$luaopen_usercontrol 000000018005cbec     lusercontrol.obj
 0001:0005bbec       $unwind$ll_seeall          000000018005cbec     uloadlib51.obj
 0001:0005bbec       $unwind$?scan_optional_field_width@?$format_string_parser@D@__crt_stdio_input@@AEAA_NXZ 000000018005cbec     libucrt:input.obj
 0001:0005bbec       $unwind$uc_len             000000018005cbec     lusercontrol.obj
 0001:0005bbec       $unwind$io_tostring        000000018005cbec     uliolib51.obj
 0001:0005bbec       $unwind$io_gc              000000018005cbec     uliolib51.obj
 0001:0005bbec       $unwind$io_close           000000018005cbec     uliolib51.obj
 0001:0005bbec       $unwind$initialize_pointers 000000018005cbec     libucrt:initialization.obj
 0001:0005bbec       $unwind$aux_close          000000018005cbec     uliolib51.obj
 0001:0005bbec       $unwind$luaopen_regex      000000018005cbec     lregex.obj
 0001:0005bbec       $unwind$io_noclose         000000018005cbec     uliolib51.obj
 0001:0005bbec       $unwind$uninitialize_allocated_memory 000000018005cbec     libucrt:initialization.obj
 0001:0005bbec       $unwind$luaopen_ustring    000000018005cbec     ustring.obj
 0001:0005bbec       $unwind$luaopen_unicode    000000018005cbec     slnunico.obj
 0001:0005bbec       $unwind$push_onecapture    000000018005cbec     slnunico.obj
 0001:0005bbec       $unwind$uc_tostring        000000018005cbec     lusercontrol.obj
 0001:0005bbec       $unwind$win_GetSystemTimeAsFileTime 000000018005cbec     win.obj
 0001:0005bbec       $unwind$win_FileTimeToLocalFileTime 000000018005cbec     win.obj
 0001:0005bbec       $unwind$pusherror          000000018005cbec     ustring.obj
 0001:0005bbec       $unwind$_clrfp             000000018005cbec     libucrt:fpctrl.obj
 0001:0005bbec       $unwind$win_DeleteFile     000000018005cbec     win.obj
 0001:0005bbec       $unwind$win_RemoveDir      000000018005cbec     win.obj
 0001:0005bbec       $unwind$luaopen_win        000000018005cbec     win.obj
 0001:0005bbec       $unwind$feholdexcept       000000018005cbec     libucrt:feholdexcept.obj
 0001:0005bbec       $unwind$fesetenv           000000018005cbec     libucrt:fesetenv.obj
 0001:0005bbec       $unwind$fegetenv           000000018005cbec     libucrt:fegetenv.obj
 0001:0005bbec       $unwind$_strupr            000000018005cbec     libucrt:strupr.obj
 0001:0005bbec       $unwind$far_RunDefaultScript 000000018005cbec     service.obj
 0001:0005bbec       $unwind$luaB_loadfileW     000000018005cbec     lflua.obj
 0001:0005bbec       $unwind$_set_statfp        000000018005cbec     libucrt:fpctrl.obj
 0001:0005bbec       $unwind$luaopen_bit64      000000018005cbec     bit64.obj
 0001:0005bbec       $unwind$Settings_tostring  000000018005cbec     service.obj
 0001:0005bbec       $unwind$strcpy_s           000000018005cbec     libucrt:strcpy_s.obj
 0001:0005bbec       $unwind$f_unm              000000018005cbec     bit64.obj
 0001:0005bbec       $unwind$far_FreeSettings   000000018005cbec     service.obj
 0001:0005bbec       $unwind$_callnewh          000000018005cbec     libucrt:new_handler.obj
 0001:0005bbec       $unwind$__scrt_initialize_crt 000000018005cbec     LIBCMT:utility.obj
 0001:0005bbec       $unwind$__raise_securityfailure 000000018005cbec     LIBCMT:gs_report.obj
 0001:0005bbec       $unwind$bnot               000000018005cbec     bit64.obj
 0001:0005bbec       $unwind$dialog_tostring    000000018005cbec     service.obj
 0001:0005bbec       $unwind$dialog_rawhandle   000000018005cbec     service.obj
 0001:0005bbec       $unwind$__acrt_allocate_buffer_for_argv 000000018005cbec     libucrt:argv_parsing.obj
 0001:0005bbec       $unwind$__scrt_uninitialize_crt 000000018005cbec     LIBCMT:utility.obj
 0001:0005bbec       $unwind$check_utf16_string 000000018005cbec     ustring.obj
 0001:0005bbec       $unwind$__acrt_get_process_end_policy 000000018005cbec     libucrt:win_policies.obj
 0001:0005bbec       $unwind$?internal_isupper_l@@YA_NHQEAU__crt_locale_pointers@@@Z 000000018005cbec     libucrt:tolower_toupper.obj
 0001:0005bbec       $unwind$PutAttrToTable     000000018005cbec     ustring.obj
 0001:0005bbec       $unwind$timer_tostring     000000018005cbec     service.obj
 0001:0005bbec       $unwind$__std_type_info_destroy_list 000000018005cbec     libvcruntime:std_type_info.obj
 0001:0005bbec       $unwind$_malloc_base       000000018005cbec     libucrt:malloc_base.obj
 0001:0005bbec       $unwind$TimerCallback      000000018005cbec     service.obj
 0001:0005bbec       $unwind$__vcrt_freeptd     000000018005cbec     libvcruntime:per_thread_data.obj
 0001:0005bbec       $unwind$far_FarClock       000000018005cbec     service.obj
 0001:0005bbec       $unwind$__vcrt_initialize_locks 000000018005cbec     libvcruntime:locks.obj
 0001:0005bbec       $unwind$__vcrt_uninitialize_locks 000000018005cbec     libvcruntime:locks.obj
 0001:0005bbec       $unwind$__vcrt_FlsAlloc    000000018005cbec     libvcruntime:winapi_downlevel.obj
 0001:0005bbec       $unwind$__vcrt_FlsFree     000000018005cbec     libvcruntime:winapi_downlevel.obj
 0001:0005bbec       $unwind$__vcrt_FlsGetValue 000000018005cbec     libvcruntime:winapi_downlevel.obj
 0001:0005bbec       $unwind$?stream_is_at_end_of_file_nolock@@YA_NV__crt_stdio_stream@@@Z 000000018005cbec     libucrt:_flsbuf.obj
 0001:0005bbec       $unwind$?state_case_normal@?$output_processor@DV?$stream_output_adapter@D@__crt_stdio_output@@V?$standard_base@DV?$stream_output_adapter@D@__crt_stdio_output@@@2@@__crt_stdio_output@@AEAA_NXZ 000000018005cbec     libucrt:output.obj
 0001:0005bbec       $unwind$?state_case_normal_tchar@?$output_processor@DV?$stream_output_adapter@D@__crt_stdio_output@@V?$standard_base@DV?$stream_output_adapter@D@__crt_stdio_output@@@2@@__crt_stdio_output@@AEAA_ND@Z 000000018005cbec     libucrt:output.obj
 0001:0005bbec       $unwind$?type_case_c_tchar@?$output_processor@DV?$stream_output_adapter@D@__crt_stdio_output@@V?$standard_base@DV?$stream_output_adapter@D@__crt_stdio_output@@@2@@__crt_stdio_output@@AEAA_ND@Z 000000018005cbec     libucrt:output.obj
 0001:0005bbec       $unwind$?type_case_s@?$output_processor@DV?$stream_output_adapter@D@__crt_stdio_output@@V?$standard_base@DV?$stream_output_adapter@D@__crt_stdio_output@@@2@@__crt_stdio_output@@AEAA_NXZ 000000018005cbec     libucrt:output.obj
 0001:0005bbec       $unwind$?state_case_normal@?$output_processor@DV?$string_output_adapter@D@__crt_stdio_output@@V?$standard_base@DV?$string_output_adapter@D@__crt_stdio_output@@@2@@__crt_stdio_output@@AEAA_NXZ 000000018005cbec     libucrt:output.obj
 0001:0005bbec       $unwind$?type_case_c_tchar@?$output_processor@DV?$string_output_adapter@D@__crt_stdio_output@@V?$standard_base@DV?$string_output_adapter@D@__crt_stdio_output@@@2@@__crt_stdio_output@@AEAA_ND@Z 000000018005cbec     libucrt:output.obj
 0001:0005bbec       $unwind$filefilter_tostring 000000018005cbec     service.obj
 0001:0005bbec       $unwind$?type_case_s@?$output_processor@DV?$string_output_adapter@D@__crt_stdio_output@@V?$standard_base@DV?$string_output_adapter@D@__crt_stdio_output@@@2@@__crt_stdio_output@@AEAA_NXZ 000000018005cbec     libucrt:output.obj
 0001:0005bbec       $unwind$?exit_or_terminate_process@@YAXI@Z 000000018005cbec     libucrt:exit.obj
 0001:0005bbec       $unwind$ustring_GetACP     000000018005cbec     ustring.obj
 0001:0005bbec       $unwind$?try_cor_exit_process@@YAXI@Z 000000018005cbec     libucrt:exit.obj
 0001:0005bbec       $unwind$__acrt_stdio_free_buffer_nolock 000000018005cbec     libucrt:_freebuf.obj
 0001:0005bbec       $unwind$__acrt_uninitialize_locks 000000018005cbec     libucrt:locks.obj
 0001:0005bbec       $unwind$__acrt_initialize_locks 000000018005cbec     libucrt:locks.obj
 0001:0005bbec       $unwind$SetFarColors       000000018005cbec     keysandcolors.obj
 0001:0005bbec       $unwind$ustring_GetOEMCP   000000018005cbec     ustring.obj
 0001:0005bbec       $unwind$wcscat_s           000000018005cbec     libucrt:wcscat_s.obj
 0001:0005bbec       $unwind$_calloc_base       000000018005cbec     libucrt:calloc_base.obj
 0001:0005bbec       $unwind$ustring_GetConsoleCP 000000018005cbec     ustring.obj
 0001:0005bbec       $unwind$ustring_GetConsoleOutputCP 000000018005cbec     ustring.obj
 0001:0005bbec       $unwind$PluginHandle_rawhandle 000000018005cbec     service.obj
 0001:0005bbec       $unwind$ustring_GetDriveType 000000018005cbec     ustring.obj
 0001:0005bbec       $unwind$ustring_len        000000018005cbec     ustring.obj
 0001:0005bbec       $unwind$ustring_system     000000018005cbec     ustring.obj
 0001:0005bbec       $unwind$FarPanelItemFreeCallback 000000018005cbec     exported.obj
 0001:0005bbec       $unwind$_clearfp           000000018005cbec     libucrt:ieee.obj
 0001:0005bbec       $unwind$__acrt_uninitialize_winapi_thunks 000000018005cbec     libucrt:winapi_thunks.obj
 0001:0005bbec       $unwind$far_CPluginStartupInfo 000000018005cbec     service.obj
 0001:0005bbec       $unwind$__acrt_uninitialize_stdio 000000018005cbec     libucrt:_file.obj
 0001:0005bbec       $unwind$far_MacroGetArea   000000018005cbec     service.obj
 0001:0005bbec       $unwind$far_MacroGetState  000000018005cbec     service.obj
 0001:0005bbec       $unwind$far_MacroSaveAll   000000018005cbec     service.obj
 0001:0005bbec       $unwind$__acrt_FlsAlloc    000000018005cbec     libucrt:winapi_thunks.obj
 0001:0005bbec       $unwind$?idtab@@YAPEAUprocess_handle_pair@?A0xe43b7539@@QEAU_iobuf@@@Z 000000018005cbec     libucrt:popen.obj
 0001:0005bbec       $unwind$__acrt_getptd_head 000000018005cbec     libucrt:per_thread_data.obj
 0001:0005bbec       $unwind$__acrt_FlsFree     000000018005cbec     libucrt:winapi_thunks.obj
 0001:0005bbec       $unwind$_fflush_nolock     000000018005cbec     libucrt:fflush.obj
 0001:0005bbec       $unwind$__acrt_FlsGetValue 000000018005cbec     libucrt:winapi_thunks.obj
 0001:0005bbec       $unwind$ReplacePluginInfoCollector 000000018005cbec     exported.obj
 0001:0005bbec       $unwind$__acrt_freeptd     000000018005cbec     libucrt:per_thread_data.obj
 0001:0005bbec       $unwind$__acrt_update_multibyte_info 000000018005cbec     libucrt:locale_update.obj
 0001:0005bbec       $unwind$GetFileTimeFromTable 000000018005cbec     util.obj
 0001:0005bbec       $unwind$OptHandle          000000018005cbec     service.obj
 0001:0005bbec       $unwind$wcscpy_s           000000018005cbec     libucrt:wcscpy_s.obj
 0001:0005bbec       $unwind$far_CopyToClipboard 000000018005cbec     service.obj
 0001:0005bbec       $unwind$PushPluginObject   000000018005cbec     exported.obj
 0001:0005bbec       $unwind$__scrt_release_startup_lock 000000018005cbec     LIBCMT:utility.obj
 0001:0005bbec       $unwind$DeleteLuaStateTimerQueue 000000018005cbec     service.obj
 0001:0005bbec       $unwind$__acrt_update_locale_info 000000018005cbec     libucrt:locale_update.obj
 0001:0005bbec       $unwind$__acrt_AppPolicyGetProcessTerminationMethodInternal 000000018005cbec     libucrt:winapi_thunks.obj
 0001:0005bbec       $unwind$traceback          000000018005cbec     exported.obj
 0001:0005bbf4       $unwind$f_new              000000018005cbf4     bit64.obj
 0001:0005bbf4       $unwind$editor_UndoRedo    000000018005cbf4     service.obj
 0001:0005bc04       $chain$0$f_new             000000018005cc04     bit64.obj
 0001:0005bc18       $chain$1$f_new             000000018005cc18     bit64.obj
 0001:0005bc28       $unwind$__scrt_initialize_onexit_tables 000000018005cc28     LIBCMT:utility.obj
 0001:0005bc28       $unwind$f_tostring         000000018005cc28     bit64.obj
 0001:0005bc28       $unwind$__dcrt_lowio_ensure_console_output_initialized 000000018005cc28     libucrt:initcon.obj
 0001:0005bc28       $unwind$win_GetConsoleScreenBufferInfo 000000018005cc28     win.obj
 0001:0005bc28       $unwind$_isleadbyte_l      000000018005cc28     libucrt:_wctype.obj
 0001:0005bc28       $unwind$?getSystemCP@@YAHH@Z 000000018005cc28     libucrt:mbctype.obj
 0001:0005bc28       $unwind$far_FarMacroCallToLua 000000018005cc28     luamacro.obj
 0001:0005bc30       $unwind$f_type             000000018005cc30     bit64.obj
 0001:0005bc30       $unwind$io_lines           000000018005cc30     uliolib51.obj
 0001:0005bc38       $chain$0$f_type            000000018005cc38     bit64.obj
 0001:0005bc4c       $chain$1$f_type            000000018005cc4c     bit64.obj
 0001:0005bc5c       $unwind$__vcrt_InitializeCriticalSectionEx 000000018005cc5c     libvcruntime:winapi_downlevel.obj
 0001:0005bc5c       $unwind$LF_InitLuaState1   000000018005cc5c     service.obj
 0001:0005bc5c       $unwind$memcpy_s           000000018005cc5c     libucrt:cfout.obj
 0001:0005bc5c       $unwind$?free_crt_array_internal@@YAXQEAPEBX_K@Z 000000018005cc5c     libucrt:inittime.obj
 0001:0005bc5c       $unwind$luaB_dofileW       000000018005cc5c     lflua.obj
 0001:0005bc5c       $unwind$__acrt_InitializeCriticalSectionEx 000000018005cc5c     libucrt:winapi_thunks.obj
 0001:0005bc5c       $unwind$memcpy_s           000000018005cc5c     libucrt:input.obj
 0001:0005bc5c       $unwind$_DllMainCRTStartup 000000018005cc5c     LIBCMT:dll_dllmain.obj
 0001:0005bc5c       $unwind$??$common_ftell_nolock@_J@@YA_JV__crt_stdio_stream@@@Z 000000018005cc5c     libucrt:ftell.obj
 0001:0005bc5c       $unwind$utf8_enco          000000018005cc5c     slnunico.obj
 0001:0005bc5c       $unwind$?type_case_n@?$output_processor@DV?$stream_output_adapter@D@__crt_stdio_output@@V?$standard_base@DV?$stream_output_adapter@D@__crt_stdio_output@@@2@@__crt_stdio_output@@AEAA_NXZ 000000018005cc5c     libucrt:output.obj
 0001:0005bc5c       $unwind$far_DialogRun      000000018005cc5c     service.obj
 0001:0005bc5c       $unwind$win_wcscmp         000000018005cc5c     win.obj
 0001:0005bc5c       $unwind$?common_fseek_nolock@@YAHV__crt_stdio_stream@@_JH@Z 000000018005cc5c     libucrt:fseek.obj
 0001:0005bc5c       $unwind$get_env_flag       000000018005cc5c     service.obj
 0001:0005bc5c       $unwind$LF_ClosePanel      000000018005cc5c     exported.obj
 0001:0005bc5c       $unwind$check_env_flag     000000018005cc5c     service.obj
 0001:0005bc5c       $unwind$PushDMParams       000000018005cc5c     service.obj
 0001:0005bc5c       $unwind$__acrt_stdio_flush_nolock 000000018005cc5c     libucrt:fflush.obj
 0001:0005bc5c       $unwind$__acrt_execute_initializers 000000018005cc5c     libucrt:shared_initialization.obj
 0001:0005bc5c       $unwind$??0_LocaleUpdate@@QEAA@QEAU__crt_locale_pointers@@@Z 000000018005cc5c     libucrt:output.obj
 0001:0005bc5c       $unwind$?type_case_n@?$output_processor@DV?$string_output_adapter@D@__crt_stdio_output@@V?$standard_base@DV?$string_output_adapter@D@__crt_stdio_output@@@2@@__crt_stdio_output@@AEAA_NXZ 000000018005cc5c     libucrt:output.obj
 0001:0005bc5c       $unwind$LF_ProcessPanelEvent 000000018005cc5c     exported.obj
 0001:0005bc5c       $unwind$io_readline        000000018005cc5c     uliolib51.obj
 0001:0005bc5c       $unwind$LF_SetFindList     000000018005cc5c     exported.obj
 0001:0005bc5c       $unwind$?type_case_n@?$output_processor@_WV?$string_output_adapter@_W@__crt_stdio_output@@V?$standard_base@_WV?$string_output_adapter@_W@__crt_stdio_output@@@2@@__crt_stdio_output@@AEAA_NXZ 000000018005cc5c     libucrt:output.obj
 0001:0005bc5c       $unwind$f_seek             000000018005cc5c     uliolib51.obj
 0001:0005bc5c       $unwind$__acrt_stdio_free_tmpfile_name_buffers_nolock 000000018005cc5c     libucrt:tmpfile.obj
 0001:0005bc5c       $unwind$??R<lambda_ca71763b3c0644891230e4f79ea54fa6>@@QEBAHXZ 000000018005cc5c     libucrt:setvbuf.obj
 0001:0005bc5c       $unwind$OptFlags           000000018005cc5c     service.obj
 0001:0005bc5c       $unwind$??R<lambda_96f4279ff90247a4c5c5d9824f56f8c1>@@QEBA_KXZ 000000018005cc5c     libucrt:fwrite.obj
 0001:0005bc5c       $unwind$LF_SetDirectory    000000018005cc5c     exported.obj
 0001:0005bc5c       $unwind$LF_PutFiles        000000018005cc5c     exported.obj
 0001:0005bc5c       $unwind$LF_ProcessViewerEvent 000000018005cc5c     exported.obj
 0001:0005bc5c       $unwind$LF_Configure       000000018005cc5c     exported.obj
 0001:0005bc5c       $unwind$?type_case_s@?$output_processor@_WV?$string_output_adapter@_W@__crt_stdio_output@@V?$standard_base@_WV?$string_output_adapter@_W@__crt_stdio_output@@@2@@__crt_stdio_output@@AEAA_NXZ 000000018005cc5c     libucrt:output.obj
 0001:0005bc5c       $unwind$__vcrt_getptd_noexit 000000018005cc5c     libvcruntime:per_thread_data.obj
 0001:0005bc5c       $unwind$__acrt_stdio_flush_and_write_narrow_nolock 000000018005cc5c     libucrt:_flsbuf.obj
 0001:0005bc5c       $unwind$push_flags_table   000000018005cc5c     flags.obj
 0001:0005bc5c       $unwind$fileerror          000000018005cc5c     uliolib51.obj
 0001:0005bc5c       $unwind$LF_ProcessHostFile 000000018005cc5c     exported.obj
 0001:0005bc5c       $unwind$?process_string_specifier@?$input_processor@DV?$stream_input_adapter@D@__crt_stdio_input@@@__crt_stdio_input@@AEAA_NW4conversion_mode@2@@Z 000000018005cc5c     libucrt:input.obj
 0001:0005bc5c       $unwind$f_setvbuf          000000018005cc5c     uliolib51.obj
 0001:0005bc5c       $unwind$PutVersionInfoToTable 000000018005cc5c     service.obj
 0001:0005bc5c       $unwind$??$common_lseek_nolock@_J@@YA_JH_JH@Z 000000018005cc5c     libucrt:lseek.obj
 0001:0005bc5c       $unwind$io_pclose          000000018005cc5c     uliolib51.obj
 0001:0005bc5c       $unwind$io_fclose          000000018005cc5c     uliolib51.obj
 0001:0005bc5c       $unwind$io_flush           000000018005cc5c     uliolib51.obj
 0001:0005bc5c       $unwind$f_mod              000000018005cc5c     bit64.obj
 0001:0005bc5c       $unwind$?advance@?$format_string_parser@D@__crt_stdio_input@@QEAA_NXZ 000000018005cc5c     libucrt:input.obj
 0001:0005bc5c       $unwind$FillEditorSelect   000000018005cc5c     service.obj
 0001:0005bc5c       $unwind$__acrt_getptd      000000018005cc5c     libucrt:per_thread_data.obj
 0001:0005bc5c       $unwind$_exception_enabled 000000018005cc5c     libucrt:libm_error.obj
 0001:0005bc5c       $unwind$__acrt_getptd_noexit 000000018005cc5c     libucrt:per_thread_data.obj
 0001:0005bc5c       $unwind$ll_require         000000018005cc5c     uloadlib51.obj
 0001:0005bc5c       $unwind$uc_newindex        000000018005cc5c     lusercontrol.obj
 0001:0005bc5c       $unwind$loader_C           000000018005cc5c     uloadlib51.obj
 0001:0005bc5c       $unwind$?type_case_Z@?$output_processor@_WV?$string_output_adapter@_W@__crt_stdio_output@@V?$standard_base@_WV?$string_output_adapter@_W@__crt_stdio_output@@@2@@__crt_stdio_output@@AEAA_NXZ 000000018005cc5c     libucrt:output.obj
 0001:0005bc5c       $unwind$??$skip_whitespace@Vstream_input_adapter@__crt_stdio_input@@D@__crt_stdio_input@@YAHAEAV?$stream_input_adapter@D@0@QEAU__crt_locale_pointers@@@Z 000000018005cc5c     libucrt:input.obj
 0001:0005bc5c       $unwind$luaopen_uio        000000018005cc5c     uliolib51.obj
 0001:0005bc5c       $unwind$f_flush            000000018005cc5c     uliolib51.obj
 0001:0005bc5c       $unwind$LF_ProcessPanelInput 000000018005cc5c     exported.obj
 0001:0005bc6c       $unwind$LF_MakeDirectory   000000018005cc6c     exported.obj
 0001:0005bc6c       $unwind$_AddStringToCollector 000000018005cc6c     exported.obj
 0001:0005bc6c       $unwind$LF_Compare         000000018005cc6c     exported.obj
 0001:0005bc6c       $unwind$LF_GetFindData     000000018005cc6c     exported.obj
 0001:0005bc6c       $unwind$LF_GetFiles        000000018005cc6c     exported.obj
 0001:0005bc78       $chain$0$LF_Compare        000000018005cc78     exported.obj
 0001:0005bc8c       $chain$2$LF_Compare        000000018005cc8c     exported.obj
 0001:0005bca0       $chain$3$LF_Compare        000000018005cca0     exported.obj
 0001:0005bcb0       $unwind$LF_DeleteFiles     000000018005ccb0     exported.obj
 0001:0005bcc0       $chain$0$LF_DeleteFiles    000000018005ccc0     exported.obj
 0001:0005bcd4       $chain$2$LF_DeleteFiles    000000018005ccd4     exported.obj
 0001:0005bce8       $chain$3$LF_DeleteFiles    000000018005cce8     exported.obj
 0001:0005bcf8       $chain$0$LF_GetFiles       000000018005ccf8     exported.obj
 0001:0005bd0c       $chain$2$LF_GetFiles       000000018005cd0c     exported.obj
 0001:0005bd20       $chain$3$LF_GetFiles       000000018005cd20     exported.obj
 0001:0005bd30       $chain$0$LF_GetFindData    000000018005cd30     exported.obj
 0001:0005bd44       $chain$1$LF_GetFindData    000000018005cd44     exported.obj
 0001:0005bd54       $unwind$LF_GetGlobalInfo   000000018005cd54     exported.obj
 0001:0005bd68       $chain$2$LF_GetGlobalInfo  000000018005cd68     exported.obj
 0001:0005bd80       $chain$3$LF_GetGlobalInfo  000000018005cd80     exported.obj
 0001:0005bd94       $chain$4$LF_GetGlobalInfo  000000018005cd94     exported.obj
 0001:0005bda4       $unwind$LF_GetOpenPanelInfo 000000018005cda4     exported.obj
 0001:0005bdb0       $chain$1$LF_GetOpenPanelInfo 000000018005cdb0     exported.obj
 0001:0005bdc8       $chain$3$LF_GetOpenPanelInfo 000000018005cdc8     exported.obj
 0001:0005bde0       $chain$5$LF_GetOpenPanelInfo 000000018005cde0     exported.obj
 0001:0005bdf8       $chain$7$LF_GetOpenPanelInfo 000000018005cdf8     exported.obj
 0001:0005be10       $chain$8$LF_GetOpenPanelInfo 000000018005ce10     exported.obj
 0001:0005be20       $chain$9$LF_GetOpenPanelInfo 000000018005ce20     exported.obj
 0001:0005be30       $chain$10$LF_GetOpenPanelInfo 000000018005ce30     exported.obj
 0001:0005be40       $unwind$LF_GetPluginInfo   000000018005ce40     exported.obj
 0001:0005be4c       $chain$1$LF_GetPluginInfo  000000018005ce4c     exported.obj
 0001:0005be64       $chain$2$LF_GetPluginInfo  000000018005ce64     exported.obj
 0001:0005be74       $chain$0$LF_MakeDirectory  000000018005ce74     exported.obj
 0001:0005be88       $chain$2$LF_MakeDirectory  000000018005ce88     exported.obj
 0001:0005be9c       $chain$3$LF_MakeDirectory  000000018005ce9c     exported.obj
 0001:0005beac       $unwind$win_CreateDir      000000018005ceac     win.obj
 0001:0005beac       $unwind$win_MoveFile       000000018005ceac     win.obj
 0001:0005beac       $unwind$PushDNParams       000000018005ceac     service.obj
 0001:0005beac       $unwind$FrsUserFunc        000000018005ceac     service.obj
 0001:0005beac       $unwind$timer_newindex     000000018005ceac     service.obj
 0001:0005beac       $unwind$LF_Open            000000018005ceac     exported.obj
 0001:0005beac       $unwind$start_capture      000000018005ceac     slnunico.obj
 0001:0005beac       $unwind$LF_DoFile          000000018005ceac     service.obj
 0001:0005beac       $unwind$LF_ProcessDialogEvent 000000018005ceac     exported.obj
 0001:0005beac       $unwind$AddBufToCollector  000000018005ceac     exported.obj
 0001:0005beac       $unwind$ll_loadfunc        000000018005ceac     uloadlib51.obj
 0001:0005bec4       $chain$0$LF_ProcessEditorEvent 000000018005cec4     exported.obj
 0001:0005bed8       $chain$1$LF_ProcessEditorEvent 000000018005ced8     exported.obj
 0001:0005bee8       $chain$0$LF_ProcessConsoleInput 000000018005cee8     exported.obj
 0001:0005befc       $chain$1$LF_ProcessConsoleInput 000000018005cefc     exported.obj
 0001:0005bf0c       $unwind$LF_ProcessSynchroEvent 000000018005cf0c     exported.obj
 0001:0005bf0c       $unwind$capture_previous_context 000000018005cf0c     LIBCMT:gs_report.obj
 0001:0005bf18       $chain$1$LF_ProcessSynchroEvent 000000018005cf18     exported.obj
 0001:0005bf30       $chain$2$LF_ProcessSynchroEvent 000000018005cf30     exported.obj
 0001:0005bf44       $chain$3$LF_ProcessSynchroEvent 000000018005cf44     exported.obj
 0001:0005bf54       $chain$5$LF_ProcessSynchroEvent 000000018005cf54     exported.obj
 0001:0005bf68       $chain$6$LF_ProcessSynchroEvent 000000018005cf68     exported.obj
 0001:0005bf78       $unwind$LF_GetContentData  000000018005cf78     exported.obj
 0001:0005bf78       $unwind$LF_GetContentFields 000000018005cf78     exported.obj
 0001:0005bf78       $unwind$?parse_int_from_format_string@?$output_processor@_WV?$string_output_adapter@_W@__crt_stdio_output@@V?$standard_base@_WV?$string_output_adapter@_W@__crt_stdio_output@@@2@@__crt_stdio_output@@AEAA_NQEAH@Z 000000018005cf78     libucrt:output.obj
 0001:0005bf78       $unwind$PutPluginMenuItemToTable 000000018005cf78     service.obj
 0001:0005bf8c       $chain$0$LF_GetContentFields 000000018005cf8c     exported.obj
 0001:0005bfa0       $chain$1$LF_GetContentFields 000000018005cfa0     exported.obj
 0001:0005bfb0       $chain$0$LF_GetContentData 000000018005cfb0     exported.obj
 0001:0005bfc4       $chain$1$LF_GetContentData 000000018005cfc4     exported.obj
 0001:0005bfd4       $chain$0$_AddStringToCollector 000000018005cfd4     exported.obj
 0001:0005bfe8       $chain$1$_AddStringToCollector 000000018005cfe8     exported.obj
 0001:0005bff8       $unwind$CreateStringsArray 000000018005cff8     exported.obj
 0001:0005bff8       $unwind$max_expand         000000018005cff8     slnunico.obj
 0001:0005c00c       $chain$1$CreateStringsArray 000000018005d00c     exported.obj
 0001:0005c024       $chain$2$CreateStringsArray 000000018005d024     exported.obj
 0001:0005c034       $unwind$far_GetPlugins     000000018005d034     service.obj
 0001:0005c034       $unwind$FillPluginPanelItem 000000018005d034     exported.obj
 0001:0005c040       $chain$1$FillPluginPanelItem 000000018005d040     exported.obj
 0001:0005c058       $chain$2$FillPluginPanelItem 000000018005d058     exported.obj
 0001:0005c06c       $chain$3$FillPluginPanelItem 000000018005d06c     exported.obj
 0001:0005c07c       $chain$4$FillPluginPanelItem 000000018005d07c     exported.obj
 0001:0005c08c       $unwind$FillFindData       000000018005d08c     exported.obj
 0001:0005c09c       $chain$2$FillFindData      000000018005d09c     exported.obj
 0001:0005c0b8       $chain$3$FillFindData      000000018005d0b8     exported.obj
 0001:0005c0c8       $unwind$UpdateFileSelection 000000018005d0c8     exported.obj
 0001:0005c0d8       $chain$0$UpdateFileSelection 000000018005d0d8     exported.obj
 0001:0005c0ec       $chain$1$UpdateFileSelection 000000018005d0ec     exported.obj
 0001:0005c0fc       $unwind$RunDefaultScript   000000018005d0fc     exported.obj
 0001:0005c114       $chain$0$RunDefaultScript  000000018005d114     exported.obj
 0001:0005c128       $chain$1$RunDefaultScript  000000018005d128     exported.obj
 0001:0005c138       $unwind$FillFarMacroCall_Callback 000000018005d138     exported.obj
 0001:0005c144       $chain$0$FillFarMacroCall_Callback 000000018005d144     exported.obj
 0001:0005c158       $chain$1$FillFarMacroCall_Callback 000000018005d158     exported.obj
 0001:0005c168       $unwind$FillFarMacroCall   000000018005d168     exported.obj
 0001:0005c178       $chain$3$FillFarMacroCall  000000018005d178     exported.obj
 0001:0005c198       $chain$4$FillFarMacroCall  000000018005d198     exported.obj
 0001:0005c1a8       $unwind$getPluginMenuItems 000000018005d1a8     exported.obj
 0001:0005c1c0       $unwind$LF_Gsub            000000018005d1c0     lflua.obj
 0001:0005c1e0       $unwind$LF_LoadFile        000000018005d1e0     lflua.obj
 0001:0005c1f4       $chain$1$LF_LoadFile       000000018005d1f4     lflua.obj
 0001:0005c20c       $chain$4$LF_LoadFile       000000018005d20c     lflua.obj
 0001:0005c20c       $chain$2$LF_LoadFile       000000018005d20c     lflua.obj
 0001:0005c21c       $chain$3$LF_LoadFile       000000018005d21c     lflua.obj
 0001:0005c234       $unwind$getF               000000018005d234     lflua.obj
 0001:0005c244       $unwind$_invalid_parameter 000000018005d244     libucrt:invalid_parameter.obj
 0001:0005c244       $unwind$_wcsdup            000000018005d244     libucrt:wcsdup.obj
 0001:0005c244       $unwind$luaLF_SlotError    000000018005d244     util.obj
 0001:0005c244       $unwind$luaLF_FieldError   000000018005d244     util.obj
 0001:0005c244       $unwind$??$common_lseek_nolock@J@@YAJHJH@Z 000000018005d244     libucrt:lseek.obj
 0001:0005c244       $unwind$errfile            000000018005d244     lflua.obj
 0001:0005c258       $unwind$check_regex_pattern 000000018005d258     lregex.obj
 0001:0005c268       $chain$1$check_regex_pattern 000000018005d268     lregex.obj
 0001:0005c280       $chain$2$check_regex_pattern 000000018005d280     lregex.obj
 0001:0005c290       $unwind$_regex_gmatch_closure 000000018005d290     lregex.obj
 0001:0005c2a0       $chain$1$_regex_gmatch_closure 000000018005d2a0     lregex.obj
 0001:0005c2b8       $chain$2$_regex_gmatch_closure 000000018005d2b8     lregex.obj
 0001:0005c2cc       $chain$3$_regex_gmatch_closure 000000018005d2cc     lregex.obj
 0001:0005c2dc       $unwind$_Gmatch            000000018005d2dc     lregex.obj
 0001:0005c2dc       $unwind$match              000000018005d2dc     slnunico.obj
 0001:0005c2f4       $unwind$rx_find_match      000000018005d2f4     lregex.obj
 0001:0005c310       $unwind$rx_gsub            000000018005d310     lregex.obj
 0001:0005c32c       $unwind$FL_PushParams      000000018005d32c     luamacro.obj
 0001:0005c338       $chain$0$FL_PushParams     000000018005d338     luamacro.obj
 0001:0005c34c       $chain$1$FL_PushParams     000000018005d34c     luamacro.obj
 0001:0005c360       $chain$2$FL_PushParams     000000018005d360     luamacro.obj
 0001:0005c374       $chain$3$FL_PushParams     000000018005d374     luamacro.obj
 0001:0005c384       $chain$4$FL_PushParams     000000018005d384     luamacro.obj
 0001:0005c394       $chain$5$FL_PushParams     000000018005d394     luamacro.obj
 0001:0005c3a4       $unwind$Open_Luamacro      000000018005d3a4     luamacro.obj
 0001:0005c3b8       $chain$0$Open_Luamacro     000000018005d3b8     luamacro.obj
 0001:0005c3cc       $chain$1$Open_Luamacro     000000018005d3cc     luamacro.obj
 0001:0005c3dc       $unwind$far_MacroCallFar   000000018005d3dc     luamacro.obj
 0001:0005c3ec       $chain$1$far_MacroCallFar  000000018005d3ec     luamacro.obj
 0001:0005c404       $chain$3$far_MacroCallFar  000000018005d404     luamacro.obj
 0001:0005c41c       $chain$4$far_MacroCallFar  000000018005d41c     luamacro.obj
 0001:0005c42c       $chain$5$far_MacroCallFar  000000018005d42c     luamacro.obj
 0001:0005c43c       $chain$0$far_FarMacroCallToLua 000000018005d43c     luamacro.obj
 0001:0005c450       $chain$1$far_FarMacroCallToLua 000000018005d450     luamacro.obj
 0001:0005c460       $unwind$uc_index           000000018005d460     lusercontrol.obj
 0001:0005c470       $unwind$CreateRegKey       000000018005d470     reg.obj
 0001:0005c470       $unwind$viewer_SetPosition 000000018005d470     service.obj
 0001:0005c478       $unwind$check_utf8_string  000000018005d478     ustring.obj
 0001:0005c478       $unwind$strtol             000000018005d478     libucrt:strtox.obj
 0001:0005c478       $unwind$utf8_to_utf16      000000018005d478     ustring.obj
 0001:0005c478       $unwind$?as_float@floating_point_value@__crt_strtox@@QEBAAEAMXZ 000000018005d478     libucrt:input.obj
 0001:0005c478       $unwind$wctomb_s           000000018005d478     libucrt:wctomb.obj
 0001:0005c478       $unwind$wcstol             000000018005d478     libucrt:strtox.obj
 0001:0005c478       $unwind$_wdupenv_s         000000018005d478     libucrt:getenv.obj
 0001:0005c478       $unwind$_wfreopen          000000018005d478     libucrt:freopen.obj
 0001:0005c478       $unwind$?as_double@floating_point_value@__crt_strtox@@QEBAAEANXZ 000000018005d478     libucrt:input.obj
 0001:0005c478       $unwind$_invalid_parameter_noinfo 000000018005d478     libucrt:invalid_parameter.obj
 0001:0005c478       $unwind$_log10_special     000000018005d478     libucrt:log_special.obj
 0001:0005c478       $unwind$fread              000000018005d478     libucrt:fread.obj
 0001:0005c478       $unwind$strtoull           000000018005d478     libucrt:strtox.obj
 0001:0005c478       $unwind$OpenRegKey         000000018005d478     reg.obj
 0001:0005c478       $unwind$_sopen_s           000000018005d478     libucrt:open.obj
 0001:0005c478       $unwind$??$parse_floating_point_write_result@M@__crt_strtox@@YA?AW4SLD_STATUS@@W4floating_point_parse_result@0@AEBUfloating_point_string@0@QEAM@Z 000000018005d478     libucrt:input.obj
 0001:0005c478       $unwind$_ui64toa_s         000000018005d478     libucrt:xtoa.obj
 0001:0005c478       $unwind$push_utf8_string   000000018005d478     ustring.obj
 0001:0005c478       $unwind$_wsopen_s          000000018005d478     libucrt:open.obj
 0001:0005c478       $unwind$??$parse_floating_point_write_result@N@__crt_strtox@@YA?AW4SLD_STATUS@@W4floating_point_parse_result@0@AEBUfloating_point_string@0@QEAN@Z 000000018005d478     libucrt:input.obj
 0001:0005c478       $unwind$fflush             000000018005d478     libucrt:fflush.obj
 0001:0005c480       $unwind$SetRegKeyStr       000000018005d480     reg.obj
 0001:0005c490       $chain$0$SetRegKeyStr      000000018005d490     reg.obj
 0001:0005c4a4       $chain$1$SetRegKeyStr      000000018005d4a4     reg.obj
 0001:0005c4b4       $unwind$SetRegKeyDword     000000018005d4b4     reg.obj
 0001:0005c4c0       $chain$0$SetRegKeyDword    000000018005d4c0     reg.obj
 0001:0005c4d4       $chain$1$SetRegKeyDword    000000018005d4d4     reg.obj
 0001:0005c4e4       $unwind$SetRegKeyArr       000000018005d4e4     reg.obj
 0001:0005c4f4       $chain$0$SetRegKeyArr      000000018005d4f4     reg.obj
 0001:0005c508       $chain$1$SetRegKeyArr      000000018005d508     reg.obj
 0001:0005c518       $unwind$GetPluginData      000000018005d518     service.obj
 0001:0005c518       $unwind$__dcrt_uninitialize_environments_nolock 000000018005d518     libucrt:environment_initialization.obj
 0001:0005c518       $unwind$_wcsicmp           000000018005d518     libucrt:wcsicmp.obj
 0001:0005c518       $unwind$__acrt_update_thread_multibyte_data 000000018005d518     libucrt:mbctype.obj
 0001:0005c518       $unwind$__acrt_initialize_multibyte 000000018005d518     libucrt:mbctype.obj
 0001:0005c518       $unwind$__vcrt_freefls     000000018005d518     libvcruntime:per_thread_data.obj
 0001:0005c518       $unwind$tmpfile            000000018005d518     libucrt:tmpfile.obj
 0001:0005c518       $unwind$initialize_c       000000018005d518     libucrt:initialization.obj
 0001:0005c518       $unwind$__acrt_initialize_command_line 000000018005d518     libucrt:argv_data.obj
 0001:0005c518       $unwind$far_DialogFree     000000018005d518     service.obj
 0001:0005c518       $unwind$__dcrt_get_or_create_wide_environment_nolock 000000018005d518     libucrt:environment_initialization.obj
 0001:0005c518       $unwind$__report_rangecheckfailure 000000018005d518     LIBCMT:gs_report.obj
 0001:0005c518       $unwind$__acrt_initialize_heap 000000018005d518     libucrt:heap_handle.obj
 0001:0005c518       $unwind$__GSHandlerCheck   000000018005d518     LIBCMT:gshandler.obj
 0001:0005c518       $unwind$_statfp            000000018005d518     libucrt:fpctrl.obj
 0001:0005c518       $unwind$_invoke_watson     000000018005d518     libucrt:invalid_parameter.obj
 0001:0005c518       $unwind$far_SubscribeDialogDrawEvents 000000018005d518     service.obj
 0001:0005c518       $unwind$__scrt_dllmain_before_initialize_c 000000018005d518     LIBCMT:utility.obj
 0001:0005c518       $unwind$__vcrt_uninitialize_ptd 000000018005d518     libvcruntime:per_thread_data.obj
 0001:0005c518       $unwind$_set_errno_from_matherr 000000018005d518     libucrt:fpexcept.obj
 0001:0005c518       $unwind$__scrt_dllmain_after_initialize_c 000000018005d518     LIBCMT:utility.obj
 0001:0005c518       $unwind$__vcrt_initialize_ptd 000000018005d518     libvcruntime:per_thread_data.obj
 0001:0005c518       $unwind$?__c32rtomb_utf8@__crt_mbstring@@YA_KPEAD_UPEAU_Mbstatet@@@Z 000000018005d518     libucrt:c32rtomb.obj
 0001:0005c518       $unwind$abort              000000018005d518     libucrt:abort.obj
 0001:0005c518       $unwind$__acrt_release_locale_ref 000000018005d518     libucrt:locale_refcounting.obj
 0001:0005c518       $unwind$_fgetc_nolock      000000018005d518     libucrt:fgetc.obj
 0001:0005c518       $unwind$__dcrt_terminate_console_output 000000018005d518     libucrt:initcon.obj
 0001:0005c518       $unwind$__scrt_dllmain_uninitialize_c 000000018005d518     LIBCMT:utility.obj
 0001:0005c518       $unwind$__vcrt_thread_detach 000000018005d518     libvcruntime:initialization.obj
 0001:0005c518       $unwind$__vcrt_thread_attach 000000018005d518     libvcruntime:initialization.obj
 0001:0005c518       $unwind$_isatty            000000018005d518     libucrt:isatty.obj
 0001:0005c518       $unwind$__scrt_dllmain_uninitialize_critical 000000018005d518     LIBCMT:utility.obj
 0001:0005c518       $unwind$DllMain            000000018005d518     service.obj
 0001:0005c518       $unwind$ferror             000000018005d518     libucrt:feoferr.obj
 0001:0005c518       $unwind$feof               000000018005d518     libucrt:feoferr.obj
 0001:0005c518       $unwind$_get_osfhandle     000000018005d518     libucrt:osfinfo.obj
 0001:0005c518       $unwind$__scrt_dllmain_crt_thread_attach 000000018005d518     LIBCMT:utility.obj
 0001:0005c518       $unwind$_wcsnicmp          000000018005d518     libucrt:wcsnicmp.obj
 0001:0005c518       $unwind$tolower            000000018005d518     libucrt:tolower_toupper.obj
 0001:0005c518       $unwind$__scrt_acquire_startup_lock 000000018005d518     LIBCMT:utility.obj
 0001:0005c518       $unwind$__acrt_uninitialize 000000018005d518     libucrt:initialization.obj
 0001:0005c518       $unwind$__acrt_DownlevelLocaleNameToLCID 000000018005d518     libucrt:lcidtoname_downlevel.obj
 0001:0005c518       $unwind$_msize_base        000000018005d518     libucrt:msize.obj
 0001:0005c518       $unwind$uninitialize_environment 000000018005d518     libucrt:initialization.obj
 0001:0005c518       $unwind$_get_fmode         000000018005d518     libucrt:setmode.obj
 0001:0005c518       $unwind$__scrt_dllmain_crt_thread_detach 000000018005d518     LIBCMT:utility.obj
 0001:0005c518       $unwind$__pctype_func      000000018005d518     libucrt:ctype.obj
 0001:0005c518       $unwind$__acrt_uninitialize_critical 000000018005d518     libucrt:initialization.obj
 0001:0005c518       $unwind$?state_case_size@?$output_processor@DV?$stream_output_adapter@D@__crt_stdio_output@@V?$standard_base@DV?$stream_output_adapter@D@__crt_stdio_output@@@2@@__crt_stdio_output@@AEAA_NXZ 000000018005d518     libucrt:output.obj
 0001:0005c518       $unwind$?initialize_multibyte@@YAHXZ 000000018005d518     libucrt:multibyte_initializer.obj
 0001:0005c518       $unwind$__scrt_initialize_default_local_stdio_options 000000018005d518     LIBCMT:default_local_stdio_options.obj
 0001:0005c518       $unwind$??$uninitialize_environment_internal@_W@@YAXAEAPEAPEA_W@Z 000000018005d518     libucrt:environment_initialization.obj
 0001:0005c518       $unwind$?dllmain_crt_dispatch@@YAHQEAUHINSTANCE__@@KQEAX@Z 000000018005d518     LIBCMT:dll_dllmain.obj
 0001:0005c518       $unwind$dir_exist          000000018005d518     service.obj
 0001:0005c518       $unwind$__vcrt_uninitialize_critical 000000018005d518     libvcruntime:initialization.obj
 0001:0005c518       $unwind$ustring_Sleep      000000018005d518     ustring.obj
 0001:0005c518       $unwind$?state_case_size@?$output_processor@_WV?$string_output_adapter@_W@__crt_stdio_output@@V?$standard_base@_WV?$string_output_adapter@_W@__crt_stdio_output@@@2@@__crt_stdio_output@@AEAA_NXZ 000000018005d518     libucrt:output.obj
 0001:0005c518       $unwind$?state_case_normal_tchar@?$output_processor@DV?$string_output_adapter@D@__crt_stdio_output@@V?$standard_base@DV?$string_output_adapter@D@__crt_stdio_output@@@2@@__crt_stdio_output@@AEAA_ND@Z 000000018005d518     libucrt:output.obj
 0001:0005c518       $unwind$win_IsProcess64bit 000000018005d518     win.obj
 0001:0005c518       $unwind$_fileno            000000018005d518     libucrt:fileno.obj
 0001:0005c518       $unwind$__vcrt_initialize  000000018005d518     libvcruntime:initialization.obj
 0001:0005c518       $unwind$_wcsnicoll         000000018005d518     libucrt:wcsnicol.obj
 0001:0005c518       $unwind$?state_case_size@?$output_processor@DV?$string_output_adapter@D@__crt_stdio_output@@V?$standard_base@DV?$string_output_adapter@D@__crt_stdio_output@@@2@@__crt_stdio_output@@AEAA_NXZ 000000018005d518     libucrt:output.obj
 0001:0005c518       $unwind$__acrt_AreFileApisANSI 000000018005d518     libucrt:winapi_thunks.obj
 0001:0005c518       $unwind$fegetround         000000018005d518     libucrt:fegetround.obj
 0001:0005c518       $unwind$win_GetVirtualKeys 000000018005d518     win.obj
 0001:0005c518       $unwind$__acrt_uninitialize_ptd 000000018005d518     libucrt:per_thread_data.obj
 0001:0005c518       $unwind$__vcrt_uninitialize 000000018005d518     libvcruntime:initialization.obj
 0001:0005c518       $unwind$__doserrno         000000018005d518     libucrt:errno.obj
 0001:0005c518       $unwind$__acrt_uninitialize_tmpfile 000000018005d518     libucrt:rmtmp.obj
 0001:0005c518       $unwind$_errno             000000018005d518     libucrt:errno.obj
 0001:0005c518       $unwind$??$uninitialize_environment_internal@D@@YAXAEAPEAPEAD@Z 000000018005d518     libucrt:environment_initialization.obj
 0001:0005c518       $unwind$__acrt_initialize_ptd 000000018005d518     libucrt:per_thread_data.obj
 0001:0005c518       $unwind$?validate_stream_is_ansi_if_required@?$__acrt_stdio_char_traits@D@@SA_NQEAU_iobuf@@@Z 000000018005d518     libucrt:output.obj
 0001:0005c518       $unwind$__acrt_thread_attach 000000018005d518     libucrt:initialization.obj
 0001:0005c518       $unwind$writer             000000018005d518     slnunico.obj
 0001:0005c518       $unwind$__acrt_thread_detach 000000018005d518     libucrt:initialization.obj
 0001:0005c518       $unwind$uninitialize_allocated_io_buffers 000000018005d518     libucrt:initialization.obj
 0001:0005c520       $unwind$LF_DlgProc         000000018005d520     service.obj
 0001:0005c530       $chain$1$LF_DlgProc        000000018005d530     service.obj
 0001:0005c548       $chain$2$LF_DlgProc        000000018005d548     service.obj
 0001:0005c558       $unwind$LF_Message         000000018005d558     service.obj
 0001:0005c574       $unwind$LF_RunLuafarInit   000000018005d574     service.obj
 0001:0005c580       $unwind$PushPanelItem      000000018005d580     service.obj
 0001:0005c58c       $chain$0$PushPanelItem     000000018005d58c     service.obj
 0001:0005c5a0       $chain$1$PushPanelItem     000000018005d5a0     service.obj
 0001:0005c5b0       $chain$3$PushPanelItem     000000018005d5b0     service.obj
 0001:0005c5c8       $chain$4$PushPanelItem     000000018005d5c8     service.obj
 0001:0005c5d8       $unwind$PushPanelItems     000000018005d5d8     service.obj
 0001:0005c5e8       $chain$3$PushPanelItems    000000018005d5e8     service.obj
 0001:0005c608       $chain$4$PushPanelItems    000000018005d608     service.obj
 0001:0005c618       $unwind$far_MkLink         000000018005d618     service.obj
 0001:0005c618       $unwind$viewer_GetFileName 000000018005d618     service.obj
 0001:0005c618       $unwind$far_GetPathRoot    000000018005d618     service.obj
 0001:0005c618       $unwind$panel_GetCmdLine   000000018005d618     service.obj
 0001:0005c618       $unwind$far_GetPluginInformation 000000018005d618     service.obj
 0001:0005c618       $unwind$editor_GetTitle    000000018005d618     service.obj
 0001:0005c618       $unwind$editor_GetFileName 000000018005d618     service.obj
 0001:0005c618       $unwind$NewDialogData      000000018005d618     service.obj
 0001:0005c618       $unwind$far_ShowHelp       000000018005d618     service.obj
 0001:0005c618       $unwind$luaopen_far        000000018005d618     service.obj
 0001:0005c62c       $chain$0$GetFarColor       000000018005d62c     service.obj
 0001:0005c640       $chain$1$GetFarColor       000000018005d640     service.obj
 0001:0005c650       $chain$0$DllMain           000000018005d650     service.obj
 0001:0005c664       $chain$1$DllMain           000000018005d664     service.obj
 0001:0005c674       $unwind$GetFlagCombination 000000018005d674     service.obj
 0001:0005c68c       $unwind$ConvertLuaValue    000000018005d68c     service.obj
 0001:0005c68c       $unwind$plugin_load        000000018005d68c     service.obj
 0001:0005c6a0       $unwind$far_GetFileOwner   000000018005d6a0     service.obj
 0001:0005c6b4       $unwind$panel_SetCmdLinePos 000000018005d6b4     service.obj
 0001:0005c6b4       $unwind$AddMacroData_gc    000000018005d6b4     service.obj
 0001:0005c6b4       $unwind$far_LStricmp       000000018005d6b4     service.obj
 0001:0005c6b4       $unwind$panel_GetUserScreen 000000018005d6b4     service.obj
 0001:0005c6b4       $unwind$far_MacroDelete    000000018005d6b4     service.obj
 0001:0005c6b4       $unwind$gmatch             000000018005d6b4     slnunico.obj
 0001:0005c6b4       $unwind$panel_SetUserScreen 000000018005d6b4     service.obj
 0001:0005c6b4       $unwind$utf8_valid         000000018005d6b4     slnunico.obj
 0001:0005c6b4       $unwind$panel_SetCmdLine   000000018005d6b4     service.obj
 0001:0005c6b4       $unwind$editor_InsertText  000000018005d6b4     service.obj
 0001:0005c6b4       $unwind$panel_InsertCmdLine 000000018005d6b4     service.obj
 0001:0005c6b4       $unwind$panel_ClosePanel   000000018005d6b4     service.obj
 0001:0005c6b4       $unwind$ustring_sub        000000018005d6b4     ustring.obj
 0001:0005c6b4       $unwind$panel_SetActivePanel 000000018005d6b4     service.obj
 0001:0005c6b4       $unwind$far_PluginStartupInfo 000000018005d6b4     service.obj
 0001:0005c6b4       $unwind$editor_SetTitle    000000018005d6b4     service.obj
 0001:0005c6b4       $unwind$far_MkTemp         000000018005d6b4     service.obj
 0001:0005c6b4       $unwind$editor_DeleteSessionBookmark 000000018005d6b4     service.obj
 0001:0005c6c4       $unwind$far_GetCurrentDirectory 000000018005d6c4     service.obj
 0001:0005c6c4       $unwind$far_LStrnicmp      000000018005d6c4     service.obj
 0001:0005c6c4       $unwind$far_CreateFileFilter 000000018005d6c4     service.obj
 0001:0005c6d8       $unwind$editor_GetInfo     000000018005d6d8     service.obj
 0001:0005c6e8       $chain$2$editor_GetInfo    000000018005d6e8     service.obj
 0001:0005c704       $chain$3$editor_GetInfo    000000018005d704     service.obj
 0001:0005c718       $chain$4$editor_GetInfo    000000018005d718     service.obj
 0001:0005c728       $chain$5$editor_GetInfo    000000018005d728     service.obj
 0001:0005c73c       $unwind$_EditorGetString   000000018005d73c     service.obj
 0001:0005c758       $unwind$_EditorSetString   000000018005d758     service.obj
 0001:0005c768       $unwind$editor_InsertString 000000018005d768     service.obj
 0001:0005c768       $unwind$far_LLowerBuf      000000018005d768     service.obj
 0001:0005c768       $unwind$editor_ExpandTabs  000000018005d768     service.obj
 0001:0005c768       $unwind$far_LUpperBuf      000000018005d768     service.obj
 0001:0005c768       $unwind$far_FindPlugin     000000018005d768     service.obj
 0001:0005c778       $unwind$_EditorInsertText  000000018005d778     service.obj
 0001:0005c788       $unwind$FillKeyBarTitles   000000018005d788     service.obj
 0001:0005c79c       $chain$1$FillKeyBarTitles  000000018005d79c     service.obj
 0001:0005c7b4       $chain$2$FillKeyBarTitles  000000018005d7b4     service.obj
 0001:0005c7c4       $unwind$SetKeyBar          000000018005d7c4     service.obj
 0001:0005c7dc       $unwind$editor_SetParam    000000018005d7dc     service.obj
 0001:0005c7f4       $unwind$editor_SetPosition 000000018005d7f4     service.obj
 0001:0005c804       $unwind$PushBookmarks      000000018005d804     service.obj
 0001:0005c818       $chain$0$PushBookmarks     000000018005d818     service.obj
 0001:0005c82c       $chain$1$PushBookmarks     000000018005d82c     service.obj
 0001:0005c83c       $unwind$editor_Select      000000018005d83c     service.obj
 0001:0005c84c       $unwind$editor_GetSelection 000000018005d84c     service.obj
 0001:0005c868       $unwind$_EditorTabConvert  000000018005d868     service.obj
 0001:0005c87c       $unwind$editor_AddColor    000000018005d87c     service.obj
 0001:0005c890       $unwind$editor_DelColor    000000018005d890     service.obj
 0001:0005c8a4       $unwind$editor_GetColor    000000018005d8a4     service.obj
 0001:0005c8b4       $unwind$panel_SetCmdLineSelection 000000018005d8b4     service.obj
 0001:0005c8b4       $unwind$viewer_Select      000000018005d8b4     service.obj
 0001:0005c8b4       $unwind$editor_SaveFile    000000018005d8b4     service.obj
 0001:0005c8b4       $unwind$viewer_SetMode     000000018005d8b4     service.obj
 0001:0005c8c4       $unwind$panel_GetCmdLineSelection 000000018005d8c4     service.obj
 0001:0005c8c4       $unwind$win_ExtractKeyEx   000000018005d8c4     win.obj
 0001:0005c8c4       $unwind$isdigit            000000018005d8c4     libucrt:_ctype.obj
 0001:0005c8c4       $unwind$Settings_opensubkey 000000018005d8c4     service.obj
 0001:0005c8c4       $unwind$_mbsdec_l          000000018005d8c4     libucrt:mbsdec.obj
 0001:0005c8c4       $unwind$isspace            000000018005d8c4     libucrt:_ctype.obj
 0001:0005c8c4       $unwind$Settings_delete    000000018005d8c4     service.obj
 0001:0005c8c4       $unwind$editor_SubscribeChangeEvent 000000018005d8c4     service.obj
 0001:0005c8c4       $unwind$_strupr_s_l        000000018005d8c4     libucrt:strupr.obj
 0001:0005c8c4       $unwind$far_NameToInputRecord 000000018005d8c4     service.obj
 0001:0005c8c4       $unwind$win_ExtractKey     000000018005d8c4     win.obj
 0001:0005c8c4       $unwind$LF_Error           000000018005d8c4     service.obj
 0001:0005c8c4       $unwind$editor_ReadInput   000000018005d8c4     service.obj
 0001:0005c8c4       $unwind$editor_ProcessInput 000000018005d8c4     service.obj
 0001:0005c8d0       $unwind$far_Menu           000000018005d8d0     service.obj
 0001:0005c8e8       $chain$0$far_Menu          000000018005d8e8     service.obj
 0001:0005c8fc       $chain$1$far_Menu          000000018005d8fc     service.obj
 0001:0005c90c       $unwind$far_Message        000000018005d90c     service.obj
 0001:0005c928       $unwind$panel_GetPanelInfo 000000018005d928     service.obj
 0001:0005c938       $chain$0$panel_GetPanelInfo 000000018005d938     service.obj
 0001:0005c94c       $chain$1$panel_GetPanelInfo 000000018005d94c     service.obj
 0001:0005c95c       $unwind$get_panel_item     000000018005d95c     service.obj
 0001:0005c970       $unwind$get_string_info    000000018005d970     service.obj
 0001:0005c988       $unwind$panel_RedrawPanel  000000018005d988     service.obj
 0001:0005c99c       $unwind$truncstring        000000018005d99c     service.obj
 0001:0005c99c       $unwind$g_write            000000018005d99c     uliolib51.obj
 0001:0005c99c       $unwind$SetPanelBooleanProperty 000000018005d99c     service.obj
 0001:0005c99c       $unwind$SetPanelIntegerProperty 000000018005d99c     service.obj
 0001:0005c9b0       $unwind$panel_GetPanelDirectory 000000018005d9b0     service.obj
 0001:0005c9c4       $unwind$panel_SetPanelDirectory 000000018005d9c4     service.obj
 0001:0005c9d4       $unwind$ChangePanelSelection 000000018005d9d4     service.obj
 0001:0005c9e8       $chain$1$ChangePanelSelection 000000018005d9e8     service.obj
 0001:0005ca00       $chain$2$ChangePanelSelection 000000018005da00     service.obj
 0001:0005ca10       $unwind$far_GetDirList     000000018005da10     service.obj
 0001:0005ca1c       $chain$0$far_GetDirList    000000018005da1c     service.obj
 0001:0005ca30       $chain$6$far_GetDirList    000000018005da30     service.obj
 0001:0005ca58       $chain$7$far_GetDirList    000000018005da58     service.obj
 0001:0005ca68       $chain$8$far_GetDirList    000000018005da68     service.obj
 0001:0005ca78       $unwind$far_GetPluginDirList 000000018005da78     service.obj
 0001:0005ca84       $unwind$far_RestoreScreen  000000018005da84     service.obj
 0001:0005ca90       $unwind$far_SaveScreen     000000018005da90     service.obj
 0001:0005caa8       $unwind$CreateList         000000018005daa8     service.obj
 0001:0005cab8       $chain$2$CreateList        000000018005dab8     service.obj
 0001:0005cad4       $chain$3$CreateList        000000018005dad4     service.obj
 0001:0005cae4       $unwind$SetFarDialogItem   000000018005dae4     service.obj
 0001:0005cae4       $unwind$far_ConvertPath    000000018005dae4     service.obj
 0001:0005cafc       $unwind$PushDlgItem        000000018005dafc     service.obj
 0001:0005cb10       $chain$1$PushDlgItem       000000018005db10     service.obj
 0001:0005cb24       $chain$2$PushDlgItem       000000018005db24     service.obj
 0001:0005cb34       $unwind$PushDlgItemNum     000000018005db34     service.obj
 0001:0005cb4c       $unwind$SetDlgItem         000000018005db4c     service.obj
 0001:0005cb64       $unwind$far_SendDlgMessage 000000018005db64     service.obj
 0001:0005cb80       $unwind$ProcessDNResult    000000018005db80     service.obj
 0001:0005cb90       $chain$0$ProcessDNResult   000000018005db90     service.obj
 0001:0005cba4       $chain$1$ProcessDNResult   000000018005dba4     service.obj
 0001:0005cbb8       $chain$2$ProcessDNResult   000000018005dbb8     service.obj
 0001:0005cbc8       $chain$3$ProcessDNResult   000000018005dbc8     service.obj
 0001:0005cbd8       $unwind$far_DialogInit     000000018005dbd8     service.obj
 0001:0005cbf4       $unwind$far_GetDlgItem     000000018005dbf4     service.obj
 0001:0005cbf4       $unwind$far_SetDlgItem     000000018005dbf4     service.obj
 0001:0005cc08       $unwind$editor_Editor      000000018005dc08     service.obj
 0001:0005cc08       $unwind$far_InputBox       000000018005dc08     service.obj
 0001:0005cc20       $unwind$viewer_Viewer      000000018005dc20     service.obj
 0001:0005cc38       $unwind$viewer_GetInfo     000000018005dc38     service.obj
 0001:0005cc44       $chain$1$viewer_GetInfo    000000018005dc44     service.obj
 0001:0005cc5c       $chain$2$viewer_GetInfo    000000018005dc5c     service.obj
 0001:0005cc70       $chain$3$viewer_GetInfo    000000018005dc70     service.obj
 0001:0005cc80       $chain$4$viewer_GetInfo    000000018005dc80     service.obj
 0001:0005cc90       $chain$2$viewer_SetPosition 000000018005dc90     service.obj
 0001:0005ccac       $chain$3$viewer_SetPosition 000000018005dcac     service.obj
 0001:0005ccbc       $unwind$far_Text           000000018005dcbc     service.obj
 0001:0005ccd0       $chain$1$far_CopyToClipboard 000000018005dcd0     service.obj
 0001:0005cce8       $chain$2$far_CopyToClipboard 000000018005dce8     service.obj
 0001:0005ccf8       $unwind$far_PasteFromClipboard 000000018005dcf8     service.obj
 0001:0005cd0c       $unwind$far_InputRecordToName 000000018005dd0c     service.obj
 0001:0005cd0c       $unwind$pusherrorcode      000000018005dd0c     ustring.obj
 0001:0005cd1c       $unwind$far_ProcessName    000000018005dd1c     service.obj
 0001:0005cd34       $chain$2$far_ProcessName   000000018005dd34     service.obj
 0001:0005cd48       $chain$3$far_ProcessName   000000018005dd48     service.obj
 0001:0005cd5c       $chain$4$far_ProcessName   000000018005dd5c     service.obj
 0001:0005cd6c       $chain$7$far_ProcessName   000000018005dd6c     service.obj
 0001:0005cd6c       $chain$5$far_ProcessName   000000018005dd6c     service.obj
 0001:0005cd7c       $chain$6$far_ProcessName   000000018005dd7c     service.obj
 0001:0005cd90       $unwind$far_GetReparsePointInfo 000000018005dd90     service.obj
 0001:0005cda0       $chain$0$far_GetReparsePointInfo 000000018005dda0     service.obj
 0001:0005cdb4       $chain$1$far_GetReparsePointInfo 000000018005ddb4     service.obj
 0001:0005cdc4       $unwind$far_RecursiveSearch 000000018005ddc4     service.obj
 0001:0005cdc4       $unwind$?process_integer_specifier@?$input_processor@DV?$stream_input_adapter@D@__crt_stdio_input@@@__crt_stdio_input@@AEAA_NI_N@Z 000000018005ddc4     libucrt:input.obj
 0001:0005cdd8       $unwind$far_AdvControl     000000018005ddd8     service.obj
 0001:0005cdf8       $chain$0$far_AdvControl    000000018005ddf8     service.obj
 0001:0005ce0c       $chain$1$far_AdvControl    000000018005de0c     service.obj
 0001:0005ce1c       $unwind$far_MacroLoadAll   000000018005de1c     service.obj
 0001:0005ce1c       $unwind$capture_current_context 000000018005de1c     LIBCMT:gs_report.obj
 0001:0005ce28       $chain$0$far_MacroLoadAll  000000018005de28     service.obj
 0001:0005ce3c       $chain$1$far_MacroLoadAll  000000018005de3c     service.obj
 0001:0005ce4c       $unwind$MacroSendString    000000018005de4c     service.obj
 0001:0005ce60       $unwind$far_MacroGetLastError 000000018005de60     service.obj
 0001:0005ce70       $chain$0$far_MacroGetLastError 000000018005de70     service.obj
 0001:0005ce84       $chain$1$far_MacroGetLastError 000000018005de84     service.obj
 0001:0005ce94       $unwind$MacroAddCallback   000000018005de94     service.obj
 0001:0005cea8       $unwind$far_MacroAdd       000000018005dea8     service.obj
 0001:0005cebc       $unwind$far_MacroExecute   000000018005debc     service.obj
 0001:0005cec4       $chain$2$far_MacroExecute  000000018005dec4     service.obj
 0001:0005cee0       $chain$3$far_MacroExecute  000000018005dee0     service.obj
 0001:0005cef0       $unwind$far_MakeMenuItems  000000018005def0     service.obj
 0001:0005cefc       $chain$1$far_MakeMenuItems 000000018005defc     service.obj
 0001:0005cf14       $chain$5$far_MakeMenuItems 000000018005df14     service.obj
 0001:0005cf34       $chain$6$far_MakeMenuItems 000000018005df34     service.obj
 0001:0005cf44       $chain$8$far_MakeMenuItems 000000018005df44     service.obj
 0001:0005cf5c       $chain$9$far_MakeMenuItems 000000018005df5c     service.obj
 0001:0005cf6c       $unwind$??R<lambda_f03950bc5685219e0bcd2087efbe011e>@@QEBAHXZ 000000018005df6c     libucrt:onexit.obj
 0001:0005cf6c       $unwind$??$parse_floating_point_possible_nan_is_ind@DV?$input_adapter_character_source@V?$stream_input_adapter@D@__crt_stdio_input@@@__crt_strtox@@@__crt_strtox@@YA_NAEADAEAV?$input_adapter_character_source@V?$stream_input_adapter@D@__crt_stdio_input@@@0@@Z 000000018005df6c     libucrt:input.obj
 0001:0005cf6c       $unwind$??$parse_floating_point_possible_infinity@DV?$input_adapter_character_source@V?$stream_input_adapter@D@__crt_stdio_input@@@__crt_strtox@@_K@__crt_strtox@@YA?AW4floating_point_parse_result@0@AEADAEAV?$input_adapter_character_source@V?$stream_input_adapter@D@__crt_stdio_input@@@0@_K@Z 000000018005df6c     libucrt:input.obj
 0001:0005cf6c       $unwind$?type_case_integer@?$output_processor@_WV?$string_output_adapter@_W@__crt_stdio_output@@V?$standard_base@_WV?$string_output_adapter@_W@__crt_stdio_output@@@2@@__crt_stdio_output@@AEAA_NI_N@Z 000000018005df6c     libucrt:output.obj
 0001:0005cf6c       $unwind$io_open            000000018005df6c     uliolib51.obj
 0001:0005cf6c       $unwind$NewVirtualKeyTable 000000018005df6c     service.obj
 0001:0005cf6c       $unwind$?type_case_integer@?$output_processor@DV?$stream_output_adapter@D@__crt_stdio_output@@V?$standard_base@DV?$stream_output_adapter@D@__crt_stdio_output@@@2@@__crt_stdio_output@@AEAA_NI_N@Z 000000018005df6c     libucrt:output.obj
 0001:0005cf6c       $unwind$gmatch_aux         000000018005df6c     slnunico.obj
 0001:0005cf6c       $unwind$??$parse_floating_point_possible_nan_is_snan@DV?$input_adapter_character_source@V?$stream_input_adapter@D@__crt_stdio_input@@@__crt_strtox@@@__crt_strtox@@YA_NAEADAEAV?$input_adapter_character_source@V?$stream_input_adapter@D@__crt_stdio_input@@@0@@Z 000000018005df6c     libucrt:input.obj
 0001:0005cf6c       $unwind$?type_case_integer@?$output_processor@DV?$string_output_adapter@D@__crt_stdio_output@@V?$standard_base@DV?$string_output_adapter@D@__crt_stdio_output@@@2@@__crt_stdio_output@@AEAA_NI_N@Z 000000018005df6c     libucrt:output.obj
 0001:0005cf84       $unwind$filefilter_IsFileInFilter 000000018005df84     service.obj
 0001:0005cf98       $chain$0$PutPluginMenuItemToTable 000000018005df98     service.obj
 0001:0005cfac       $chain$1$PutPluginMenuItemToTable 000000018005dfac     service.obj
 0001:0005cfbc       $chain$1$far_GetPlugins    000000018005dfbc     service.obj
 0001:0005cfd4       $chain$2$far_GetPlugins    000000018005dfd4     service.obj
 0001:0005cfe8       $chain$3$far_GetPlugins    000000018005dfe8     service.obj
 0001:0005cff8       $chain$4$far_GetPlugins    000000018005dff8     service.obj
 0001:0005d008       $unwind$far_IsPluginLoaded 000000018005e008     service.obj
 0001:0005d018       $chain$0$far_IsPluginLoaded 000000018005e018     service.obj
 0001:0005d02c       $chain$1$far_IsPluginLoaded 000000018005e02c     service.obj
 0001:0005d03c       $unwind$far_XLat           000000018005e03c     service.obj
 0001:0005d050       $unwind$far_FormatFileSize 000000018005e050     service.obj
 0001:0005d068       $unwind$far_Timer          000000018005e068     service.obj
 0001:0005d080       $unwind$timer_Close        000000018005e080     service.obj
 0001:0005d080       $unwind$iswctype           000000018005e080     libucrt:iswctype.obj
 0001:0005d080       $unwind$timer_gc           000000018005e080     service.obj
 0001:0005d08c       $chain$0$timer_Close       000000018005e08c     service.obj
 0001:0005d0a0       $chain$1$timer_Close       000000018005e0a0     service.obj
 0001:0005d0b0       $chain$0$timer_gc          000000018005e0b0     service.obj
 0001:0005d0c4       $chain$1$timer_gc          000000018005e0c4     service.obj
 0001:0005d0d4       $unwind$far_CreateSettings 000000018005e0d4     service.obj
 0001:0005d0e4       $unwind$Settings_get       000000018005e0e4     service.obj
 0001:0005d0e4       $unwind$Settings_set       000000018005e0e4     service.obj
 0001:0005d0f0       $unwind$Settings_createsubkey 000000018005e0f0     service.obj
 0001:0005d104       $unwind$Settings_enum      000000018005e104     service.obj
 0001:0005d114       $chain$0$Settings_enum     000000018005e114     service.obj
 0001:0005d128       $chain$2$Settings_enum     000000018005e128     service.obj
 0001:0005d140       $chain$3$Settings_enum     000000018005e140     service.obj
 0001:0005d150       $chain$5$Settings_enum     000000018005e150     service.obj
 0001:0005d164       $chain$6$Settings_enum     000000018005e164     service.obj
 0001:0005d174       $unwind$far_ColorDialog    000000018005e174     service.obj
 0001:0005d184       $unwind$_snwprintf         000000018005e184     slnunico.obj
 0001:0005d194       $unwind$??$type_case_integer_parse_into_buffer@_K@?$output_processor@DV?$stream_output_adapter@D@__crt_stdio_output@@V?$standard_base@DV?$stream_output_adapter@D@__crt_stdio_output@@@2@@__crt_stdio_output@@AEAAX_KI_N@Z 000000018005e194     libucrt:output.obj
 0001:0005d194       $unwind$??$type_case_integer_parse_into_buffer@I@?$output_processor@DV?$string_output_adapter@D@__crt_stdio_output@@V?$standard_base@DV?$string_output_adapter@D@__crt_stdio_output@@@2@@__crt_stdio_output@@AEAAXII_N@Z 000000018005e194     libucrt:output.obj
 0001:0005d194       $unwind$??$type_case_integer_parse_into_buffer@I@?$output_processor@DV?$stream_output_adapter@D@__crt_stdio_output@@V?$standard_base@DV?$stream_output_adapter@D@__crt_stdio_output@@@2@@__crt_stdio_output@@AEAAXII_N@Z 000000018005e194     libucrt:output.obj
 0001:0005d194       $unwind$??$type_case_integer_parse_into_buffer@_K@?$output_processor@_WV?$string_output_adapter@_W@__crt_stdio_output@@V?$standard_base@_WV?$string_output_adapter@_W@__crt_stdio_output@@@2@@__crt_stdio_output@@AEAAX_KI_N@Z 000000018005e194     libucrt:output.obj
 0001:0005d194       $unwind$??$type_case_integer_parse_into_buffer@_K@?$output_processor@DV?$string_output_adapter@D@__crt_stdio_output@@V?$standard_base@DV?$string_output_adapter@D@__crt_stdio_output@@@2@@__crt_stdio_output@@AEAAX_KI_N@Z 000000018005e194     libucrt:output.obj
 0001:0005d194       $unwind$utf8_oced          000000018005e194     slnunico.obj
 0001:0005d194       $unwind$??$type_case_integer_parse_into_buffer@I@?$output_processor@_WV?$string_output_adapter@_W@__crt_stdio_output@@V?$standard_base@_WV?$string_output_adapter@_W@__crt_stdio_output@@@2@@__crt_stdio_output@@AEAAXII_N@Z 000000018005e194     libucrt:output.obj
 0001:0005d19c       $unwind$__GSHandlerCheckCommon 000000018005e19c     LIBCMT:gshandler.obj
 0001:0005d19c       $unwind$utf8_graphext      000000018005e19c     slnunico.obj
 0001:0005d19c       $unwind$__acrt_WideCharToMultiByte 000000018005e19c     libucrt:widechartomultibyte.obj
 0001:0005d1a4       $chain$0$utf8_graphext     000000018005e1a4     slnunico.obj
 0001:0005d1b8       $chain$1$utf8_graphext     000000018005e1b8     slnunico.obj
 0001:0005d1c8       $unwind$utf8_count         000000018005e1c8     slnunico.obj
 0001:0005d1d8       $chain$0$utf8_count        000000018005e1d8     slnunico.obj
 0001:0005d1ec       $chain$1$utf8_count        000000018005e1ec     slnunico.obj
 0001:0005d200       $chain$2$utf8_count        000000018005e200     slnunico.obj
 0001:0005d210       $chain$3$utf8_count        000000018005e210     slnunico.obj
 0001:0005d220       $unwind$unic_sub           000000018005e220     slnunico.obj
 0001:0005d238       $unwind$unic_upper         000000018005e238     slnunico.obj
 0001:0005d238       $unwind$unic_lower         000000018005e238     slnunico.obj
 0001:0005d238       $unwind$str_reverse        000000018005e238     slnunico.obj
 0001:0005d24c       $chain$0$str_reverse       000000018005e24c     slnunico.obj
 0001:0005d260       $chain$1$str_reverse       000000018005e260     slnunico.obj
 0001:0005d270       $chain$0$unic_lower        000000018005e270     slnunico.obj
 0001:0005d284       $chain$1$unic_lower        000000018005e284     slnunico.obj
 0001:0005d294       $chain$0$unic_upper        000000018005e294     slnunico.obj
 0001:0005d2a8       $chain$1$unic_upper        000000018005e2a8     slnunico.obj
 0001:0005d2b8       $unwind$str_rep            000000018005e2b8     slnunico.obj
 0001:0005d2cc       $unwind$unic_byte          000000018005e2cc     slnunico.obj
 0001:0005d2e4       $unwind$unic_char          000000018005e2e4     slnunico.obj
 0001:0005d2fc       $chain$0$unic_char         000000018005e2fc     slnunico.obj
 0001:0005d310       $chain$1$unic_char         000000018005e310     slnunico.obj
 0001:0005d320       $unwind$str_dump           000000018005e320     slnunico.obj
 0001:0005d32c       $unwind$match_class        000000018005e32c     slnunico.obj
 0001:0005d33c       $unwind$singlematch        000000018005e33c     slnunico.obj
 0001:0005d358       $chain$0$max_expand        000000018005e358     slnunico.obj
 0001:0005d36c       $chain$1$max_expand        000000018005e36c     slnunico.obj
 0001:0005d37c       $unwind$min_expand         000000018005e37c     slnunico.obj
 0001:0005d394       $chain$0$push_onecapture   000000018005e394     slnunico.obj
 0001:0005d3a8       $chain$1$push_onecapture   000000018005e3a8     slnunico.obj
 0001:0005d3bc       $chain$2$push_onecapture   000000018005e3bc     slnunico.obj
 0001:0005d3cc       $chain$4$push_onecapture   000000018005e3cc     slnunico.obj
 0001:0005d3e0       $unwind$push_captures      000000018005e3e0     slnunico.obj
 0001:0005d3f4       $chain$1$push_captures     000000018005e3f4     slnunico.obj
 0001:0005d40c       $chain$2$push_captures     000000018005e40c     slnunico.obj
 0001:0005d41c       $unwind$unic_find_aux      000000018005e41c     slnunico.obj
 0001:0005d438       $unwind$add_value          000000018005e438     slnunico.obj
 0001:0005d44c       $chain$0$add_value         000000018005e44c     slnunico.obj
 0001:0005d460       $chain$1$add_value         000000018005e460     slnunico.obj
 0001:0005d470       $unwind$unic_gsub          000000018005e470     slnunico.obj
 0001:0005d490       $unwind$str_format         000000018005e490     slnunico.obj
 0001:0005d4ac       $unwind$g_iofile           000000018005e4ac     uliolib51.obj
 0001:0005d4bc       $chain$0$g_iofile          000000018005e4bc     uliolib51.obj
 0001:0005d4d0       $chain$1$g_iofile          000000018005e4d0     uliolib51.obj
 0001:0005d4e4       $chain$2$g_iofile          000000018005e4e4     uliolib51.obj
 0001:0005d4f4       $chain$3$g_iofile          000000018005e4f4     uliolib51.obj
 0001:0005d504       $chain$1$io_lines          000000018005e504     uliolib51.obj
 0001:0005d51c       $chain$2$io_lines          000000018005e51c     uliolib51.obj
 0001:0005d530       $unwind$read_line          000000018005e530     uliolib51.obj
 0001:0005d544       $unwind$read_chars         000000018005e544     uliolib51.obj
 0001:0005d55c       $unwind$g_read             000000018005e55c     uliolib51.obj
 0001:0005d574       $unwind$strpbrk            000000018005e574     libucrt:strpbrk.obj
 0001:0005d574       $unwind$??$initialize_environment_by_cloning_nolock@_W@@YAHXZ 000000018005e574     libucrt:environment_initialization.obj
 0001:0005d574       $unwind$loaderror          000000018005e574     uloadlib51.obj
 0001:0005d574       $unwind$_strdup            000000018005e574     libucrt:strdup.obj
 0001:0005d574       $unwind$??$generate_tmpfile_file_name@D@@YA_NQEAD_K@Z 000000018005e574     libucrt:tmpfile.obj
 0001:0005d574       $unwind$PutWStrToArray     000000018005e574     ustring.obj
 0001:0005d574       $unwind$GetIntFromArray    000000018005e574     util.obj
 0001:0005d584       $unwind$loader_Croot       000000018005e584     uloadlib51.obj
 0001:0005d594       $unwind$ll_module          000000018005e594     uloadlib51.obj
 0001:0005d5a8       $chain$0$ll_module         000000018005e5a8     uloadlib51.obj
 0001:0005d5bc       $chain$1$ll_module         000000018005e5bc     uloadlib51.obj
 0001:0005d5cc       $unwind$setpath            000000018005e5cc     uloadlib51.obj
 0001:0005d5e0       $unwind$_free_osfhnd       000000018005e5e0     libucrt:osfinfo.obj
 0001:0005d5e0       $unwind$luaopen_upackage   000000018005e5e0     uloadlib51.obj
 0001:0005d5e0       $unwind$__acrt_stdio_refill_and_read_narrow_nolock 000000018005e5e0     libucrt:_filbuf.obj
 0001:0005d5f4       $unwind$GetOptNumFromTable 000000018005e5f4     ustring.obj
 0001:0005d600       $unwind$?convert_hexadecimal_string_to_floating_type_common@__crt_strtox@@YA?AW4SLD_STATUS@@AEBUfloating_point_string@1@AEBVfloating_point_value@1@@Z 000000018005e600     libucrt:input.obj
 0001:0005d600       $unwind$strerror           000000018005e600     libucrt:strerror.obj
 0001:0005d600       $unwind$PutWStrToTable     000000018005e600     ustring.obj
 0001:0005d600       $unwind$EnumCodePagesProc  000000018005e600     ustring.obj
 0001:0005d60c       $unwind$opt_utf8_string    000000018005e60c     ustring.obj
 0001:0005d624       $unwind$PushAttrString     000000018005e624     ustring.obj
 0001:0005d624       $unwind$_raise_exc         000000018005e624     libucrt:fpexcept.obj
 0001:0005d62c       $unwind$convert_multibyte_string 000000018005e62c     ustring.obj
 0001:0005d648       $unwind$push_multibyte_string 000000018005e648     ustring.obj
 0001:0005d65c       $chain$2$push_multibyte_string 000000018005e65c     ustring.obj
 0001:0005d674       $chain$3$push_multibyte_string 000000018005e674     ustring.obj
 0001:0005d688       $unwind$ustring_WideCharToMultiByte 000000018005e688     ustring.obj
 0001:0005d69c       $chain$1$ustring_WideCharToMultiByte 000000018005e69c     ustring.obj
 0001:0005d6b4       $chain$2$ustring_WideCharToMultiByte 000000018005e6b4     ustring.obj
 0001:0005d6c4       $unwind$ustring_MultiByteToWideChar 000000018005e6c4     ustring.obj
 0001:0005d6e0       $unwind$ustring_OemToUtf8  000000018005e6e0     ustring.obj
 0001:0005d6ec       $chain$1$ustring_OemToUtf8 000000018005e6ec     ustring.obj
 0001:0005d704       $chain$2$ustring_OemToUtf8 000000018005e704     ustring.obj
 0001:0005d714       $unwind$ustring_Utf8ToOem  000000018005e714     ustring.obj
 0001:0005d714       $unwind$win_DeleteRegValue 000000018005e714     win.obj
 0001:0005d714       $unwind$?decode_options@@YA?AUfile_options@?A0xa9d50aae@@HHH@Z 000000018005e714     libucrt:open.obj
 0001:0005d728       $unwind$win_SystemTimeToFileTime 000000018005e728     win.obj
 0001:0005d728       $unwind$?__mbrtowc_utf8@__crt_mbstring@@YA_KPEA_WPEBD_KPEAU_Mbstatet@@@Z 000000018005e728     libucrt:mbrtowc.obj
 0001:0005d728       $unwind$ustring_Uuid       000000018005e728     ustring.obj
 0001:0005d728       $unwind$??$common_xtox_s@_KD@@YAH_KQEAD0I_N@Z 000000018005e728     libucrt:xtoa.obj
 0001:0005d728       $unwind$ustring_Utf16ToUtf8 000000018005e728     ustring.obj
 0001:0005d728       $unwind$win_FileTimeToSystemTime 000000018005e728     win.obj
 0001:0005d730       $unwind$ustring_Utf8ToUtf16 000000018005e730     ustring.obj
 0001:0005d740       $chain$0$ustring_Utf8ToUtf16 000000018005e740     ustring.obj
 0001:0005d754       $chain$1$ustring_Utf8ToUtf16 000000018005e754     ustring.obj
 0001:0005d764       $unwind$ustring_SetConsoleOutputCP 000000018005e764     ustring.obj
 0001:0005d764       $unwind$ustring_SetConsoleCP 000000018005e764     ustring.obj
 0001:0005d770       $unwind$ustring_GetCPInfo  000000018005e770     ustring.obj
 0001:0005d788       $unwind$ustring_GetLogicalDriveStrings 000000018005e788     ustring.obj
 0001:0005d798       $chain$0$ustring_GetLogicalDriveStrings 000000018005e798     ustring.obj
 0001:0005d7ac       $chain$1$ustring_GetLogicalDriveStrings 000000018005e7ac     ustring.obj
 0001:0005d7bc       $unwind$ustring_SearchPath 000000018005e7bc     ustring.obj
 0001:0005d7d4       $unwind$ustring_GlobalMemoryStatus 000000018005e7d4     ustring.obj
 0001:0005d7dc       $chain$0$ustring_GlobalMemoryStatus 000000018005e7dc     ustring.obj
 0001:0005d7f0       $chain$2$ustring_GlobalMemoryStatus 000000018005e7f0     ustring.obj
 0001:0005d804       $unwind$ustring_SetFileAttr 000000018005e804     ustring.obj
 0001:0005d810       $chain$2$ustring_SetFileAttr 000000018005e810     ustring.obj
 0001:0005d82c       $chain$3$ustring_SetFileAttr 000000018005e82c     ustring.obj
 0001:0005d840       $chain$4$ustring_SetFileAttr 000000018005e840     ustring.obj
 0001:0005d850       $chain$5$ustring_SetFileAttr 000000018005e850     ustring.obj
 0001:0005d860       $unwind$ustring_GetFileAttr 000000018005e860     ustring.obj
 0001:0005d860       $unwind$ustring_SetCurrentDir 000000018005e860     ustring.obj
 0001:0005d86c       $chain$2$ustring_GetFileAttr 000000018005e86c     ustring.obj
 0001:0005d888       $chain$3$ustring_GetFileAttr 000000018005e888     ustring.obj
 0001:0005d898       $unwind$ustring_SHGetFolderPath 000000018005e898     ustring.obj
 0001:0005d8a8       $chain$1$ustring_SHGetFolderPath 000000018005e8a8     ustring.obj
 0001:0005d8c0       $chain$2$ustring_SHGetFolderPath 000000018005e8c0     ustring.obj
 0001:0005d8d0       $unwind$ustring_OutputDebugString 000000018005e8d0     ustring.obj
 0001:0005d8e4       $chain$0$ustring_OutputDebugString 000000018005e8e4     ustring.obj
 0001:0005d8f8       $chain$1$ustring_OutputDebugString 000000018005e8f8     ustring.obj
 0001:0005d908       $unwind$ustring_GetCurrentDir 000000018005e908     ustring.obj
 0001:0005d91c       $chain$0$ustring_GetCurrentDir 000000018005e91c     ustring.obj
 0001:0005d930       $chain$1$ustring_GetCurrentDir 000000018005e930     ustring.obj
 0001:0005d944       $chain$2$ustring_GetCurrentDir 000000018005e944     ustring.obj
 0001:0005d954       $chain$3$ustring_GetCurrentDir 000000018005e954     ustring.obj
 0001:0005d964       $chain$2$ustring_SetCurrentDir 000000018005e964     ustring.obj
 0001:0005d980       $chain$3$ustring_SetCurrentDir 000000018005e980     ustring.obj
 0001:0005d990       $unwind$win_GetEnv         000000018005e990     win.obj
 0001:0005d9a4       $chain$0$win_GetEnv        000000018005e9a4     win.obj
 0001:0005d9b8       $chain$1$win_GetEnv        000000018005e9b8     win.obj
 0001:0005d9c8       $unwind$win_SetRegKey      000000018005e9c8     win.obj
 0001:0005d9c8       $unwind$win_CompareString  000000018005e9c8     win.obj
 0001:0005d9e0       $unwind$win_GetRegKey      000000018005e9e0     win.obj
 0001:0005d9f4       $unwind$win_EnumRegKey     000000018005e9f4     win.obj
 0001:0005d9f4       $unwind$win_EnumRegValue   000000018005e9f4     win.obj
 0001:0005da08       $unwind$win_GetFileInfo    000000018005ea08     win.obj
 0001:0005da18       $unwind$mkdir              000000018005ea18     win.obj
 0001:0005da30       $chain$0$mkdir             000000018005ea30     win.obj
 0001:0005da44       $unwind$??$create_environment@_W@@YAQEAPEA_WQEA_W@Z 000000018005ea44     libucrt:environment_initialization.obj
 0001:0005da44       $unwind$??$create_environment@D@@YAQEAPEADQEAD@Z 000000018005ea44     libucrt:environment_initialization.obj
 0001:0005da44       $unwind$win_ShellExecute   000000018005ea44     win.obj
 0001:0005da5c       $unwind$?dllmain_crt_process_attach@@YAHQEAUHINSTANCE__@@QEAX@Z 000000018005ea5c     LIBCMT:dll_dllmain.obj
 0001:0005da98       $unwind$ungetc$fin$0       000000018005ea98     libucrt:ungetc.obj
 0001:0005da98       $unwind$?filt$0@?0???R<lambda_6e4b09c48022b2350581041d5f6b0c4c>@@QEBA@XZ@4HA 000000018005ea98     libucrt:exit.obj
 0001:0005da98       $unwind$?fin$0@?0???$common_freopen@_W@@YAHQEAPEAU_iobuf@@QEB_W1V__crt_stdio_stream@@H@Z@4HA 000000018005ea98     libucrt:freopen.obj
 0001:0005da98       $unwind$_write$fin$0       000000018005ea98     libucrt:write.obj
 0001:0005da98       $unwind$_IsNonwritableInCurrentImage$filt$0 000000018005ea98     LIBCMT:pesect.obj
 0001:0005da98       $unwind$?fin$0@?0??__acrt_stdio_allocate_stream@@YA?AV__crt_stdio_stream@@XZ@4HA 000000018005ea98     libucrt:stream.obj
 0001:0005da98       $unwind$?fin$0@?0??common_tmpfile@@YAHQEAPEAU_iobuf@@H@Z@4HA 000000018005ea98     libucrt:tmpfile.obj
 0001:0005da98       $unwind$?fin$0@?0???$?RV<lambda_d80eeec6fff315bfe5c115232f3240e3>@@AEAV<lambda_6e4b09c48022b2350581041d5f6b0c4c>@@V<lambda_2358e3775559c9db80273638284d5e45>@@@?$__crt_seh_guarded_call@X@@QEAAX$$QEAV<lambda_d80eeec6fff315bfe5c115232f3240e3>@@AEAV<lambda_6e4b09c48022b2350581041d5f6b0c4c>@@$$QEAV<lambda_2358e3775559c9db80273638284d5e45>@@@Z@4HA 000000018005ea98     libucrt:exit.obj
 0001:0005da98       $unwind$raise$fin$0        000000018005ea98     libucrt:signal.obj
 0001:0005da98       $unwind$?fin$0@?0???$?RV<lambda_bdbcead8b570fa3d5ec6d9679862a6e5>@@AEAV<lambda_96f4279ff90247a4c5c5d9824f56f8c1>@@V<lambda_4606be27f17b5e5579e09050fab91818>@@@?$__crt_seh_guarded_call@_K@@QEAA_K$$QEAV<lambda_bdbcead8b570fa3d5ec6d9679862a6e5>@@AEAV<lambda_96f4279ff90247a4c5c5d9824f56f8c1>@@$$QEAV<lambda_4606be27f17b5e5579e09050fab91818>@@@Z@4HA 000000018005ea98     libucrt:fwrite.obj
 0001:0005da98       $unwind$?fin$0@?0???$?RV<lambda_a37b2b86f63e897a80ea819b0eb08c01>@@AEAV<lambda_38ce7e780aa69e748d6df282ebc68efe>@@V<lambda_99fb1378e971ab6e7edea83e3a7a83a2>@@@?$__crt_seh_guarded_call@H@@QEAAH$$QEAV<lambda_a37b2b86f63e897a80ea819b0eb08c01>@@AEAV<lambda_38ce7e780aa69e748d6df282ebc68efe>@@$$QEAV<lambda_99fb1378e971ab6e7edea83e3a7a83a2>@@@Z@4HA 000000018005ea98     libucrt:commit.obj
 0001:0005da98       $unwind$__acrt_update_thread_locale_data$fin$0 000000018005ea98     libucrt:locale_refcounting.obj
 0001:0005da98       $unwind$_rmtmp$fin$0       000000018005ea98     libucrt:rmtmp.obj
 0001:0005da98       $unwind$?fin$0@?0???$common_ftell@J@@YAJV__crt_stdio_stream@@@Z@4HA 000000018005ea98     libucrt:ftell.obj
 0001:0005da98       $unwind$_rmtmp$fin$1       000000018005ea98     libucrt:rmtmp.obj
 0001:0005da98       $unwind$_read$fin$0        000000018005ea98     libucrt:read.obj
 0001:0005da98       $unwind$?fin$0@?0???$common_getenv@_W@@YAPEA_WQEB_W@Z@4HA 000000018005ea98     libucrt:getenv.obj
 0001:0005da98       $unwind$?fin$0@?0???$?RV<lambda_84ec643ea9557e2f7dc01bb0e9624395>@@AEAV<lambda_ca71763b3c0644891230e4f79ea54fa6>@@V<lambda_439a761618c59b0600e24586724d733b>@@@?$__crt_seh_guarded_call@H@@QEAAH$$QEAV<lambda_84ec643ea9557e2f7dc01bb0e9624395>@@AEAV<lambda_ca71763b3c0644891230e4f79ea54fa6>@@$$QEAV<lambda_439a761618c59b0600e24586724d733b>@@@Z@4HA 000000018005ea98     libucrt:setvbuf.obj
 0001:0005da98       $unwind$rewind$fin$0       000000018005ea98     libucrt:rewind.obj
 0001:0005da98       $unwind$_query_new_handler$fin$0 000000018005ea98     libucrt:new_handler.obj
 0001:0005da98       $unwind$?fin$0@?0??common_fseek@@YAHV__crt_stdio_stream@@_JH@Z@4HA 000000018005ea98     libucrt:fseek.obj
 0001:0005da98       $unwind$?fin$0@?0???$?RV<lambda_082dd7c0feb7dbdaf245f261e54a6583>@@AEAV<lambda_f3caf1ecae5fe01a9a1a6239afa44510>@@V<lambda_c640b76c0755ae85b317b35c67c61e6b>@@@?$__crt_seh_guarded_call@H@@QEAAH$$QEAV<lambda_082dd7c0feb7dbdaf245f261e54a6583>@@AEAV<lambda_f3caf1ecae5fe01a9a1a6239afa44510>@@$$QEAV<lambda_c640b76c0755ae85b317b35c67c61e6b>@@@Z@4HA 000000018005ea98     libucrt:input.obj
 0001:0005da98       $unwind$?fin$0@?0???$?RV<lambda_7777bce6b2f8c936911f934f8298dc43>@@AEAV<lambda_f03950bc5685219e0bcd2087efbe011e>@@V<lambda_3883c3dff614d5e0c5f61bb1ac94921c>@@@?$__crt_seh_guarded_call@H@@QEAAH$$QEAV<lambda_7777bce6b2f8c936911f934f8298dc43>@@AEAV<lambda_f03950bc5685219e0bcd2087efbe011e>@@$$QEAV<lambda_3883c3dff614d5e0c5f61bb1ac94921c>@@@Z@4HA 000000018005ea98     libucrt:onexit.obj
 0001:0005da98       $unwind$_fcloseall$fin$0   000000018005ea98     libucrt:closeall.obj
 0001:0005da98       $unwind$_alloc_osfhnd$fin$0 000000018005ea98     libucrt:osfinfo.obj
 0001:0005da98       $unwind$common_control87$filt$0 000000018005ea98     libucrt:ieee.obj
 0001:0005da98       $unwind$?fin$0@?0???$?RV<lambda_a22f0c497e5168315e06dae667770027>@@AEAV<lambda_a094494068278ba5130ab06e1292f60a>@@V<lambda_24dc10c13f43218c635520766e23e324>@@@?$__crt_seh_guarded_call@_N@@QEAA_N$$QEAV<lambda_a22f0c497e5168315e06dae667770027>@@AEAV<lambda_a094494068278ba5130ab06e1292f60a>@@$$QEAV<lambda_24dc10c13f43218c635520766e23e324>@@@Z@4HA 000000018005ea98     libucrt:spawnv.obj
 0001:0005da98       $unwind$fclose$fin$0       000000018005ea98     libucrt:fclose.obj
 0001:0005da98       $unwind$?fin$0@?0???$?RV<lambda_450d765d439847d4c735a33c368b5fc0>@@AEAV<lambda_44731a7d0e6d81c3e6aa82d741081786>@@V<lambda_601a2a7da3b7a96e9554ac7215c4b07c>@@@?$__crt_seh_guarded_call@P6AXH@Z@@QEAAP6AXH@Z$$QEAV<lambda_450d765d439847d4c735a33c368b5fc0>@@AEAV<lambda_44731a7d0e6d81c3e6aa82d741081786>@@$$QEAV<lambda_601a2a7da3b7a96e9554ac7215c4b07c>@@@Z@4HA 000000018005ea98     libucrt:signal.obj
 0001:0005da98       $unwind$_pclose$fin$0      000000018005ea98     libucrt:popen.obj
 0001:0005da98       $unwind$?fin$0@?0???$?RV<lambda_2d41944a1d46af3157314b8a01080d33>@@AEAV<lambda_8f455de75cd7d7f24b4096f044d8b9e6>@@V<lambda_aa500f224e6afead328df44964fe2772>@@@?$__crt_seh_guarded_call@X@@QEAAX$$QEAV<lambda_2d41944a1d46af3157314b8a01080d33>@@AEAV<lambda_8f455de75cd7d7f24b4096f044d8b9e6>@@$$QEAV<lambda_aa500f224e6afead328df44964fe2772>@@@Z@4HA 000000018005ea98     libucrt:per_thread_data.obj
 0001:0005da98       $unwind$?fin$0@?0???$common_fgets@D@@YAPEADQEADHV__crt_stdio_stream@@@Z@4HA 000000018005ea98     libucrt:fgets.obj
 0001:0005da98       $unwind$?fin$0@?0???$?RV<lambda_f2e299630e499de9f9a165e60fcd3db5>@@AEAV<lambda_2ae9d31cdba2644fcbeaf08da7c24588>@@V<lambda_40d01ff24d0e7b3814fdbdcee8eab3c7>@@@?$__crt_seh_guarded_call@X@@QEAAX$$QEAV<lambda_f2e299630e499de9f9a165e60fcd3db5>@@AEAV<lambda_2ae9d31cdba2644fcbeaf08da7c24588>@@$$QEAV<lambda_40d01ff24d0e7b3814fdbdcee8eab3c7>@@@Z@4HA 000000018005ea98     libucrt:per_thread_data.obj
 0001:0005da98       $unwind$__acrt_lowio_ensure_fh_exists$fin$0 000000018005ea98     libucrt:osfinfo.obj
 0001:0005da98       $unwind$?fin$0@?0???$common_fsopen@_W@@YAPEAU_iobuf@@QEB_W0H@Z@4HA 000000018005ea98     libucrt:fopen.obj
 0001:0005da98       $unwind$?fin$0@?0???$?RV<lambda_c376a267cfb53b6959b3b692ec76b120>@@AEAV<lambda_9a32fed5bf61b6b509b2d3f6003082a1>@@V<lambda_572fbb9fa0ab338edf41edfd4b5fcc8d>@@@?$__crt_seh_guarded_call@H@@QEAAH$$QEAV<lambda_c376a267cfb53b6959b3b692ec76b120>@@AEAV<lambda_9a32fed5bf61b6b509b2d3f6003082a1>@@$$QEAV<lambda_572fbb9fa0ab338edf41edfd4b5fcc8d>@@@Z@4HA 000000018005ea98     libucrt:fflush.obj
 0001:0005da98       $unwind$?fin$0@?0???$?RV<lambda_efdfa57d1f175319df784efa44bb7b81>@@AEAV<lambda_5f0a4c1567f8adc6734073e5d1e1b35c>@@V<lambda_2e8a7d3640ea6ccb4c2413664c2db6fd>@@@?$__crt_seh_guarded_call@X@@QEAAX$$QEAV<lambda_efdfa57d1f175319df784efa44bb7b81>@@AEAV<lambda_5f0a4c1567f8adc6734073e5d1e1b35c>@@$$QEAV<lambda_2e8a7d3640ea6ccb4c2413664c2db6fd>@@@Z@4HA 000000018005ea98     libucrt:mbctype.obj
 0001:0005da98       $unwind$?fin$0@?0???$?RV<lambda_410d79af7f07d98d83a3f525b3859a53>@@AEAV<lambda_3e16ef9562a7dcce91392c22ab16ea36>@@V<lambda_38119f0e861e05405d8a144b9b982f0a>@@@?$__crt_seh_guarded_call@X@@QEAAX$$QEAV<lambda_410d79af7f07d98d83a3f525b3859a53>@@AEAV<lambda_3e16ef9562a7dcce91392c22ab16ea36>@@$$QEAV<lambda_38119f0e861e05405d8a144b9b982f0a>@@@Z@4HA 000000018005ea98     libucrt:wsetlocale.obj
 0001:0005da98       $unwind$?fin$0@?0???$?RV<lambda_a62c933ada0517137acf5807a1eeac1f>@@AEAV<lambda_a31071773b9a94e445cbd5d04ef99106>@@V<lambda_56065050dbf3ada7e59a83db45153de3>@@@?$__crt_seh_guarded_call@H@@QEAAH$$QEAV<lambda_a62c933ada0517137acf5807a1eeac1f>@@AEAV<lambda_a31071773b9a94e445cbd5d04ef99106>@@$$QEAV<lambda_56065050dbf3ada7e59a83db45153de3>@@@Z@4HA 000000018005ea98     libucrt:output.obj
 0001:0005da98       $unwind$?fin$0@?0???$?RV<lambda_751a882b2c74d4b022dec766aa51a29a>@@AEAV<lambda_628dfdc04ba53c8bfc02c9951375f3f5>@@V<lambda_f6c7be5f7998530c34de24c7437d6b54>@@@?$__crt_seh_guarded_call@H@@QEAAH$$QEAV<lambda_751a882b2c74d4b022dec766aa51a29a>@@AEAV<lambda_628dfdc04ba53c8bfc02c9951375f3f5>@@$$QEAV<lambda_f6c7be5f7998530c34de24c7437d6b54>@@@Z@4HA 000000018005ea98     libucrt:close.obj
 0001:0005da98       $unwind$?fin$0@?0???$?RV<lambda_aa87e3671a710a21b5dc78c0bdf72e11>@@AEAV<lambda_92619d2358a28f41a33ba319515a20b9>@@V<lambda_6992ecaafeb10aed2b74cb1fae11a551>@@@?$__crt_seh_guarded_call@X@@QEAAX$$QEAV<lambda_aa87e3671a710a21b5dc78c0bdf72e11>@@AEAV<lambda_92619d2358a28f41a33ba319515a20b9>@@$$QEAV<lambda_6992ecaafeb10aed2b74cb1fae11a551>@@@Z@4HA 000000018005ea98     libucrt:per_thread_data.obj
 0001:0005da98       $unwind$?fin$0@?0??update_thread_multibyte_data_internal@@YAPEAU__crt_multibyte_data@@QEAU__acrt_ptd@@QEAPEAU1@@Z@4HA 000000018005ea98     libucrt:mbctype.obj
 0001:0005da98       $unwind$?fin$0@?0???$?RV<lambda_886d6c58226a84441f68b9f2b8217b83>@@AEAV<lambda_ab61a845afdef5b7c387490eaf3616ee>@@V<lambda_f7f22ab5edc0698d5f6905b0d3f44752>@@@?$__crt_seh_guarded_call@X@@QEAAX$$QEAV<lambda_886d6c58226a84441f68b9f2b8217b83>@@AEAV<lambda_ab61a845afdef5b7c387490eaf3616ee>@@$$QEAV<lambda_f7f22ab5edc0698d5f6905b0d3f44752>@@@Z@4HA 000000018005ea98     libucrt:fflush.obj
 0001:0005da98       $unwind$?fin$0@?0???$?RV<lambda_842d9ff0dc9ef11c61343bbaebe7f885>@@AEAV<lambda_c5860995281e5c4ce005b3de8f5874ee>@@V<lambda_d90129c13df834fdcbf8d2b88dafcf2d>@@@?$__crt_seh_guarded_call@X@@QEAAX$$QEAV<lambda_842d9ff0dc9ef11c61343bbaebe7f885>@@AEAV<lambda_c5860995281e5c4ce005b3de8f5874ee>@@$$QEAV<lambda_d90129c13df834fdcbf8d2b88dafcf2d>@@@Z@4HA 000000018005ea98     libucrt:fflush.obj
 0001:0005da98       $unwind$clearerr_s$fin$0   000000018005ea98     libucrt:clearerr.obj
 0001:0005da98       $unwind$__acrt_initialize_lowio$fin$0 000000018005ea98     libucrt:ioinit.obj
 0001:0005da98       $unwind$?fin$0@?0???$common_lseek@_J@@YA_JH_JH@Z@4HA 000000018005ea98     libucrt:lseek.obj
 0001:0005da98       $unwind$__DestructExceptionObject$filt$0 000000018005ea98     libvcruntime:ehhelpers.obj
 0001:0005da98       $unwind$?fin$0@?0???$common_lseek@J@@YAJHJH@Z@4HA 000000018005ea98     libucrt:lseek.obj
 0001:0005da98       $unwind$?fin$0@?0??dllmain_crt_process_detach@@YAH_N@Z@4HA 000000018005ea98     LIBCMT:dll_dllmain.obj
 0001:0005da98       $unwind$?fin$0@?0???$common_fdopen@_W@@YAPEAU_iobuf@@HQEB_W@Z@4HA 000000018005ea98     libucrt:fdopen.obj
 0001:0005da98       $unwind$?fin$0@?0??dllmain_crt_process_attach@@YAHQEAUHINSTANCE__@@QEAX@Z@4HA 000000018005ea98     LIBCMT:dll_dllmain.obj
 0001:0005da98       $unwind$?fin$0@?0???$common_popen@_W@@YAPEAU_iobuf@@QEB_W0@Z@4HA 000000018005ea98     libucrt:popen.obj
 0001:0005da98       $unwind$?fin$0@?0???$?RV<lambda_0ae27a3a962d80f24befdcbee591983d>@@AEAV<lambda_8d0ee55de4b1038c4002e0adecdf1839>@@V<lambda_dc504788e8f1664fe9b84e20bfb512f2>@@@?$__crt_seh_guarded_call@X@@QEAAX$$QEAV<lambda_0ae27a3a962d80f24befdcbee591983d>@@AEAV<lambda_8d0ee55de4b1038c4002e0adecdf1839>@@$$QEAV<lambda_dc504788e8f1664fe9b84e20bfb512f2>@@@Z@4HA 000000018005ea98     libucrt:per_thread_data.obj
 0001:0005da98       $unwind$fgetc$fin$0        000000018005ea98     libucrt:fgetc.obj
 0001:0005da98       $unwind$_ctrlfp$filt$0     000000018005ea98     libucrt:fpctrl.obj
 0001:0005daa0       $unwind$?dllmain_crt_process_detach@@YAH_N@Z 000000018005eaa0     LIBCMT:dll_dllmain.obj
 0001:0005dad8       $unwind$?dllmain_dispatch@@YAHQEAUHINSTANCE__@@KQEAX@Z 000000018005ead8     LIBCMT:dll_dllmain.obj
 0001:0005db00       $unwind$_pipe$fin$0        000000018005eb00     libucrt:pipe.obj
 0001:0005db00       $unwind$_pipe$fin$1        000000018005eb00     libucrt:pipe.obj
 0001:0005db00       $unwind$?fin$0@?0??common_tmpfile_nolock@@YAHQEAPEAU_iobuf@@H@Z@4HA 000000018005eb00     libucrt:tmpfile.obj
 0001:0005db00       $unwind$?filt$0@?0??dllmain_dispatch@@YAHQEAUHINSTANCE__@@KQEAX@Z@4HA 000000018005eb00     LIBCMT:dll_dllmain.obj
 0001:0005db00       $unwind$?fin$0@?0???$common_dupenv_s@_W@@YAHQEAPEA_WQEA_KQEB_WHQEBDH@Z@4HA 000000018005eb00     libucrt:getenv.obj
 0001:0005db00       $unwind$fread_s$fin$0      000000018005eb00     libucrt:fread.obj
 0001:0005db08       $unwind$__security_init_cookie 000000018005eb08     LIBCMT:gs_support.obj
 0001:0005db14       $unwind$__scrt_is_nonwritable_in_current_image 000000018005eb14     LIBCMT:utility.obj
 0001:0005db34       $unwind$__scrt_is_nonwritable_in_current_image$filt$0 000000018005eb34     LIBCMT:utility.obj
 0001:0005db3c       $unwind$__scrt_fastfail    000000018005eb3c     LIBCMT:utility_desktop.obj
 0001:0005db4c       $unwind$__isa_available_init 000000018005eb4c     LIBCMT:cpu_disp.obj
 0001:0005db60       $xdatasym                  000000018005eb60     LIBCMT:guard_dispatch.obj
 0001:0005db68       $xdatasym                  000000018005eb68     libvcruntime:memcpy.obj
 0001:0005db78       $xdatasym                  000000018005eb78     libvcruntime:memset.obj
 0001:0005db88       $unwind$wcsstr             000000018005eb88     libvcruntime:wcsstr.obj
 0001:0005db9c       $unwind$strchr             000000018005eb9c     libvcruntime:strchr.obj
 0001:0005db9c       $unwind$wcschr             000000018005eb9c     libvcruntime:wcschr.obj
 0001:0005db9c       $unwind$strrchr            000000018005eb9c     libvcruntime:strrchr.obj
 0001:0005dba8       $xdatasym                  000000018005eba8     libvcruntime:memchr.obj
 0001:0005dbb0       $xdatasym                  000000018005ebb0     libvcruntime:memcmp.obj
 0001:0005dbb4       $unwind$__C_specific_handler 000000018005ebb4     libvcruntime:riscchandler.obj
 0001:0005dbd0       $xdatasym                  000000018005ebd0     libvcruntime:notify.obj
 0001:0005dbdc       $unwind$__DestructExceptionObject 000000018005ebdc     libvcruntime:ehhelpers.obj
 0001:0005dbfc       $unwind$__acrt_initialize_winapi_thunks 000000018005ebfc     libucrt:winapi_thunks.obj
 0001:0005dbfc       $unwind$__vcrt_initialize_winapi_thunks 000000018005ebfc     libvcruntime:winapi_downlevel.obj
 0001:0005dbfc       $unwind$wcsncpy            000000018005ebfc     libucrt:wcsncpy.obj
 0001:0005dc04       $unwind$__vcrt_uninitialize_winapi_thunks 000000018005ec04     libvcruntime:winapi_downlevel.obj
 0001:0005dc04       $unwind$__acrt_stdio_end_temporary_buffering_nolock 000000018005ec04     libucrt:_sftbuf.obj
 0001:0005dc0c       $unwind$??$process_string_specifier_tchar@D@?$input_processor@DV?$stream_input_adapter@D@__crt_stdio_input@@@__crt_stdio_input@@AEAA_NW4conversion_mode@1@D@Z 000000018005ec0c     libucrt:input.obj
 0001:0005dc0c       $unwind$?try_get_function@@YAPEAXW4function_id@?A0x391cf84c@@QEBDQEBW4module_id@2@2@Z 000000018005ec0c     libucrt:winapi_thunks.obj
 0001:0005dc0c       $unwind$?try_get_function@@YAPEAXW4function_id@?A0xbfd18cd1@@QEBDQEBW4module_id@2@2@Z 000000018005ec0c     libvcruntime:winapi_downlevel.obj
 0001:0005dc28       $xdatasym                  000000018005ec28     libvcruntime:handlers.obj
 0001:0005dc38       $unwind$__stdio_common_vfprintf 000000018005ec38     libucrt:output.obj
 0001:0005dc38       $unwind$__stdio_common_vfscanf 000000018005ec38     libucrt:input.obj
 0001:0005dc40       $unwind$??$common_vsprintf@Vstandard_base@__crt_stdio_output@@D@@YAH_KQEAD0QEBDQEAU__crt_locale_pointers@@1@Z 000000018005ec40     libucrt:output.obj
 0001:0005dc40       $unwind$??$common_vsprintf@Vstandard_base@__crt_stdio_output@@_W@@YAH_KQEA_W0QEB_WQEAU__crt_locale_pointers@@QEAD@Z 000000018005ec40     libucrt:output.obj
 0001:0005dc60       $unwind$?write_string_impl@?$output_adapter_common@DV?$stream_output_adapter@D@__crt_stdio_output@@@__crt_stdio_output@@IEBAXQEBDHQEAHAEAV__crt_deferred_errno_cache@@@Z 000000018005ec60     libucrt:output.obj
 0001:0005dc60       $unwind$_chsize_nolock     000000018005ec60     libucrt:chsize.obj
 0001:0005dc60       $unwind$??$parse_command_line@D@@YAXPEADPEAPEAD0PEA_K2@Z 000000018005ec60     libucrt:argv_parsing.obj
 0001:0005dc7c       $unwind$?process@?$output_processor@DV?$stream_output_adapter@D@__crt_stdio_output@@V?$standard_base@DV?$stream_output_adapter@D@__crt_stdio_output@@@2@@__crt_stdio_output@@QEAAHXZ 000000018005ec7c     libucrt:output.obj
 0001:0005dc7c       $unwind$?process@?$output_processor@DV?$string_output_adapter@D@__crt_stdio_output@@V?$standard_base@DV?$string_output_adapter@D@__crt_stdio_output@@@2@@__crt_stdio_output@@QEAAHXZ 000000018005ec7c     libucrt:output.obj
 0001:0005dc7c       $unwind$?truncate_ctrl_z_if_present@@YAHH@Z 000000018005ec7c     libucrt:open.obj
 0001:0005dc8c       $unwind$?parse_int_from_format_string@?$output_processor@DV?$stream_output_adapter@D@__crt_stdio_output@@V?$standard_base@DV?$stream_output_adapter@D@__crt_stdio_output@@@2@@__crt_stdio_output@@AEAA_NQEAH@Z 000000018005ec8c     libucrt:output.obj
 0001:0005dc8c       $unwind$?process@?$output_processor@_WV?$string_output_adapter@_W@__crt_stdio_output@@V?$standard_base@_WV?$string_output_adapter@_W@__crt_stdio_output@@@2@@__crt_stdio_output@@QEAAHXZ 000000018005ec8c     libucrt:output.obj
 0001:0005dc8c       $unwind$?parse_int_from_format_string@?$output_processor@DV?$string_output_adapter@D@__crt_stdio_output@@V?$standard_base@DV?$string_output_adapter@D@__crt_stdio_output@@@2@@__crt_stdio_output@@AEAA_NQEAH@Z 000000018005ec8c     libucrt:output.obj
 0001:0005dca0       $unwind$?state_case_type@?$output_processor@DV?$string_output_adapter@D@__crt_stdio_output@@V?$standard_base@DV?$string_output_adapter@D@__crt_stdio_output@@@2@@__crt_stdio_output@@AEAA_NXZ 000000018005eca0     libucrt:output.obj
 0001:0005dca0       $unwind$?configure_text_mode@@YAHHUfile_options@?A0xa9d50aae@@HAEAW4__crt_lowio_text_mode@@@Z 000000018005eca0     libucrt:open.obj
 0001:0005dca0       $unwind$?state_case_type@?$output_processor@DV?$stream_output_adapter@D@__crt_stdio_output@@V?$standard_base@DV?$stream_output_adapter@D@__crt_stdio_output@@@2@@__crt_stdio_output@@AEAA_NXZ 000000018005eca0     libucrt:output.obj
 0001:0005dcb8       $unwind$?type_case_a@?$output_processor@DV?$stream_output_adapter@D@__crt_stdio_output@@V?$standard_base@DV?$stream_output_adapter@D@__crt_stdio_output@@@2@@__crt_stdio_output@@AEAA_NXZ 000000018005ecb8     libucrt:output.obj
 0001:0005dcb8       $unwind$?type_case_a@?$output_processor@DV?$string_output_adapter@D@__crt_stdio_output@@V?$standard_base@DV?$string_output_adapter@D@__crt_stdio_output@@@2@@__crt_stdio_output@@AEAA_NXZ 000000018005ecb8     libucrt:output.obj
 0001:0005dcc4       $unwind$?write_stored_string_tchar@?$output_processor@DV?$stream_output_adapter@D@__crt_stdio_output@@V?$standard_base@DV?$stream_output_adapter@D@__crt_stdio_output@@@2@@__crt_stdio_output@@AEAA_ND@Z 000000018005ecc4     libucrt:output.obj
 0001:0005dcc4       $unwind$?write_stored_string_tchar@?$output_processor@DV?$string_output_adapter@D@__crt_stdio_output@@V?$standard_base@DV?$string_output_adapter@D@__crt_stdio_output@@@2@@__crt_stdio_output@@AEAA_ND@Z 000000018005ecc4     libucrt:output.obj
 0001:0005dcdc       $unwind$??R<lambda_a31071773b9a94e445cbd5d04ef99106>@@QEBAHXZ 000000018005ecdc     libucrt:output.obj
 0001:0005dcfc       $unwind$??$write_multiple_characters@V?$stream_output_adapter@D@__crt_stdio_output@@D@__crt_stdio_output@@YAXAEBV?$stream_output_adapter@D@0@DHQEAH@Z 000000018005ecfc     libucrt:output.obj
 0001:0005dcfc       $unwind$?write_string@?$string_output_adapter@D@__crt_stdio_output@@QEBAXQEBDHQEAHAEAV__crt_deferred_errno_cache@@@Z 000000018005ecfc     libucrt:output.obj
 0001:0005dd14       $unwind$?write_string@?$string_output_adapter@_W@__crt_stdio_output@@QEBAXQEB_WHQEAHAEAV__crt_deferred_errno_cache@@@Z 000000018005ed14     libucrt:output.obj
 0001:0005dd2c       $unwind$?state_case_type@?$output_processor@_WV?$string_output_adapter@_W@__crt_stdio_output@@V?$standard_base@_WV?$string_output_adapter@_W@__crt_stdio_output@@@2@@__crt_stdio_output@@AEAA_NXZ 000000018005ed2c     libucrt:output.obj
 0001:0005dd50       $unwind$?type_case_a@?$output_processor@_WV?$string_output_adapter@_W@__crt_stdio_output@@V?$standard_base@_WV?$string_output_adapter@_W@__crt_stdio_output@@@2@@__crt_stdio_output@@AEAA_NXZ 000000018005ed50     libucrt:output.obj
 0001:0005dd60       $unwind$?write_stored_string_tchar@?$output_processor@_WV?$string_output_adapter@_W@__crt_stdio_output@@V?$standard_base@_WV?$string_output_adapter@_W@__crt_stdio_output@@@2@@__crt_stdio_output@@AEAA_N_W@Z 000000018005ed60     libucrt:output.obj
 0001:0005dd74       $unwind$??$write_multiple_characters@V?$string_output_adapter@_W@__crt_stdio_output@@D@__crt_stdio_output@@YAXAEBV?$string_output_adapter@_W@0@DHQEAH@Z 000000018005ed74     libucrt:output.obj
 0001:0005dd74       $unwind$??$write_multiple_characters@V?$string_output_adapter@D@__crt_stdio_output@@D@__crt_stdio_output@@YAXAEBV?$string_output_adapter@D@0@DHQEAH@Z 000000018005ed74     libucrt:output.obj
 0001:0005dd80       $unwind$??$?RV<lambda_a62c933ada0517137acf5807a1eeac1f>@@AEAV<lambda_a31071773b9a94e445cbd5d04ef99106>@@V<lambda_56065050dbf3ada7e59a83db45153de3>@@@?$__crt_seh_guarded_call@H@@QEAAH$$QEAV<lambda_a62c933ada0517137acf5807a1eeac1f>@@AEAV<lambda_a31071773b9a94e445cbd5d04ef99106>@@$$QEAV<lambda_56065050dbf3ada7e59a83db45153de3>@@@Z 000000018005ed80     libucrt:output.obj
 0001:0005dda4       $unwind$??$common_fsopen@_W@@YAPEAU_iobuf@@QEB_W0H@Z 000000018005eda4     libucrt:fopen.obj
 0001:0005ddd0       $unwind$fclose             000000018005edd0     libucrt:fclose.obj
 0001:0005ddf4       $unwind$common_control87   000000018005edf4     libucrt:ieee.obj
 0001:0005de20       $unwind$__GSHandlerCheck_SEH 000000018005ee20     LIBCMT:gshandlerseh.obj
 0001:0005de20       $unwind$__acrt_lowio_set_os_handle 000000018005ee20     libucrt:osfinfo.obj
 0001:0005de20       $unwind$__acrt_initialize_stdio 000000018005ee20     libucrt:_file.obj
 0001:0005de20       $unwind$??$__acrt_stdio_parse_mode@_W@@YA?AU__acrt_stdio_stream_mode@@QEB_W@Z 000000018005ee20     libucrt:openfile.obj
 0001:0005de20       $unwind$?initialize_stdio_handles_nolock@@YAXXZ 000000018005ee20     libucrt:ioinit.obj
 0001:0005de20       $unwind$??$common_xtox@_KD@@YAH_KQEAD0I_N@Z 000000018005ee20     libucrt:xtoa.obj
 0001:0005de38       $unwind$??$common_freopen@_W@@YAHQEAPEAU_iobuf@@QEB_W1V__crt_stdio_stream@@H@Z 000000018005ee38     libucrt:freopen.obj
 0001:0005de64       $unwind$fread_s            000000018005ee64     libucrt:fread.obj
 0001:0005de94       $unwind$_fread_nolock_s    000000018005ee94     libucrt:fread.obj
 0001:0005deac       $unwind$fgetc              000000018005eeac     libucrt:fgetc.obj
 0001:0005dee0       $unwind$rewind             000000018005eee0     libucrt:rewind.obj
 0001:0005df04       $unwind$ungetc             000000018005ef04     libucrt:ungetc.obj
 0001:0005df28       $xdatasym                  000000018005ef28     libucrt:strcmp.obj
 0001:0005df2c       $unwind$_wcsicmp_l         000000018005ef2c     libucrt:wcsicmp.obj
 0001:0005df2c       $unwind$__dcrt_write_console 000000018005ef2c     libucrt:initcon.obj
 0001:0005df2c       $unwind$??$__acrt_wcs_to_mbs_cp@U__crt_win32_buffer_no_resizing@@@@YAHQEB_WAEAV?$__crt_win32_buffer@DU__crt_win32_buffer_no_resizing@@@@I@Z 000000018005ef2c     libucrt:getmodulefilenamea.obj
 0001:0005df40       $xdatasym                  000000018005ef40     libucrt:strncmp.obj
 0001:0005df48       $xdatasym                  000000018005ef48     libucrt:strncpy.obj
 0001:0005df4c       $unwind$fallbackMethod     000000018005ef4c     libucrt:strpbrk.obj
 0001:0005df5c       $unwind$_pclose            000000018005ef5c     libucrt:popen.obj
 0001:0005df84       $unwind$??$common_popen@_W@@YAPEAU_iobuf@@QEB_W0@Z 000000018005ef84     libucrt:popen.obj
 0001:0005dfb4       $unwind$??$common_popen_nolock@_W@@YAPEAU_iobuf@@QEB_W0HAEAY01H@Z 000000018005efb4     libucrt:popen.obj
 0001:0005dfd4       $unwind$??$get_executable_path@_W@@YAPEB_WQEB_W@Z 000000018005efd4     libucrt:popen.obj
 0001:0005dfec       $unwind$clearerr_s         000000018005efec     libucrt:clearerr.obj
 0001:0005e014       $unwind$?common_flush_all@@YAH_N@Z 000000018005f014     libucrt:fflush.obj
 0001:0005e01c       $unwind$??$?RV<lambda_842d9ff0dc9ef11c61343bbaebe7f885>@@AEAV<lambda_c5860995281e5c4ce005b3de8f5874ee>@@V<lambda_d90129c13df834fdcbf8d2b88dafcf2d>@@@?$__crt_seh_guarded_call@X@@QEAAX$$QEAV<lambda_842d9ff0dc9ef11c61343bbaebe7f885>@@AEAV<lambda_c5860995281e5c4ce005b3de8f5874ee>@@$$QEAV<lambda_d90129c13df834fdcbf8d2b88dafcf2d>@@@Z 000000018005f01c     libucrt:fflush.obj
 0001:0005e040       $unwind$??$?RV<lambda_886d6c58226a84441f68b9f2b8217b83>@@AEAV<lambda_ab61a845afdef5b7c387490eaf3616ee>@@V<lambda_f7f22ab5edc0698d5f6905b0d3f44752>@@@?$__crt_seh_guarded_call@X@@QEAAX$$QEAV<lambda_886d6c58226a84441f68b9f2b8217b83>@@AEAV<lambda_ab61a845afdef5b7c387490eaf3616ee>@@$$QEAV<lambda_f7f22ab5edc0698d5f6905b0d3f44752>@@@Z 000000018005f040     libucrt:fflush.obj
 0001:0005e068       $unwind$??$?RV<lambda_c376a267cfb53b6959b3b692ec76b120>@@AEAV<lambda_9a32fed5bf61b6b509b2d3f6003082a1>@@V<lambda_572fbb9fa0ab338edf41edfd4b5fcc8d>@@@?$__crt_seh_guarded_call@H@@QEAAH$$QEAV<lambda_c376a267cfb53b6959b3b692ec76b120>@@AEAV<lambda_9a32fed5bf61b6b509b2d3f6003082a1>@@$$QEAV<lambda_572fbb9fa0ab338edf41edfd4b5fcc8d>@@@Z 000000018005f068     libucrt:fflush.obj
 0001:0005e08c       $unwind$??$common_fgets@D@@YAPEADQEADHV__crt_stdio_stream@@@Z 000000018005f08c     libucrt:fgets.obj
 0001:0005e0b8       $unwind$?common_fseek@@YAHV__crt_stdio_stream@@_JH@Z 000000018005f0b8     libucrt:fseek.obj
 0001:0005e0e0       $unwind$?common_ftell_translated_utf8_nolock@@YA_JV__crt_stdio_stream@@_J@Z 000000018005f0e0     libucrt:ftell.obj
 0001:0005e108       $unwind$?common_ftell_read_mode_nolock@@YA_JV__crt_stdio_stream@@_J1@Z 000000018005f108     libucrt:ftell.obj
 0001:0005e120       $unwind$??$common_ftell@J@@YAJV__crt_stdio_stream@@@Z 000000018005f120     libucrt:ftell.obj
 0001:0005e144       $unwind$fwrite             000000018005f144     libucrt:fwrite.obj
 0001:0005e14c       $unwind$_fwrite_nolock     000000018005f14c     libucrt:fwrite.obj
 0001:0005e168       $unwind$??$?RV<lambda_bdbcead8b570fa3d5ec6d9679862a6e5>@@AEAV<lambda_96f4279ff90247a4c5c5d9824f56f8c1>@@V<lambda_4606be27f17b5e5579e09050fab91818>@@@?$__crt_seh_guarded_call@_K@@QEAA_K$$QEAV<lambda_bdbcead8b570fa3d5ec6d9679862a6e5>@@AEAV<lambda_96f4279ff90247a4c5c5d9824f56f8c1>@@$$QEAV<lambda_4606be27f17b5e5579e09050fab91818>@@@Z 000000018005f168     libucrt:fwrite.obj
 0001:0005e18c       $unwind$setvbuf            000000018005f18c     libucrt:setvbuf.obj
 0001:0005e194       $unwind$??$?RV<lambda_84ec643ea9557e2f7dc01bb0e9624395>@@AEAV<lambda_ca71763b3c0644891230e4f79ea54fa6>@@V<lambda_439a761618c59b0600e24586724d733b>@@@?$__crt_seh_guarded_call@H@@QEAAH$$QEAV<lambda_84ec643ea9557e2f7dc01bb0e9624395>@@AEAV<lambda_ca71763b3c0644891230e4f79ea54fa6>@@$$QEAV<lambda_439a761618c59b0600e24586724d733b>@@@Z 000000018005f194     libucrt:setvbuf.obj
 0001:0005e1b8       $unwind$?common_tmpfile_nolock@@YAHQEAPEAU_iobuf@@H@Z 000000018005f1b8     libucrt:tmpfile.obj
 0001:0005e1e4       $unwind$??$initialize_tmpfile_buffer_nolock@D@@YA_NW4buffer_id@?A0x5b9a7937@@@Z 000000018005f1e4     libucrt:tmpfile.obj
 0001:0005e1f8       $unwind$?common_tmpfile@@YAHQEAPEAU_iobuf@@H@Z 000000018005f1f8     libucrt:tmpfile.obj
 0001:0005e21c       $unwind$?divide@__crt_strtox@@YA_KAEAUbig_integer@1@AEBU21@@Z 000000018005f21c     libucrt:input.obj
 0001:0005e234       $chain$0$?divide@__crt_strtox@@YA_KAEAUbig_integer@1@AEBU21@@Z 000000018005f234     libucrt:input.obj
 0001:0005e248       $chain$1$?divide@__crt_strtox@@YA_KAEAUbig_integer@1@AEBU21@@Z 000000018005f248     libucrt:input.obj
 0001:0005e258       $unwind$?assemble_floating_point_value@__crt_strtox@@YA?AW4SLD_STATUS@@_KH_N1AEBVfloating_point_value@1@@Z 000000018005f258     libucrt:input.obj
 0001:0005e270       $unwind$?assemble_floating_point_value_from_big_integer@__crt_strtox@@YA?AW4SLD_STATUS@@AEBUbig_integer@1@I_N1AEBVfloating_point_value@1@@Z 000000018005f270     libucrt:input.obj
 0001:0005e28c       $unwind$?convert_decimal_string_to_floating_type_common@__crt_strtox@@YA?AW4SLD_STATUS@@AEBUfloating_point_string@1@AEBVfloating_point_value@1@@Z 000000018005f28c     libucrt:input.obj
 0001:0005e2b0       $unwind$?write_character@?$input_processor@DV?$stream_input_adapter@D@__crt_stdio_input@@@__crt_stdio_input@@AEAA_NQEFA_W_KAEAPEFA_WAEA_KD@Z 000000018005f2b0     libucrt:input.obj
 0001:0005e2c0       $unwind$??R<lambda_f3caf1ecae5fe01a9a1a6239afa44510>@@QEBAHXZ 000000018005f2c0     libucrt:input.obj
 0001:0005e2e0       $unwind$??$process_floating_point_specifier_t@N@?$input_processor@DV?$stream_input_adapter@D@__crt_stdio_input@@@__crt_stdio_input@@AEAA_NXZ 000000018005f2e0     libucrt:input.obj
 0001:0005e2e0       $unwind$??$process_floating_point_specifier_t@M@?$input_processor@DV?$stream_input_adapter@D@__crt_stdio_input@@@__crt_stdio_input@@AEAA_NXZ 000000018005f2e0     libucrt:input.obj
 0001:0005e2ec       $unwind$??$parse_integer@_KV?$input_adapter_character_source@V?$stream_input_adapter@D@__crt_stdio_input@@@__crt_strtox@@@__crt_strtox@@YA_KQEAU__crt_locale_pointers@@V?$input_adapter_character_source@V?$stream_input_adapter@D@__crt_stdio_input@@@0@H_N@Z 000000018005f2ec     libucrt:input.obj
 0001:0005e308       $unwind$??$process_string_specifier_tchar@_W@?$input_processor@DV?$stream_input_adapter@D@__crt_stdio_input@@@__crt_stdio_input@@AEAA_NW4conversion_mode@1@_W@Z 000000018005f308     libucrt:input.obj
 0001:0005e320       $unwind$??$?RV<lambda_082dd7c0feb7dbdaf245f261e54a6583>@@AEAV<lambda_f3caf1ecae5fe01a9a1a6239afa44510>@@V<lambda_c640b76c0755ae85b317b35c67c61e6b>@@@?$__crt_seh_guarded_call@H@@QEAAH$$QEAV<lambda_082dd7c0feb7dbdaf245f261e54a6583>@@AEAV<lambda_f3caf1ecae5fe01a9a1a6239afa44510>@@$$QEAV<lambda_c640b76c0755ae85b317b35c67c61e6b>@@@Z 000000018005f320     libucrt:input.obj
 0001:0005e344       $unwind$??$parse_floating_point@V?$input_adapter_character_source@V?$stream_input_adapter@D@__crt_stdio_input@@@__crt_strtox@@M@__crt_strtox@@YA?AW4SLD_STATUS@@QEAU__crt_locale_pointers@@V?$input_adapter_character_source@V?$stream_input_adapter@D@__crt_stdio_input@@@0@QEAM@Z 000000018005f344     libucrt:input.obj
 0001:0005e344       $unwind$??$parse_floating_point@V?$input_adapter_character_source@V?$stream_input_adapter@D@__crt_stdio_input@@@__crt_strtox@@N@__crt_strtox@@YA?AW4SLD_STATUS@@QEAU__crt_locale_pointers@@V?$input_adapter_character_source@V?$stream_input_adapter@D@__crt_stdio_input@@@0@QEAN@Z 000000018005f344     libucrt:input.obj
 0001:0005e35c       $unwind$??$parse_floating_point_from_source@V?$input_adapter_character_source@V?$stream_input_adapter@D@__crt_stdio_input@@@__crt_strtox@@@__crt_strtox@@YA?AW4floating_point_parse_result@0@QEAU__crt_locale_pointers@@AEAV?$input_adapter_character_source@V?$stream_input_adapter@D@__crt_stdio_input@@@0@AEAUfloating_point_string@0@@Z 000000018005f35c     libucrt:input.obj
 0001:0005e374       $unwind$??$parse_floating_point_possible_nan@DV?$input_adapter_character_source@V?$stream_input_adapter@D@__crt_stdio_input@@@__crt_strtox@@_K@__crt_strtox@@YA?AW4floating_point_parse_result@0@AEADAEAV?$input_adapter_character_source@V?$stream_input_adapter@D@__crt_stdio_input@@@0@_K@Z 000000018005f374     libucrt:input.obj
 0001:0005e388       $unwind$??$common_getenv@_W@@YAPEA_WQEB_W@Z 000000018005f388     libucrt:getenv.obj
 0001:0005e3a8       $unwind$??$common_dupenv_s@_W@@YAHQEAPEA_WQEA_KQEB_WHQEBDH@Z 000000018005f3a8     libucrt:getenv.obj
 0001:0005e3e8       $unwind$_wsystem           000000018005f3e8     libucrt:system.obj
 0001:0005e400       $unwind$?common_exit@@YAXHW4_crt_exit_cleanup_mode@@W4_crt_exit_return_mode@@@Z 000000018005f400     libucrt:exit.obj
 0001:0005e40c       $unwind$??R<lambda_6e4b09c48022b2350581041d5f6b0c4c>@@QEBA@XZ 000000018005f40c     libucrt:exit.obj
 0001:0005e42c       $unwind$??$?RV<lambda_d80eeec6fff315bfe5c115232f3240e3>@@AEAV<lambda_6e4b09c48022b2350581041d5f6b0c4c>@@V<lambda_2358e3775559c9db80273638284d5e45>@@@?$__crt_seh_guarded_call@X@@QEAAX$$QEAV<lambda_d80eeec6fff315bfe5c115232f3240e3>@@AEAV<lambda_6e4b09c48022b2350581041d5f6b0c4c>@@$$QEAV<lambda_2358e3775559c9db80273638284d5e45>@@@Z 000000018005f42c     libucrt:exit.obj
 0001:0005e450       $unwind$_configure_narrow_argv 000000018005f450     libucrt:argv_parsing.obj
 0001:0005e464       $unwind$??$free_environment@_W@@YAXQEAPEA_W@Z 000000018005f464     libucrt:environment_initialization.obj
 0001:0005e464       $unwind$??$free_environment@D@@YAXQEAPEAD@Z 000000018005f464     libucrt:environment_initialization.obj
 0001:0005e470       $unwind$_execute_onexit_table 000000018005f470     libucrt:onexit.obj
 0001:0005e478       $unwind$??$?RV<lambda_7777bce6b2f8c936911f934f8298dc43>@@AEAV<lambda_f03950bc5685219e0bcd2087efbe011e>@@V<lambda_3883c3dff614d5e0c5f61bb1ac94921c>@@@?$__crt_seh_guarded_call@H@@QEAAH$$QEAV<lambda_7777bce6b2f8c936911f934f8298dc43>@@AEAV<lambda_f03950bc5685219e0bcd2087efbe011e>@@$$QEAV<lambda_3883c3dff614d5e0c5f61bb1ac94921c>@@@Z 000000018005f478     libucrt:onexit.obj
 0001:0005e49c       $unwind$terminate          000000018005f49c     libucrt:terminate.obj
 0001:0005e4bc       $unwind$?_strupr_s_l_stat@@YAHQEAD_KQEAU__crt_locale_pointers@@@Z 000000018005f4bc     libucrt:strupr.obj
 0001:0005e4e0       $unwind$??$parse_integer@_KV?$c_string_character_source@D@__crt_strtox@@@__crt_strtox@@YA_KQEAU__crt_locale_pointers@@V?$c_string_character_source@D@0@H_N@Z 000000018005f4e0     libucrt:atox.obj
 0001:0005e4e0       $unwind$??$parse_integer@KV?$c_string_character_source@D@__crt_strtox@@@__crt_strtox@@YAKQEAU__crt_locale_pointers@@V?$c_string_character_source@D@0@H_N@Z 000000018005f4e0     libucrt:atox.obj
 0001:0005e4fc       $unwind$??$parse_integer@KV?$c_string_character_source@_W@__crt_strtox@@@__crt_strtox@@YAKQEAU__crt_locale_pointers@@V?$c_string_character_source@_W@0@H_N@Z 000000018005f4fc     libucrt:atox.obj
 0001:0005e514       $unwind$__acrt_call_reportfault 000000018005f514     libucrt:invalid_parameter.obj
 0001:0005e534       $unwind$_tolower_l         000000018005f534     libucrt:tolower_toupper.obj
 0001:0005e544       $unwind$__acrt_locale_free_numeric 000000018005f544     libucrt:initnum.obj
 0001:0005e544       $unwind$?destroy_fls@@YAXPEAX@Z 000000018005f544     libucrt:per_thread_data.obj
 0001:0005e544       $unwind$_free_base         000000018005f544     libucrt:free_base.obj
 0001:0005e544       $unwind$__acrt_locale_free_lc_time_if_unreferenced 000000018005f544     libucrt:locale_refcounting.obj
 0001:0005e54c       $unwind$__acrt_LCMapStringW 000000018005f54c     libucrt:lcmapstringw.obj
 0001:0005e54c       $unwind$__acrt_LCMapStringEx 000000018005f54c     libucrt:winapi_thunks.obj
 0001:0005e54c       $unwind$__acrt_CompareStringEx 000000018005f54c     libucrt:winapi_thunks.obj
 0001:0005e54c       $unwind$?fp_format_e@@YAHQEBNQEAD_K12H_NIQEAU__crt_locale_pointers@@@Z 000000018005f54c     libucrt:cvt.obj
 0001:0005e54c       $unwind$_mbtowc_l          000000018005f54c     libucrt:mbtowc.obj
 0001:0005e560       $unwind$_wctomb_s_l        000000018005f560     libucrt:wctomb.obj
 0001:0005e570       $unwind$?construct_ptd_array@@YAXQEAU__acrt_ptd@@@Z 000000018005f570     libucrt:per_thread_data.obj
 0001:0005e578       $unwind$?destroy_ptd_array@@YAXQEAU__acrt_ptd@@@Z 000000018005f578     libucrt:per_thread_data.obj
 0001:0005e580       $unwind$??$?RV<lambda_0ae27a3a962d80f24befdcbee591983d>@@AEAV<lambda_8d0ee55de4b1038c4002e0adecdf1839>@@V<lambda_dc504788e8f1664fe9b84e20bfb512f2>@@@?$__crt_seh_guarded_call@X@@QEAAX$$QEAV<lambda_0ae27a3a962d80f24befdcbee591983d>@@AEAV<lambda_8d0ee55de4b1038c4002e0adecdf1839>@@$$QEAV<lambda_dc504788e8f1664fe9b84e20bfb512f2>@@@Z 000000018005f580     libucrt:per_thread_data.obj
 0001:0005e5a4       $unwind$??$?RV<lambda_aa87e3671a710a21b5dc78c0bdf72e11>@@AEAV<lambda_92619d2358a28f41a33ba319515a20b9>@@V<lambda_6992ecaafeb10aed2b74cb1fae11a551>@@@?$__crt_seh_guarded_call@X@@QEAAX$$QEAV<lambda_aa87e3671a710a21b5dc78c0bdf72e11>@@AEAV<lambda_92619d2358a28f41a33ba319515a20b9>@@$$QEAV<lambda_6992ecaafeb10aed2b74cb1fae11a551>@@@Z 000000018005f5a4     libucrt:per_thread_data.obj
 0001:0005e5c8       $unwind$??$?RV<lambda_f2e299630e499de9f9a165e60fcd3db5>@@AEAV<lambda_2ae9d31cdba2644fcbeaf08da7c24588>@@V<lambda_40d01ff24d0e7b3814fdbdcee8eab3c7>@@@?$__crt_seh_guarded_call@X@@QEAAX$$QEAV<lambda_f2e299630e499de9f9a165e60fcd3db5>@@AEAV<lambda_2ae9d31cdba2644fcbeaf08da7c24588>@@$$QEAV<lambda_40d01ff24d0e7b3814fdbdcee8eab3c7>@@@Z 000000018005f5c8     libucrt:per_thread_data.obj
 0001:0005e5ec       $unwind$??$?RV<lambda_2d41944a1d46af3157314b8a01080d33>@@AEAV<lambda_8f455de75cd7d7f24b4096f044d8b9e6>@@V<lambda_aa500f224e6afead328df44964fe2772>@@@?$__crt_seh_guarded_call@X@@QEAAX$$QEAV<lambda_2d41944a1d46af3157314b8a01080d33>@@AEAV<lambda_8f455de75cd7d7f24b4096f044d8b9e6>@@$$QEAV<lambda_aa500f224e6afead328df44964fe2772>@@@Z 000000018005f5ec     libucrt:per_thread_data.obj
 0001:0005e610       $unwind$__acrt_fp_format   000000018005f610     libucrt:cvt.obj
 0001:0005e624       $unwind$?fp_format_nan_or_infinity@@YAHW4__acrt_fp_class@@_NPEAD_K1@Z 000000018005f624     libucrt:cvt.obj
 0001:0005e638       $unwind$?fp_format_e_internal@@YAHQEAD_KH_NIQEAU_strflt@@2QEAU__crt_locale_pointers@@@Z 000000018005f638     libucrt:cvt.obj
 0001:0005e650       $unwind$?fp_format_a@@YAHQEBNPEAD_KQEAD2H_NIQEAU__crt_locale_pointers@@@Z 000000018005f650     libucrt:cvt.obj
 0001:0005e66c       $unwind$_wcsnicmp_l        000000018005f66c     libucrt:wcsnicmp.obj
 0001:0005e66c       $unwind$??$__acrt_wcs_to_mbs_cp@U__crt_win32_buffer_internal_dynamic_resizing@@@@YAHQEB_WAEAV?$__crt_win32_buffer@DU__crt_win32_buffer_internal_dynamic_resizing@@@@I@Z 000000018005f66c     libucrt:argv_wildcards.obj
 0001:0005e66c       $unwind$?fp_format_f_internal@@YAHQEAD_KHQEAU_strflt@@_NQEAU__crt_locale_pointers@@@Z 000000018005f66c     libucrt:cvt.obj
 0001:0005e66c       $unwind$__dcrt_get_narrow_environment_from_os 000000018005f66c     libucrt:get_environment_from_os.obj
 0001:0005e684       $unwind$?fp_format_g@@YAHQEBNQEAD_K12H_NIQEAU__crt_locale_pointers@@@Z 000000018005f684     libucrt:cvt.obj
 0001:0005e698       $unwind$__acrt_uninitialize_locale 000000018005f698     libucrt:wsetlocale.obj
 0001:0005e698       $unwind$__acrt_get_sigabrt_handler 000000018005f698     libucrt:signal.obj
 0001:0005e6a0       $unwind$??$?RV<lambda_410d79af7f07d98d83a3f525b3859a53>@@AEAV<lambda_3e16ef9562a7dcce91392c22ab16ea36>@@V<lambda_38119f0e861e05405d8a144b9b982f0a>@@@?$__crt_seh_guarded_call@X@@QEAAX$$QEAV<lambda_410d79af7f07d98d83a3f525b3859a53>@@AEAV<lambda_3e16ef9562a7dcce91392c22ab16ea36>@@$$QEAV<lambda_38119f0e861e05405d8a144b9b982f0a>@@@Z 000000018005f6a0     libucrt:wsetlocale.obj
 0001:0005e6c8       $unwind$__acrt_initialize_lowio 000000018005f6c8     libucrt:ioinit.obj
 0001:0005e6e8       $unwind$?initialize_inherited_file_handles_nolock@@YAXXZ 000000018005f6e8     libucrt:ioinit.obj
 0001:0005e704       $unwind$?__acrt_stdio_allocate_stream@@YA?AV__crt_stdio_stream@@XZ 000000018005f704     libucrt:stream.obj
 0001:0005e724       $unwind$_wopenfile         000000018005f724     libucrt:openfile.obj
 0001:0005e738       $unwind$_close             000000018005f738     libucrt:close.obj
 0001:0005e738       $unwind$_commit            000000018005f738     libucrt:commit.obj
 0001:0005e740       $unwind$??$?RV<lambda_751a882b2c74d4b022dec766aa51a29a>@@AEAV<lambda_628dfdc04ba53c8bfc02c9951375f3f5>@@V<lambda_f6c7be5f7998530c34de24c7437d6b54>@@@?$__crt_seh_guarded_call@H@@QEAAH$$QEAV<lambda_751a882b2c74d4b022dec766aa51a29a>@@AEAV<lambda_628dfdc04ba53c8bfc02c9951375f3f5>@@$$QEAV<lambda_f6c7be5f7998530c34de24c7437d6b54>@@@Z 000000018005f740     libucrt:close.obj
 0001:0005e768       $xdatasym                  000000018005f768     libucrt:fpsr.obj
 0001:0005e770       $unwind$_fcloseall         000000018005f770     libucrt:closeall.obj
 0001:0005e794       $unwind$_read              000000018005f794     libucrt:read.obj
 0001:0005e7c4       $unwind$_read_nolock       000000018005f7c4     libucrt:read.obj
 0001:0005e7dc       $unwind$?translate_ansi_or_utf8_nolock@@YAHHQEAD_KQEA_W1@Z 000000018005f7dc     libucrt:read.obj
 0001:0005e7f8       $unwind$??$translate_text_mode_nolock@D@@YAHHQEAD_K@Z 000000018005f7f8     libucrt:read.obj
 0001:0005e810       $unwind$??$translate_text_mode_nolock@_W@@YAHHQEA_W_K@Z 000000018005f810     libucrt:read.obj
 0001:0005e828       $unwind$??$common_lseek@J@@YAJHJH@Z 000000018005f828     libucrt:lseek.obj
 0001:0005e858       $unwind$??$common_lseek@_J@@YA_JH_JH@Z 000000018005f858     libucrt:lseek.obj
 0001:0005e888       $unwind$_isctype_l         000000018005f888     libucrt:isctype.obj
 0001:0005e8a4       $unwind$_towlower_l        000000018005f8a4     libucrt:towlower.obj
 0001:0005e8ac       $unwind$??$__acrt_mbs_to_wcs_cp@U__crt_win32_buffer_internal_dynamic_resizing@@@@YAHQEBDAEAV?$__crt_win32_buffer@_WU__crt_win32_buffer_internal_dynamic_resizing@@@@I@Z 000000018005f8ac     libucrt:createprocessa.obj
 0001:0005e8ac       $unwind$??$copy_environment@_W@@YAPEAPEA_WQEAPEA_W@Z 000000018005f8ac     libucrt:setenv.obj
 0001:0005e8c4       $unwind$_waccess_s         000000018005f8c4     libucrt:waccess.obj
 0001:0005e8d4       $unwind$_pipe              000000018005f8d4     libucrt:pipe.obj
 0001:0005e914       $unwind$??$common_fdopen@_W@@YAPEAU_iobuf@@HQEB_W@Z 000000018005f914     libucrt:fdopen.obj
 0001:0005e934       $unwind$??$?RV<lambda_a37b2b86f63e897a80ea819b0eb08c01>@@AEAV<lambda_38ce7e780aa69e748d6df282ebc68efe>@@V<lambda_99fb1378e971ab6e7edea83e3a7a83a2>@@@?$__crt_seh_guarded_call@H@@QEAAH$$QEAV<lambda_a37b2b86f63e897a80ea819b0eb08c01>@@AEAV<lambda_38ce7e780aa69e748d6df282ebc68efe>@@$$QEAV<lambda_99fb1378e971ab6e7edea83e3a7a83a2>@@@Z 000000018005f934     libucrt:commit.obj
 0001:0005e958       $unwind$_write             000000018005f958     libucrt:write.obj
 0001:0005e988       $unwind$_write_nolock      000000018005f988     libucrt:write.obj
 0001:0005e9a0       $unwind$?write_double_translated_ansi_nolock@@YA?AUwrite_result@?A0x17268360@@HQEBDI@Z 000000018005f9a0     libucrt:write.obj
 0001:0005e9c4       $unwind$?write_text_utf16le_nolock@@YA?AUwrite_result@?A0x17268360@@HQEBDI@Z 000000018005f9c4     libucrt:write.obj
 0001:0005e9c4       $unwind$?write_text_ansi_nolock@@YA?AUwrite_result@?A0x17268360@@HQEBDI@Z 000000018005f9c4     libucrt:write.obj
 0001:0005e9e4       $unwind$?write_text_utf8_nolock@@YA?AUwrite_result@?A0x17268360@@HQEBDI@Z 000000018005f9e4     libucrt:write.obj
 0001:0005ea08       $unwind$??$write_buffer_nolock@D@@YA_NDV__crt_stdio_stream@@@Z 000000018005fa08     libucrt:_flsbuf.obj
 0001:0005ea18       $unwind$__acrt_GetTempPathA 000000018005fa18     libucrt:gettemppath.obj
 0001:0005ea30       $unwind$_sopen_nolock      000000018005fa30     libucrt:open.obj
 0001:0005ea4c       $unwind$_wsopen_nolock     000000018005fa4c     libucrt:open.obj
 0001:0005ea6c       $unwind$??$common_sopen_dispatch@D@@YAHQEBDHHHQEAHH@Z 000000018005fa6c     libucrt:open.obj
 0001:0005ea90       $unwind$?fin$0@?0???$common_sopen_dispatch@_W@@YAHQEB_WHHHQEAHH@Z@4HA 000000018005fa90     libucrt:open.obj
 0001:0005ea90       $unwind$?fin$0@?0???$common_sopen_dispatch@D@@YAHQEBDHHHQEAHH@Z@4HA 000000018005fa90     libucrt:open.obj
 0001:0005ea98       $unwind$??$common_sopen_dispatch@_W@@YAHQEB_WHHHQEAHH@Z 000000018005fa98     libucrt:open.obj
 0001:0005eabc       $unwind$_rmtmp             000000018005fabc     libucrt:rmtmp.obj
 0001:0005eaf0       $unwind$__acrt_CompareStringW 000000018005faf0     libucrt:comparestringw.obj
 0001:0005eaf0       $unwind$_wcsnicoll_l       000000018005faf0     libucrt:wcsnicol.obj
 0001:0005eb08       $unwind$?accumulate_inheritable_handles@@YA_NQEAPEAEQEA_K_N@Z 000000018005fb08     libucrt:spawnv.obj
 0001:0005eb10       $unwind$??R<lambda_a094494068278ba5130ab06e1292f60a>@@QEBA_NXZ 000000018005fb10     libucrt:spawnv.obj
 0001:0005eb2c       $unwind$??$common_spawnv@_W@@YA_JHQEB_WQEBQEB_W1@Z 000000018005fb2c     libucrt:spawnv.obj
 0001:0005eb48       $unwind$??$?RV<lambda_a22f0c497e5168315e06dae667770027>@@AEAV<lambda_a094494068278ba5130ab06e1292f60a>@@V<lambda_24dc10c13f43218c635520766e23e324>@@@?$__crt_seh_guarded_call@_N@@QEAA_N$$QEAV<lambda_a22f0c497e5168315e06dae667770027>@@AEAV<lambda_a094494068278ba5130ab06e1292f60a>@@$$QEAV<lambda_24dc10c13f43218c635520766e23e324>@@@Z 000000018005fb48     libucrt:spawnv.obj
 0001:0005eb6c       $unwind$??$execute_command@_W@@YA_JHQEB_WQEBQEB_W1@Z 000000018005fb6c     libucrt:spawnv.obj
 0001:0005eb88       $unwind$??$common_spawnvp@_W@@YA_JHQEB_WQEBQEB_W1@Z 000000018005fb88     libucrt:spawnvp.obj
 0001:0005eba8       $unwind$??$common_expand_argv_wildcards@D@@YAHQEAPEADQEAPEAPEAD@Z 000000018005fba8     libucrt:argv_wildcards.obj
 0001:0005ebc0       $unwind$??$common_set_variable_in_environment_nolock@_W@@YAHQEA_WH@Z 000000018005fbc0     libucrt:setenv.obj
 0001:0005ebc0       $unwind$??$copy_and_add_argument_to_buffer@D@@YAHQEBD0_KAEAV?$argument_list@D@?A0x5f5c8891@@@Z 000000018005fbc0     libucrt:argv_wildcards.obj
 0001:0005ebdc       $unwind$??$expand_argument_wildcards@D@@YAHQEAD0AEAV?$argument_list@D@?A0x5f5c8891@@@Z 000000018005fbdc     libucrt:argv_wildcards.obj
 0001:0005ec00       $unwind$__acrt_GetModuleFileNameA 000000018005fc00     libucrt:getmodulefilenamea.obj
 0001:0005ec1c       $unwind$_setmbcp_nolock    000000018005fc1c     libucrt:mbctype.obj
 0001:0005ec3c       $unwind$?update_thread_multibyte_data_internal@@YAPEAU__crt_multibyte_data@@QEAU__acrt_ptd@@QEAPEAU1@@Z 000000018005fc3c     libucrt:mbctype.obj
 0001:0005ec64       $unwind$?setmbcp_internal@@YAHH_NQEAU__acrt_ptd@@QEAPEAU__crt_multibyte_data@@@Z 000000018005fc64     libucrt:mbctype.obj
 0001:0005ec74       $unwind$?setSBUpLow@@YAXPEAU__crt_multibyte_data@@@Z 000000018005fc74     libucrt:mbctype.obj
 0001:0005ec90       $unwind$??$?RV<lambda_efdfa57d1f175319df784efa44bb7b81>@@AEAV<lambda_5f0a4c1567f8adc6734073e5d1e1b35c>@@V<lambda_2e8a7d3640ea6ccb4c2413664c2db6fd>@@@?$__crt_seh_guarded_call@X@@QEAAX$$QEAV<lambda_efdfa57d1f175319df784efa44bb7b81>@@AEAV<lambda_5f0a4c1567f8adc6734073e5d1e1b35c>@@$$QEAV<lambda_2e8a7d3640ea6ccb4c2413664c2db6fd>@@@Z 000000018005fc90     libucrt:mbctype.obj
 0001:0005ecb4       $unwind$?x_ismbbtype_l@@YAHPEAU__crt_locale_pointers@@IHH@Z 000000018005fcb4     libucrt:ismbbyte.obj
 0001:0005ecc4       $unwind$_query_new_handler 000000018005fcc4     libucrt:new_handler.obj
 0001:0005ece4       $unwind$raise              000000018005fce4     libucrt:signal.obj
 0001:0005ed20       $unwind$??$?RV<lambda_450d765d439847d4c735a33c368b5fc0>@@AEAV<lambda_44731a7d0e6d81c3e6aa82d741081786>@@V<lambda_601a2a7da3b7a96e9554ac7215c4b07c>@@@?$__crt_seh_guarded_call@P6AXH@Z@@QEAAP6AXH@Z$$QEAV<lambda_450d765d439847d4c735a33c368b5fc0>@@AEAV<lambda_44731a7d0e6d81c3e6aa82d741081786>@@$$QEAV<lambda_601a2a7da3b7a96e9554ac7215c4b07c>@@@Z 000000018005fd20     libucrt:signal.obj
 0001:0005ed44       $unwind$__acrt_LCMapStringA 000000018005fd44     libucrt:lcmapstringa.obj
 0001:0005ed54       $unwind$?__acrt_LCMapStringA_stat@@YAHPEAU__crt_locale_pointers@@PEB_WKPEBDHPEADHHH@Z 000000018005fd54     libucrt:lcmapstringa.obj
 0001:0005ed7c       $unwind$?__mbsrtowcs_utf8@__crt_mbstring@@YA_KPEA_WPEAPEBD_KPEAU_Mbstatet@@@Z 000000018005fd7c     libucrt:mbrtowc.obj
 0001:0005ed94       $unwind$__acrt_update_thread_locale_data 000000018005fd94     libucrt:locale_refcounting.obj
 0001:0005edb8       $unwind$__acrt_fltout      000000018005fdb8     libucrt:cfout.obj
 0001:0005edd8       $unwind$__acrt_locale_free_monetary 000000018005fdd8     libucrt:initmon.obj
 0001:0005ede0       $unwind$__acrt_locale_free_time 000000018005fde0     libucrt:inittime.obj
 0001:0005edf0       $unwind$__acrt_GetStringTypeA 000000018005fdf0     libucrt:getstringtypea.obj
 0001:0005ee18       $unwind$_alloc_osfhnd      000000018005fe18     libucrt:osfinfo.obj
 0001:0005ee48       $unwind$__acrt_lowio_destroy_handle_array 000000018005fe48     libucrt:osfinfo.obj
 0001:0005ee58       $unwind$__acrt_lowio_ensure_fh_exists 000000018005fe58     libucrt:osfinfo.obj
 0001:0005ee84       $unwind$?GetTableIndexFromLocaleName@@YAHPEB_W@Z 000000018005fe84     libucrt:lcidtoname_downlevel.obj
 0001:0005ee9c       $unwind$_setmode_nolock    000000018005fe9c     libucrt:setmode.obj
 0001:0005eeac       $unwind$_putwch_nolock     000000018005feac     libucrt:putwch.obj
 0001:0005eeb4       $unwind$__acrt_fenv_set_control 000000018005feb4     libucrt:_fenvutils.obj
 0001:0005eec4       $unwind$__acrt_pack_wide_command_line_and_environment 000000018005fec4     libucrt:cenvarg.obj
 0001:0005eee0       $unwind$??$construct_environment_block@_W@@YAHQEBQEB_WQEAPEA_W@Z 000000018005fee0     libucrt:cenvarg.obj
 0001:0005ef00       $unwind$qsort              000000018005ff00     libucrt:qsort.obj
 0001:0005ef18       $chain$4$qsort             000000018005ff18     libucrt:qsort.obj
 0001:0005ef3c       $chain$5$qsort             000000018005ff3c     libucrt:qsort.obj
 0001:0005ef4c       $unwind$?__mbrtoc32_utf8@__crt_mbstring@@YA_KPEA_UPEBD_KPEAU_Mbstatet@@@Z 000000018005ff4c     libucrt:mbrtoc32.obj
 0001:0005ef68       $xdatasym                  000000018005ff68     libucrt:log10.obj
 0001:0005ef74       $unwind$_call_matherr      000000018005ff74     libucrt:libm_error.obj
 0001:0005ef7c       $unwind$_handle_error      000000018005ff7c     libucrt:libm_error.obj
 0001:0005ef9c       $unwind$__acrt_initialize_fma3 000000018005ff9c     libucrt:fma3_available.obj
 0001:0005efa4       $unwind$_log_special_common 000000018005ffa4     libucrt:log_special.obj
 0001:0005efb0       $unwind$_raise_exc_ex      000000018005ffb0     libucrt:fpexcept.obj
 0001:0005efc4       $unwind$_ctrlfp            000000018005ffc4     libucrt:fpctrl.obj
 0001:0005efec       $unwind$_IsNonwritableInCurrentImage 000000018005ffec     LIBCMT:pesect.obj
 0001:0005f010       $xdatasym                  0000000180060010     LIBCMT:amdsecgs.obj
 0001:0005f014       $unwind$__report_securityfailure 0000000180060014     LIBCMT:gs_report.obj
 0001:0005f01c       $unwind$__report_gsfailure 000000018006001c     LIBCMT:gs_report.obj
 0001:0005f024       $unwind$_local_unwind      0000000180060024     libvcruntime:jmpuwind.obj
 0001:0005f030       .edata                     0000000180060030     luafar3.exp
 0001:0005f058       rgpv                       0000000180060058     luafar3.exp
 0001:0005f104       rgszName                   0000000180060104     luafar3.exp
 0001:0005f1b0       rgwOrd                     00000001800601b0     luafar3.exp
 0001:0005f206       szName                     0000000180060206     luafar3.exp
 0001:0005f212       $N00001                    0000000180060212     luafar3.exp
 0001:0005f21d       $N00002                    000000018006021d     luafar3.exp
 0001:0005f22d       $N00003                    000000018006022d     luafar3.exp
 0001:0005f23b       $N00004                    000000018006023b     luafar3.exp
 0001:0005f246       $N00005                    0000000180060246     luafar3.exp
 0001:0005f253       $N00006                    0000000180060253     luafar3.exp
 0001:0005f262       $N00007                    0000000180060262     luafar3.exp
 0001:0005f26d       $N00008                    000000018006026d     luafar3.exp
 0001:0005f277       $N00009                    0000000180060277     luafar3.exp
 0001:0005f282       $N00010                    0000000180060282     luafar3.exp
 0001:0005f295       $N00011                    0000000180060295     luafar3.exp
 0001:0005f2a5       $N00012                    00000001800602a5     luafar3.exp
 0001:0005f2b7       $N00013                    00000001800602b7     luafar3.exp
 0001:0005f2cb       $N00014                    00000001800602cb     luafar3.exp
 0001:0005f2d7       $N00015                    00000001800602d7     luafar3.exp
 0001:0005f2e6       $N00016                    00000001800602e6     luafar3.exp
 0001:0005f2f7       $N00017                    00000001800602f7     luafar3.exp
 0001:0005f307       $N00018                    0000000180060307     luafar3.exp
 0001:0005f31b       $N00019                    000000018006031b     luafar3.exp
 0001:0005f32c       $N00020                    000000018006032c     luafar3.exp
 0001:0005f334       $N00021                    0000000180060334     luafar3.exp
 0001:0005f345       $N00022                    0000000180060345     luafar3.exp
 0001:0005f356       $N00023                    0000000180060356     luafar3.exp
 0001:0005f362       $N00024                    0000000180060362     luafar3.exp
 0001:0005f373       $N00025                    0000000180060373     luafar3.exp
 0001:0005f384       $N00026                    0000000180060384     luafar3.exp
 0001:0005f38f       $N00027                    000000018006038f     luafar3.exp
 0001:0005f397       $N00028                    0000000180060397     luafar3.exp
 0001:0005f3ae       $N00029                    00000001800603ae     luafar3.exp
 0001:0005f3c4       $N00030                    00000001800603c4     luafar3.exp
 0001:0005f3da       $N00031                    00000001800603da     luafar3.exp
 0001:0005f3f0       $N00032                    00000001800603f0     luafar3.exp
 0001:0005f402       $N00033                    0000000180060402     luafar3.exp
 0001:0005f415       $N00034                    0000000180060415     luafar3.exp
 0001:0005f42a       $N00035                    000000018006042a     luafar3.exp
 0001:0005f43f       $N00036                    000000018006043f     luafar3.exp
 0001:0005f456       $N00037                    0000000180060456     luafar3.exp
 0001:0005f46c       $N00038                    000000018006046c     luafar3.exp
 0001:0005f478       $N00039                    0000000180060478     luafar3.exp
 0001:0005f48c       $N00040                    000000018006048c     luafar3.exp
 0001:0005f49d       $N00041                    000000018006049d     luafar3.exp
 0001:0005f4ad       $N00042                    00000001800604ad     luafar3.exp
 0001:0005f4bc       $N00043                    00000001800604bc     luafar3.exp
 0002:00001e50       pageMap                    0000000180062e50     slnunico.obj
 0002:00003550       groupMap                   0000000180064550     slnunico.obj
 0002:00005300       groups                     0000000180066300     slnunico.obj
 0002:00005530       ?__vcrt_flsindex@@3KA      0000000180066530     libvcruntime:per_thread_data.obj
 0002:00005540       ?dazSupported@?1??common_control87@@9@9 0000000180066540     libucrt:ieee.obj
 0002:00005544       ?errno_no_memory@@3HA      0000000180066544     libucrt:errno.obj
 0002:00005548       ?doserrno_no_memory@@3KA   0000000180066548     libucrt:errno.obj
 0002:00005664       ?__acrt_flsindex@@3KA      0000000180066664     libucrt:per_thread_data.obj
 0002:00005940       _mbctypes                  0000000180066940     libucrt:mbctype.obj
 0002:00005a50       _mbcasemaps                0000000180066a50     libucrt:mbctype.obj
 0002:00005b50       ?__rgctypeflag@@3PADA      0000000180066b50     libucrt:mbctype.obj
 0002:00005b60       ?__rgcode_page_info@@3PAUcode_page_info@@A 0000000180066b60     libucrt:mbctype.obj
 0002:00005f20       ?__dcrt_lowio_console_output_handle@@3PEAXEA 0000000180066f20     libucrt:initcon.obj
 0002:00005f30       ?dazSupported@?1??_ctrlfp@@9@9 0000000180066f30     libucrt:fpctrl.obj
 0002:00005f40       luaopen_bit                0000000180066f40     service.obj
 0002:00005f48       luaopen_ffi                0000000180066f48     service.obj
 0002:00005f50       luaopen_jit                0000000180066f50     service.obj
 0002:00005f58       ?__proc_attached@@3HA      0000000180066f58     LIBCMT:dll_dllmain.obj
 0002:00005f80       ?is_initialized_as_dll@@3_NA 0000000180066f80     LIBCMT:utility.obj
 0002:00005f81       ?module_local_atexit_table_initialized@@3_NA 0000000180066f81     LIBCMT:utility.obj
 0002:00005f88       ?module_local_atexit_table@@3U_onexit_table_t@@A 0000000180066f88     LIBCMT:utility.obj
 0002:00005fa0       ?module_local_at_quick_exit_table@@3U_onexit_table_t@@A 0000000180066fa0     LIBCMT:utility.obj
 0002:00006008       ?heap@@3V_HeapManager@@A   0000000180067008     libvcruntime:undname.obj
 0002:00006030       ?__vcrt_startup_thread_ptd@@3U__vcrt_ptd@@A 0000000180067030     libvcruntime:per_thread_data.obj
 0002:000060c0       __vcrt_lock_table          00000001800670c0     libvcruntime:locks.obj
 0002:000060e8       __vcrt_locks_initialized   00000001800670e8     libvcruntime:locks.obj
 0002:000060f0       ?module_handles@@3PAPEAUHINSTANCE__@@A 00000001800670f0     libvcruntime:winapi_downlevel.obj
 0002:00006108       ?encoded_function_pointers@@3PAPEAXA 0000000180067108     libvcruntime:winapi_downlevel.obj
 0002:00006150       ?__idtabsiz@@3IA           0000000180067150     libucrt:popen.obj
 0002:00006158       ?__idpairs@@3PEAUprocess_handle_pair@?A0xe43b7539@@EA 0000000180067158     libucrt:popen.obj
 0002:00006160       ?narrow_tmpfile_buffer_pointers@@3PAPEADA 0000000180067160     libucrt:tmpfile.obj
 0002:00006178       ?wide_tmpfile_buffer_pointers@@3PAPEA_WA 0000000180067178     libucrt:tmpfile.obj
 0002:00006190       ?c_termination_complete@@3JA 0000000180067190     libucrt:exit.obj
 0002:00006198       ?thread_local_exit_callback_func@@3P6AXPEAXK0@ZEA 0000000180067198     libucrt:exit.obj
 0002:000061b0       ?program_name@?1???$common_configure_argv@D@@YAHW4_crt_argv_mode@@@Z@4PADA 00000001800671b0     libucrt:argv_parsing.obj
 0002:00006308       ?__acrt_invalid_parameter_handler@@3V?$dual_state_global@P6AXPEB_W00I_K@Z@__crt_state_management@@A 0000000180067308     libucrt:invalid_parameter.obj
 0002:00006310       ?internal_state@?1??_mbtowc_l@@9@4U_Mbstatet@@A 0000000180067310     libucrt:mbtowc.obj
 0002:00006318       ?enable_percent_n@@3_KA    0000000180067318     libucrt:printf_count_output.obj
 0002:00006750       ?module_handles@@3PAPEAUHINSTANCE__@@A 0000000180067750     libucrt:winapi_thunks.obj
 0002:000067f0       ?encoded_function_pointers@@3PAPEAXA 00000001800677f0     libucrt:winapi_thunks.obj
 0002:00006900       ?__acrt_lock_table@@3PAU_RTL_CRITICAL_SECTION@@A 0000000180067900     libucrt:locks.obj
 0002:00006b30       ?__acrt_locks_initialized@@3IA 0000000180067b30     libucrt:locks.obj
 0002:00006b50       ?fSystemSet@@3HA           0000000180067b50     libucrt:mbctype.obj
 0002:00006b54       ?initialized@?1??__acrt_initialize_multibyte@@9@4_NA 0000000180067b54     libucrt:mbctype.obj
 0002:00006b90       ?__acrt_new_handler@@3V?$dual_state_global@P6AH_K@Z@__crt_state_management@@A 0000000180067b90     libucrt:new_handler.obj
 0002:00006b98       ?ctrlc_action@@3V?$dual_state_global@P6AXH@Z@__crt_state_management@@A 0000000180067b98     libucrt:signal.obj
 0002:00006ba0       ?ctrlbreak_action@@3V?$dual_state_global@P6AXH@Z@__crt_state_management@@A 0000000180067ba0     libucrt:signal.obj
 0002:00006ba8       ?abort_action@@3V?$dual_state_global@P6AXH@Z@__crt_state_management@@A 0000000180067ba8     libucrt:signal.obj
 0002:00006bb0       ?term_action@@3V?$dual_state_global@P6AXH@Z@__crt_state_management@@A 0000000180067bb0     libucrt:signal.obj
 0002:00006bb8       ?user_matherr@@3V?$dual_state_global@P6AHPEAU_exception@@@Z@__crt_state_management@@A 0000000180067bb8     libucrt:matherr.obj
 0002:00006bc0       ?__acrt_global_new_mode@@3V?$dual_state_global@J@__crt_state_management@@A 0000000180067bc0     libucrt:new_mode.obj
 0002:00006bd0       ?internal_pst@?1??__mbrtoc32_utf8@__crt_mbstring@@YA_KPEA_UPEBD_KPEAU_Mbstatet@@@Z@4U3@A 0000000180067bd0     libucrt:mbrtoc32.obj
 0002:00006bd8       ?__acrt_app_type@@3W4_crt_app_type@@A 0000000180067bd8     libucrt:report_runtime_error.obj
 0002:00006bf0       GS_ExceptionRecord         0000000180067bf0     LIBCMT:gs_report.obj
 0002:00006c90       GS_ContextRecord           0000000180067c90     LIBCMT:gs_report.obj
 0003:0000000c       $pdata$f_sub               000000018006900c     bit64.obj
 0003:00000018       $pdata$f_mul               0000000180069018     bit64.obj
 0003:00000024       $pdata$f_div               0000000180069024     bit64.obj
 0003:00000030       $pdata$f_mod               0000000180069030     bit64.obj
 0003:0000003c       $pdata$f_unm               000000018006903c     bit64.obj
 0003:00000048       $pdata$f_eq                0000000180069048     bit64.obj
 0003:00000054       $pdata$f_lt                0000000180069054     bit64.obj
 0003:00000060       $pdata$f_le                0000000180069060     bit64.obj
 0003:0000006c       $pdata$band                000000018006906c     bit64.obj
 0003:00000078       $pdata$bor                 0000000180069078     bit64.obj
 0003:00000084       $pdata$bxor                0000000180069084     bit64.obj
 0003:00000090       $pdata$bnot                0000000180069090     bit64.obj
 0003:0000009c       $pdata$lshift              000000018006909c     bit64.obj
 0003:000000a8       $pdata$rshift              00000001800690a8     bit64.obj
 0003:000000b4       $pdata$arshift             00000001800690b4     bit64.obj
 0003:000000c0       $pdata$f_new               00000001800690c0     bit64.obj
 0003:000000cc       $pdata$0$f_new             00000001800690cc     bit64.obj
 0003:000000d8       $pdata$1$f_new             00000001800690d8     bit64.obj
 0003:000000e4       $pdata$f_tostring          00000001800690e4     bit64.obj
 0003:000000f0       $pdata$f_type              00000001800690f0     bit64.obj
 0003:000000fc       $pdata$0$f_type            00000001800690fc     bit64.obj
 0003:00000108       $pdata$1$f_type            0000000180069108     bit64.obj
 0003:00000114       $pdata$f_add               0000000180069114     bit64.obj
 0003:00000120       $pdata$bit64_getvalue      0000000180069120     bit64.obj
 0003:0000012c       $pdata$0$bit64_getvalue    000000018006912c     bit64.obj
 0003:00000138       $pdata$1$bit64_getvalue    0000000180069138     bit64.obj
 0003:00000144       $pdata$bit64_push          0000000180069144     bit64.obj
 0003:00000150       $pdata$bit64_pushuserdata  0000000180069150     bit64.obj
 0003:0000015c       $pdata$check64             000000018006915c     bit64.obj
 0003:00000168       $pdata$0$check64           0000000180069168     bit64.obj
 0003:00000174       $pdata$1$check64           0000000180069174     bit64.obj
 0003:00000180       $pdata$luaopen_bit64       0000000180069180     bit64.obj
 0003:0000018c       $pdata$sprintf             000000018006918c     bit64.obj
 0003:00000198       $pdata$AddBufToCollector   0000000180069198     exported.obj
 0003:000001a4       $pdata$CreateStringsArray  00000001800691a4     exported.obj
 0003:000001b0       $pdata$1$CreateStringsArray 00000001800691b0     exported.obj
 0003:000001bc       $pdata$2$CreateStringsArray 00000001800691bc     exported.obj
 0003:000001c8       $pdata$FarPanelItemFreeCallback 00000001800691c8     exported.obj
 0003:000001d4       $pdata$FillFarMacroCall    00000001800691d4     exported.obj
 0003:000001e0       $pdata$3$FillFarMacroCall  00000001800691e0     exported.obj
 0003:000001ec       $pdata$4$FillFarMacroCall  00000001800691ec     exported.obj
 0003:000001f8       $pdata$FillFarMacroCall_Callback 00000001800691f8     exported.obj
 0003:00000204       $pdata$0$FillFarMacroCall_Callback 0000000180069204     exported.obj
 0003:00000210       $pdata$1$FillFarMacroCall_Callback 0000000180069210     exported.obj
 0003:0000021c       $pdata$FillFindData        000000018006921c     exported.obj
 0003:00000228       $pdata$2$FillFindData      0000000180069228     exported.obj
 0003:00000234       $pdata$3$FillFindData      0000000180069234     exported.obj
 0003:00000240       $pdata$FillPluginPanelItem 0000000180069240     exported.obj
 0003:0000024c       $pdata$1$FillPluginPanelItem 000000018006924c     exported.obj
 0003:00000258       $pdata$2$FillPluginPanelItem 0000000180069258     exported.obj
 0003:00000264       $pdata$3$FillPluginPanelItem 0000000180069264     exported.obj
 0003:00000270       $pdata$4$FillPluginPanelItem 0000000180069270     exported.obj
 0003:0000027c       $pdata$GetExportFunction   000000018006927c     exported.obj
 0003:00000288       $pdata$LF_Analyse          0000000180069288     exported.obj
 0003:00000294       $pdata$LF_ClosePanel       0000000180069294     exported.obj
 0003:000002a0       $pdata$LF_Compare          00000001800692a0     exported.obj
 0003:000002ac       $pdata$0$LF_Compare        00000001800692ac     exported.obj
 0003:000002b8       $pdata$2$LF_Compare        00000001800692b8     exported.obj
 0003:000002c4       $pdata$3$LF_Compare        00000001800692c4     exported.obj
 0003:000002d0       $pdata$LF_Configure        00000001800692d0     exported.obj
 0003:000002dc       $pdata$LF_DeleteFiles      00000001800692dc     exported.obj
 0003:000002e8       $pdata$0$LF_DeleteFiles    00000001800692e8     exported.obj
 0003:000002f4       $pdata$2$LF_DeleteFiles    00000001800692f4     exported.obj
 0003:00000300       $pdata$3$LF_DeleteFiles    0000000180069300     exported.obj
 0003:0000030c       $pdata$LF_ExitFAR          000000018006930c     exported.obj
 0003:00000318       $pdata$LF_FreeContentData  0000000180069318     exported.obj
 0003:00000324       $pdata$LF_FreeFindData     0000000180069324     exported.obj
 0003:00000330       $pdata$LF_GetContentData   0000000180069330     exported.obj
 0003:0000033c       $pdata$0$LF_GetContentData 000000018006933c     exported.obj
 0003:00000348       $pdata$1$LF_GetContentData 0000000180069348     exported.obj
 0003:00000354       $pdata$LF_GetContentFields 0000000180069354     exported.obj
 0003:00000360       $pdata$0$LF_GetContentFields 0000000180069360     exported.obj
 0003:0000036c       $pdata$1$LF_GetContentFields 000000018006936c     exported.obj
 0003:00000378       $pdata$LF_GetFiles         0000000180069378     exported.obj
 0003:00000384       $pdata$0$LF_GetFiles       0000000180069384     exported.obj
 0003:00000390       $pdata$2$LF_GetFiles       0000000180069390     exported.obj
 0003:0000039c       $pdata$3$LF_GetFiles       000000018006939c     exported.obj
 0003:000003a8       $pdata$LF_GetFindData      00000001800693a8     exported.obj
 0003:000003b4       $pdata$0$LF_GetFindData    00000001800693b4     exported.obj
 0003:000003c0       $pdata$1$LF_GetFindData    00000001800693c0     exported.obj
 0003:000003cc       $pdata$LF_GetGlobalInfo    00000001800693cc     exported.obj
 0003:000003d8       $pdata$2$LF_GetGlobalInfo  00000001800693d8     exported.obj
 0003:000003e4       $pdata$3$LF_GetGlobalInfo  00000001800693e4     exported.obj
 0003:000003f0       $pdata$4$LF_GetGlobalInfo  00000001800693f0     exported.obj
 0003:000003fc       $pdata$LF_GetOpenPanelInfo 00000001800693fc     exported.obj
 0003:00000408       $pdata$1$LF_GetOpenPanelInfo 0000000180069408     exported.obj
 0003:00000414       $pdata$3$LF_GetOpenPanelInfo 0000000180069414     exported.obj
 0003:00000420       $pdata$5$LF_GetOpenPanelInfo 0000000180069420     exported.obj
 0003:0000042c       $pdata$7$LF_GetOpenPanelInfo 000000018006942c     exported.obj
 0003:00000438       $pdata$8$LF_GetOpenPanelInfo 0000000180069438     exported.obj
 0003:00000444       $pdata$9$LF_GetOpenPanelInfo 0000000180069444     exported.obj
 0003:00000450       $pdata$10$LF_GetOpenPanelInfo 0000000180069450     exported.obj
 0003:0000045c       $pdata$LF_GetPluginInfo    000000018006945c     exported.obj
 0003:00000468       $pdata$1$LF_GetPluginInfo  0000000180069468     exported.obj
 0003:00000474       $pdata$2$LF_GetPluginInfo  0000000180069474     exported.obj
 0003:00000480       $pdata$LF_MakeDirectory    0000000180069480     exported.obj
 0003:0000048c       $pdata$0$LF_MakeDirectory  000000018006948c     exported.obj
 0003:00000498       $pdata$2$LF_MakeDirectory  0000000180069498     exported.obj
 0003:000004a4       $pdata$3$LF_MakeDirectory  00000001800694a4     exported.obj
 0003:000004b0       $pdata$LF_Open             00000001800694b0     exported.obj
 0003:000004bc       $pdata$LF_ProcessConsoleInput 00000001800694bc     exported.obj
 0003:000004c8       $pdata$0$LF_ProcessConsoleInput 00000001800694c8     exported.obj
 0003:000004d4       $pdata$1$LF_ProcessConsoleInput 00000001800694d4     exported.obj
 0003:000004e0       $pdata$LF_ProcessDialogEvent 00000001800694e0     exported.obj
 0003:000004ec       $pdata$LF_ProcessEditorEvent 00000001800694ec     exported.obj
 0003:000004f8       $pdata$0$LF_ProcessEditorEvent 00000001800694f8     exported.obj
 0003:00000504       $pdata$1$LF_ProcessEditorEvent 0000000180069504     exported.obj
 0003:00000510       $pdata$LF_ProcessEditorInput 0000000180069510     exported.obj
 0003:0000051c       $pdata$LF_ProcessHostFile  000000018006951c     exported.obj
 0003:00000528       $pdata$LF_ProcessPanelEvent 0000000180069528     exported.obj
 0003:00000534       $pdata$LF_ProcessPanelInput 0000000180069534     exported.obj
 0003:00000540       $pdata$LF_ProcessSynchroEvent 0000000180069540     exported.obj
 0003:0000054c       $pdata$1$LF_ProcessSynchroEvent 000000018006954c     exported.obj
 0003:00000558       $pdata$2$LF_ProcessSynchroEvent 0000000180069558     exported.obj
 0003:00000564       $pdata$3$LF_ProcessSynchroEvent 0000000180069564     exported.obj
 0003:00000570       $pdata$5$LF_ProcessSynchroEvent 0000000180069570     exported.obj
 0003:0000057c       $pdata$6$LF_ProcessSynchroEvent 000000018006957c     exported.obj
 0003:00000588       $pdata$LF_ProcessViewerEvent 0000000180069588     exported.obj
 0003:00000594       $pdata$LF_PutFiles         0000000180069594     exported.obj
 0003:000005a0       $pdata$LF_SetDirectory     00000001800695a0     exported.obj
 0003:000005ac       $pdata$LF_SetFindList      00000001800695ac     exported.obj
 0003:000005b8       $pdata$PackMacroValues     00000001800695b8     exported.obj
 0003:000005c4       $pdata$PushAnalyseInfo     00000001800695c4     exported.obj
 0003:000005d0       $pdata$PushFarMacroValue   00000001800695d0     exported.obj
 0003:000005dc       $pdata$PushPluginObject    00000001800695dc     exported.obj
 0003:000005e8       $pdata$PushPluginPair      00000001800695e8     exported.obj
 0003:000005f4       $pdata$RegisterObject      00000001800695f4     exported.obj
 0003:00000600       $pdata$ReplacePluginInfoCollector 0000000180069600     exported.obj
 0003:0000060c       $pdata$RunDefaultScript    000000018006960c     exported.obj
 0003:00000618       $pdata$0$RunDefaultScript  0000000180069618     exported.obj
 0003:00000624       $pdata$1$RunDefaultScript  0000000180069624     exported.obj
 0003:00000630       $pdata$UpdateFileSelection 0000000180069630     exported.obj
 0003:0000063c       $pdata$0$UpdateFileSelection 000000018006963c     exported.obj
 0003:00000648       $pdata$1$UpdateFileSelection 0000000180069648     exported.obj
 0003:00000654       $pdata$_AddStringToCollector 0000000180069654     exported.obj
 0003:00000660       $pdata$0$_AddStringToCollector 0000000180069660     exported.obj
 0003:0000066c       $pdata$1$_AddStringToCollector 000000018006966c     exported.obj
 0003:00000678       $pdata$getPluginMenuItems  0000000180069678     exported.obj
 0003:00000684       $pdata$pcall_msg           0000000180069684     exported.obj
 0003:00000690       $pdata$traceback           0000000180069690     exported.obj
 0003:0000069c       $pdata$push_flags_table    000000018006969c     flags.obj
 0003:000006a8       $pdata$SetFarColors        00000001800696a8     keysandcolors.obj
 0003:000006b4       $pdata$LF_Gsub             00000001800696b4     lflua.obj
 0003:000006c0       $pdata$LF_LoadFile         00000001800696c0     lflua.obj
 0003:000006cc       $pdata$1$LF_LoadFile       00000001800696cc     lflua.obj
 0003:000006d8       $pdata$2$LF_LoadFile       00000001800696d8     lflua.obj
 0003:000006e4       $pdata$3$LF_LoadFile       00000001800696e4     lflua.obj
 0003:000006f0       $pdata$4$LF_LoadFile       00000001800696f0     lflua.obj
 0003:000006fc       $pdata$errfile             00000001800696fc     lflua.obj
 0003:00000708       $pdata$getF                0000000180069708     lflua.obj
 0003:00000714       $pdata$luaB_dofileW        0000000180069714     lflua.obj
 0003:00000720       $pdata$luaB_loadfileW      0000000180069720     lflua.obj
 0003:0000072c       $pdata$method_gc           000000018006972c     lregex.obj
 0003:00000738       $pdata$method_tostring     0000000180069738     lregex.obj
 0003:00000744       $pdata$method_bracketscount 0000000180069744     lregex.obj
 0003:00000750       $pdata$func_New            0000000180069750     lregex.obj
 0003:0000075c       $pdata$_Gmatch             000000018006975c     lregex.obj
 0003:00000768       $pdata$_regex_gmatch_closure 0000000180069768     lregex.obj
 0003:00000774       $pdata$1$_regex_gmatch_closure 0000000180069774     lregex.obj
 0003:00000780       $pdata$2$_regex_gmatch_closure 0000000180069780     lregex.obj
 0003:0000078c       $pdata$3$_regex_gmatch_closure 000000018006978c     lregex.obj
 0003:00000798       $pdata$check_regex_pattern 0000000180069798     lregex.obj
 0003:000007a4       $pdata$1$check_regex_pattern 00000001800697a4     lregex.obj
 0003:000007b0       $pdata$2$check_regex_pattern 00000001800697b0     lregex.obj
 0003:000007bc       $pdata$luaopen_regex       00000001800697bc     lregex.obj
 0003:000007c8       $pdata$push_far_regex      00000001800697c8     lregex.obj
 0003:000007d4       $pdata$rx_find_match       00000001800697d4     lregex.obj
 0003:000007e0       $pdata$rx_gsub             00000001800697e0     lregex.obj
 0003:000007ec       $pdata$FL_PushParams       00000001800697ec     luamacro.obj
 0003:000007f8       $pdata$0$FL_PushParams     00000001800697f8     luamacro.obj
 0003:00000804       $pdata$1$FL_PushParams     0000000180069804     luamacro.obj
 0003:00000810       $pdata$2$FL_PushParams     0000000180069810     luamacro.obj
 0003:0000081c       $pdata$3$FL_PushParams     000000018006981c     luamacro.obj
 0003:00000828       $pdata$4$FL_PushParams     0000000180069828     luamacro.obj
 0003:00000834       $pdata$5$FL_PushParams     0000000180069834     luamacro.obj
 0003:00000840       $pdata$InitMPR             0000000180069840     luamacro.obj
 0003:0000084c       $pdata$Open_Luamacro       000000018006984c     luamacro.obj
 0003:00000858       $pdata$0$Open_Luamacro     0000000180069858     luamacro.obj
 0003:00000864       $pdata$1$Open_Luamacro     0000000180069864     luamacro.obj
 0003:00000870       $pdata$far_FarMacroCallToLua 0000000180069870     luamacro.obj
 0003:0000087c       $pdata$0$far_FarMacroCallToLua 000000018006987c     luamacro.obj
 0003:00000888       $pdata$1$far_FarMacroCallToLua 0000000180069888     luamacro.obj
 0003:00000894       $pdata$far_MacroCallFar    0000000180069894     luamacro.obj
 0003:000008a0       $pdata$1$far_MacroCallFar  00000001800698a0     luamacro.obj
 0003:000008ac       $pdata$3$far_MacroCallFar  00000001800698ac     luamacro.obj
 0003:000008b8       $pdata$4$far_MacroCallFar  00000001800698b8     luamacro.obj
 0003:000008c4       $pdata$5$far_MacroCallFar  00000001800698c4     luamacro.obj
 0003:000008d0       $pdata$uc_tostring         00000001800698d0     lusercontrol.obj
 0003:000008dc       $pdata$uc_len              00000001800698dc     lusercontrol.obj
 0003:000008e8       $pdata$uc_index            00000001800698e8     lusercontrol.obj
 0003:000008f4       $pdata$uc_newindex         00000001800698f4     lusercontrol.obj
 0003:00000900       $pdata$uc_New              0000000180069900     lusercontrol.obj
 0003:0000090c       $pdata$luaopen_usercontrol 000000018006990c     lusercontrol.obj
 0003:00000918       $pdata$CreateRegKey        0000000180069918     reg.obj
 0003:00000924       $pdata$OpenRegKey          0000000180069924     reg.obj
 0003:00000930       $pdata$SetRegKeyArr        0000000180069930     reg.obj
 0003:0000093c       $pdata$0$SetRegKeyArr      000000018006993c     reg.obj
 0003:00000948       $pdata$1$SetRegKeyArr      0000000180069948     reg.obj
 0003:00000954       $pdata$SetRegKeyDword      0000000180069954     reg.obj
 0003:00000960       $pdata$0$SetRegKeyDword    0000000180069960     reg.obj
 0003:0000096c       $pdata$1$SetRegKeyDword    000000018006996c     reg.obj
 0003:00000978       $pdata$SetRegKeyStr        0000000180069978     reg.obj
 0003:00000984       $pdata$0$SetRegKeyStr      0000000180069984     reg.obj
 0003:00000990       $pdata$1$SetRegKeyStr      0000000180069990     reg.obj
 0003:0000099c       $pdata$far_GetFileOwner    000000018006999c     service.obj
 0003:000009a8       $pdata$far_GetNumberOfLinks 00000001800699a8     service.obj
 0003:000009b4       $pdata$far_PluginStartupInfo 00000001800699b4     service.obj
 0003:000009c0       $pdata$far_GetCurrentDirectory 00000001800699c0     service.obj
 0003:000009cc       $pdata$editor_GetFileName  00000001800699cc     service.obj
 0003:000009d8       $pdata$editor_GetInfo      00000001800699d8     service.obj
 0003:000009e4       $pdata$2$editor_GetInfo    00000001800699e4     service.obj
 0003:000009f0       $pdata$3$editor_GetInfo    00000001800699f0     service.obj
 0003:000009fc       $pdata$4$editor_GetInfo    00000001800699fc     service.obj
 0003:00000a08       $pdata$5$editor_GetInfo    0000000180069a08     service.obj
 0003:00000a14       $pdata$editor_InsertString 0000000180069a14     service.obj
 0003:00000a20       $pdata$editor_DeleteString 0000000180069a20     service.obj
 0003:00000a2c       $pdata$editor_InsertText   0000000180069a2c     service.obj
 0003:00000a38       $pdata$editor_DeleteChar   0000000180069a38     service.obj
 0003:00000a44       $pdata$editor_DeleteBlock  0000000180069a44     service.obj
 0003:00000a50       $pdata$editor_UndoRedo     0000000180069a50     service.obj
 0003:00000a5c       $pdata$editor_SetParam     0000000180069a5c     service.obj
 0003:00000a68       $pdata$editor_SetPosition  0000000180069a68     service.obj
 0003:00000a74       $pdata$editor_Redraw       0000000180069a74     service.obj
 0003:00000a80       $pdata$editor_ExpandTabs   0000000180069a80     service.obj
 0003:00000a8c       $pdata$editor_AddSessionBookmark 0000000180069a8c     service.obj
 0003:00000a98       $pdata$editor_ClearSessionBookmarks 0000000180069a98     service.obj
 0003:00000aa4       $pdata$editor_DeleteSessionBookmark 0000000180069aa4     service.obj
 0003:00000ab0       $pdata$editor_NextSessionBookmark 0000000180069ab0     service.obj
 0003:00000abc       $pdata$editor_PrevSessionBookmark 0000000180069abc     service.obj
 0003:00000ac8       $pdata$editor_SetTitle     0000000180069ac8     service.obj
 0003:00000ad4       $pdata$editor_GetTitle     0000000180069ad4     service.obj
 0003:00000ae0       $pdata$editor_Quit         0000000180069ae0     service.obj
 0003:00000aec       $pdata$editor_Select       0000000180069aec     service.obj
 0003:00000af8       $pdata$editor_GetSelection 0000000180069af8     service.obj
 0003:00000b04       $pdata$editor_AddColor     0000000180069b04     service.obj
 0003:00000b10       $pdata$editor_DelColor     0000000180069b10     service.obj
 0003:00000b1c       $pdata$editor_GetColor     0000000180069b1c     service.obj
 0003:00000b28       $pdata$editor_SaveFile     0000000180069b28     service.obj
 0003:00000b34       $pdata$editor_ReadInput    0000000180069b34     service.obj
 0003:00000b40       $pdata$editor_ProcessInput 0000000180069b40     service.obj
 0003:00000b4c       $pdata$editor_SubscribeChangeEvent 0000000180069b4c     service.obj
 0003:00000b58       $pdata$far_Menu            0000000180069b58     service.obj
 0003:00000b64       $pdata$0$far_Menu          0000000180069b64     service.obj
 0003:00000b70       $pdata$1$far_Menu          0000000180069b70     service.obj
 0003:00000b7c       $pdata$far_Message         0000000180069b7c     service.obj
 0003:00000b88       $pdata$panel_CheckPanelsExist 0000000180069b88     service.obj
 0003:00000b94       $pdata$panel_ClosePanel    0000000180069b94     service.obj
 0003:00000ba0       $pdata$panel_GetPanelInfo  0000000180069ba0     service.obj
 0003:00000bac       $pdata$0$panel_GetPanelInfo 0000000180069bac     service.obj
 0003:00000bb8       $pdata$1$panel_GetPanelInfo 0000000180069bb8     service.obj
 0003:00000bc4       $pdata$panel_RedrawPanel   0000000180069bc4     service.obj
 0003:00000bd0       $pdata$panel_GetPanelDirectory 0000000180069bd0     service.obj
 0003:00000bdc       $pdata$panel_SetPanelDirectory 0000000180069bdc     service.obj
 0003:00000be8       $pdata$panel_GetCmdLine    0000000180069be8     service.obj
 0003:00000bf4       $pdata$panel_SetCmdLine    0000000180069bf4     service.obj
 0003:00000c00       $pdata$panel_GetCmdLinePos 0000000180069c00     service.obj
 0003:00000c0c       $pdata$panel_SetCmdLinePos 0000000180069c0c     service.obj
 0003:00000c18       $pdata$panel_InsertCmdLine 0000000180069c18     service.obj
 0003:00000c24       $pdata$panel_GetCmdLineSelection 0000000180069c24     service.obj
 0003:00000c30       $pdata$panel_SetCmdLineSelection 0000000180069c30     service.obj
 0003:00000c3c       $pdata$panel_SetUserScreen 0000000180069c3c     service.obj
 0003:00000c48       $pdata$panel_GetUserScreen 0000000180069c48     service.obj
 0003:00000c54       $pdata$panel_IsActivePanel 0000000180069c54     service.obj
 0003:00000c60       $pdata$panel_SetActivePanel 0000000180069c60     service.obj
 0003:00000c6c       $pdata$far_GetDirList      0000000180069c6c     service.obj
 0003:00000c78       $pdata$0$far_GetDirList    0000000180069c78     service.obj
 0003:00000c84       $pdata$6$far_GetDirList    0000000180069c84     service.obj
 0003:00000c90       $pdata$7$far_GetDirList    0000000180069c90     service.obj
 0003:00000c9c       $pdata$8$far_GetDirList    0000000180069c9c     service.obj
 0003:00000ca8       $pdata$far_GetPluginDirList 0000000180069ca8     service.obj
 0003:00000cb4       $pdata$far_RestoreScreen   0000000180069cb4     service.obj
 0003:00000cc0       $pdata$far_SaveScreen      0000000180069cc0     service.obj
 0003:00000ccc       $pdata$far_SendDlgMessage  0000000180069ccc     service.obj
 0003:00000cd8       $pdata$far_DialogInit      0000000180069cd8     service.obj
 0003:00000ce4       $pdata$far_DialogRun       0000000180069ce4     service.obj
 0003:00000cf0       $pdata$far_DialogFree      0000000180069cf0     service.obj
 0003:00000cfc       $pdata$dialog_tostring     0000000180069cfc     service.obj
 0003:00000d08       $pdata$dialog_rawhandle    0000000180069d08     service.obj
 0003:00000d14       $pdata$far_GetDlgItem      0000000180069d14     service.obj
 0003:00000d20       $pdata$far_SetDlgItem      0000000180069d20     service.obj
 0003:00000d2c       $pdata$far_SubscribeDialogDrawEvents 0000000180069d2c     service.obj
 0003:00000d38       $pdata$editor_Editor       0000000180069d38     service.obj
 0003:00000d44       $pdata$viewer_Viewer       0000000180069d44     service.obj
 0003:00000d50       $pdata$viewer_GetFileName  0000000180069d50     service.obj
 0003:00000d5c       $pdata$viewer_GetInfo      0000000180069d5c     service.obj
 0003:00000d68       $pdata$1$viewer_GetInfo    0000000180069d68     service.obj
 0003:00000d74       $pdata$2$viewer_GetInfo    0000000180069d74     service.obj
 0003:00000d80       $pdata$3$viewer_GetInfo    0000000180069d80     service.obj
 0003:00000d8c       $pdata$4$viewer_GetInfo    0000000180069d8c     service.obj
 0003:00000d98       $pdata$viewer_Quit         0000000180069d98     service.obj
 0003:00000da4       $pdata$viewer_Redraw       0000000180069da4     service.obj
 0003:00000db0       $pdata$viewer_Select       0000000180069db0     service.obj
 0003:00000dbc       $pdata$viewer_SetPosition  0000000180069dbc     service.obj
 0003:00000dc8       $pdata$2$viewer_SetPosition 0000000180069dc8     service.obj
 0003:00000dd4       $pdata$3$viewer_SetPosition 0000000180069dd4     service.obj
 0003:00000de0       $pdata$viewer_SetMode      0000000180069de0     service.obj
 0003:00000dec       $pdata$far_ShowHelp        0000000180069dec     service.obj
 0003:00000df8       $pdata$far_InputBox        0000000180069df8     service.obj
 0003:00000e04       $pdata$far_GetMsg          0000000180069e04     service.obj
 0003:00000e10       $pdata$far_Text            0000000180069e10     service.obj
 0003:00000e1c       $pdata$far_CopyToClipboard 0000000180069e1c     service.obj
 0003:00000e28       $pdata$1$far_CopyToClipboard 0000000180069e28     service.obj
 0003:00000e34       $pdata$2$far_CopyToClipboard 0000000180069e34     service.obj
 0003:00000e40       $pdata$far_PasteFromClipboard 0000000180069e40     service.obj
 0003:00000e4c       $pdata$far_InputRecordToName 0000000180069e4c     service.obj
 0003:00000e58       $pdata$far_NameToInputRecord 0000000180069e58     service.obj
 0003:00000e64       $pdata$far_LStricmp        0000000180069e64     service.obj
 0003:00000e70       $pdata$far_LStrnicmp       0000000180069e70     service.obj
 0003:00000e7c       $pdata$far_ProcessName     0000000180069e7c     service.obj
 0003:00000e88       $pdata$2$far_ProcessName   0000000180069e88     service.obj
 0003:00000e94       $pdata$3$far_ProcessName   0000000180069e94     service.obj
 0003:00000ea0       $pdata$4$far_ProcessName   0000000180069ea0     service.obj
 0003:00000eac       $pdata$5$far_ProcessName   0000000180069eac     service.obj
 0003:00000eb8       $pdata$6$far_ProcessName   0000000180069eb8     service.obj
 0003:00000ec4       $pdata$7$far_ProcessName   0000000180069ec4     service.obj
 0003:00000ed0       $pdata$far_GetReparsePointInfo 0000000180069ed0     service.obj
 0003:00000edc       $pdata$0$far_GetReparsePointInfo 0000000180069edc     service.obj
 0003:00000ee8       $pdata$1$far_GetReparsePointInfo 0000000180069ee8     service.obj
 0003:00000ef4       $pdata$far_LIsAlpha        0000000180069ef4     service.obj
 0003:00000f00       $pdata$far_LIsAlphanum     0000000180069f00     service.obj
 0003:00000f0c       $pdata$far_LIsLower        0000000180069f0c     service.obj
 0003:00000f18       $pdata$far_LIsUpper        0000000180069f18     service.obj
 0003:00000f24       $pdata$far_LLowerBuf       0000000180069f24     service.obj
 0003:00000f30       $pdata$far_LUpperBuf       0000000180069f30     service.obj
 0003:00000f3c       $pdata$far_MkTemp          0000000180069f3c     service.obj
 0003:00000f48       $pdata$far_MkLink          0000000180069f48     service.obj
 0003:00000f54       $pdata$far_GetPathRoot     0000000180069f54     service.obj
 0003:00000f60       $pdata$far_RecursiveSearch 0000000180069f60     service.obj
 0003:00000f6c       $pdata$far_ConvertPath     0000000180069f6c     service.obj
 0003:00000f78       $pdata$far_AdvControl      0000000180069f78     service.obj
 0003:00000f84       $pdata$0$far_AdvControl    0000000180069f84     service.obj
 0003:00000f90       $pdata$1$far_AdvControl    0000000180069f90     service.obj
 0003:00000f9c       $pdata$far_MacroLoadAll    0000000180069f9c     service.obj
 0003:00000fa8       $pdata$0$far_MacroLoadAll  0000000180069fa8     service.obj
 0003:00000fb4       $pdata$1$far_MacroLoadAll  0000000180069fb4     service.obj
 0003:00000fc0       $pdata$far_MacroSaveAll    0000000180069fc0     service.obj
 0003:00000fcc       $pdata$far_MacroGetState   0000000180069fcc     service.obj
 0003:00000fd8       $pdata$far_MacroGetArea    0000000180069fd8     service.obj
 0003:00000fe4       $pdata$far_MacroGetLastError 0000000180069fe4     service.obj
 0003:00000ff0       $pdata$0$far_MacroGetLastError 0000000180069ff0     service.obj
 0003:00000ffc       $pdata$1$far_MacroGetLastError 0000000180069ffc     service.obj
 0003:00001008       $pdata$far_MacroAdd        000000018006a008     service.obj
 0003:00001014       $pdata$far_MacroDelete     000000018006a014     service.obj
 0003:00001020       $pdata$far_MacroExecute    000000018006a020     service.obj
 0003:0000102c       $pdata$2$far_MacroExecute  000000018006a02c     service.obj
 0003:00001038       $pdata$3$far_MacroExecute  000000018006a038     service.obj
 0003:00001044       $pdata$far_CPluginStartupInfo 000000018006a044     service.obj
 0003:00001050       $pdata$far_MakeMenuItems   000000018006a050     service.obj
 0003:0000105c       $pdata$1$far_MakeMenuItems 000000018006a05c     service.obj
 0003:00001068       $pdata$5$far_MakeMenuItems 000000018006a068     service.obj
 0003:00001074       $pdata$6$far_MakeMenuItems 000000018006a074     service.obj
 0003:00001080       $pdata$8$far_MakeMenuItems 000000018006a080     service.obj
 0003:0000108c       $pdata$9$far_MakeMenuItems 000000018006a08c     service.obj
 0003:00001098       $pdata$far_Show            000000018006a098     service.obj
 0003:000010a4       $pdata$far_CreateFileFilter 000000018006a0a4     service.obj
 0003:000010b0       $pdata$filefilter_Free     000000018006a0b0     service.obj
 0003:000010bc       $pdata$filefilter_gc       000000018006a0bc     service.obj
 0003:000010c8       $pdata$filefilter_tostring 000000018006a0c8     service.obj
 0003:000010d4       $pdata$filefilter_OpenMenu 000000018006a0d4     service.obj
 0003:000010e0       $pdata$filefilter_Starting 000000018006a0e0     service.obj
 0003:000010ec       $pdata$filefilter_IsFileInFilter 000000018006a0ec     service.obj
 0003:000010f8       $pdata$far_UnloadPlugin    000000018006a0f8     service.obj
 0003:00001104       $pdata$far_FindPlugin      000000018006a104     service.obj
 0003:00001110       $pdata$far_GetPluginInformation 000000018006a110     service.obj
 0003:0000111c       $pdata$far_GetPlugins      000000018006a11c     service.obj
 0003:00001128       $pdata$1$far_GetPlugins    000000018006a128     service.obj
 0003:00001134       $pdata$2$far_GetPlugins    000000018006a134     service.obj
 0003:00001140       $pdata$3$far_GetPlugins    000000018006a140     service.obj
 0003:0000114c       $pdata$4$far_GetPlugins    000000018006a14c     service.obj
 0003:00001158       $pdata$far_IsPluginLoaded  000000018006a158     service.obj
 0003:00001164       $pdata$0$far_IsPluginLoaded 000000018006a164     service.obj
 0003:00001170       $pdata$1$far_IsPluginLoaded 000000018006a170     service.obj
 0003:0000117c       $pdata$far_XLat            000000018006a17c     service.obj
 0003:00001188       $pdata$far_FormatFileSize  000000018006a188     service.obj
 0003:00001194       $pdata$far_FarClock        000000018006a194     service.obj
 0003:000011a0       $pdata$far_Timer           000000018006a1a0     service.obj
 0003:000011ac       $pdata$timer_gc            000000018006a1ac     service.obj
 0003:000011b8       $pdata$0$timer_gc          000000018006a1b8     service.obj
 0003:000011c4       $pdata$1$timer_gc          000000018006a1c4     service.obj
 0003:000011d0       $pdata$timer_tostring      000000018006a1d0     service.obj
 0003:000011dc       $pdata$timer_index         000000018006a1dc     service.obj
 0003:000011e8       $pdata$timer_newindex      000000018006a1e8     service.obj
 0003:000011f4       $pdata$far_CreateSettings  000000018006a1f4     service.obj
 0003:00001200       $pdata$Settings_set        000000018006a200     service.obj
 0003:0000120c       $pdata$Settings_get        000000018006a20c     service.obj
 0003:00001218       $pdata$Settings_delete     000000018006a218     service.obj
 0003:00001224       $pdata$Settings_createsubkey 000000018006a224     service.obj
 0003:00001230       $pdata$Settings_opensubkey 000000018006a230     service.obj
 0003:0000123c       $pdata$Settings_enum       000000018006a23c     service.obj
 0003:00001248       $pdata$0$Settings_enum     000000018006a248     service.obj
 0003:00001254       $pdata$2$Settings_enum     000000018006a254     service.obj
 0003:00001260       $pdata$3$Settings_enum     000000018006a260     service.obj
 0003:0000126c       $pdata$5$Settings_enum     000000018006a26c     service.obj
 0003:00001278       $pdata$6$Settings_enum     000000018006a278     service.obj
 0003:00001284       $pdata$Settings_free       000000018006a284     service.obj
 0003:00001290       $pdata$far_FreeSettings    000000018006a290     service.obj
 0003:0000129c       $pdata$Settings_tostring   000000018006a29c     service.obj
 0003:000012a8       $pdata$far_ColorDialog     000000018006a2a8     service.obj
 0003:000012b4       $pdata$far_RunDefaultScript 000000018006a2b4     service.obj
 0003:000012c0       $pdata$AddMacroData_gc     000000018006a2c0     service.obj
 0003:000012cc       $pdata$ChangePanelSelection 000000018006a2cc     service.obj
 0003:000012d8       $pdata$1$ChangePanelSelection 000000018006a2d8     service.obj
 0003:000012e4       $pdata$2$ChangePanelSelection 000000018006a2e4     service.obj
 0003:000012f0       $pdata$CheckFlagsFromTable 000000018006a2f0     service.obj
 0003:000012fc       $pdata$ConvertLuaValue     000000018006a2fc     service.obj
 0003:00001308       $pdata$CreateList          000000018006a308     service.obj
 0003:00001314       $pdata$2$CreateList        000000018006a314     service.obj
 0003:00001320       $pdata$3$CreateList        000000018006a320     service.obj
 0003:0000132c       $pdata$DeleteLuaStateTimerQueue 000000018006a32c     service.obj
 0003:00001338       $pdata$DialogHandleEqual   000000018006a338     service.obj
 0003:00001344       $pdata$DllMain             000000018006a344     service.obj
 0003:00001350       $pdata$0$DllMain           000000018006a350     service.obj
 0003:0000135c       $pdata$1$DllMain           000000018006a35c     service.obj
 0003:00001368       $pdata$FillEditorSelect    000000018006a368     service.obj
 0003:00001374       $pdata$FillEditorSetPosition 000000018006a374     service.obj
 0003:00001380       $pdata$FillInputRecord     000000018006a380     service.obj
 0003:0000138c       $pdata$FillKeyBarTitles    000000018006a38c     service.obj
 0003:00001398       $pdata$1$FillKeyBarTitles  000000018006a398     service.obj
 0003:000013a4       $pdata$2$FillKeyBarTitles  000000018006a3a4     service.obj
 0003:000013b0       $pdata$FrsUserFunc         000000018006a3b0     service.obj
 0003:000013bc       $pdata$GetFarColor         000000018006a3bc     service.obj
 0003:000013c8       $pdata$0$GetFarColor       000000018006a3c8     service.obj
 0003:000013d4       $pdata$1$GetFarColor       000000018006a3d4     service.obj
 0003:000013e0       $pdata$GetFlagCombination  000000018006a3e0     service.obj
 0003:000013ec       $pdata$GetFlagsFromTable   000000018006a3ec     service.obj
 0003:000013f8       $pdata$GetLuaStateTimerQueue 000000018006a3f8     service.obj
 0003:00001404       $pdata$GetPluginData       000000018006a404     service.obj
 0003:00001410       $pdata$LF_DlgProc          000000018006a410     service.obj
 0003:0000141c       $pdata$1$LF_DlgProc        000000018006a41c     service.obj
 0003:00001428       $pdata$2$LF_DlgProc        000000018006a428     service.obj
 0003:00001434       $pdata$LF_DoFile           000000018006a434     service.obj
 0003:00001440       $pdata$LF_Error            000000018006a440     service.obj
 0003:0000144c       $pdata$LF_GetLuafarAPI     000000018006a44c     service.obj
 0003:00001458       $pdata$LF_InitLuaState1    000000018006a458     service.obj
 0003:00001464       $pdata$LF_InitLuaState2    000000018006a464     service.obj
 0003:00001470       $pdata$LF_Message          000000018006a470     service.obj
 0003:0000147c       $pdata$LF_RunLuafarInit    000000018006a47c     service.obj
 0003:00001488       $pdata$MacroAddCallback    000000018006a488     service.obj
 0003:00001494       $pdata$MacroSendString     000000018006a494     service.obj
 0003:000014a0       $pdata$NewDialogData       000000018006a4a0     service.obj
 0003:000014ac       $pdata$NewVirtualKeyTable  000000018006a4ac     service.obj
 0003:000014b8       $pdata$OptFlags            000000018006a4b8     service.obj
 0003:000014c4       $pdata$OptHandle           000000018006a4c4     service.obj
 0003:000014d0       $pdata$OptInputRecord      000000018006a4d0     service.obj
 0003:000014dc       $pdata$PluginHandle_rawhandle 000000018006a4dc     service.obj
 0003:000014e8       $pdata$ProcessDNResult     000000018006a4e8     service.obj
 0003:000014f4       $pdata$0$ProcessDNResult   000000018006a4f4     service.obj
 0003:00001500       $pdata$1$ProcessDNResult   000000018006a500     service.obj
 0003:0000150c       $pdata$2$ProcessDNResult   000000018006a50c     service.obj
 0003:00001518       $pdata$3$ProcessDNResult   000000018006a518     service.obj
 0003:00001524       $pdata$PushBookmarks       000000018006a524     service.obj
 0003:00001530       $pdata$0$PushBookmarks     000000018006a530     service.obj
 0003:0000153c       $pdata$1$PushBookmarks     000000018006a53c     service.obj
 0003:00001548       $pdata$PushDMParams        000000018006a548     service.obj
 0003:00001554       $pdata$PushDNParams        000000018006a554     service.obj
 0003:00001560       $pdata$PushDlgItem         000000018006a560     service.obj
 0003:0000156c       $pdata$1$PushDlgItem       000000018006a56c     service.obj
 0003:00001578       $pdata$2$PushDlgItem       000000018006a578     service.obj
 0003:00001584       $pdata$PushDlgItemNum      000000018006a584     service.obj
 0003:00001590       $pdata$PushFarColor        000000018006a590     service.obj
 0003:0000159c       $pdata$PushInputRecord     000000018006a59c     service.obj
 0003:000015a8       $pdata$PushPanelItem       000000018006a5a8     service.obj
 0003:000015b4       $pdata$0$PushPanelItem     000000018006a5b4     service.obj
 0003:000015c0       $pdata$1$PushPanelItem     000000018006a5c0     service.obj
 0003:000015cc       $pdata$3$PushPanelItem     000000018006a5cc     service.obj
 0003:000015d8       $pdata$4$PushPanelItem     000000018006a5d8     service.obj
 0003:000015e4       $pdata$PushPanelItems      000000018006a5e4     service.obj
 0003:000015f0       $pdata$3$PushPanelItems    000000018006a5f0     service.obj
 0003:000015fc       $pdata$4$PushPanelItems    000000018006a5fc     service.obj
 0003:00001608       $pdata$PushPluginHandle    000000018006a608     service.obj
 0003:00001614       $pdata$PutFlagsToTable     000000018006a614     service.obj
 0003:00001620       $pdata$PutPluginMenuItemToTable 000000018006a620     service.obj
 0003:0000162c       $pdata$0$PutPluginMenuItemToTable 000000018006a62c     service.obj
 0003:00001638       $pdata$1$PutPluginMenuItemToTable 000000018006a638     service.obj
 0003:00001644       $pdata$PutVersionInfoToTable 000000018006a644     service.obj
 0003:00001650       $pdata$SetDlgItem          000000018006a650     service.obj
 0003:0000165c       $pdata$SetFarDialogItem    000000018006a65c     service.obj
 0003:00001668       $pdata$SetKeyBar           000000018006a668     service.obj
 0003:00001674       $pdata$SetPanelBooleanProperty 000000018006a674     service.obj
 0003:00001680       $pdata$SetPanelIntegerProperty 000000018006a680     service.obj
 0003:0000168c       $pdata$TimerCallback       000000018006a68c     service.obj
 0003:00001698       $pdata$_EditorGetString    000000018006a698     service.obj
 0003:000016a4       $pdata$_EditorInsertText   000000018006a6a4     service.obj
 0003:000016b0       $pdata$_EditorSetString    000000018006a6b0     service.obj
 0003:000016bc       $pdata$_EditorTabConvert   000000018006a6bc     service.obj
 0003:000016c8       $pdata$check_env_flag      000000018006a6c8     service.obj
 0003:000016d4       $pdata$dir_exist           000000018006a6d4     service.obj
 0003:000016e0       $pdata$fprintf             000000018006a6e0     service.obj
 0003:000016ec       $pdata$free_dialog         000000018006a6ec     service.obj
 0003:000016f8       $pdata$get_env_flag        000000018006a6f8     service.obj
 0003:00001704       $pdata$get_panel_item      000000018006a704     service.obj
 0003:00001710       $pdata$get_string_info     000000018006a710     service.obj
 0003:0000171c       $pdata$luaopen_far         000000018006a71c     service.obj
 0003:00001728       $pdata$luaopen_luafar3     000000018006a728     service.obj
 0003:00001734       $pdata$plugin_load         000000018006a734     service.obj
 0003:00001740       $pdata$timer_Close         000000018006a740     service.obj
 0003:0000174c       $pdata$0$timer_Close       000000018006a74c     service.obj
 0003:00001758       $pdata$1$timer_Close       000000018006a758     service.obj
 0003:00001764       $pdata$truncstring         000000018006a764     service.obj
 0003:00001770       $pdata$unic_len            000000018006a770     slnunico.obj
 0003:0000177c       $pdata$unic_sub            000000018006a77c     slnunico.obj
 0003:00001788       $pdata$str_reverse         000000018006a788     slnunico.obj
 0003:00001794       $pdata$0$str_reverse       000000018006a794     slnunico.obj
 0003:000017a0       $pdata$1$str_reverse       000000018006a7a0     slnunico.obj
 0003:000017ac       $pdata$unic_lower          000000018006a7ac     slnunico.obj
 0003:000017b8       $pdata$0$unic_lower        000000018006a7b8     slnunico.obj
 0003:000017c4       $pdata$1$unic_lower        000000018006a7c4     slnunico.obj
 0003:000017d0       $pdata$unic_upper          000000018006a7d0     slnunico.obj
 0003:000017dc       $pdata$0$unic_upper        000000018006a7dc     slnunico.obj
 0003:000017e8       $pdata$1$unic_upper        000000018006a7e8     slnunico.obj
 0003:000017f4       $pdata$str_rep             000000018006a7f4     slnunico.obj
 0003:00001800       $pdata$unic_byte           000000018006a800     slnunico.obj
 0003:0000180c       $pdata$unic_char           000000018006a80c     slnunico.obj
 0003:00001818       $pdata$0$unic_char         000000018006a818     slnunico.obj
 0003:00001824       $pdata$1$unic_char         000000018006a824     slnunico.obj
 0003:00001830       $pdata$str_dump            000000018006a830     slnunico.obj
 0003:0000183c       $pdata$gmatch              000000018006a83c     slnunico.obj
 0003:00001848       $pdata$unic_gsub           000000018006a848     slnunico.obj
 0003:00001854       $pdata$str_format          000000018006a854     slnunico.obj
 0003:00001860       $pdata$utf8_valid          000000018006a860     slnunico.obj
 0003:0000186c       $pdata$_snwprintf          000000018006a86c     slnunico.obj
 0003:00001878       $pdata$add_value           000000018006a878     slnunico.obj
 0003:00001884       $pdata$0$add_value         000000018006a884     slnunico.obj
 0003:00001890       $pdata$1$add_value         000000018006a890     slnunico.obj
 0003:0000189c       $pdata$gmatch_aux          000000018006a89c     slnunico.obj
 0003:000018a8       $pdata$luaopen_unicode     000000018006a8a8     slnunico.obj
 0003:000018b4       $pdata$match               000000018006a8b4     slnunico.obj
 0003:000018c0       $pdata$match_class         000000018006a8c0     slnunico.obj
 0003:000018cc       $pdata$max_expand          000000018006a8cc     slnunico.obj
 0003:000018d8       $pdata$0$max_expand        000000018006a8d8     slnunico.obj
 0003:000018e4       $pdata$1$max_expand        000000018006a8e4     slnunico.obj
 0003:000018f0       $pdata$min_expand          000000018006a8f0     slnunico.obj
 0003:000018fc       $pdata$push_captures       000000018006a8fc     slnunico.obj
 0003:00001908       $pdata$1$push_captures     000000018006a908     slnunico.obj
 0003:00001914       $pdata$2$push_captures     000000018006a914     slnunico.obj
 0003:00001920       $pdata$push_onecapture     000000018006a920     slnunico.obj
 0003:0000192c       $pdata$0$push_onecapture   000000018006a92c     slnunico.obj
 0003:00001938       $pdata$1$push_onecapture   000000018006a938     slnunico.obj
 0003:00001944       $pdata$2$push_onecapture   000000018006a944     slnunico.obj
 0003:00001950       $pdata$4$push_onecapture   000000018006a950     slnunico.obj
 0003:0000195c       $pdata$singlematch         000000018006a95c     slnunico.obj
 0003:00001968       $pdata$start_capture       000000018006a968     slnunico.obj
 0003:00001974       $pdata$unic_find_aux       000000018006a974     slnunico.obj
 0003:00001980       $pdata$utf8_count          000000018006a980     slnunico.obj
 0003:0000198c       $pdata$0$utf8_count        000000018006a98c     slnunico.obj
 0003:00001998       $pdata$1$utf8_count        000000018006a998     slnunico.obj
 0003:000019a4       $pdata$2$utf8_count        000000018006a9a4     slnunico.obj
 0003:000019b0       $pdata$3$utf8_count        000000018006a9b0     slnunico.obj
 0003:000019bc       $pdata$utf8_enco           000000018006a9bc     slnunico.obj
 0003:000019c8       $pdata$utf8_graphext       000000018006a9c8     slnunico.obj
 0003:000019d4       $pdata$0$utf8_graphext     000000018006a9d4     slnunico.obj
 0003:000019e0       $pdata$1$utf8_graphext     000000018006a9e0     slnunico.obj
 0003:000019ec       $pdata$utf8_oced           000000018006a9ec     slnunico.obj
 0003:000019f8       $pdata$writer              000000018006a9f8     slnunico.obj
 0003:00001a04       $pdata$io_type             000000018006aa04     uliolib51.obj
 0003:00001a10       $pdata$io_close            000000018006aa10     uliolib51.obj
 0003:00001a1c       $pdata$io_gc               000000018006aa1c     uliolib51.obj
 0003:00001a28       $pdata$io_tostring         000000018006aa28     uliolib51.obj
 0003:00001a34       $pdata$io_open             000000018006aa34     uliolib51.obj
 0003:00001a40       $pdata$io_popen            000000018006aa40     uliolib51.obj
 0003:00001a4c       $pdata$io_tmpfile          000000018006aa4c     uliolib51.obj
 0003:00001a58       $pdata$f_lines             000000018006aa58     uliolib51.obj
 0003:00001a64       $pdata$io_lines            000000018006aa64     uliolib51.obj
 0003:00001a70       $pdata$1$io_lines          000000018006aa70     uliolib51.obj
 0003:00001a7c       $pdata$2$io_lines          000000018006aa7c     uliolib51.obj
 0003:00001a88       $pdata$io_read             000000018006aa88     uliolib51.obj
 0003:00001a94       $pdata$f_read              000000018006aa94     uliolib51.obj
 0003:00001aa0       $pdata$io_write            000000018006aaa0     uliolib51.obj
 0003:00001aac       $pdata$f_write             000000018006aaac     uliolib51.obj
 0003:00001ab8       $pdata$f_seek              000000018006aab8     uliolib51.obj
 0003:00001ac4       $pdata$f_setvbuf           000000018006aac4     uliolib51.obj
 0003:00001ad0       $pdata$io_flush            000000018006aad0     uliolib51.obj
 0003:00001adc       $pdata$f_flush             000000018006aadc     uliolib51.obj
 0003:00001ae8       $pdata$aux_close           000000018006aae8     uliolib51.obj
 0003:00001af4       $pdata$fileerror           000000018006aaf4     uliolib51.obj
 0003:00001b00       $pdata$fscanf              000000018006ab00     uliolib51.obj
 0003:00001b0c       $pdata$g_iofile            000000018006ab0c     uliolib51.obj
 0003:00001b18       $pdata$0$g_iofile          000000018006ab18     uliolib51.obj
 0003:00001b24       $pdata$1$g_iofile          000000018006ab24     uliolib51.obj
 0003:00001b30       $pdata$2$g_iofile          000000018006ab30     uliolib51.obj
 0003:00001b3c       $pdata$3$g_iofile          000000018006ab3c     uliolib51.obj
 0003:00001b48       $pdata$g_read              000000018006ab48     uliolib51.obj
 0003:00001b54       $pdata$g_write             000000018006ab54     uliolib51.obj
 0003:00001b60       $pdata$io_fclose           000000018006ab60     uliolib51.obj
 0003:00001b6c       $pdata$io_noclose          000000018006ab6c     uliolib51.obj
 0003:00001b78       $pdata$io_pclose           000000018006ab78     uliolib51.obj
 0003:00001b84       $pdata$io_readline         000000018006ab84     uliolib51.obj
 0003:00001b90       $pdata$luaopen_uio         000000018006ab90     uliolib51.obj
 0003:00001b9c       $pdata$newfile             000000018006ab9c     uliolib51.obj
 0003:00001ba8       $pdata$pushresult          000000018006aba8     uliolib51.obj
 0003:00001bb4       $pdata$read_chars          000000018006abb4     uliolib51.obj
 0003:00001bc0       $pdata$read_line           000000018006abc0     uliolib51.obj
 0003:00001bcc       $pdata$ll_loadlib          000000018006abcc     uloadlib51.obj
 0003:00001bd8       $pdata$loader_Lua          000000018006abd8     uloadlib51.obj
 0003:00001be4       $pdata$loader_C            000000018006abe4     uloadlib51.obj
 0003:00001bf0       $pdata$loader_Croot        000000018006abf0     uloadlib51.obj
 0003:00001bfc       $pdata$loader_preload      000000018006abfc     uloadlib51.obj
 0003:00001c08       $pdata$ll_require          000000018006ac08     uloadlib51.obj
 0003:00001c14       $pdata$ll_module           000000018006ac14     uloadlib51.obj
 0003:00001c20       $pdata$0$ll_module         000000018006ac20     uloadlib51.obj
 0003:00001c2c       $pdata$1$ll_module         000000018006ac2c     uloadlib51.obj
 0003:00001c38       $pdata$ll_seeall           000000018006ac38     uloadlib51.obj
 0003:00001c44       $pdata$findfile            000000018006ac44     uloadlib51.obj
 0003:00001c50       $pdata$gctm                000000018006ac50     uloadlib51.obj
 0003:00001c5c       $pdata$ll_loadfunc         000000018006ac5c     uloadlib51.obj
 0003:00001c68       $pdata$loaderror           000000018006ac68     uloadlib51.obj
 0003:00001c74       $pdata$luaopen_upackage    000000018006ac74     uloadlib51.obj
 0003:00001c80       $pdata$mkfuncname          000000018006ac80     uloadlib51.obj
 0003:00001c8c       $pdata$setpath             000000018006ac8c     uloadlib51.obj
 0003:00001c98       $pdata$ustring_WideCharToMultiByte 000000018006ac98     ustring.obj
 0003:00001ca4       $pdata$1$ustring_WideCharToMultiByte 000000018006aca4     ustring.obj
 0003:00001cb0       $pdata$2$ustring_WideCharToMultiByte 000000018006acb0     ustring.obj
 0003:00001cbc       $pdata$ustring_MultiByteToWideChar 000000018006acbc     ustring.obj
 0003:00001cc8       $pdata$ustring_OemToUtf8   000000018006acc8     ustring.obj
 0003:00001cd4       $pdata$1$ustring_OemToUtf8 000000018006acd4     ustring.obj
 0003:00001ce0       $pdata$2$ustring_OemToUtf8 000000018006ace0     ustring.obj
 0003:00001cec       $pdata$ustring_Utf8ToOem   000000018006acec     ustring.obj
 0003:00001cf8       $pdata$ustring_Utf16ToUtf8 000000018006acf8     ustring.obj
 0003:00001d04       $pdata$ustring_Utf8ToUtf16 000000018006ad04     ustring.obj
 0003:00001d10       $pdata$0$ustring_Utf8ToUtf16 000000018006ad10     ustring.obj
 0003:00001d1c       $pdata$1$ustring_Utf8ToUtf16 000000018006ad1c     ustring.obj
 0003:00001d28       $pdata$ustring_GetACP      000000018006ad28     ustring.obj
 0003:00001d34       $pdata$ustring_GetOEMCP    000000018006ad34     ustring.obj
 0003:00001d40       $pdata$ustring_GetConsoleCP 000000018006ad40     ustring.obj
 0003:00001d4c       $pdata$ustring_SetConsoleCP 000000018006ad4c     ustring.obj
 0003:00001d58       $pdata$ustring_GetConsoleOutputCP 000000018006ad58     ustring.obj
 0003:00001d64       $pdata$ustring_SetConsoleOutputCP 000000018006ad64     ustring.obj
 0003:00001d70       $pdata$ustring_EnumSystemCodePages 000000018006ad70     ustring.obj
 0003:00001d7c       $pdata$ustring_GetCPInfo   000000018006ad7c     ustring.obj
 0003:00001d88       $pdata$ustring_GetLogicalDriveStrings 000000018006ad88     ustring.obj
 0003:00001d94       $pdata$0$ustring_GetLogicalDriveStrings 000000018006ad94     ustring.obj
 0003:00001da0       $pdata$1$ustring_GetLogicalDriveStrings 000000018006ada0     ustring.obj
 0003:00001dac       $pdata$ustring_GetDriveType 000000018006adac     ustring.obj
 0003:00001db8       $pdata$ustring_Uuid        000000018006adb8     ustring.obj
 0003:00001dc4       $pdata$ustring_SearchPath  000000018006adc4     ustring.obj
 0003:00001dd0       $pdata$ustring_GlobalMemoryStatus 000000018006add0     ustring.obj
 0003:00001ddc       $pdata$0$ustring_GlobalMemoryStatus 000000018006addc     ustring.obj
 0003:00001de8       $pdata$2$ustring_GlobalMemoryStatus 000000018006ade8     ustring.obj
 0003:00001df4       $pdata$ustring_Sleep       000000018006adf4     ustring.obj
 0003:00001e00       $pdata$ustring_SetFileAttr 000000018006ae00     ustring.obj
 0003:00001e0c       $pdata$2$ustring_SetFileAttr 000000018006ae0c     ustring.obj
 0003:00001e18       $pdata$3$ustring_SetFileAttr 000000018006ae18     ustring.obj
 0003:00001e24       $pdata$4$ustring_SetFileAttr 000000018006ae24     ustring.obj
 0003:00001e30       $pdata$5$ustring_SetFileAttr 000000018006ae30     ustring.obj
 0003:00001e3c       $pdata$ustring_GetFileAttr 000000018006ae3c     ustring.obj
 0003:00001e48       $pdata$2$ustring_GetFileAttr 000000018006ae48     ustring.obj
 0003:00001e54       $pdata$3$ustring_GetFileAttr 000000018006ae54     ustring.obj
 0003:00001e60       $pdata$ustring_SHGetFolderPath 000000018006ae60     ustring.obj
 0003:00001e6c       $pdata$1$ustring_SHGetFolderPath 000000018006ae6c     ustring.obj
 0003:00001e78       $pdata$2$ustring_SHGetFolderPath 000000018006ae78     ustring.obj
 0003:00001e84       $pdata$ustring_sub         000000018006ae84     ustring.obj
 0003:00001e90       $pdata$ustring_len         000000018006ae90     ustring.obj
 0003:00001e9c       $pdata$ustring_OutputDebugString 000000018006ae9c     ustring.obj
 0003:00001ea8       $pdata$0$ustring_OutputDebugString 000000018006aea8     ustring.obj
 0003:00001eb4       $pdata$1$ustring_OutputDebugString 000000018006aeb4     ustring.obj
 0003:00001ec0       $pdata$ustring_system      000000018006aec0     ustring.obj
 0003:00001ecc       $pdata$ustring_GetCurrentDir 000000018006aecc     ustring.obj
 0003:00001ed8       $pdata$0$ustring_GetCurrentDir 000000018006aed8     ustring.obj
 0003:00001ee4       $pdata$1$ustring_GetCurrentDir 000000018006aee4     ustring.obj
 0003:00001ef0       $pdata$2$ustring_GetCurrentDir 000000018006aef0     ustring.obj
 0003:00001efc       $pdata$3$ustring_GetCurrentDir 000000018006aefc     ustring.obj
 0003:00001f08       $pdata$ustring_SetCurrentDir 000000018006af08     ustring.obj
 0003:00001f14       $pdata$2$ustring_SetCurrentDir 000000018006af14     ustring.obj
 0003:00001f20       $pdata$3$ustring_SetCurrentDir 000000018006af20     ustring.obj
 0003:00001f2c       $pdata$ustring_GetKeyState 000000018006af2c     ustring.obj
 0003:00001f38       $pdata$EnumCodePagesProc   000000018006af38     ustring.obj
 0003:00001f44       $pdata$GetBoolFromTable    000000018006af44     ustring.obj
 0003:00001f50       $pdata$GetOptBoolFromTable 000000018006af50     ustring.obj
 0003:00001f5c       $pdata$GetOptIntFromArray  000000018006af5c     ustring.obj
 0003:00001f68       $pdata$GetOptIntFromTable  000000018006af68     ustring.obj
 0003:00001f74       $pdata$GetOptNumFromTable  000000018006af74     ustring.obj
 0003:00001f80       $pdata$PushAttrString      000000018006af80     ustring.obj
 0003:00001f8c       $pdata$PutAttrToTable      000000018006af8c     ustring.obj
 0003:00001f98       $pdata$PutBoolToTable      000000018006af98     ustring.obj
 0003:00001fa4       $pdata$PutIntToArray       000000018006afa4     ustring.obj
 0003:00001fb0       $pdata$PutIntToTable       000000018006afb0     ustring.obj
 0003:00001fbc       $pdata$PutLStrToTable      000000018006afbc     ustring.obj
 0003:00001fc8       $pdata$PutNumToTable       000000018006afc8     ustring.obj
 0003:00001fd4       $pdata$PutStrToArray       000000018006afd4     ustring.obj
 0003:00001fe0       $pdata$PutStrToTable       000000018006afe0     ustring.obj
 0003:00001fec       $pdata$PutWStrToArray      000000018006afec     ustring.obj
 0003:00001ff8       $pdata$PutWStrToTable      000000018006aff8     ustring.obj
 0003:00002004       $pdata$SysErrorReturn      000000018006b004     ustring.obj
 0003:00002010       $pdata$check_utf16_string  000000018006b010     ustring.obj
 0003:0000201c       $pdata$check_utf8_string   000000018006b01c     ustring.obj
 0003:00002028       $pdata$convert_multibyte_string 000000018006b028     ustring.obj
 0003:00002034       $pdata$luaopen_ustring     000000018006b034     ustring.obj
 0003:00002040       $pdata$opt_utf8_string     000000018006b040     ustring.obj
 0003:0000204c       $pdata$push_multibyte_string 000000018006b04c     ustring.obj
 0003:00002058       $pdata$2$push_multibyte_string 000000018006b058     ustring.obj
 0003:00002064       $pdata$3$push_multibyte_string 000000018006b064     ustring.obj
 0003:00002070       $pdata$push_utf8_string    000000018006b070     ustring.obj
 0003:0000207c       $pdata$pusherror           000000018006b07c     ustring.obj
 0003:00002088       $pdata$pusherrorcode       000000018006b088     ustring.obj
 0003:00002094       $pdata$utf8_to_utf16       000000018006b094     ustring.obj
 0003:000020a0       $pdata$GetAttrFromTable    000000018006b0a0     util.obj
 0003:000020ac       $pdata$GetFileSizeFromTable 000000018006b0ac     util.obj
 0003:000020b8       $pdata$GetFileTimeFromTable 000000018006b0b8     util.obj
 0003:000020c4       $pdata$GetIntFromArray     000000018006b0c4     util.obj
 0003:000020d0       $pdata$luaLF_FieldError    000000018006b0d0     util.obj
 0003:000020dc       $pdata$luaLF_SlotError     000000018006b0dc     util.obj
 0003:000020e8       $pdata$win_SetRegKey       000000018006b0e8     win.obj
 0003:000020f4       $pdata$win_GetRegKey       000000018006b0f4     win.obj
 0003:00002100       $pdata$win_DeleteRegKey    000000018006b100     win.obj
 0003:0000210c       $pdata$win_DeleteRegValue  000000018006b10c     win.obj
 0003:00002118       $pdata$win_EnumRegKey      000000018006b118     win.obj
 0003:00002124       $pdata$win_EnumRegValue    000000018006b124     win.obj
 0003:00002130       $pdata$win_ExtractKey      000000018006b130     win.obj
 0003:0000213c       $pdata$win_ExtractKeyEx    000000018006b13c     win.obj
 0003:00002148       $pdata$win_GetFileInfo     000000018006b148     win.obj
 0003:00002154       $pdata$win_GetSystemTimeAsFileTime 000000018006b154     win.obj
 0003:00002160       $pdata$win_FileTimeToSystemTime 000000018006b160     win.obj
 0003:0000216c       $pdata$win_SystemTimeToFileTime 000000018006b16c     win.obj
 0003:00002178       $pdata$win_FileTimeToLocalFileTime 000000018006b178     win.obj
 0003:00002184       $pdata$win_CompareString   000000018006b184     win.obj
 0003:00002190       $pdata$win_wcscmp          000000018006b190     win.obj
 0003:0000219c       $pdata$win_GetVirtualKeys  000000018006b19c     win.obj
 0003:000021a8       $pdata$win_GetConsoleScreenBufferInfo 000000018006b1a8     win.obj
 0003:000021b4       $pdata$win_CopyFile        000000018006b1b4     win.obj
 0003:000021c0       $pdata$win_MoveFile        000000018006b1c0     win.obj
 0003:000021cc       $pdata$win_DeleteFile      000000018006b1cc     win.obj
 0003:000021d8       $pdata$win_CreateDir       000000018006b1d8     win.obj
 0003:000021e4       $pdata$win_RemoveDir       000000018006b1e4     win.obj
 0003:000021f0       $pdata$win_ShellExecute    000000018006b1f0     win.obj
 0003:000021fc       $pdata$win_IsProcess64bit  000000018006b1fc     win.obj
 0003:00002208       $pdata$win_GetEnv          000000018006b208     win.obj
 0003:00002214       $pdata$0$win_GetEnv        000000018006b214     win.obj
 0003:00002220       $pdata$1$win_GetEnv        000000018006b220     win.obj
 0003:0000222c       $pdata$win_SetEnv          000000018006b22c     win.obj
 0003:00002238       $pdata$CheckHKey           000000018006b238     win.obj
 0003:00002244       $pdata$luaopen_win         000000018006b244     win.obj
 0003:00002250       $pdata$mkdir               000000018006b250     win.obj
 0003:0000225c       $pdata$0$mkdir             000000018006b25c     win.obj
 0003:00002268       $pdata$?dllmain_crt_dispatch@@YAHQEAUHINSTANCE__@@KQEAX@Z 000000018006b268     LIBCMT:dll_dllmain.obj
 0003:00002274       $pdata$?dllmain_crt_process_attach@@YAHQEAUHINSTANCE__@@QEAX@Z 000000018006b274     LIBCMT:dll_dllmain.obj
 0003:00002280       $pdata$?dllmain_crt_process_detach@@YAH_N@Z 000000018006b280     LIBCMT:dll_dllmain.obj
 0003:0000228c       $pdata$?dllmain_dispatch@@YAHQEAUHINSTANCE__@@KQEAX@Z 000000018006b28c     LIBCMT:dll_dllmain.obj
 0003:00002298       $pdata$_DllMainCRTStartup  000000018006b298     LIBCMT:dll_dllmain.obj
 0003:000022a4       $pdata$__security_init_cookie 000000018006b2a4     LIBCMT:gs_support.obj
 0003:000022b0       $pdata$__scrt_initialize_default_local_stdio_options 000000018006b2b0     LIBCMT:default_local_stdio_options.obj
 0003:000022bc       $pdata$__scrt_acquire_startup_lock 000000018006b2bc     LIBCMT:utility.obj
 0003:000022c8       $pdata$__scrt_dllmain_after_initialize_c 000000018006b2c8     LIBCMT:utility.obj
 0003:000022d4       $pdata$__scrt_dllmain_before_initialize_c 000000018006b2d4     LIBCMT:utility.obj
 0003:000022e0       $pdata$__scrt_dllmain_crt_thread_attach 000000018006b2e0     LIBCMT:utility.obj
 0003:000022ec       $pdata$__scrt_dllmain_crt_thread_detach 000000018006b2ec     LIBCMT:utility.obj
 0003:000022f8       $pdata$__scrt_dllmain_exception_filter 000000018006b2f8     LIBCMT:utility.obj
 0003:00002304       $pdata$__scrt_dllmain_uninitialize_c 000000018006b304     LIBCMT:utility.obj
 0003:00002310       $pdata$__scrt_dllmain_uninitialize_critical 000000018006b310     LIBCMT:utility.obj
 0003:0000231c       $pdata$__scrt_initialize_crt 000000018006b31c     LIBCMT:utility.obj
 0003:00002328       $pdata$__scrt_initialize_onexit_tables 000000018006b328     LIBCMT:utility.obj
 0003:00002334       $pdata$__scrt_is_nonwritable_in_current_image 000000018006b334     LIBCMT:utility.obj
 0003:00002340       $pdata$__scrt_release_startup_lock 000000018006b340     LIBCMT:utility.obj
 0003:0000234c       $pdata$__scrt_uninitialize_crt 000000018006b34c     LIBCMT:utility.obj
 0003:00002358       $pdata$__scrt_fastfail     000000018006b358     LIBCMT:utility_desktop.obj
 0003:00002364       $pdata$_RTC_Initialize     000000018006b364     LIBCMT:initsect.obj
 0003:00002370       $pdata$_RTC_Terminate      000000018006b370     LIBCMT:initsect.obj
 0003:0000237c       $pdata$__isa_available_init 000000018006b37c     LIBCMT:cpu_disp.obj
 0003:000023b8       $pdata$wcsstr              000000018006b3b8     libvcruntime:wcsstr.obj
 0003:000023c4       $pdata$strchr              000000018006b3c4     libvcruntime:strchr.obj
 0003:000023d0       $pdata$wcschr              000000018006b3d0     libvcruntime:wcschr.obj
 0003:000023f4       $pdata$strrchr             000000018006b3f4     libvcruntime:strrchr.obj
 0003:00002400       $pdata$__C_specific_handler 000000018006b400     libvcruntime:riscchandler.obj
 0003:0000240c       $pdata$__std_type_info_destroy_list 000000018006b40c     libvcruntime:std_type_info.obj
 0003:00002418       $pdata$__vcrt_initialize   000000018006b418     libvcruntime:initialization.obj
 0003:00002424       $pdata$__vcrt_thread_attach 000000018006b424     libvcruntime:initialization.obj
 0003:00002430       $pdata$__vcrt_thread_detach 000000018006b430     libvcruntime:initialization.obj
 0003:0000243c       $pdata$__vcrt_uninitialize 000000018006b43c     libvcruntime:initialization.obj
 0003:00002448       $pdata$__vcrt_uninitialize_critical 000000018006b448     libvcruntime:initialization.obj
 0003:00002478       $pdata$__DestructExceptionObject 000000018006b478     libvcruntime:ehhelpers.obj
 0003:00002484       $pdata$__vcrt_freefls      000000018006b484     libvcruntime:per_thread_data.obj
 0003:00002490       $pdata$__vcrt_freeptd      000000018006b490     libvcruntime:per_thread_data.obj
 0003:0000249c       $pdata$__vcrt_getptd_noexit 000000018006b49c     libvcruntime:per_thread_data.obj
 0003:000024a8       $pdata$__vcrt_initialize_ptd 000000018006b4a8     libvcruntime:per_thread_data.obj
 0003:000024b4       $pdata$__vcrt_uninitialize_ptd 000000018006b4b4     libvcruntime:per_thread_data.obj
 0003:000024c0       $pdata$__vcrt_initialize_locks 000000018006b4c0     libvcruntime:locks.obj
 0003:000024cc       $pdata$__vcrt_uninitialize_locks 000000018006b4cc     libvcruntime:locks.obj
 0003:000024d8       $pdata$?try_get_function@@YAPEAXW4function_id@?A0xbfd18cd1@@QEBDQEBW4module_id@2@2@Z 000000018006b4d8     libvcruntime:winapi_downlevel.obj
 0003:000024e4       $pdata$__vcrt_FlsAlloc     000000018006b4e4     libvcruntime:winapi_downlevel.obj
 0003:000024f0       $pdata$__vcrt_FlsFree      000000018006b4f0     libvcruntime:winapi_downlevel.obj
 0003:000024fc       $pdata$__vcrt_FlsGetValue  000000018006b4fc     libvcruntime:winapi_downlevel.obj
 0003:00002508       $pdata$__vcrt_FlsSetValue  000000018006b508     libvcruntime:winapi_downlevel.obj
 0003:00002514       $pdata$__vcrt_InitializeCriticalSectionEx 000000018006b514     libvcruntime:winapi_downlevel.obj
 0003:00002520       $pdata$__vcrt_initialize_winapi_thunks 000000018006b520     libvcruntime:winapi_downlevel.obj
 0003:0000252c       $pdata$__vcrt_uninitialize_winapi_thunks 000000018006b52c     libvcruntime:winapi_downlevel.obj
 0003:00002550       $pdata$??$?RV<lambda_a62c933ada0517137acf5807a1eeac1f>@@AEAV<lambda_a31071773b9a94e445cbd5d04ef99106>@@V<lambda_56065050dbf3ada7e59a83db45153de3>@@@?$__crt_seh_guarded_call@H@@QEAAH$$QEAV<lambda_a62c933ada0517137acf5807a1eeac1f>@@AEAV<lambda_a31071773b9a94e445cbd5d04ef99106>@@$$QEAV<lambda_56065050dbf3ada7e59a83db45153de3>@@@Z 000000018006b550     libucrt:output.obj
 0003:0000255c       $pdata$??$common_vsprintf@Vstandard_base@__crt_stdio_output@@D@@YAH_KQEAD0QEBDQEAU__crt_locale_pointers@@1@Z 000000018006b55c     libucrt:output.obj
 0003:00002568       $pdata$??$common_vsprintf@Vstandard_base@__crt_stdio_output@@_W@@YAH_KQEA_W0QEB_WQEAU__crt_locale_pointers@@QEAD@Z 000000018006b568     libucrt:output.obj
 0003:00002574       $pdata$??$ensure_buffer_is_big_enough@D@formatting_buffer@__crt_stdio_output@@QEAA_N_K@Z 000000018006b574     libucrt:output.obj
 0003:00002580       $pdata$??$ensure_buffer_is_big_enough@_W@formatting_buffer@__crt_stdio_output@@QEAA_N_K@Z 000000018006b580     libucrt:output.obj
 0003:0000258c       $pdata$??$type_case_integer_parse_into_buffer@I@?$output_processor@DV?$stream_output_adapter@D@__crt_stdio_output@@V?$standard_base@DV?$stream_output_adapter@D@__crt_stdio_output@@@2@@__crt_stdio_output@@AEAAXII_N@Z 000000018006b58c     libucrt:output.obj
 0003:0000258c       $pdata$??$type_case_integer_parse_into_buffer@I@?$output_processor@DV?$string_output_adapter@D@__crt_stdio_output@@V?$standard_base@DV?$string_output_adapter@D@__crt_stdio_output@@@2@@__crt_stdio_output@@AEAAXII_N@Z 000000018006b58c     libucrt:output.obj
 0003:00002598       $pdata$??$type_case_integer_parse_into_buffer@I@?$output_processor@_WV?$string_output_adapter@_W@__crt_stdio_output@@V?$standard_base@_WV?$string_output_adapter@_W@__crt_stdio_output@@@2@@__crt_stdio_output@@AEAAXII_N@Z 000000018006b598     libucrt:output.obj
 0003:000025a4       $pdata$??$type_case_integer_parse_into_buffer@_K@?$output_processor@DV?$string_output_adapter@D@__crt_stdio_output@@V?$standard_base@DV?$string_output_adapter@D@__crt_stdio_output@@@2@@__crt_stdio_output@@AEAAX_KI_N@Z 000000018006b5a4     libucrt:output.obj
 0003:000025a4       $pdata$??$type_case_integer_parse_into_buffer@_K@?$output_processor@DV?$stream_output_adapter@D@__crt_stdio_output@@V?$standard_base@DV?$stream_output_adapter@D@__crt_stdio_output@@@2@@__crt_stdio_output@@AEAAX_KI_N@Z 000000018006b5a4     libucrt:output.obj
 0003:000025b0       $pdata$??$type_case_integer_parse_into_buffer@_K@?$output_processor@_WV?$string_output_adapter@_W@__crt_stdio_output@@V?$standard_base@_WV?$string_output_adapter@_W@__crt_stdio_output@@@2@@__crt_stdio_output@@AEAAX_KI_N@Z 000000018006b5b0     libucrt:output.obj
 0003:000025bc       $pdata$??$write_multiple_characters@V?$stream_output_adapter@D@__crt_stdio_output@@D@__crt_stdio_output@@YAXAEBV?$stream_output_adapter@D@0@DHQEAH@Z 000000018006b5bc     libucrt:output.obj
 0003:000025c8       $pdata$??$write_multiple_characters@V?$string_output_adapter@D@__crt_stdio_output@@D@__crt_stdio_output@@YAXAEBV?$string_output_adapter@D@0@DHQEAH@Z 000000018006b5c8     libucrt:output.obj
 0003:000025d4       $pdata$??$write_multiple_characters@V?$string_output_adapter@_W@__crt_stdio_output@@D@__crt_stdio_output@@YAXAEBV?$string_output_adapter@_W@0@DHQEAH@Z 000000018006b5d4     libucrt:output.obj
 0003:000025e0       $pdata$??0_LocaleUpdate@@QEAA@QEAU__crt_locale_pointers@@@Z 000000018006b5e0     libucrt:output.obj
 0003:000025ec       $pdata$??R<lambda_a31071773b9a94e445cbd5d04ef99106>@@QEBAHXZ 000000018006b5ec     libucrt:output.obj
 0003:000025f8       $pdata$?force_decimal_point@__crt_stdio_output@@YAXPEADQEAU__crt_locale_pointers@@@Z 000000018006b5f8     libucrt:output.obj
 0003:00002604       $pdata$?parse_int_from_format_string@?$output_processor@DV?$stream_output_adapter@D@__crt_stdio_output@@V?$standard_base@DV?$stream_output_adapter@D@__crt_stdio_output@@@2@@__crt_stdio_output@@AEAA_NQEAH@Z 000000018006b604     libucrt:output.obj
 0003:00002604       $pdata$?parse_int_from_format_string@?$output_processor@DV?$string_output_adapter@D@__crt_stdio_output@@V?$standard_base@DV?$string_output_adapter@D@__crt_stdio_output@@@2@@__crt_stdio_output@@AEAA_NQEAH@Z 000000018006b604     libucrt:output.obj
 0003:00002610       $pdata$?parse_int_from_format_string@?$output_processor@_WV?$string_output_adapter@_W@__crt_stdio_output@@V?$standard_base@_WV?$string_output_adapter@_W@__crt_stdio_output@@@2@@__crt_stdio_output@@AEAA_NQEAH@Z 000000018006b610     libucrt:output.obj
 0003:0000261c       $pdata$?process@?$output_processor@DV?$stream_output_adapter@D@__crt_stdio_output@@V?$standard_base@DV?$stream_output_adapter@D@__crt_stdio_output@@@2@@__crt_stdio_output@@QEAAHXZ 000000018006b61c     libucrt:output.obj
 0003:00002628       $pdata$?process@?$output_processor@DV?$string_output_adapter@D@__crt_stdio_output@@V?$standard_base@DV?$string_output_adapter@D@__crt_stdio_output@@@2@@__crt_stdio_output@@QEAAHXZ 000000018006b628     libucrt:output.obj
 0003:00002634       $pdata$?process@?$output_processor@_WV?$string_output_adapter@_W@__crt_stdio_output@@V?$standard_base@_WV?$string_output_adapter@_W@__crt_stdio_output@@@2@@__crt_stdio_output@@QEAAHXZ 000000018006b634     libucrt:output.obj
 0003:00002640       $pdata$?state_case_normal@?$output_processor@DV?$stream_output_adapter@D@__crt_stdio_output@@V?$standard_base@DV?$stream_output_adapter@D@__crt_stdio_output@@@2@@__crt_stdio_output@@AEAA_NXZ 000000018006b640     libucrt:output.obj
 0003:0000264c       $pdata$?state_case_normal@?$output_processor@DV?$string_output_adapter@D@__crt_stdio_output@@V?$standard_base@DV?$string_output_adapter@D@__crt_stdio_output@@@2@@__crt_stdio_output@@AEAA_NXZ 000000018006b64c     libucrt:output.obj
 0003:00002658       $pdata$?state_case_normal_tchar@?$output_processor@DV?$stream_output_adapter@D@__crt_stdio_output@@V?$standard_base@DV?$stream_output_adapter@D@__crt_stdio_output@@@2@@__crt_stdio_output@@AEAA_ND@Z 000000018006b658     libucrt:output.obj
 0003:00002664       $pdata$?state_case_normal_tchar@?$output_processor@DV?$string_output_adapter@D@__crt_stdio_output@@V?$standard_base@DV?$string_output_adapter@D@__crt_stdio_output@@@2@@__crt_stdio_output@@AEAA_ND@Z 000000018006b664     libucrt:output.obj
 0003:00002670       $pdata$?state_case_size@?$output_processor@DV?$stream_output_adapter@D@__crt_stdio_output@@V?$standard_base@DV?$stream_output_adapter@D@__crt_stdio_output@@@2@@__crt_stdio_output@@AEAA_NXZ 000000018006b670     libucrt:output.obj
 0003:0000267c       $pdata$?state_case_size@?$output_processor@DV?$string_output_adapter@D@__crt_stdio_output@@V?$standard_base@DV?$string_output_adapter@D@__crt_stdio_output@@@2@@__crt_stdio_output@@AEAA_NXZ 000000018006b67c     libucrt:output.obj
 0003:00002688       $pdata$?state_case_size@?$output_processor@_WV?$string_output_adapter@_W@__crt_stdio_output@@V?$standard_base@_WV?$string_output_adapter@_W@__crt_stdio_output@@@2@@__crt_stdio_output@@AEAA_NXZ 000000018006b688     libucrt:output.obj
 0003:00002694       $pdata$?state_case_type@?$output_processor@DV?$stream_output_adapter@D@__crt_stdio_output@@V?$standard_base@DV?$stream_output_adapter@D@__crt_stdio_output@@@2@@__crt_stdio_output@@AEAA_NXZ 000000018006b694     libucrt:output.obj
 0003:000026a0       $pdata$?state_case_type@?$output_processor@DV?$string_output_adapter@D@__crt_stdio_output@@V?$standard_base@DV?$string_output_adapter@D@__crt_stdio_output@@@2@@__crt_stdio_output@@AEAA_NXZ 000000018006b6a0     libucrt:output.obj
 0003:000026ac       $pdata$?state_case_type@?$output_processor@_WV?$string_output_adapter@_W@__crt_stdio_output@@V?$standard_base@_WV?$string_output_adapter@_W@__crt_stdio_output@@@2@@__crt_stdio_output@@AEAA_NXZ 000000018006b6ac     libucrt:output.obj
 0003:000026b8       $pdata$?type_case_Z@?$output_processor@_WV?$string_output_adapter@_W@__crt_stdio_output@@V?$standard_base@_WV?$string_output_adapter@_W@__crt_stdio_output@@@2@@__crt_stdio_output@@AEAA_NXZ 000000018006b6b8     libucrt:output.obj
 0003:000026c4       $pdata$?type_case_a@?$output_processor@DV?$stream_output_adapter@D@__crt_stdio_output@@V?$standard_base@DV?$stream_output_adapter@D@__crt_stdio_output@@@2@@__crt_stdio_output@@AEAA_NXZ 000000018006b6c4     libucrt:output.obj
 0003:000026c4       $pdata$?type_case_a@?$output_processor@DV?$string_output_adapter@D@__crt_stdio_output@@V?$standard_base@DV?$string_output_adapter@D@__crt_stdio_output@@@2@@__crt_stdio_output@@AEAA_NXZ 000000018006b6c4     libucrt:output.obj
 0003:000026d0       $pdata$?type_case_a@?$output_processor@_WV?$string_output_adapter@_W@__crt_stdio_output@@V?$standard_base@_WV?$string_output_adapter@_W@__crt_stdio_output@@@2@@__crt_stdio_output@@AEAA_NXZ 000000018006b6d0     libucrt:output.obj
 0003:000026dc       $pdata$?type_case_c_tchar@?$output_processor@DV?$stream_output_adapter@D@__crt_stdio_output@@V?$standard_base@DV?$stream_output_adapter@D@__crt_stdio_output@@@2@@__crt_stdio_output@@AEAA_ND@Z 000000018006b6dc     libucrt:output.obj
 0003:000026dc       $pdata$?type_case_c_tchar@?$output_processor@DV?$string_output_adapter@D@__crt_stdio_output@@V?$standard_base@DV?$string_output_adapter@D@__crt_stdio_output@@@2@@__crt_stdio_output@@AEAA_ND@Z 000000018006b6dc     libucrt:output.obj
 0003:000026e8       $pdata$?type_case_c_tchar@?$output_processor@_WV?$string_output_adapter@_W@__crt_stdio_output@@V?$standard_base@_WV?$string_output_adapter@_W@__crt_stdio_output@@@2@@__crt_stdio_output@@AEAA_N_W@Z 000000018006b6e8     libucrt:output.obj
 0003:000026f4       $pdata$?type_case_integer@?$output_processor@DV?$string_output_adapter@D@__crt_stdio_output@@V?$standard_base@DV?$string_output_adapter@D@__crt_stdio_output@@@2@@__crt_stdio_output@@AEAA_NI_N@Z 000000018006b6f4     libucrt:output.obj
 0003:000026f4       $pdata$?type_case_integer@?$output_processor@DV?$stream_output_adapter@D@__crt_stdio_output@@V?$standard_base@DV?$stream_output_adapter@D@__crt_stdio_output@@@2@@__crt_stdio_output@@AEAA_NI_N@Z 000000018006b6f4     libucrt:output.obj
 0003:00002700       $pdata$?type_case_integer@?$output_processor@_WV?$string_output_adapter@_W@__crt_stdio_output@@V?$standard_base@_WV?$string_output_adapter@_W@__crt_stdio_output@@@2@@__crt_stdio_output@@AEAA_NI_N@Z 000000018006b700     libucrt:output.obj
 0003:0000270c       $pdata$?type_case_n@?$output_processor@_WV?$string_output_adapter@_W@__crt_stdio_output@@V?$standard_base@_WV?$string_output_adapter@_W@__crt_stdio_output@@@2@@__crt_stdio_output@@AEAA_NXZ 000000018006b70c     libucrt:output.obj
 0003:0000270c       $pdata$?type_case_n@?$output_processor@DV?$stream_output_adapter@D@__crt_stdio_output@@V?$standard_base@DV?$stream_output_adapter@D@__crt_stdio_output@@@2@@__crt_stdio_output@@AEAA_NXZ 000000018006b70c     libucrt:output.obj
 0003:0000270c       $pdata$?type_case_n@?$output_processor@DV?$string_output_adapter@D@__crt_stdio_output@@V?$standard_base@DV?$string_output_adapter@D@__crt_stdio_output@@@2@@__crt_stdio_output@@AEAA_NXZ 000000018006b70c     libucrt:output.obj
 0003:00002718       $pdata$?type_case_s@?$output_processor@DV?$stream_output_adapter@D@__crt_stdio_output@@V?$standard_base@DV?$stream_output_adapter@D@__crt_stdio_output@@@2@@__crt_stdio_output@@AEAA_NXZ 000000018006b718     libucrt:output.obj
 0003:00002718       $pdata$?type_case_s@?$output_processor@DV?$string_output_adapter@D@__crt_stdio_output@@V?$standard_base@DV?$string_output_adapter@D@__crt_stdio_output@@@2@@__crt_stdio_output@@AEAA_NXZ 000000018006b718     libucrt:output.obj
 0003:00002724       $pdata$?type_case_s@?$output_processor@_WV?$string_output_adapter@_W@__crt_stdio_output@@V?$standard_base@_WV?$string_output_adapter@_W@__crt_stdio_output@@@2@@__crt_stdio_output@@AEAA_NXZ 000000018006b724     libucrt:output.obj
 0003:00002730       $pdata$?validate_stream_is_ansi_if_required@?$__acrt_stdio_char_traits@D@@SA_NQEAU_iobuf@@@Z 000000018006b730     libucrt:output.obj
 0003:0000273c       $pdata$?write_stored_string_tchar@?$output_processor@DV?$stream_output_adapter@D@__crt_stdio_output@@V?$standard_base@DV?$stream_output_adapter@D@__crt_stdio_output@@@2@@__crt_stdio_output@@AEAA_ND@Z 000000018006b73c     libucrt:output.obj
 0003:00002748       $pdata$?write_stored_string_tchar@?$output_processor@DV?$string_output_adapter@D@__crt_stdio_output@@V?$standard_base@DV?$string_output_adapter@D@__crt_stdio_output@@@2@@__crt_stdio_output@@AEAA_ND@Z 000000018006b748     libucrt:output.obj
 0003:00002754       $pdata$?write_stored_string_tchar@?$output_processor@_WV?$string_output_adapter@_W@__crt_stdio_output@@V?$standard_base@_WV?$string_output_adapter@_W@__crt_stdio_output@@@2@@__crt_stdio_output@@AEAA_N_W@Z 000000018006b754     libucrt:output.obj
 0003:00002760       $pdata$?write_string@?$string_output_adapter@D@__crt_stdio_output@@QEBAXQEBDHQEAHAEAV__crt_deferred_errno_cache@@@Z 000000018006b760     libucrt:output.obj
 0003:0000276c       $pdata$?write_string@?$string_output_adapter@_W@__crt_stdio_output@@QEBAXQEB_WHQEAHAEAV__crt_deferred_errno_cache@@@Z 000000018006b76c     libucrt:output.obj
 0003:00002778       $pdata$?write_string_impl@?$output_adapter_common@DV?$stream_output_adapter@D@__crt_stdio_output@@@__crt_stdio_output@@IEBAXQEBDHQEAHAEAV__crt_deferred_errno_cache@@@Z 000000018006b778     libucrt:output.obj
 0003:00002784       $pdata$__stdio_common_vfprintf 000000018006b784     libucrt:output.obj
 0003:00002790       $pdata$_wcsdup             000000018006b790     libucrt:wcsdup.obj
 0003:0000279c       $pdata$??$common_fsopen@_W@@YAPEAU_iobuf@@QEB_W0H@Z 000000018006b79c     libucrt:fopen.obj
 0003:000027a8       $pdata$_fclose_nolock      000000018006b7a8     libucrt:fclose.obj
 0003:000027b4       $pdata$fclose              000000018006b7b4     libucrt:fclose.obj
 0003:000027c0       $pdata$_clearfp            000000018006b7c0     libucrt:ieee.obj
 0003:000027cc       $pdata$common_control87    000000018006b7cc     libucrt:ieee.obj
 0003:000027d8       $pdata$__acrt_errno_map_os_error 000000018006b7d8     libucrt:errno.obj
 0003:000027e4       $pdata$__doserrno          000000018006b7e4     libucrt:errno.obj
 0003:000027f0       $pdata$_errno              000000018006b7f0     libucrt:errno.obj
 0003:000027fc       $pdata$strerror            000000018006b7fc     libucrt:strerror.obj
 0003:00002808       $pdata$__acrt_initialize_stdio 000000018006b808     libucrt:_file.obj
 0003:00002814       $pdata$__acrt_uninitialize_stdio 000000018006b814     libucrt:_file.obj
 0003:00002820       $pdata$??$common_freopen@_W@@YAHQEAPEAU_iobuf@@QEB_W1V__crt_stdio_stream@@H@Z 000000018006b820     libucrt:freopen.obj
 0003:0000282c       $pdata$_wfreopen           000000018006b82c     libucrt:freopen.obj
 0003:00002838       $pdata$feof                000000018006b838     libucrt:feoferr.obj
 0003:00002844       $pdata$ferror              000000018006b844     libucrt:feoferr.obj
 0003:00002850       $pdata$_fread_nolock_s     000000018006b850     libucrt:fread.obj
 0003:0000285c       $pdata$fread               000000018006b85c     libucrt:fread.obj
 0003:00002868       $pdata$fread_s             000000018006b868     libucrt:fread.obj
 0003:00002874       $pdata$_fgetc_nolock       000000018006b874     libucrt:fgetc.obj
 0003:00002880       $pdata$fgetc               000000018006b880     libucrt:fgetc.obj
 0003:0000288c       $pdata$rewind              000000018006b88c     libucrt:rewind.obj
 0003:00002898       $pdata$_ungetc_nolock      000000018006b898     libucrt:ungetc.obj
 0003:000028a4       $pdata$ungetc              000000018006b8a4     libucrt:ungetc.obj
 0003:000028bc       $pdata$iswctype            000000018006b8bc     libucrt:iswctype.obj
 0003:000028c8       $pdata$isdigit             000000018006b8c8     libucrt:_ctype.obj
 0003:000028d4       $pdata$isspace             000000018006b8d4     libucrt:_ctype.obj
 0003:000028e0       $pdata$wcsncpy             000000018006b8e0     libucrt:wcsncpy.obj
 0003:000028ec       $pdata$_wcsicmp            000000018006b8ec     libucrt:wcsicmp.obj
 0003:000028f8       $pdata$_wcsicmp_l          000000018006b8f8     libucrt:wcsicmp.obj
 0003:0000291c       $pdata$fallbackMethod      000000018006b91c     libucrt:strpbrk.obj
 0003:00002928       $pdata$strpbrk             000000018006b928     libucrt:strpbrk.obj
 0003:00002934       $pdata$??$common_popen@_W@@YAPEAU_iobuf@@QEB_W0@Z 000000018006b934     libucrt:popen.obj
 0003:00002940       $pdata$??$common_popen_nolock@_W@@YAPEAU_iobuf@@QEB_W0HAEAY01H@Z 000000018006b940     libucrt:popen.obj
 0003:0000294c       $pdata$??$get_executable_path@_W@@YAPEB_WQEB_W@Z 000000018006b94c     libucrt:popen.obj
 0003:00002958       $pdata$?idtab@@YAPEAUprocess_handle_pair@?A0xe43b7539@@QEAU_iobuf@@@Z 000000018006b958     libucrt:popen.obj
 0003:00002964       $pdata$_pclose             000000018006b964     libucrt:popen.obj
 0003:00002970       $pdata$clearerr_s          000000018006b970     libucrt:clearerr.obj
 0003:0000297c       $pdata$??$?RV<lambda_842d9ff0dc9ef11c61343bbaebe7f885>@@AEAV<lambda_c5860995281e5c4ce005b3de8f5874ee>@@V<lambda_d90129c13df834fdcbf8d2b88dafcf2d>@@@?$__crt_seh_guarded_call@X@@QEAAX$$QEAV<lambda_842d9ff0dc9ef11c61343bbaebe7f885>@@AEAV<lambda_c5860995281e5c4ce005b3de8f5874ee>@@$$QEAV<lambda_d90129c13df834fdcbf8d2b88dafcf2d>@@@Z 000000018006b97c     libucrt:fflush.obj
 0003:00002988       $pdata$??$?RV<lambda_886d6c58226a84441f68b9f2b8217b83>@@AEAV<lambda_ab61a845afdef5b7c387490eaf3616ee>@@V<lambda_f7f22ab5edc0698d5f6905b0d3f44752>@@@?$__crt_seh_guarded_call@X@@QEAAX$$QEAV<lambda_886d6c58226a84441f68b9f2b8217b83>@@AEAV<lambda_ab61a845afdef5b7c387490eaf3616ee>@@$$QEAV<lambda_f7f22ab5edc0698d5f6905b0d3f44752>@@@Z 000000018006b988     libucrt:fflush.obj
 0003:00002994       $pdata$??$?RV<lambda_c376a267cfb53b6959b3b692ec76b120>@@AEAV<lambda_9a32fed5bf61b6b509b2d3f6003082a1>@@V<lambda_572fbb9fa0ab338edf41edfd4b5fcc8d>@@@?$__crt_seh_guarded_call@H@@QEAAH$$QEAV<lambda_c376a267cfb53b6959b3b692ec76b120>@@AEAV<lambda_9a32fed5bf61b6b509b2d3f6003082a1>@@$$QEAV<lambda_572fbb9fa0ab338edf41edfd4b5fcc8d>@@@Z 000000018006b994     libucrt:fflush.obj
 0003:000029a0       $pdata$?common_flush_all@@YAH_N@Z 000000018006b9a0     libucrt:fflush.obj
 0003:000029ac       $pdata$__acrt_stdio_flush_nolock 000000018006b9ac     libucrt:fflush.obj
 0003:000029b8       $pdata$_fflush_nolock      000000018006b9b8     libucrt:fflush.obj
 0003:000029c4       $pdata$fflush              000000018006b9c4     libucrt:fflush.obj
 0003:000029d0       $pdata$??$common_fgets@D@@YAPEADQEADHV__crt_stdio_stream@@@Z 000000018006b9d0     libucrt:fgets.obj
 0003:000029dc       $pdata$?common_fseek@@YAHV__crt_stdio_stream@@_JH@Z 000000018006b9dc     libucrt:fseek.obj
 0003:000029e8       $pdata$?common_fseek_binary_mode_read_only_fast_track_nolock@@YA_NV__crt_stdio_stream@@_JH@Z 000000018006b9e8     libucrt:fseek.obj
 0003:000029f4       $pdata$?common_fseek_nolock@@YAHV__crt_stdio_stream@@_JH@Z 000000018006b9f4     libucrt:fseek.obj
 0003:00002a00       $pdata$??$common_ftell@J@@YAJV__crt_stdio_stream@@@Z 000000018006ba00     libucrt:ftell.obj
 0003:00002a0c       $pdata$??$common_ftell_nolock@_J@@YA_JV__crt_stdio_stream@@@Z 000000018006ba0c     libucrt:ftell.obj
 0003:00002a18       $pdata$?common_ftell_read_mode_nolock@@YA_JV__crt_stdio_stream@@_J1@Z 000000018006ba18     libucrt:ftell.obj
 0003:00002a24       $pdata$?common_ftell_translated_utf8_nolock@@YA_JV__crt_stdio_stream@@_J@Z 000000018006ba24     libucrt:ftell.obj
 0003:00002a30       $pdata$??$?RV<lambda_bdbcead8b570fa3d5ec6d9679862a6e5>@@AEAV<lambda_96f4279ff90247a4c5c5d9824f56f8c1>@@V<lambda_4606be27f17b5e5579e09050fab91818>@@@?$__crt_seh_guarded_call@_K@@QEAA_K$$QEAV<lambda_bdbcead8b570fa3d5ec6d9679862a6e5>@@AEAV<lambda_96f4279ff90247a4c5c5d9824f56f8c1>@@$$QEAV<lambda_4606be27f17b5e5579e09050fab91818>@@@Z 000000018006ba30     libucrt:fwrite.obj
 0003:00002a3c       $pdata$??R<lambda_96f4279ff90247a4c5c5d9824f56f8c1>@@QEBA_KXZ 000000018006ba3c     libucrt:fwrite.obj
 0003:00002a48       $pdata$_fwrite_nolock      000000018006ba48     libucrt:fwrite.obj
 0003:00002a54       $pdata$fwrite              000000018006ba54     libucrt:fwrite.obj
 0003:00002a60       $pdata$??$?RV<lambda_84ec643ea9557e2f7dc01bb0e9624395>@@AEAV<lambda_ca71763b3c0644891230e4f79ea54fa6>@@V<lambda_439a761618c59b0600e24586724d733b>@@@?$__crt_seh_guarded_call@H@@QEAAH$$QEAV<lambda_84ec643ea9557e2f7dc01bb0e9624395>@@AEAV<lambda_ca71763b3c0644891230e4f79ea54fa6>@@$$QEAV<lambda_439a761618c59b0600e24586724d733b>@@@Z 000000018006ba60     libucrt:setvbuf.obj
 0003:00002a6c       $pdata$??R<lambda_ca71763b3c0644891230e4f79ea54fa6>@@QEBAHXZ 000000018006ba6c     libucrt:setvbuf.obj
 0003:00002a78       $pdata$setvbuf             000000018006ba78     libucrt:setvbuf.obj
 0003:00002a84       $pdata$??$generate_tmpfile_file_name@D@@YA_NQEAD_K@Z 000000018006ba84     libucrt:tmpfile.obj
 0003:00002a90       $pdata$??$get_tmpfile_buffer_nolock@D@@YAPEADW4buffer_id@?A0x5b9a7937@@@Z 000000018006ba90     libucrt:tmpfile.obj
 0003:00002a9c       $pdata$??$initialize_tmpfile_buffer_nolock@D@@YA_NW4buffer_id@?A0x5b9a7937@@@Z 000000018006ba9c     libucrt:tmpfile.obj
 0003:00002aa8       $pdata$?common_tmpfile@@YAHQEAPEAU_iobuf@@H@Z 000000018006baa8     libucrt:tmpfile.obj
 0003:00002ab4       $pdata$?common_tmpfile_nolock@@YAHQEAPEAU_iobuf@@H@Z 000000018006bab4     libucrt:tmpfile.obj
 0003:00002ac0       $pdata$__acrt_stdio_free_tmpfile_name_buffers_nolock 000000018006bac0     libucrt:tmpfile.obj
 0003:00002acc       $pdata$tmpfile             000000018006bacc     libucrt:tmpfile.obj
 0003:00002ad8       $pdata$??$?RV<lambda_082dd7c0feb7dbdaf245f261e54a6583>@@AEAV<lambda_f3caf1ecae5fe01a9a1a6239afa44510>@@V<lambda_c640b76c0755ae85b317b35c67c61e6b>@@@?$__crt_seh_guarded_call@H@@QEAAH$$QEAV<lambda_082dd7c0feb7dbdaf245f261e54a6583>@@AEAV<lambda_f3caf1ecae5fe01a9a1a6239afa44510>@@$$QEAV<lambda_c640b76c0755ae85b317b35c67c61e6b>@@@Z 000000018006bad8     libucrt:input.obj
 0003:00002ae4       $pdata$??$parse_floating_point@V?$input_adapter_character_source@V?$stream_input_adapter@D@__crt_stdio_input@@@__crt_strtox@@M@__crt_strtox@@YA?AW4SLD_STATUS@@QEAU__crt_locale_pointers@@V?$input_adapter_character_source@V?$stream_input_adapter@D@__crt_stdio_input@@@0@QEAM@Z 000000018006bae4     libucrt:input.obj
 0003:00002af0       $pdata$??$parse_floating_point@V?$input_adapter_character_source@V?$stream_input_adapter@D@__crt_stdio_input@@@__crt_strtox@@N@__crt_strtox@@YA?AW4SLD_STATUS@@QEAU__crt_locale_pointers@@V?$input_adapter_character_source@V?$stream_input_adapter@D@__crt_stdio_input@@@0@QEAN@Z 000000018006baf0     libucrt:input.obj
 0003:00002afc       $pdata$??$parse_floating_point_from_source@V?$input_adapter_character_source@V?$stream_input_adapter@D@__crt_stdio_input@@@__crt_strtox@@@__crt_strtox@@YA?AW4floating_point_parse_result@0@QEAU__crt_locale_pointers@@AEAV?$input_adapter_character_source@V?$stream_input_adapter@D@__crt_stdio_input@@@0@AEAUfloating_point_string@0@@Z 000000018006bafc     libucrt:input.obj
 0003:00002b08       $pdata$??$parse_floating_point_possible_infinity@DV?$input_adapter_character_source@V?$stream_input_adapter@D@__crt_stdio_input@@@__crt_strtox@@_K@__crt_strtox@@YA?AW4floating_point_parse_result@0@AEADAEAV?$input_adapter_character_source@V?$stream_input_adapter@D@__crt_stdio_input@@@0@_K@Z 000000018006bb08     libucrt:input.obj
 0003:00002b14       $pdata$??$parse_floating_point_possible_nan@DV?$input_adapter_character_source@V?$stream_input_adapter@D@__crt_stdio_input@@@__crt_strtox@@_K@__crt_strtox@@YA?AW4floating_point_parse_result@0@AEADAEAV?$input_adapter_character_source@V?$stream_input_adapter@D@__crt_stdio_input@@@0@_K@Z 000000018006bb14     libucrt:input.obj
 0003:00002b20       $pdata$??$parse_floating_point_possible_nan_is_ind@DV?$input_adapter_character_source@V?$stream_input_adapter@D@__crt_stdio_input@@@__crt_strtox@@@__crt_strtox@@YA_NAEADAEAV?$input_adapter_character_source@V?$stream_input_adapter@D@__crt_stdio_input@@@0@@Z 000000018006bb20     libucrt:input.obj
 0003:00002b2c       $pdata$??$parse_floating_point_possible_nan_is_snan@DV?$input_adapter_character_source@V?$stream_input_adapter@D@__crt_stdio_input@@@__crt_strtox@@@__crt_strtox@@YA_NAEADAEAV?$input_adapter_character_source@V?$stream_input_adapter@D@__crt_stdio_input@@@0@@Z 000000018006bb2c     libucrt:input.obj
 0003:00002b38       $pdata$??$parse_floating_point_write_result@M@__crt_strtox@@YA?AW4SLD_STATUS@@W4floating_point_parse_result@0@AEBUfloating_point_string@0@QEAM@Z 000000018006bb38     libucrt:input.obj
 0003:00002b44       $pdata$??$parse_floating_point_write_result@N@__crt_strtox@@YA?AW4SLD_STATUS@@W4floating_point_parse_result@0@AEBUfloating_point_string@0@QEAN@Z 000000018006bb44     libucrt:input.obj
 0003:00002b50       $pdata$??$parse_integer@_KV?$input_adapter_character_source@V?$stream_input_adapter@D@__crt_stdio_input@@@__crt_strtox@@@__crt_strtox@@YA_KQEAU__crt_locale_pointers@@V?$input_adapter_character_source@V?$stream_input_adapter@D@__crt_stdio_input@@@0@H_N@Z 000000018006bb50     libucrt:input.obj
 0003:00002b5c       $pdata$??$process_floating_point_specifier_t@M@?$input_processor@DV?$stream_input_adapter@D@__crt_stdio_input@@@__crt_stdio_input@@AEAA_NXZ 000000018006bb5c     libucrt:input.obj
 0003:00002b68       $pdata$??$process_floating_point_specifier_t@N@?$input_processor@DV?$stream_input_adapter@D@__crt_stdio_input@@@__crt_stdio_input@@AEAA_NXZ 000000018006bb68     libucrt:input.obj
 0003:00002b74       $pdata$??$process_string_specifier_tchar@D@?$input_processor@DV?$stream_input_adapter@D@__crt_stdio_input@@@__crt_stdio_input@@AEAA_NW4conversion_mode@1@D@Z 000000018006bb74     libucrt:input.obj
 0003:00002b80       $pdata$??$process_string_specifier_tchar@_W@?$input_processor@DV?$stream_input_adapter@D@__crt_stdio_input@@@__crt_stdio_input@@AEAA_NW4conversion_mode@1@_W@Z 000000018006bb80     libucrt:input.obj
 0003:00002b8c       $pdata$??$skip_whitespace@Vstream_input_adapter@__crt_stdio_input@@D@__crt_stdio_input@@YAHAEAV?$stream_input_adapter@D@0@QEAU__crt_locale_pointers@@@Z 000000018006bb8c     libucrt:input.obj
 0003:00002b98       $pdata$??R<lambda_156378f40168adef48d7ddfcff3a1264>@@QEBA_NXZ 000000018006bb98     libucrt:input.obj
 0003:00002ba4       $pdata$??R<lambda_f3caf1ecae5fe01a9a1a6239afa44510>@@QEBAHXZ 000000018006bba4     libucrt:input.obj
 0003:00002bb0       $pdata$?advance@?$format_string_parser@D@__crt_stdio_input@@QEAA_NXZ 000000018006bbb0     libucrt:input.obj
 0003:00002bbc       $pdata$?as_double@floating_point_value@__crt_strtox@@QEBAAEANXZ 000000018006bbbc     libucrt:input.obj
 0003:00002bc8       $pdata$?as_float@floating_point_value@__crt_strtox@@QEBAAEAMXZ 000000018006bbc8     libucrt:input.obj
 0003:00002bd4       $pdata$?assemble_floating_point_value@__crt_strtox@@YA?AW4SLD_STATUS@@_KH_N1AEBVfloating_point_value@1@@Z 000000018006bbd4     libucrt:input.obj
 0003:00002be0       $pdata$?assemble_floating_point_value_from_big_integer@__crt_strtox@@YA?AW4SLD_STATUS@@AEBUbig_integer@1@I_N1AEBVfloating_point_value@1@@Z 000000018006bbe0     libucrt:input.obj
 0003:00002bec       $pdata$?convert_decimal_string_to_floating_type_common@__crt_strtox@@YA?AW4SLD_STATUS@@AEBUfloating_point_string@1@AEBVfloating_point_value@1@@Z 000000018006bbec     libucrt:input.obj
 0003:00002bf8       $pdata$?convert_hexadecimal_string_to_floating_type_common@__crt_strtox@@YA?AW4SLD_STATUS@@AEBUfloating_point_string@1@AEBVfloating_point_value@1@@Z 000000018006bbf8     libucrt:input.obj
 0003:00002c04       $pdata$?divide@__crt_strtox@@YA_KAEAUbig_integer@1@AEBU21@@Z 000000018006bc04     libucrt:input.obj
 0003:00002c10       $pdata$0$?divide@__crt_strtox@@YA_KAEAUbig_integer@1@AEBU21@@Z 000000018006bc10     libucrt:input.obj
 0003:00002c1c       $pdata$1$?divide@__crt_strtox@@YA_KAEAUbig_integer@1@AEBU21@@Z 000000018006bc1c     libucrt:input.obj
 0003:00002c28       $pdata$?process@?$input_processor@DV?$stream_input_adapter@D@__crt_stdio_input@@@__crt_stdio_input@@QEAAHXZ 000000018006bc28     libucrt:input.obj
 0003:00002c34       $pdata$?process_conversion_specifier@?$input_processor@DV?$stream_input_adapter@D@__crt_stdio_input@@@__crt_stdio_input@@AEAA_NXZ 000000018006bc34     libucrt:input.obj
 0003:00002c40       $pdata$?process_floating_point_specifier@?$input_processor@DV?$stream_input_adapter@D@__crt_stdio_input@@@__crt_stdio_input@@AEAA_NXZ 000000018006bc40     libucrt:input.obj
 0003:00002c4c       $pdata$?process_integer_specifier@?$input_processor@DV?$stream_input_adapter@D@__crt_stdio_input@@@__crt_stdio_input@@AEAA_NI_N@Z 000000018006bc4c     libucrt:input.obj
 0003:00002c58       $pdata$?process_literal_character_tchar@?$input_processor@DV?$stream_input_adapter@D@__crt_stdio_input@@@__crt_stdio_input@@AEAA_ND@Z 000000018006bc58     libucrt:input.obj
 0003:00002c64       $pdata$?process_state@?$input_processor@DV?$stream_input_adapter@D@__crt_stdio_input@@@__crt_stdio_input@@AEAA_NXZ 000000018006bc64     libucrt:input.obj
 0003:00002c70       $pdata$?process_string_specifier@?$input_processor@DV?$stream_input_adapter@D@__crt_stdio_input@@@__crt_stdio_input@@AEAA_NW4conversion_mode@2@@Z 000000018006bc70     libucrt:input.obj
 0003:00002c7c       $pdata$?scan_optional_field_width@?$format_string_parser@D@__crt_stdio_input@@AEAA_NXZ 000000018006bc7c     libucrt:input.obj
 0003:00002c88       $pdata$?scan_scanset_range@?$format_string_parser@D@__crt_stdio_input@@AEAA_NXZ 000000018006bc88     libucrt:input.obj
 0003:00002c94       $pdata$?write_character@?$input_processor@DV?$stream_input_adapter@D@__crt_stdio_input@@@__crt_stdio_input@@AEAA_NQEFA_W_KAEAPEFA_WAEA_KD@Z 000000018006bc94     libucrt:input.obj
 0003:00002ca0       $pdata$?write_integer@?$input_processor@DV?$stream_input_adapter@D@__crt_stdio_input@@@__crt_stdio_input@@AEAA_N_K@Z 000000018006bca0     libucrt:input.obj
 0003:00002cac       $pdata$__stdio_common_vfscanf 000000018006bcac     libucrt:input.obj
 0003:00002cb8       $pdata$memcpy_s            000000018006bcb8     libucrt:input.obj
 0003:00002cb8       $pdata$memcpy_s            000000018006bcb8     libucrt:cfout.obj
 0003:00002cc4       $pdata$??$common_dupenv_s@_W@@YAHQEAPEA_WQEA_KQEB_WHQEBDH@Z 000000018006bcc4     libucrt:getenv.obj
 0003:00002cd0       $pdata$??$common_getenv@_W@@YAPEA_WQEB_W@Z 000000018006bcd0     libucrt:getenv.obj
 0003:00002cdc       $pdata$??$common_getenv_nolock@_W@@YAPEA_WQEB_W@Z 000000018006bcdc     libucrt:getenv.obj
 0003:00002ce8       $pdata$_wdupenv_s          000000018006bce8     libucrt:getenv.obj
 0003:00002cf4       $pdata$_wsystem            000000018006bcf4     libucrt:system.obj
 0003:00002d00       $pdata$_initterm           000000018006bd00     libucrt:initterm.obj
 0003:00002d0c       $pdata$_initterm_e         000000018006bd0c     libucrt:initterm.obj
 0003:00002d18       $pdata$_seh_filter_exe     000000018006bd18     libucrt:exception_filter.obj
 0003:00002d24       $pdata$??$?RV<lambda_d80eeec6fff315bfe5c115232f3240e3>@@AEAV<lambda_6e4b09c48022b2350581041d5f6b0c4c>@@V<lambda_2358e3775559c9db80273638284d5e45>@@@?$__crt_seh_guarded_call@X@@QEAAX$$QEAV<lambda_d80eeec6fff315bfe5c115232f3240e3>@@AEAV<lambda_6e4b09c48022b2350581041d5f6b0c4c>@@$$QEAV<lambda_2358e3775559c9db80273638284d5e45>@@@Z 000000018006bd24     libucrt:exit.obj
 0003:00002d30       $pdata$??R<lambda_6e4b09c48022b2350581041d5f6b0c4c>@@QEBA@XZ 000000018006bd30     libucrt:exit.obj
 0003:00002d3c       $pdata$?common_exit@@YAXHW4_crt_exit_cleanup_mode@@W4_crt_exit_return_mode@@@Z 000000018006bd3c     libucrt:exit.obj
 0003:00002d48       $pdata$?exit_or_terminate_process@@YAXI@Z 000000018006bd48     libucrt:exit.obj
 0003:00002d54       $pdata$?try_cor_exit_process@@YAXI@Z 000000018006bd54     libucrt:exit.obj
 0003:00002d60       $pdata$??$parse_command_line@D@@YAXPEADPEAPEAD0PEA_K2@Z 000000018006bd60     libucrt:argv_parsing.obj
 0003:00002d6c       $pdata$__acrt_allocate_buffer_for_argv 000000018006bd6c     libucrt:argv_parsing.obj
 0003:00002d78       $pdata$_configure_narrow_argv 000000018006bd78     libucrt:argv_parsing.obj
 0003:00002d84       $pdata$??$common_initialize_environment_nolock@D@@YAHXZ 000000018006bd84     libucrt:environment_initialization.obj
 0003:00002d90       $pdata$??$common_initialize_environment_nolock@_W@@YAHXZ 000000018006bd90     libucrt:environment_initialization.obj
 0003:00002d9c       $pdata$??$create_environment@D@@YAQEAPEADQEAD@Z 000000018006bd9c     libucrt:environment_initialization.obj
 0003:00002da8       $pdata$??$create_environment@_W@@YAQEAPEA_WQEA_W@Z 000000018006bda8     libucrt:environment_initialization.obj
 0003:00002db4       $pdata$??$free_environment@_W@@YAXQEAPEA_W@Z 000000018006bdb4     libucrt:environment_initialization.obj
 0003:00002db4       $pdata$??$free_environment@D@@YAXQEAPEAD@Z 000000018006bdb4     libucrt:environment_initialization.obj
 0003:00002dc0       $pdata$??$initialize_environment_by_cloning_nolock@_W@@YAHXZ 000000018006bdc0     libucrt:environment_initialization.obj
 0003:00002dcc       $pdata$??$uninitialize_environment_internal@D@@YAXAEAPEAPEAD@Z 000000018006bdcc     libucrt:environment_initialization.obj
 0003:00002dd8       $pdata$??$uninitialize_environment_internal@_W@@YAXAEAPEAPEA_W@Z 000000018006bdd8     libucrt:environment_initialization.obj
 0003:00002de4       $pdata$__dcrt_get_or_create_wide_environment_nolock 000000018006bde4     libucrt:environment_initialization.obj
 0003:00002df0       $pdata$__dcrt_uninitialize_environments_nolock 000000018006bdf0     libucrt:environment_initialization.obj
 0003:00002dfc       $pdata$??$?RV<lambda_7777bce6b2f8c936911f934f8298dc43>@@AEAV<lambda_f03950bc5685219e0bcd2087efbe011e>@@V<lambda_3883c3dff614d5e0c5f61bb1ac94921c>@@@?$__crt_seh_guarded_call@H@@QEAAH$$QEAV<lambda_7777bce6b2f8c936911f934f8298dc43>@@AEAV<lambda_f03950bc5685219e0bcd2087efbe011e>@@$$QEAV<lambda_3883c3dff614d5e0c5f61bb1ac94921c>@@@Z 000000018006bdfc     libucrt:onexit.obj
 0003:00002e08       $pdata$??R<lambda_f03950bc5685219e0bcd2087efbe011e>@@QEBAHXZ 000000018006be08     libucrt:onexit.obj
 0003:00002e14       $pdata$_execute_onexit_table 000000018006be14     libucrt:onexit.obj
 0003:00002e20       $pdata$initialize_c        000000018006be20     libucrt:initialization.obj
 0003:00002e2c       $pdata$uninitialize_environment 000000018006be2c     libucrt:initialization.obj
 0003:00002e38       $pdata$initialize_pointers 000000018006be38     libucrt:initialization.obj
 0003:00002e44       $pdata$uninitialize_allocated_memory 000000018006be44     libucrt:initialization.obj
 0003:00002e50       $pdata$uninitialize_allocated_io_buffers 000000018006be50     libucrt:initialization.obj
 0003:00002e5c       $pdata$__acrt_thread_attach 000000018006be5c     libucrt:initialization.obj
 0003:00002e68       $pdata$__acrt_thread_detach 000000018006be68     libucrt:initialization.obj
 0003:00002e74       $pdata$__acrt_uninitialize 000000018006be74     libucrt:initialization.obj
 0003:00002e80       $pdata$__acrt_uninitialize_critical 000000018006be80     libucrt:initialization.obj
 0003:00002e8c       $pdata$terminate           000000018006be8c     libucrt:terminate.obj
 0003:00002e98       $pdata$?_strupr_s_l_stat@@YAHQEAD_KQEAU__crt_locale_pointers@@@Z 000000018006be98     libucrt:strupr.obj
 0003:00002ea4       $pdata$_strupr             000000018006bea4     libucrt:strupr.obj
 0003:00002eb0       $pdata$_strupr_s_l         000000018006beb0     libucrt:strupr.obj
 0003:00002ebc       $pdata$strcpy_s            000000018006bebc     libucrt:strcpy_s.obj
 0003:00002ec8       $pdata$??$parse_integer@KV?$c_string_character_source@D@__crt_strtox@@@__crt_strtox@@YAKQEAU__crt_locale_pointers@@V?$c_string_character_source@D@0@H_N@Z 000000018006bec8     libucrt:atox.obj
 0003:00002ed4       $pdata$??$parse_integer@KV?$c_string_character_source@_W@__crt_strtox@@@__crt_strtox@@YAKQEAU__crt_locale_pointers@@V?$c_string_character_source@_W@0@H_N@Z 000000018006bed4     libucrt:atox.obj
 0003:00002ee0       $pdata$??$parse_integer@_KV?$c_string_character_source@D@__crt_strtox@@@__crt_strtox@@YA_KQEAU__crt_locale_pointers@@V?$c_string_character_source@D@0@H_N@Z 000000018006bee0     libucrt:atox.obj
 0003:00002eec       $pdata$abort               000000018006beec     libucrt:abort.obj
 0003:00002ef8       $pdata$__acrt_call_reportfault 000000018006bef8     libucrt:invalid_parameter.obj
 0003:00002f04       $pdata$_invalid_parameter  000000018006bf04     libucrt:invalid_parameter.obj
 0003:00002f10       $pdata$_invalid_parameter_noinfo 000000018006bf10     libucrt:invalid_parameter.obj
 0003:00002f1c       $pdata$_invoke_watson      000000018006bf1c     libucrt:invalid_parameter.obj
 0003:00002f28       $pdata$?internal_isupper_l@@YA_NHQEAU__crt_locale_pointers@@@Z 000000018006bf28     libucrt:tolower_toupper.obj
 0003:00002f34       $pdata$_tolower_l          000000018006bf34     libucrt:tolower_toupper.obj
 0003:00002f40       $pdata$tolower             000000018006bf40     libucrt:tolower_toupper.obj
 0003:00002f4c       $pdata$_free_base          000000018006bf4c     libucrt:free_base.obj
 0003:00002f58       $pdata$_malloc_base        000000018006bf58     libucrt:malloc_base.obj
 0003:00002f64       $pdata$strtol              000000018006bf64     libucrt:strtox.obj
 0003:00002f70       $pdata$strtoull            000000018006bf70     libucrt:strtox.obj
 0003:00002f7c       $pdata$wcstol              000000018006bf7c     libucrt:strtox.obj
 0003:00002f88       $pdata$_mbtowc_l           000000018006bf88     libucrt:mbtowc.obj
 0003:00002f94       $pdata$_wctomb_s_l         000000018006bf94     libucrt:wctomb.obj
 0003:00002fa0       $pdata$wctomb_s            000000018006bfa0     libucrt:wctomb.obj
 0003:00002fac       $pdata$??$?RV<lambda_0ae27a3a962d80f24befdcbee591983d>@@AEAV<lambda_8d0ee55de4b1038c4002e0adecdf1839>@@V<lambda_dc504788e8f1664fe9b84e20bfb512f2>@@@?$__crt_seh_guarded_call@X@@QEAAX$$QEAV<lambda_0ae27a3a962d80f24befdcbee591983d>@@AEAV<lambda_8d0ee55de4b1038c4002e0adecdf1839>@@$$QEAV<lambda_dc504788e8f1664fe9b84e20bfb512f2>@@@Z 000000018006bfac     libucrt:per_thread_data.obj
 0003:00002fb8       $pdata$??$?RV<lambda_2d41944a1d46af3157314b8a01080d33>@@AEAV<lambda_8f455de75cd7d7f24b4096f044d8b9e6>@@V<lambda_aa500f224e6afead328df44964fe2772>@@@?$__crt_seh_guarded_call@X@@QEAAX$$QEAV<lambda_2d41944a1d46af3157314b8a01080d33>@@AEAV<lambda_8f455de75cd7d7f24b4096f044d8b9e6>@@$$QEAV<lambda_aa500f224e6afead328df44964fe2772>@@@Z 000000018006bfb8     libucrt:per_thread_data.obj
 0003:00002fc4       $pdata$??$?RV<lambda_aa87e3671a710a21b5dc78c0bdf72e11>@@AEAV<lambda_92619d2358a28f41a33ba319515a20b9>@@V<lambda_6992ecaafeb10aed2b74cb1fae11a551>@@@?$__crt_seh_guarded_call@X@@QEAAX$$QEAV<lambda_aa87e3671a710a21b5dc78c0bdf72e11>@@AEAV<lambda_92619d2358a28f41a33ba319515a20b9>@@$$QEAV<lambda_6992ecaafeb10aed2b74cb1fae11a551>@@@Z 000000018006bfc4     libucrt:per_thread_data.obj
 0003:00002fd0       $pdata$??$?RV<lambda_f2e299630e499de9f9a165e60fcd3db5>@@AEAV<lambda_2ae9d31cdba2644fcbeaf08da7c24588>@@V<lambda_40d01ff24d0e7b3814fdbdcee8eab3c7>@@@?$__crt_seh_guarded_call@X@@QEAAX$$QEAV<lambda_f2e299630e499de9f9a165e60fcd3db5>@@AEAV<lambda_2ae9d31cdba2644fcbeaf08da7c24588>@@$$QEAV<lambda_40d01ff24d0e7b3814fdbdcee8eab3c7>@@@Z 000000018006bfd0     libucrt:per_thread_data.obj
 0003:00002fdc       $pdata$?construct_ptd_array@@YAXQEAU__acrt_ptd@@@Z 000000018006bfdc     libucrt:per_thread_data.obj
 0003:00002fe8       $pdata$?destroy_fls@@YAXPEAX@Z 000000018006bfe8     libucrt:per_thread_data.obj
 0003:00002ff4       $pdata$?destroy_ptd_array@@YAXQEAU__acrt_ptd@@@Z 000000018006bff4     libucrt:per_thread_data.obj
 0003:00003000       $pdata$?replace_current_thread_locale_nolock@@YAXQEAU__acrt_ptd@@QEAU__crt_locale_data@@@Z 000000018006c000     libucrt:per_thread_data.obj
 0003:0000300c       $pdata$__acrt_freeptd      000000018006c00c     libucrt:per_thread_data.obj
 0003:00003018       $pdata$__acrt_getptd       000000018006c018     libucrt:per_thread_data.obj
 0003:00003024       $pdata$__acrt_getptd_head  000000018006c024     libucrt:per_thread_data.obj
 0003:00003030       $pdata$__acrt_getptd_noexit 000000018006c030     libucrt:per_thread_data.obj
 0003:0000303c       $pdata$__acrt_initialize_ptd 000000018006c03c     libucrt:per_thread_data.obj
 0003:00003048       $pdata$__acrt_uninitialize_ptd 000000018006c048     libucrt:per_thread_data.obj
 0003:00003054       $pdata$__acrt_update_locale_info 000000018006c054     libucrt:locale_update.obj
 0003:00003060       $pdata$__acrt_update_multibyte_info 000000018006c060     libucrt:locale_update.obj
 0003:0000306c       $pdata$?fp_format_a@@YAHQEBNPEAD_KQEAD2H_NIQEAU__crt_locale_pointers@@@Z 000000018006c06c     libucrt:cvt.obj
 0003:00003078       $pdata$?fp_format_e@@YAHQEBNQEAD_K12H_NIQEAU__crt_locale_pointers@@@Z 000000018006c078     libucrt:cvt.obj
 0003:00003084       $pdata$?fp_format_e_internal@@YAHQEAD_KH_NIQEAU_strflt@@2QEAU__crt_locale_pointers@@@Z 000000018006c084     libucrt:cvt.obj
 0003:00003090       $pdata$?fp_format_f_internal@@YAHQEAD_KHQEAU_strflt@@_NQEAU__crt_locale_pointers@@@Z 000000018006c090     libucrt:cvt.obj
 0003:0000309c       $pdata$?fp_format_g@@YAHQEBNQEAD_K12H_NIQEAU__crt_locale_pointers@@@Z 000000018006c09c     libucrt:cvt.obj
 0003:000030a8       $pdata$?fp_format_nan_or_infinity@@YAHW4__acrt_fp_class@@_NPEAD_K1@Z 000000018006c0a8     libucrt:cvt.obj
 0003:000030b4       $pdata$__acrt_fp_format    000000018006c0b4     libucrt:cvt.obj
 0003:000030c0       $pdata$_fileno             000000018006c0c0     libucrt:fileno.obj
 0003:000030cc       $pdata$__acrt_stdio_begin_temporary_buffering_nolock 000000018006c0cc     libucrt:_sftbuf.obj
 0003:000030d8       $pdata$__acrt_stdio_end_temporary_buffering_nolock 000000018006c0d8     libucrt:_sftbuf.obj
 0003:000030e4       $pdata$??$?RV<lambda_410d79af7f07d98d83a3f525b3859a53>@@AEAV<lambda_3e16ef9562a7dcce91392c22ab16ea36>@@V<lambda_38119f0e861e05405d8a144b9b982f0a>@@@?$__crt_seh_guarded_call@X@@QEAAX$$QEAV<lambda_410d79af7f07d98d83a3f525b3859a53>@@AEAV<lambda_3e16ef9562a7dcce91392c22ab16ea36>@@$$QEAV<lambda_38119f0e861e05405d8a144b9b982f0a>@@@Z 000000018006c0e4     libucrt:wsetlocale.obj
 0003:000030f0       $pdata$__acrt_uninitialize_locale 000000018006c0f0     libucrt:wsetlocale.obj
 0003:000030fc       $pdata$?initialize_inherited_file_handles_nolock@@YAXXZ 000000018006c0fc     libucrt:ioinit.obj
 0003:00003108       $pdata$?initialize_stdio_handles_nolock@@YAXXZ 000000018006c108     libucrt:ioinit.obj
 0003:00003114       $pdata$__acrt_initialize_lowio 000000018006c114     libucrt:ioinit.obj
 0003:00003120       $pdata$__acrt_uninitialize_lowio 000000018006c120     libucrt:ioinit.obj
 0003:0000312c       $pdata$wcscpy_s            000000018006c12c     libucrt:wcscpy_s.obj
 0003:00003138       $pdata$?__acrt_stdio_allocate_stream@@YA?AV__crt_stdio_stream@@XZ 000000018006c138     libucrt:stream.obj
 0003:00003144       $pdata$?find_or_allocate_unused_stream_nolock@@YA?AV__crt_stdio_stream@@XZ 000000018006c144     libucrt:stream.obj
 0003:00003150       $pdata$??$__acrt_stdio_parse_mode@_W@@YA?AU__acrt_stdio_stream_mode@@QEB_W@Z 000000018006c150     libucrt:openfile.obj
 0003:0000315c       $pdata$_wopenfile          000000018006c15c     libucrt:openfile.obj
 0003:00003168       $pdata$??$?RV<lambda_751a882b2c74d4b022dec766aa51a29a>@@AEAV<lambda_628dfdc04ba53c8bfc02c9951375f3f5>@@V<lambda_f6c7be5f7998530c34de24c7437d6b54>@@@?$__crt_seh_guarded_call@H@@QEAAH$$QEAV<lambda_751a882b2c74d4b022dec766aa51a29a>@@AEAV<lambda_628dfdc04ba53c8bfc02c9951375f3f5>@@$$QEAV<lambda_f6c7be5f7998530c34de24c7437d6b54>@@@Z 000000018006c168     libucrt:close.obj
 0003:00003174       $pdata$_close              000000018006c174     libucrt:close.obj
 0003:00003180       $pdata$_close_nolock       000000018006c180     libucrt:close.obj
 0003:0000318c       $pdata$__acrt_stdio_free_buffer_nolock 000000018006c18c     libucrt:_freebuf.obj
 0003:000031a4       $pdata$_calloc_base        000000018006c1a4     libucrt:calloc_base.obj
 0003:000031b0       $pdata$strncpy_s           000000018006c1b0     libucrt:strncpy_s.obj
 0003:000031bc       $pdata$?try_get_function@@YAPEAXW4function_id@?A0x391cf84c@@QEBDQEBW4module_id@2@2@Z 000000018006c1bc     libucrt:winapi_thunks.obj
 0003:000031c8       $pdata$__acrt_AppPolicyGetProcessTerminationMethodInternal 000000018006c1c8     libucrt:winapi_thunks.obj
 0003:000031d4       $pdata$__acrt_AreFileApisANSI 000000018006c1d4     libucrt:winapi_thunks.obj
 0003:000031e0       $pdata$__acrt_CompareStringEx 000000018006c1e0     libucrt:winapi_thunks.obj
 0003:000031ec       $pdata$__acrt_FlsAlloc     000000018006c1ec     libucrt:winapi_thunks.obj
 0003:000031f8       $pdata$__acrt_FlsFree      000000018006c1f8     libucrt:winapi_thunks.obj
 0003:00003204       $pdata$__acrt_FlsGetValue  000000018006c204     libucrt:winapi_thunks.obj
 0003:00003210       $pdata$__acrt_FlsSetValue  000000018006c210     libucrt:winapi_thunks.obj
 0003:0000321c       $pdata$__acrt_InitializeCriticalSectionEx 000000018006c21c     libucrt:winapi_thunks.obj
 0003:00003228       $pdata$__acrt_LCMapStringEx 000000018006c228     libucrt:winapi_thunks.obj
 0003:00003234       $pdata$__acrt_LocaleNameToLCID 000000018006c234     libucrt:winapi_thunks.obj
 0003:00003240       $pdata$__acrt_initialize_winapi_thunks 000000018006c240     libucrt:winapi_thunks.obj
 0003:0000324c       $pdata$__acrt_uninitialize_winapi_thunks 000000018006c24c     libucrt:winapi_thunks.obj
 0003:00003258       $pdata$_fcloseall          000000018006c258     libucrt:closeall.obj
 0003:00003264       $pdata$??$translate_text_mode_nolock@D@@YAHHQEAD_K@Z 000000018006c264     libucrt:read.obj
 0003:00003270       $pdata$??$translate_text_mode_nolock@_W@@YAHHQEA_W_K@Z 000000018006c270     libucrt:read.obj
 0003:0000327c       $pdata$?translate_ansi_or_utf8_nolock@@YAHHQEAD_KQEA_W1@Z 000000018006c27c     libucrt:read.obj
 0003:00003288       $pdata$_read               000000018006c288     libucrt:read.obj
 0003:00003294       $pdata$_read_nolock        000000018006c294     libucrt:read.obj
 0003:000032a0       $pdata$__acrt_stdio_refill_and_read_narrow_nolock 000000018006c2a0     libucrt:_filbuf.obj
 0003:000032ac       $pdata$??$common_lseek@J@@YAJHJH@Z 000000018006c2ac     libucrt:lseek.obj
 0003:000032b8       $pdata$??$common_lseek@_J@@YA_JH_JH@Z 000000018006c2b8     libucrt:lseek.obj
 0003:000032c4       $pdata$??$common_lseek_nolock@J@@YAJHJH@Z 000000018006c2c4     libucrt:lseek.obj
 0003:000032d0       $pdata$??$common_lseek_nolock@_J@@YA_JH_JH@Z 000000018006c2d0     libucrt:lseek.obj
 0003:000032dc       $pdata$__acrt_stdio_allocate_buffer_nolock 000000018006c2dc     libucrt:_getbuf.obj
 0003:000032e8       $pdata$__pctype_func       000000018006c2e8     libucrt:ctype.obj
 0003:000032f4       $pdata$_isctype_l          000000018006c2f4     libucrt:isctype.obj
 0003:00003300       $pdata$_towlower_l         000000018006c300     libucrt:towlower.obj
 0003:0000330c       $pdata$_recalloc_base      000000018006c30c     libucrt:recalloc.obj
 0003:00003318       $pdata$wcscat_s            000000018006c318     libucrt:wcscat_s.obj
 0003:00003324       $pdata$_cwait              000000018006c324     libucrt:wait.obj
 0003:00003330       $pdata$__acrt_wgetpath     000000018006c330     libucrt:getpath.obj
 0003:0000333c       $pdata$??$__acrt_mbs_to_wcs_cp@U__crt_win32_buffer_internal_dynamic_resizing@@@@YAHQEBDAEAV?$__crt_win32_buffer@_WU__crt_win32_buffer_internal_dynamic_resizing@@@@I@Z 000000018006c33c     libucrt:createprocessa.obj
 0003:00003348       $pdata$__acrt_initialize_locks 000000018006c348     libucrt:locks.obj
 0003:00003354       $pdata$__acrt_uninitialize_locks 000000018006c354     libucrt:locks.obj
 0003:00003360       $pdata$_waccess_s          000000018006c360     libucrt:waccess.obj
 0003:0000336c       $pdata$_pipe               000000018006c36c     libucrt:pipe.obj
 0003:00003378       $pdata$??$common_fdopen@_W@@YAPEAU_iobuf@@HQEB_W@Z 000000018006c378     libucrt:fdopen.obj
 0003:00003384       $pdata$??$?RV<lambda_a37b2b86f63e897a80ea819b0eb08c01>@@AEAV<lambda_38ce7e780aa69e748d6df282ebc68efe>@@V<lambda_99fb1378e971ab6e7edea83e3a7a83a2>@@@?$__crt_seh_guarded_call@H@@QEAAH$$QEAV<lambda_a37b2b86f63e897a80ea819b0eb08c01>@@AEAV<lambda_38ce7e780aa69e748d6df282ebc68efe>@@$$QEAV<lambda_99fb1378e971ab6e7edea83e3a7a83a2>@@@Z 000000018006c384     libucrt:commit.obj
 0003:00003390       $pdata$_commit             000000018006c390     libucrt:commit.obj
 0003:0000339c       $pdata$?write_double_translated_ansi_nolock@@YA?AUwrite_result@?A0x17268360@@HQEBDI@Z 000000018006c39c     libucrt:write.obj
 0003:000033a8       $pdata$?write_text_ansi_nolock@@YA?AUwrite_result@?A0x17268360@@HQEBDI@Z 000000018006c3a8     libucrt:write.obj
 0003:000033b4       $pdata$?write_text_utf16le_nolock@@YA?AUwrite_result@?A0x17268360@@HQEBDI@Z 000000018006c3b4     libucrt:write.obj
 0003:000033c0       $pdata$?write_text_utf8_nolock@@YA?AUwrite_result@?A0x17268360@@HQEBDI@Z 000000018006c3c0     libucrt:write.obj
 0003:000033cc       $pdata$_write              000000018006c3cc     libucrt:write.obj
 0003:000033d8       $pdata$_write_nolock       000000018006c3d8     libucrt:write.obj
 0003:000033e4       $pdata$??$write_buffer_nolock@D@@YA_NDV__crt_stdio_stream@@@Z 000000018006c3e4     libucrt:_flsbuf.obj
 0003:000033f0       $pdata$?stream_is_at_end_of_file_nolock@@YA_NV__crt_stdio_stream@@@Z 000000018006c3f0     libucrt:_flsbuf.obj
 0003:000033fc       $pdata$__acrt_stdio_flush_and_write_narrow_nolock 000000018006c3fc     libucrt:_flsbuf.obj
 0003:00003408       $pdata$??$common_xtox@_KD@@YAH_KQEAD0I_N@Z 000000018006c408     libucrt:xtoa.obj
 0003:00003414       $pdata$??$common_xtox_s@_KD@@YAH_KQEAD0I_N@Z 000000018006c414     libucrt:xtoa.obj
 0003:00003420       $pdata$_ui64toa_s          000000018006c420     libucrt:xtoa.obj
 0003:0000342c       $pdata$_strdup             000000018006c42c     libucrt:strdup.obj
 0003:00003438       $pdata$__acrt_GetTempPathA 000000018006c438     libucrt:gettemppath.obj
 0003:00003444       $pdata$??$common_sopen_dispatch@D@@YAHQEBDHHHQEAHH@Z 000000018006c444     libucrt:open.obj
 0003:00003450       $pdata$??$common_sopen_dispatch@_W@@YAHQEB_WHHHQEAHH@Z 000000018006c450     libucrt:open.obj
 0003:0000345c       $pdata$?configure_text_mode@@YAHHUfile_options@?A0xa9d50aae@@HAEAW4__crt_lowio_text_mode@@@Z 000000018006c45c     libucrt:open.obj
 0003:00003468       $pdata$?decode_options@@YA?AUfile_options@?A0xa9d50aae@@HHH@Z 000000018006c468     libucrt:open.obj
 0003:00003474       $pdata$?truncate_ctrl_z_if_present@@YAHH@Z 000000018006c474     libucrt:open.obj
 0003:00003480       $pdata$_sopen_nolock       000000018006c480     libucrt:open.obj
 0003:0000348c       $pdata$_sopen_s            000000018006c48c     libucrt:open.obj
 0003:00003498       $pdata$_wsopen_nolock      000000018006c498     libucrt:open.obj
 0003:000034a4       $pdata$_wsopen_s           000000018006c4a4     libucrt:open.obj
 0003:000034b0       $pdata$__acrt_uninitialize_tmpfile 000000018006c4b0     libucrt:rmtmp.obj
 0003:000034bc       $pdata$_rmtmp              000000018006c4bc     libucrt:rmtmp.obj
 0003:000034c8       $pdata$fegetround          000000018006c4c8     libucrt:fegetround.obj
 0003:000034d4       $pdata$_wcsnicoll          000000018006c4d4     libucrt:wcsnicol.obj
 0003:000034e0       $pdata$_wcsnicoll_l        000000018006c4e0     libucrt:wcsnicol.obj
 0003:000034ec       $pdata$??$?RV<lambda_a22f0c497e5168315e06dae667770027>@@AEAV<lambda_a094494068278ba5130ab06e1292f60a>@@V<lambda_24dc10c13f43218c635520766e23e324>@@@?$__crt_seh_guarded_call@_N@@QEAA_N$$QEAV<lambda_a22f0c497e5168315e06dae667770027>@@AEAV<lambda_a094494068278ba5130ab06e1292f60a>@@$$QEAV<lambda_24dc10c13f43218c635520766e23e324>@@@Z 000000018006c4ec     libucrt:spawnv.obj
 0003:000034f8       $pdata$??$common_spawnv@_W@@YA_JHQEB_WQEBQEB_W1@Z 000000018006c4f8     libucrt:spawnv.obj
 0003:00003504       $pdata$??$execute_command@_W@@YA_JHQEB_WQEBQEB_W1@Z 000000018006c504     libucrt:spawnv.obj
 0003:00003510       $pdata$??R<lambda_a094494068278ba5130ab06e1292f60a>@@QEBA_NXZ 000000018006c510     libucrt:spawnv.obj
 0003:0000351c       $pdata$?accumulate_inheritable_handles@@YA_NQEAPEAEQEA_K_N@Z 000000018006c51c     libucrt:spawnv.obj
 0003:00003528       $pdata$??$common_spawnvp@_W@@YA_JHQEB_WQEBQEB_W1@Z 000000018006c528     libucrt:spawnvp.obj
 0003:00003534       $pdata$__acrt_get_process_end_policy 000000018006c534     libucrt:win_policies.obj
 0003:00003540       $pdata$??$__acrt_wcs_to_mbs_cp@U__crt_win32_buffer_internal_dynamic_resizing@@@@YAHQEB_WAEAV?$__crt_win32_buffer@DU__crt_win32_buffer_internal_dynamic_resizing@@@@I@Z 000000018006c540     libucrt:argv_wildcards.obj
 0003:0000354c       $pdata$??$common_expand_argv_wildcards@D@@YAHQEAPEADQEAPEAPEAD@Z 000000018006c54c     libucrt:argv_wildcards.obj
 0003:00003558       $pdata$??$copy_and_add_argument_to_buffer@D@@YAHQEBD0_KAEAV?$argument_list@D@?A0x5f5c8891@@@Z 000000018006c558     libucrt:argv_wildcards.obj
 0003:00003564       $pdata$??$expand_argument_wildcards@D@@YAHQEAD0AEAV?$argument_list@D@?A0x5f5c8891@@@Z 000000018006c564     libucrt:argv_wildcards.obj
 0003:00003570       $pdata$??$__acrt_wcs_to_mbs_cp@U__crt_win32_buffer_no_resizing@@@@YAHQEB_WAEAV?$__crt_win32_buffer@DU__crt_win32_buffer_no_resizing@@@@I@Z 000000018006c570     libucrt:getmodulefilenamea.obj
 0003:0000357c       $pdata$__acrt_GetModuleFileNameA 000000018006c57c     libucrt:getmodulefilenamea.obj
 0003:00003588       $pdata$??$?RV<lambda_efdfa57d1f175319df784efa44bb7b81>@@AEAV<lambda_5f0a4c1567f8adc6734073e5d1e1b35c>@@V<lambda_2e8a7d3640ea6ccb4c2413664c2db6fd>@@@?$__crt_seh_guarded_call@X@@QEAAX$$QEAV<lambda_efdfa57d1f175319df784efa44bb7b81>@@AEAV<lambda_5f0a4c1567f8adc6734073e5d1e1b35c>@@$$QEAV<lambda_2e8a7d3640ea6ccb4c2413664c2db6fd>@@@Z 000000018006c588     libucrt:mbctype.obj
 0003:00003594       $pdata$?getSystemCP@@YAHH@Z 000000018006c594     libucrt:mbctype.obj
 0003:000035a0       $pdata$?setSBCS@@YAXPEAU__crt_multibyte_data@@@Z 000000018006c5a0     libucrt:mbctype.obj
 0003:000035ac       $pdata$?setSBUpLow@@YAXPEAU__crt_multibyte_data@@@Z 000000018006c5ac     libucrt:mbctype.obj
 0003:000035b8       $pdata$?setmbcp_internal@@YAHH_NQEAU__acrt_ptd@@QEAPEAU__crt_multibyte_data@@@Z 000000018006c5b8     libucrt:mbctype.obj
 0003:000035c4       $pdata$?update_thread_multibyte_data_internal@@YAPEAU__crt_multibyte_data@@QEAU__acrt_ptd@@QEAPEAU1@@Z 000000018006c5c4     libucrt:mbctype.obj
 0003:000035d0       $pdata$__acrt_initialize_multibyte 000000018006c5d0     libucrt:mbctype.obj
 0003:000035dc       $pdata$__acrt_update_thread_multibyte_data 000000018006c5dc     libucrt:mbctype.obj
 0003:000035e8       $pdata$_setmbcp_nolock     000000018006c5e8     libucrt:mbctype.obj
 0003:000035f4       $pdata$?x_ismbbtype_l@@YAHPEAU__crt_locale_pointers@@IHH@Z 000000018006c5f4     libucrt:ismbbyte.obj
 0003:00003600       $pdata$__acrt_initialize_command_line 000000018006c600     libucrt:argv_data.obj
 0003:0000360c       $pdata$__acrt_WideCharToMultiByte 000000018006c60c     libucrt:widechartomultibyte.obj
 0003:00003618       $pdata$__dcrt_get_narrow_environment_from_os 000000018006c618     libucrt:get_environment_from_os.obj
 0003:00003624       $pdata$__dcrt_get_wide_environment_from_os 000000018006c624     libucrt:get_environment_from_os.obj
 0003:00003630       $pdata$??$common_set_variable_in_environment_nolock@_W@@YAHQEA_WH@Z 000000018006c630     libucrt:setenv.obj
 0003:0000363c       $pdata$??$copy_environment@_W@@YAPEAPEA_WQEAPEA_W@Z 000000018006c63c     libucrt:setenv.obj
 0003:00003648       $pdata$__acrt_initialize_heap 000000018006c648     libucrt:heap_handle.obj
 0003:00003654       $pdata$__acrt_execute_initializers 000000018006c654     libucrt:shared_initialization.obj
 0003:00003660       $pdata$__acrt_execute_uninitializers 000000018006c660     libucrt:shared_initialization.obj
 0003:0000366c       $pdata$_callnewh           000000018006c66c     libucrt:new_handler.obj
 0003:00003678       $pdata$_query_new_handler  000000018006c678     libucrt:new_handler.obj
 0003:00003684       $pdata$??$?RV<lambda_450d765d439847d4c735a33c368b5fc0>@@AEAV<lambda_44731a7d0e6d81c3e6aa82d741081786>@@V<lambda_601a2a7da3b7a96e9554ac7215c4b07c>@@@?$__crt_seh_guarded_call@P6AXH@Z@@QEAAP6AXH@Z$$QEAV<lambda_450d765d439847d4c735a33c368b5fc0>@@AEAV<lambda_44731a7d0e6d81c3e6aa82d741081786>@@$$QEAV<lambda_601a2a7da3b7a96e9554ac7215c4b07c>@@@Z 000000018006c684     libucrt:signal.obj
 0003:00003690       $pdata$__acrt_get_sigabrt_handler 000000018006c690     libucrt:signal.obj
 0003:0000369c       $pdata$raise               000000018006c69c     libucrt:signal.obj
 0003:000036a8       $pdata$?__acrt_LCMapStringA_stat@@YAHPEAU__crt_locale_pointers@@PEB_WKPEBDHPEADHHH@Z 000000018006c6a8     libucrt:lcmapstringa.obj
 0003:000036b4       $pdata$__acrt_LCMapStringA 000000018006c6b4     libucrt:lcmapstringa.obj
 0003:000036c0       $pdata$_isleadbyte_l       000000018006c6c0     libucrt:_wctype.obj
 0003:000036cc       $pdata$?__mbrtowc_utf8@__crt_mbstring@@YA_KPEA_WPEBD_KPEAU_Mbstatet@@@Z 000000018006c6cc     libucrt:mbrtowc.obj
 0003:000036d8       $pdata$?__mbsrtowcs_utf8@__crt_mbstring@@YA_KPEA_WPEAPEBD_KPEAU_Mbstatet@@@Z 000000018006c6d8     libucrt:mbrtowc.obj
 0003:000036e4       $pdata$?__c32rtomb_utf8@__crt_mbstring@@YA_KPEAD_UPEAU_Mbstatet@@@Z 000000018006c6e4     libucrt:c32rtomb.obj
 0003:000036f0       $pdata$__acrt_free_locale  000000018006c6f0     libucrt:locale_refcounting.obj
 0003:000036fc       $pdata$__acrt_locale_free_lc_time_if_unreferenced 000000018006c6fc     libucrt:locale_refcounting.obj
 0003:00003708       $pdata$__acrt_release_locale_ref 000000018006c708     libucrt:locale_refcounting.obj
 0003:00003714       $pdata$__acrt_update_thread_locale_data 000000018006c714     libucrt:locale_refcounting.obj
 0003:00003720       $pdata$_updatetlocinfoEx_nolock 000000018006c720     libucrt:locale_refcounting.obj
 0003:0000372c       $pdata$__acrt_fp_strflt_to_string 000000018006c72c     libucrt:_fptostr.obj
 0003:00003738       $pdata$__acrt_fltout       000000018006c738     libucrt:cfout.obj
 0003:00003744       $pdata$_isatty             000000018006c744     libucrt:isatty.obj
 0003:00003750       $pdata$__acrt_locale_free_monetary 000000018006c750     libucrt:initmon.obj
 0003:0000375c       $pdata$__acrt_locale_free_numeric 000000018006c75c     libucrt:initnum.obj
 0003:00003768       $pdata$?free_crt_array_internal@@YAXQEAPEBX_K@Z 000000018006c768     libucrt:inittime.obj
 0003:00003774       $pdata$__acrt_locale_free_time 000000018006c774     libucrt:inittime.obj
 0003:00003780       $pdata$__acrt_GetStringTypeA 000000018006c780     libucrt:getstringtypea.obj
 0003:0000378c       $pdata$__acrt_lowio_create_handle_array 000000018006c78c     libucrt:osfinfo.obj
 0003:00003798       $pdata$__acrt_lowio_destroy_handle_array 000000018006c798     libucrt:osfinfo.obj
 0003:000037a4       $pdata$__acrt_lowio_ensure_fh_exists 000000018006c7a4     libucrt:osfinfo.obj
 0003:000037b0       $pdata$__acrt_lowio_set_os_handle 000000018006c7b0     libucrt:osfinfo.obj
 0003:000037bc       $pdata$_alloc_osfhnd       000000018006c7bc     libucrt:osfinfo.obj
 0003:000037c8       $pdata$_free_osfhnd        000000018006c7c8     libucrt:osfinfo.obj
 0003:000037d4       $pdata$_get_osfhandle      000000018006c7d4     libucrt:osfinfo.obj
 0003:000037e0       $pdata$_wcsnicmp           000000018006c7e0     libucrt:wcsnicmp.obj
 0003:000037ec       $pdata$_wcsnicmp_l         000000018006c7ec     libucrt:wcsnicmp.obj
 0003:000037f8       $pdata$?GetTableIndexFromLocaleName@@YAHPEB_W@Z 000000018006c7f8     libucrt:lcidtoname_downlevel.obj
 0003:00003804       $pdata$__acrt_DownlevelLocaleNameToLCID 000000018006c804     libucrt:lcidtoname_downlevel.obj
 0003:00003810       $pdata$__acrt_LCMapStringW 000000018006c810     libucrt:lcmapstringw.obj
 0003:0000381c       $pdata$_msize_base         000000018006c81c     libucrt:msize.obj
 0003:00003828       $pdata$_realloc_base       000000018006c828     libucrt:realloc_base.obj
 0003:00003834       $pdata$_get_fmode          000000018006c834     libucrt:setmode.obj
 0003:00003840       $pdata$_setmode_nolock     000000018006c840     libucrt:setmode.obj
 0003:0000384c       $pdata$_putwch_nolock      000000018006c84c     libucrt:putwch.obj
 0003:00003858       $pdata$_chsize_nolock      000000018006c858     libucrt:chsize.obj
 0003:00003864       $pdata$__acrt_fenv_set_control 000000018006c864     libucrt:_fenvutils.obj
 0003:00003870       $pdata$__acrt_CompareStringW 000000018006c870     libucrt:comparestringw.obj
 0003:0000387c       $pdata$??$construct_environment_block@_W@@YAHQEBQEB_WQEAPEA_W@Z 000000018006c87c     libucrt:cenvarg.obj
 0003:00003888       $pdata$__acrt_pack_wide_command_line_and_environment 000000018006c888     libucrt:cenvarg.obj
 0003:00003894       $pdata$qsort               000000018006c894     libucrt:qsort.obj
 0003:000038a0       $pdata$4$qsort             000000018006c8a0     libucrt:qsort.obj
 0003:000038ac       $pdata$5$qsort             000000018006c8ac     libucrt:qsort.obj
 0003:000038b8       $pdata$_mbsdec_l           000000018006c8b8     libucrt:mbsdec.obj
 0003:000038c4       $pdata$?initialize_multibyte@@YAHXZ 000000018006c8c4     libucrt:multibyte_initializer.obj
 0003:000038d0       $pdata$?__mbrtoc32_utf8@__crt_mbstring@@YA_KPEA_UPEBD_KPEAU_Mbstatet@@@Z 000000018006c8d0     libucrt:mbrtoc32.obj
 0003:000038dc       $pdata$fegetenv            000000018006c8dc     libucrt:fegetenv.obj
 0003:000038e8       $pdata$fesetenv            000000018006c8e8     libucrt:fesetenv.obj
 0003:000038f4       $pdata$feholdexcept        000000018006c8f4     libucrt:feholdexcept.obj
 0003:0000390c       $pdata$__dcrt_lowio_ensure_console_output_initialized 000000018006c90c     libucrt:initcon.obj
 0003:00003918       $pdata$__dcrt_terminate_console_output 000000018006c918     libucrt:initcon.obj
 0003:00003924       $pdata$__dcrt_write_console 000000018006c924     libucrt:initcon.obj
 0003:00003930       $pdata$_call_matherr       000000018006c930     libucrt:libm_error.obj
 0003:0000393c       $pdata$_exception_enabled  000000018006c93c     libucrt:libm_error.obj
 0003:00003948       $pdata$_handle_error       000000018006c948     libucrt:libm_error.obj
 0003:00003954       $pdata$__acrt_initialize_fma3 000000018006c954     libucrt:fma3_available.obj
 0003:00003960       $pdata$_log10_special      000000018006c960     libucrt:log_special.obj
 0003:0000396c       $pdata$_log_special_common 000000018006c96c     libucrt:log_special.obj
 0003:00003978       $pdata$_raise_exc          000000018006c978     libucrt:fpexcept.obj
 0003:00003984       $pdata$_raise_exc_ex       000000018006c984     libucrt:fpexcept.obj
 0003:00003990       $pdata$_set_errno_from_matherr 000000018006c990     libucrt:fpexcept.obj
 0003:0000399c       $pdata$_clrfp              000000018006c99c     libucrt:fpctrl.obj
 0003:000039a8       $pdata$_ctrlfp             000000018006c9a8     libucrt:fpctrl.obj
 0003:000039b4       $pdata$_set_statfp         000000018006c9b4     libucrt:fpctrl.obj
 0003:000039c0       $pdata$_statfp             000000018006c9c0     libucrt:fpctrl.obj
 0003:000039cc       $pdata$_IsNonwritableInCurrentImage 000000018006c9cc     LIBCMT:pesect.obj
 0003:000039d8       $pdata$__GSHandlerCheck    000000018006c9d8     LIBCMT:gshandler.obj
 0003:000039e4       $pdata$__GSHandlerCheckCommon 000000018006c9e4     LIBCMT:gshandler.obj
 0003:000039fc       $pdata$__GSHandlerCheck_SEH 000000018006c9fc     LIBCMT:gshandlerseh.obj
 0003:00003a08       $pdata$__raise_securityfailure 000000018006ca08     LIBCMT:gs_report.obj
 0003:00003a14       $pdata$__report_gsfailure  000000018006ca14     LIBCMT:gs_report.obj
 0003:00003a20       $pdata$__report_rangecheckfailure 000000018006ca20     LIBCMT:gs_report.obj
 0003:00003a2c       $pdata$__report_securityfailure 000000018006ca2c     LIBCMT:gs_report.obj
 0003:00003a38       $pdata$capture_current_context 000000018006ca38     LIBCMT:gs_report.obj
 0003:00003a44       $pdata$capture_previous_context 000000018006ca44     LIBCMT:gs_report.obj
 0003:00003a50       $pdata$_local_unwind       000000018006ca50     libvcruntime:jmpuwind.obj
 0003:00003a68       $pdata$?fin$0@?0??dllmain_crt_process_attach@@YAHQEAUHINSTANCE__@@QEAX@Z@4HA 000000018006ca68     LIBCMT:dll_dllmain.obj
 0003:00003a74       $pdata$?fin$0@?0??dllmain_crt_process_detach@@YAH_N@Z@4HA 000000018006ca74     LIBCMT:dll_dllmain.obj
 0003:00003a80       $pdata$?filt$0@?0??dllmain_dispatch@@YAHQEAUHINSTANCE__@@KQEAX@Z@4HA 000000018006ca80     LIBCMT:dll_dllmain.obj
 0003:00003a8c       $pdata$__scrt_is_nonwritable_in_current_image$filt$0 000000018006ca8c     LIBCMT:utility.obj
 0003:00003a98       $pdata$__DestructExceptionObject$filt$0 000000018006ca98     libvcruntime:ehhelpers.obj
 0003:00003aa4       $pdata$?fin$0@?0???$?RV<lambda_842d9ff0dc9ef11c61343bbaebe7f885>@@AEAV<lambda_c5860995281e5c4ce005b3de8f5874ee>@@V<lambda_d90129c13df834fdcbf8d2b88dafcf2d>@@@?$__crt_seh_guarded_call@X@@QEAAX$$QEAV<lambda_842d9ff0dc9ef11c61343bbaebe7f885>@@AEAV<lambda_c5860995281e5c4ce005b3de8f5874ee>@@$$QEAV<lambda_d90129c13df834fdcbf8d2b88dafcf2d>@@@Z@4HA 000000018006caa4     libucrt:fflush.obj
 0003:00003aa4       $pdata$?fin$0@?0???$?RV<lambda_bdbcead8b570fa3d5ec6d9679862a6e5>@@AEAV<lambda_96f4279ff90247a4c5c5d9824f56f8c1>@@V<lambda_4606be27f17b5e5579e09050fab91818>@@@?$__crt_seh_guarded_call@_K@@QEAA_K$$QEAV<lambda_bdbcead8b570fa3d5ec6d9679862a6e5>@@AEAV<lambda_96f4279ff90247a4c5c5d9824f56f8c1>@@$$QEAV<lambda_4606be27f17b5e5579e09050fab91818>@@@Z@4HA 000000018006caa4     libucrt:fwrite.obj
 0003:00003aa4       $pdata$?fin$0@?0???$?RV<lambda_84ec643ea9557e2f7dc01bb0e9624395>@@AEAV<lambda_ca71763b3c0644891230e4f79ea54fa6>@@V<lambda_439a761618c59b0600e24586724d733b>@@@?$__crt_seh_guarded_call@H@@QEAAH$$QEAV<lambda_84ec643ea9557e2f7dc01bb0e9624395>@@AEAV<lambda_ca71763b3c0644891230e4f79ea54fa6>@@$$QEAV<lambda_439a761618c59b0600e24586724d733b>@@@Z@4HA 000000018006caa4     libucrt:setvbuf.obj
 0003:00003aa4       $pdata$?fin$0@?0???$?RV<lambda_c376a267cfb53b6959b3b692ec76b120>@@AEAV<lambda_9a32fed5bf61b6b509b2d3f6003082a1>@@V<lambda_572fbb9fa0ab338edf41edfd4b5fcc8d>@@@?$__crt_seh_guarded_call@H@@QEAAH$$QEAV<lambda_c376a267cfb53b6959b3b692ec76b120>@@AEAV<lambda_9a32fed5bf61b6b509b2d3f6003082a1>@@$$QEAV<lambda_572fbb9fa0ab338edf41edfd4b5fcc8d>@@@Z@4HA 000000018006caa4     libucrt:fflush.obj
 0003:00003aa4       $pdata$?fin$0@?0???$?RV<lambda_a62c933ada0517137acf5807a1eeac1f>@@AEAV<lambda_a31071773b9a94e445cbd5d04ef99106>@@V<lambda_56065050dbf3ada7e59a83db45153de3>@@@?$__crt_seh_guarded_call@H@@QEAAH$$QEAV<lambda_a62c933ada0517137acf5807a1eeac1f>@@AEAV<lambda_a31071773b9a94e445cbd5d04ef99106>@@$$QEAV<lambda_56065050dbf3ada7e59a83db45153de3>@@@Z@4HA 000000018006caa4     libucrt:output.obj
 0003:00003aa4       $pdata$?fin$0@?0???$?RV<lambda_082dd7c0feb7dbdaf245f261e54a6583>@@AEAV<lambda_f3caf1ecae5fe01a9a1a6239afa44510>@@V<lambda_c640b76c0755ae85b317b35c67c61e6b>@@@?$__crt_seh_guarded_call@H@@QEAAH$$QEAV<lambda_082dd7c0feb7dbdaf245f261e54a6583>@@AEAV<lambda_f3caf1ecae5fe01a9a1a6239afa44510>@@$$QEAV<lambda_c640b76c0755ae85b317b35c67c61e6b>@@@Z@4HA 000000018006caa4     libucrt:input.obj
 0003:00003ab0       $pdata$?fin$0@?0???$common_fsopen@_W@@YAPEAU_iobuf@@QEB_W0H@Z@4HA 000000018006cab0     libucrt:fopen.obj
 0003:00003abc       $pdata$rewind$fin$0        000000018006cabc     libucrt:rewind.obj
 0003:00003abc       $pdata$fclose$fin$0        000000018006cabc     libucrt:fclose.obj
 0003:00003abc       $pdata$clearerr_s$fin$0    000000018006cabc     libucrt:clearerr.obj
 0003:00003abc       $pdata$?fin$0@?0???$common_ftell@J@@YAJV__crt_stdio_stream@@@Z@4HA 000000018006cabc     libucrt:ftell.obj
 0003:00003abc       $pdata$?fin$0@?0??common_fseek@@YAHV__crt_stdio_stream@@_JH@Z@4HA 000000018006cabc     libucrt:fseek.obj
 0003:00003ac8       $pdata$_ctrlfp$filt$0      000000018006cac8     libucrt:fpctrl.obj
 0003:00003ac8       $pdata$common_control87$filt$0 000000018006cac8     libucrt:ieee.obj
 0003:00003ad4       $pdata$?fin$0@?0???$common_freopen@_W@@YAHQEAPEAU_iobuf@@QEB_W1V__crt_stdio_stream@@H@Z@4HA 000000018006cad4     libucrt:freopen.obj
 0003:00003ae0       $pdata$fread_s$fin$0       000000018006cae0     libucrt:fread.obj
 0003:00003aec       $pdata$fgetc$fin$0         000000018006caec     libucrt:fgetc.obj
 0003:00003af8       $pdata$ungetc$fin$0        000000018006caf8     libucrt:ungetc.obj
 0003:00003b04       $pdata$?fin$0@?0???$common_popen@_W@@YAPEAU_iobuf@@QEB_W0@Z@4HA 000000018006cb04     libucrt:popen.obj
 0003:00003b10       $pdata$_pclose$fin$0       000000018006cb10     libucrt:popen.obj
 0003:00003b1c       $pdata$?fin$0@?0???$?RV<lambda_886d6c58226a84441f68b9f2b8217b83>@@AEAV<lambda_ab61a845afdef5b7c387490eaf3616ee>@@V<lambda_f7f22ab5edc0698d5f6905b0d3f44752>@@@?$__crt_seh_guarded_call@X@@QEAAX$$QEAV<lambda_886d6c58226a84441f68b9f2b8217b83>@@AEAV<lambda_ab61a845afdef5b7c387490eaf3616ee>@@$$QEAV<lambda_f7f22ab5edc0698d5f6905b0d3f44752>@@@Z@4HA 000000018006cb1c     libucrt:fflush.obj
 0003:00003b28       $pdata$?fin$0@?0???$common_fgets@D@@YAPEADQEADHV__crt_stdio_stream@@@Z@4HA 000000018006cb28     libucrt:fgets.obj
 0003:00003b34       $pdata$?fin$0@?0??common_tmpfile@@YAHQEAPEAU_iobuf@@H@Z@4HA 000000018006cb34     libucrt:tmpfile.obj
 0003:00003b40       $pdata$?fin$0@?0??common_tmpfile_nolock@@YAHQEAPEAU_iobuf@@H@Z@4HA 000000018006cb40     libucrt:tmpfile.obj
 0003:00003b4c       $pdata$?fin$0@?0???$common_dupenv_s@_W@@YAHQEAPEA_WQEA_KQEB_WHQEBDH@Z@4HA 000000018006cb4c     libucrt:getenv.obj
 0003:00003b58       $pdata$?fin$0@?0???$common_getenv@_W@@YAPEA_WQEB_W@Z@4HA 000000018006cb58     libucrt:getenv.obj
 0003:00003b64       $pdata$?fin$0@?0???$?RV<lambda_d80eeec6fff315bfe5c115232f3240e3>@@AEAV<lambda_6e4b09c48022b2350581041d5f6b0c4c>@@V<lambda_2358e3775559c9db80273638284d5e45>@@@?$__crt_seh_guarded_call@X@@QEAAX$$QEAV<lambda_d80eeec6fff315bfe5c115232f3240e3>@@AEAV<lambda_6e4b09c48022b2350581041d5f6b0c4c>@@$$QEAV<lambda_2358e3775559c9db80273638284d5e45>@@@Z@4HA 000000018006cb64     libucrt:exit.obj
 0003:00003b64       $pdata$?fin$0@?0???$?RV<lambda_efdfa57d1f175319df784efa44bb7b81>@@AEAV<lambda_5f0a4c1567f8adc6734073e5d1e1b35c>@@V<lambda_2e8a7d3640ea6ccb4c2413664c2db6fd>@@@?$__crt_seh_guarded_call@X@@QEAAX$$QEAV<lambda_efdfa57d1f175319df784efa44bb7b81>@@AEAV<lambda_5f0a4c1567f8adc6734073e5d1e1b35c>@@$$QEAV<lambda_2e8a7d3640ea6ccb4c2413664c2db6fd>@@@Z@4HA 000000018006cb64     libucrt:mbctype.obj
 0003:00003b64       $pdata$?fin$0@?0???$?RV<lambda_450d765d439847d4c735a33c368b5fc0>@@AEAV<lambda_44731a7d0e6d81c3e6aa82d741081786>@@V<lambda_601a2a7da3b7a96e9554ac7215c4b07c>@@@?$__crt_seh_guarded_call@P6AXH@Z@@QEAAP6AXH@Z$$QEAV<lambda_450d765d439847d4c735a33c368b5fc0>@@AEAV<lambda_44731a7d0e6d81c3e6aa82d741081786>@@$$QEAV<lambda_601a2a7da3b7a96e9554ac7215c4b07c>@@@Z@4HA 000000018006cb64     libucrt:signal.obj
 0003:00003b64       $pdata$?fin$0@?0???$?RV<lambda_7777bce6b2f8c936911f934f8298dc43>@@AEAV<lambda_f03950bc5685219e0bcd2087efbe011e>@@V<lambda_3883c3dff614d5e0c5f61bb1ac94921c>@@@?$__crt_seh_guarded_call@H@@QEAAH$$QEAV<lambda_7777bce6b2f8c936911f934f8298dc43>@@AEAV<lambda_f03950bc5685219e0bcd2087efbe011e>@@$$QEAV<lambda_3883c3dff614d5e0c5f61bb1ac94921c>@@@Z@4HA 000000018006cb64     libucrt:onexit.obj
 0003:00003b64       $pdata$?fin$0@?0???$?RV<lambda_0ae27a3a962d80f24befdcbee591983d>@@AEAV<lambda_8d0ee55de4b1038c4002e0adecdf1839>@@V<lambda_dc504788e8f1664fe9b84e20bfb512f2>@@@?$__crt_seh_guarded_call@X@@QEAAX$$QEAV<lambda_0ae27a3a962d80f24befdcbee591983d>@@AEAV<lambda_8d0ee55de4b1038c4002e0adecdf1839>@@$$QEAV<lambda_dc504788e8f1664fe9b84e20bfb512f2>@@@Z@4HA 000000018006cb64     libucrt:per_thread_data.obj
 0003:00003b64       $pdata$?fin$0@?0???$?RV<lambda_2d41944a1d46af3157314b8a01080d33>@@AEAV<lambda_8f455de75cd7d7f24b4096f044d8b9e6>@@V<lambda_aa500f224e6afead328df44964fe2772>@@@?$__crt_seh_guarded_call@X@@QEAAX$$QEAV<lambda_2d41944a1d46af3157314b8a01080d33>@@AEAV<lambda_8f455de75cd7d7f24b4096f044d8b9e6>@@$$QEAV<lambda_aa500f224e6afead328df44964fe2772>@@@Z@4HA 000000018006cb64     libucrt:per_thread_data.obj
 0003:00003b64       $pdata$?fin$0@?0???$?RV<lambda_aa87e3671a710a21b5dc78c0bdf72e11>@@AEAV<lambda_92619d2358a28f41a33ba319515a20b9>@@V<lambda_6992ecaafeb10aed2b74cb1fae11a551>@@@?$__crt_seh_guarded_call@X@@QEAAX$$QEAV<lambda_aa87e3671a710a21b5dc78c0bdf72e11>@@AEAV<lambda_92619d2358a28f41a33ba319515a20b9>@@$$QEAV<lambda_6992ecaafeb10aed2b74cb1fae11a551>@@@Z@4HA 000000018006cb64     libucrt:per_thread_data.obj
 0003:00003b64       $pdata$?fin$0@?0???$?RV<lambda_f2e299630e499de9f9a165e60fcd3db5>@@AEAV<lambda_2ae9d31cdba2644fcbeaf08da7c24588>@@V<lambda_40d01ff24d0e7b3814fdbdcee8eab3c7>@@@?$__crt_seh_guarded_call@X@@QEAAX$$QEAV<lambda_f2e299630e499de9f9a165e60fcd3db5>@@AEAV<lambda_2ae9d31cdba2644fcbeaf08da7c24588>@@$$QEAV<lambda_40d01ff24d0e7b3814fdbdcee8eab3c7>@@@Z@4HA 000000018006cb64     libucrt:per_thread_data.obj
 0003:00003b64       $pdata$?fin$0@?0???$?RV<lambda_a22f0c497e5168315e06dae667770027>@@AEAV<lambda_a094494068278ba5130ab06e1292f60a>@@V<lambda_24dc10c13f43218c635520766e23e324>@@@?$__crt_seh_guarded_call@_N@@QEAA_N$$QEAV<lambda_a22f0c497e5168315e06dae667770027>@@AEAV<lambda_a094494068278ba5130ab06e1292f60a>@@$$QEAV<lambda_24dc10c13f43218c635520766e23e324>@@@Z@4HA 000000018006cb64     libucrt:spawnv.obj
 0003:00003b70       $pdata$?filt$0@?0???R<lambda_6e4b09c48022b2350581041d5f6b0c4c>@@QEBA@XZ@4HA 000000018006cb70     libucrt:exit.obj
 0003:00003b7c       $pdata$?fin$0@?0???$?RV<lambda_410d79af7f07d98d83a3f525b3859a53>@@AEAV<lambda_3e16ef9562a7dcce91392c22ab16ea36>@@V<lambda_38119f0e861e05405d8a144b9b982f0a>@@@?$__crt_seh_guarded_call@X@@QEAAX$$QEAV<lambda_410d79af7f07d98d83a3f525b3859a53>@@AEAV<lambda_3e16ef9562a7dcce91392c22ab16ea36>@@$$QEAV<lambda_38119f0e861e05405d8a144b9b982f0a>@@@Z@4HA 000000018006cb7c     libucrt:wsetlocale.obj
 0003:00003b88       $pdata$__acrt_lowio_ensure_fh_exists$fin$0 000000018006cb88     libucrt:osfinfo.obj
 0003:00003b88       $pdata$__acrt_initialize_lowio$fin$0 000000018006cb88     libucrt:ioinit.obj
 0003:00003b88       $pdata$_alloc_osfhnd$fin$0 000000018006cb88     libucrt:osfinfo.obj
 0003:00003b94       $pdata$?fin$0@?0??__acrt_stdio_allocate_stream@@YA?AV__crt_stdio_stream@@XZ@4HA 000000018006cb94     libucrt:stream.obj
 0003:00003b94       $pdata$_fcloseall$fin$0    000000018006cb94     libucrt:closeall.obj
 0003:00003ba0       $pdata$?fin$0@?0???$?RV<lambda_751a882b2c74d4b022dec766aa51a29a>@@AEAV<lambda_628dfdc04ba53c8bfc02c9951375f3f5>@@V<lambda_f6c7be5f7998530c34de24c7437d6b54>@@@?$__crt_seh_guarded_call@H@@QEAAH$$QEAV<lambda_751a882b2c74d4b022dec766aa51a29a>@@AEAV<lambda_628dfdc04ba53c8bfc02c9951375f3f5>@@$$QEAV<lambda_f6c7be5f7998530c34de24c7437d6b54>@@@Z@4HA 000000018006cba0     libucrt:close.obj
 0003:00003ba0       $pdata$?fin$0@?0???$?RV<lambda_a37b2b86f63e897a80ea819b0eb08c01>@@AEAV<lambda_38ce7e780aa69e748d6df282ebc68efe>@@V<lambda_99fb1378e971ab6e7edea83e3a7a83a2>@@@?$__crt_seh_guarded_call@H@@QEAAH$$QEAV<lambda_a37b2b86f63e897a80ea819b0eb08c01>@@AEAV<lambda_38ce7e780aa69e748d6df282ebc68efe>@@$$QEAV<lambda_99fb1378e971ab6e7edea83e3a7a83a2>@@@Z@4HA 000000018006cba0     libucrt:commit.obj
 0003:00003bac       $pdata$_read$fin$0         000000018006cbac     libucrt:read.obj
 0003:00003bb8       $pdata$?fin$0@?0???$common_lseek@J@@YAJHJH@Z@4HA 000000018006cbb8     libucrt:lseek.obj
 0003:00003bb8       $pdata$?fin$0@?0???$common_lseek@_J@@YA_JH_JH@Z@4HA 000000018006cbb8     libucrt:lseek.obj
 0003:00003bb8       $pdata$_write$fin$0        000000018006cbb8     libucrt:write.obj
 0003:00003bc4       $pdata$_pipe$fin$1         000000018006cbc4     libucrt:pipe.obj
 0003:00003bd0       $pdata$_pipe$fin$0         000000018006cbd0     libucrt:pipe.obj
 0003:00003bdc       $pdata$?fin$0@?0???$common_fdopen@_W@@YAPEAU_iobuf@@HQEB_W@Z@4HA 000000018006cbdc     libucrt:fdopen.obj
 0003:00003be8       $pdata$?fin$0@?0???$common_sopen_dispatch@_W@@YAHQEB_WHHHQEAHH@Z@4HA 000000018006cbe8     libucrt:open.obj
 0003:00003be8       $pdata$?fin$0@?0???$common_sopen_dispatch@D@@YAHQEBDHHHQEAHH@Z@4HA 000000018006cbe8     libucrt:open.obj
 0003:00003bf4       $pdata$_rmtmp$fin$0        000000018006cbf4     libucrt:rmtmp.obj
 0003:00003c00       $pdata$_rmtmp$fin$1        000000018006cc00     libucrt:rmtmp.obj
 0003:00003c0c       $pdata$?fin$0@?0??update_thread_multibyte_data_internal@@YAPEAU__crt_multibyte_data@@QEAU__acrt_ptd@@QEAPEAU1@@Z@4HA 000000018006cc0c     libucrt:mbctype.obj
 0003:00003c18       $pdata$_query_new_handler$fin$0 000000018006cc18     libucrt:new_handler.obj
 0003:00003c24       $pdata$raise$fin$0         000000018006cc24     libucrt:signal.obj
 0003:00003c30       $pdata$__acrt_update_thread_locale_data$fin$0 000000018006cc30     libucrt:locale_refcounting.obj
 0003:00003c3c       $pdata$_IsNonwritableInCurrentImage$filt$0 000000018006cc3c     LIBCMT:pesect.obj
 0004:000012b0       .idata$6                   000000018006e2b0     kernel32:KERNEL32.dll
 0004:000012cc       .idata$6                   000000018006e2cc     user32:USER32.dll
 0004:00001370       .idata$6                   000000018006e370     advapi32:ADVAPI32.dll
 0004:000013a2       .idata$6                   000000018006e3a2     shell32:SHELL32.dll
 0004:0000193a       .idata$6                   000000018006e93a     lua51:lua51.dll
 0004:00001986       .idata$6                   000000018006e986     rpcrt4:RPCRT4.dll
 0005:00000060       $R000000                   000000018006f060     luafar3.res
