 Network

 Timestamp is 6611e6d8 (Sun Apr  7 01:20:40 2024)

 Preferred load address is 0000000180000000

 Start         Length     Name                   Class
 0001:00000000 00000010H .text$di                CODE
 0001:00000010 0001be00H .text$mn                CODE
 0001:0001be10 00000040H .text$mn$00             CODE
 0001:0001be50 00000990H .text$x                 CODE
 0001:0001c7e0 0000000cH .text$yd                CODE
 0002:00000000 00000328H .idata$5                DATA
 0002:00000328 00000028H .00cfg                  DATA
 0002:00000350 00000008H .CRT$XCA                DATA
 0002:00000358 00000008H .CRT$XCU                DATA
 0002:00000360 00000008H .CRT$XCZ                DATA
 0002:00000368 00000008H .CRT$XIA                DATA
 0002:00000370 00000018H .CRT$XIC                DATA
 0002:00000388 00000008H .CRT$XIZ                DATA
 0002:00000390 00000008H .CRT$XPA                DATA
 0002:00000398 00000010H .CRT$XPX                DATA
 0002:000003a8 00000008H .CRT$XPXA               DATA
 0002:000003b0 00000008H .CRT$XPZ                DATA
 0002:000003b8 00000008H .CRT$XTA                DATA
 0002:000003c0 00000010H .CRT$XTZ                DATA
 0002:000003c8 00000000H .gehcont$y              DATA
 0002:000003c8 00000000H .gfids$y                DATA
 0002:000003d0 00007db0H .rdata                  DATA
 0002:00008180 00000000H .rdata$CastGuardVftablesA DATA
 0002:00008180 00000000H .rdata$CastGuardVftablesC DATA
 0002:00008180 000005d4H .rdata$r                DATA
 0002:00008754 00000040H .rdata$voltmd           DATA
 0002:00008794 00000364H .rdata$zzzdbg           DATA
 0002:00008af8 00000008H .rtc$IAA                DATA
 0002:00008b00 00000008H .rtc$IZZ                DATA
 0002:00008b08 00000008H .rtc$TAA                DATA
 0002:00008b10 00000008H .rtc$TZZ                DATA
 0002:00008b18 00002198H .xdata                  DATA
 0002:0000acb0 00000250H .xdata$x                DATA
 0002:0000af00 00000100H _RDATA                  DATA
 0002:0000b000 00000184H .edata                  DATA
 0002:0000b184 00000064H .idata$2                DATA
 0002:0000b1e8 00000018H .idata$3                DATA
 0002:0000b200 00000328H .idata$4                DATA
 0002:0000b528 00000732H .idata$6                DATA
 0003:00000000 00000ad0H .data                   DATA
 0003:00000ad0 00000120H .data$r                 DATA
 0003:00000bf0 000000e0H .data$rs                DATA
 0003:00000cd0 000022a4H .bss                    DATA
 0004:00000000 00001860H .pdata                  DATA
 0005:00000000 00000060H .rsrc$01                DATA
 0005:00000060 00000340H .rsrc$02                DATA

  Address         Publics by Value              Rva+Base               Lib:Object

 0000:00000000       __guard_longjmp_table      0000000000000000     <absolute>
 0000:00000000       __x64_code_ranges_to_entry_points 0000000000000000     <absolute>
 0000:00000000       __x64_code_ranges_to_entry_points_count 0000000000000000     <absolute>
 0000:00000000       __guard_fids_count         0000000000000000     <absolute>
 0000:00000000       __arm64x_redirection_metadata 0000000000000000     <absolute>
 0000:00000000       __guard_iat_table          0000000000000000     <absolute>
 0000:00000000       __arm64x_extra_rfe_table   0000000000000000     <absolute>
 0000:00000000       __guard_iat_count          0000000000000000     <absolute>
 0000:00000000       __hybrid_code_map          0000000000000000     <absolute>
 0000:00000000       __guard_longjmp_count      0000000000000000     <absolute>
 0000:00000000       __arm64x_extra_rfe_table_size 0000000000000000     <absolute>
 0000:00000000       ___safe_se_handler_table   0000000000000000     <absolute>
 0000:00000000       __dynamic_value_reloc_table 0000000000000000     <absolute>
 0000:00000000       ___safe_se_handler_count   0000000000000000     <absolute>
 0000:00000000       __hybrid_auxiliary_iat     0000000000000000     <absolute>
 0000:00000000       __hybrid_auxiliary_iat_copy 0000000000000000     <absolute>
 0000:00000000       __AbsoluteZero             0000000000000000     <absolute>
 0000:00000000       __guard_eh_cont_count      0000000000000000     <absolute>
 0000:00000000       __guard_check_icall_a64n_fptr 0000000000000000     <absolute>
 0000:00000000       __guard_fids_table         0000000000000000     <absolute>
 0000:00000000       __arm64x_redirection_metadata_count 0000000000000000     <absolute>
 0000:00000000       __enclave_config           0000000000000000     <absolute>
 0000:00000000       __guard_eh_cont_table      0000000000000000     <absolute>
 0000:00000000       __arm64x_native_entrypoint 0000000000000000     <absolute>
 0000:00000000       __hybrid_code_map_count    0000000000000000     <absolute>
 0000:00000100       __guard_flags              0000000000000100     <absolute>
 0000:00000000       __ImageBase                0000000180000000     <linker-defined>
 0001:00000010       GetGlobalInfoW             0000000180001010 f   Network.obj
 0001:00000090       SetStartupInfoW            0000000180001090 f   Network.obj
 0001:000001b0       GetPluginInfoW             00000001800011b0 f   Network.obj
 0001:00000280       OpenW                      0000000180001280 f   Network.obj
 0001:00000380       ClosePanelW                0000000180001380 f   Network.obj
 0001:00000430       GetFindDataW               0000000180001430 f   Network.obj
 0001:00000450       FreeFindDataW              0000000180001450 f   Network.obj
 0001:000004d0       GetOpenPanelInfoW          00000001800014d0 f   Network.obj
 0001:000004e0       SetDirectoryW              00000001800014e0 f   Network.obj
 0001:00000500       DeleteFilesW               0000000180001500 f   Network.obj
 0001:000005b0       ProcessPanelInputW         00000001800015b0 f   Network.obj
 0001:000005d0       ProcessPanelEventW         00000001800015d0 f   Network.obj
 0001:000005f0       ConfigureW                 00000001800015f0 f   Network.obj
 0001:00000600       ExitFARW                   0000000180001600 f   Network.obj
 0001:00000640       ??1NetResourceList@@QEAA@XZ 0000000180001640 f i Network.obj
 0001:00000650       ??1?$unique_ptr@VNetBrowser@@U?$default_delete@VNetBrowser@@@std@@@std@@QEAA@XZ 0000000180001650 f i Network.obj
 0001:00000700       ??1?$vector@VNetResource@@V?$allocator@VNetResource@@@std@@@std@@QEAA@XZ 0000000180001700 f i Network.obj
 0001:000007b0       ??1?$basic_string@_WU?$char_traits@_W@std@@V?$allocator@_W@2@@std@@QEAA@XZ 00000001800017b0 f i Network.obj
 0001:00000820       ?_Destroy@?$vector@VNetResource@@V?$allocator@VNetResource@@@std@@@std@@AEAAXPEAVNetResource@@0@Z 0000000180001820 f i Network.obj
 0001:00000860       ?deallocate@?$allocator@VNetResource@@@std@@QEAAXQEAVNetResource@@_K@Z 0000000180001860 f i Network.obj
 0001:000008b0       ??1NetResource@@QEAA@XZ    00000001800018b0 f i Network.obj
 0001:00000a20       ?SaveValue@PluginCheckBoxBinding@@UEAAXPEBUFarDialogItem@@H@Z 0000000180001a20 f i NetCfg.obj
 0001:00000a90       ??_GPluginEditFieldBinding@@UEAAPEAXI@Z 0000000180001a90 f i NetClass.obj
 0001:00000a90       ??_EPluginEditFieldBinding@@UEAAPEAXI@Z 0000000180001a90 f i * CIL library *:* CIL module *
 0001:00000a90       ??_GPluginCheckBoxBinding@@UEAAPEAXI@Z 0000000180001a90 f i NetCfg.obj
 0001:00000a90       ??_EPluginCheckBoxBinding@@UEAAPEAXI@Z 0000000180001a90 f i * CIL library *:* CIL module *
 0001:00000ac0       ?SaveValue@PluginRadioButtonBinding@@UEAAXPEBUFarDialogItem@@H@Z 0000000180001ac0 f i NetCfg.obj
 0001:00000b10       ??_EPluginRadioButtonBinding@@UEAAPEAXI@Z 0000000180001b10 f i * CIL library *:* CIL module *
 0001:00000b10       ??_GPluginRadioButtonBinding@@UEAAPEAXI@Z 0000000180001b10 f i NetCfg.obj
 0001:00000b40       ??0PluginDialogBuilder@@QEAA@AEBUPluginStartupInfo@@AEBU_GUID@@1HPEB_WP6A_JPEAX_J43@Z3_K@Z 0000000180001b40 f i NetCfg.obj
 0001:00000d70       ??1PluginDialogBuilder@@QEAA@XZ 0000000180001d70 f i NetCfg.obj
 0001:00000df0       ?AddRadioButtons@PluginDialogBuilder@@QEAAPEAUFarDialogItem@@PEAHHQEBH_N@Z 0000000180001df0 f i NetCfg.obj
 0001:00001110       ?AddButtons@PluginDialogBuilder@@QEAAXHPEBHHH@Z 0000000180002110 f i NetCfg.obj
 0001:00001410       ?ShowDialogEx@PluginDialogBuilder@@QEAA_JXZ 0000000180002410 f i NetCfg.obj
 0001:00001760       ?AddDialogItem@PluginDialogBuilder@@AEAAPEAUFarDialogItem@@W4FARDIALOGITEMTYPES@@PEB_W@Z 0000000180002760 f i NetCfg.obj
 0001:00001910       ?ItemWidth@PluginDialogBuilder@@CA_JAEBUFarDialogItem@@@Z 0000000180002910 f i NetCfg.obj
 0001:000019a0       ??1PluginSettings@@QEAA@XZ 00000001800029a0 f i NetCfg.obj
 0001:000019c0       ?Config@@YAHXZ             00000001800029c0 f   NetCfg.obj
 0001:000022d0       ?Read@Options@@SAXXZ       00000001800032d0 f   NetCfg.obj
 0001:00002720       ?Write@Options@@SAXXZ      0000000180003720 f   NetCfg.obj
 0001:00002a40       ??0exception@std@@QEAA@AEBV01@@Z 0000000180003a40 f i NetClass.obj
 0001:00002a80       ?what@exception@std@@UEBAPEBDXZ 0000000180003a80 f i NetClass.obj
 0001:00002aa0       ??_Gout_of_range@std@@UEAAPEAXI@Z 0000000180003aa0 f i libcpmt:xthrow.obj
 0001:00002aa0       ??_Ebad_exception@std@@UEAAPEAXI@Z 0000000180003aa0 f i libvcruntime:frame.obj
 0001:00002aa0       ??_Glength_error@std@@UEAAPEAXI@Z 0000000180003aa0 f i libcpmt:xthrow.obj
 0001:00002aa0       ??_Ebad_alloc@std@@UEAAPEAXI@Z 0000000180003aa0 f i * CIL library *:* CIL module *
 0001:00002aa0       ??_Gbad_array_new_length@std@@UEAAPEAXI@Z 0000000180003aa0 f i NetClass.obj
 0001:00002aa0       ??_Gbad_exception@std@@UEAAPEAXI@Z 0000000180003aa0 f i libvcruntime:frame.obj
 0001:00002aa0       ??_Gbad_alloc@std@@UEAAPEAXI@Z 0000000180003aa0 f i NetClass.obj
 0001:00002aa0       ??_Ebad_array_new_length@std@@UEAAPEAXI@Z 0000000180003aa0 f i * CIL library *:* CIL module *
 0001:00002aa0       ??_Glogic_error@std@@UEAAPEAXI@Z 0000000180003aa0 f i libcpmt:xthrow.obj
 0001:00002aa0       ??_Gexception@std@@UEAAPEAXI@Z 0000000180003aa0 f i NetClass.obj
 0001:00002aa0       ??_Elogic_error@std@@UEAAPEAXI@Z 0000000180003aa0 f i libcpmt:xthrow.obj
 0001:00002aa0       ??_Eout_of_range@std@@UEAAPEAXI@Z 0000000180003aa0 f i libcpmt:xthrow.obj
 0001:00002aa0       ??_Eexception@std@@UEAAPEAXI@Z 0000000180003aa0 f i * CIL library *:* CIL module *
 0001:00002aa0       ??_Elength_error@std@@UEAAPEAXI@Z 0000000180003aa0 f i libcpmt:xthrow.obj
 0001:00002af0       ??1out_of_range@std@@UEAA@XZ 0000000180003af0 f i libcpmt:xthrow.obj
 0001:00002af0       ??1bad_alloc@std@@UEAA@XZ  0000000180003af0 f i NetClass.obj
 0001:00002af0       ??1length_error@std@@UEAA@XZ 0000000180003af0 f i libcpmt:xthrow.obj
 0001:00002af0       ??1bad_exception@std@@UEAA@XZ 0000000180003af0 f i libvcruntime:frame.obj
 0001:00002af0       ??1bad_array_new_length@std@@UEAA@XZ 0000000180003af0 f i NetClass.obj
 0001:00002b10       ??0bad_array_new_length@std@@QEAA@XZ 0000000180003b10 f i NetClass.obj
 0001:00002b40       ?_Throw_bad_array_new_length@std@@YAXXZ 0000000180003b40 f i NetClass.obj
 0001:00002b40       ?__scrt_throw_std_bad_array_new_length@@YAXXZ 0000000180003b40 f i LIBCMT:throw_bad_alloc.obj
 0001:00002b60       ??0bad_array_new_length@std@@QEAA@AEBV01@@Z 0000000180003b60 f i NetClass.obj
 0001:00002ba0       ??0bad_alloc@std@@QEAA@AEBV01@@Z 0000000180003ba0 f i NetClass.obj
 0001:00002be0       ?_Xlen_string@std@@YAXXZ   0000000180003be0 f i NetClass.obj
 0001:00002c00       ??0NetResource@@QEAA@AEAU_NETRESOURCEW@@@Z 0000000180003c00 f i NetClass.obj
 0001:00002d70       ?SaveValue@PluginEditFieldBinding@@UEAAXPEBUFarDialogItem@@H@Z 0000000180003d70 f i NetClass.obj
 0001:00002de0       ?Clear@NetResourceList@@QEAAXXZ 0000000180003de0 f   NetClass.obj
 0001:00002e40       ?Push@NetResourceList@@QEAAXAEBVNetResource@@@Z 0000000180003e40 f   NetClass.obj
 0001:00002ef0       ?Enumerate@NetResourceList@@QEAA_NKKKPEAVNetResource@@@Z 0000000180003ef0 f   NetClass.obj
 0001:00003190       ??0NetBrowser@@QEAA@XZ     0000000180004190 f   NetClass.obj
 0001:000033c0       ??4NetResource@@QEAAAEAV0@AEBV0@@Z 00000001800043c0 f i NetClass.obj
 0001:00003480       ?EnumerateNetList@NetBrowser@@AEAA_NXZ 0000000180004480 f   NetClass.obj
 0001:000036c0       ?GetFindData@NetBrowser@@QEAAHPEAPEAUPluginPanelItem@@PEA_K_K@Z 00000001800046c0 f   NetClass.obj
 0001:00003b60       ?ProcessEvent@NetBrowser@@QEAAH_JPEAX@Z 0000000180004b60 f   NetClass.obj
 0001:00003d50       ?CancelConnection@NetBrowser@@AEAA_NPEB_W@Z 0000000180004d50 f   NetClass.obj
 0001:00004080       ?GetDriveToDisconnect@NetBrowser@@AEAA_NPEB_WPEA_W@Z 0000000180005080 f   NetClass.obj
 0001:00004280       ?ConfirmCancelConnection@NetBrowser@@CA_NPEA_W0AEAH@Z 0000000180005280 f   NetClass.obj
 0001:00004720       ?GetOpenPanelInfo@NetBrowser@@QEAAXPEAUOpenPanelInfo@@@Z 0000000180005720 f   NetClass.obj
 0001:00004ac0       ?SetDirectory@NetBrowser@@QEAAHPEB_W_K@Z 0000000180005ac0 f   NetClass.obj
 0001:00004f50       ?ChangeToDirectory@NetBrowser@@AEAA_NPEB_W_K_N@Z 0000000180005f50 f   NetClass.obj
 0001:00005590       ?IsMSNetResource@NetBrowser@@SA_NAEBVNetResource@@@Z 0000000180006590 f   NetClass.obj
 0001:000056b0       ?IsResourceReadable@NetBrowser@@SA_NAEBVNetResource@@@Z 00000001800066b0 f   NetClass.obj
 0001:00005800       ?GetResourceInfo@NetBrowser@@SA_NPEA_WAEAVNetResource@@@Z 0000000180006800 f   NetClass.obj
 0001:00005970       ??4NetResource@@QEAAAEAV0@$$QEAV0@@Z 0000000180006970 f i NetClass.obj
 0001:000059e0       ?GetResourceParent@NetBrowser@@SA_NAEBVNetResource@@PEAV2@@Z 00000001800069e0 f   NetClass.obj
 0001:00005c70       ?EditFavorites@NetBrowser@@QEAA_NXZ 0000000180006c70 f   NetClass.obj
 0001:00006290       ?ProcessKey@NetBrowser@@QEAAHPEBU_INPUT_RECORD@@@Z 0000000180007290 f   NetClass.obj
 0001:000067b0       ?MapNetworkDrive@NetBrowser@@CA_NPEB_W_N1@Z 00000001800077b0 f   NetClass.obj
 0001:00006ff0       ?AskMapDrive@NetBrowser@@CA_NPEA_WAEA_N@Z 0000000180007ff0 f   NetClass.obj
 0001:00007230       ?AddConnection@NetBrowser@@SA_NAEBVNetResource@@_N@Z 0000000180008230 f   NetClass.obj
 0001:000072f0       ?AddConnectionExplicit@NetBrowser@@SA_NPEBVNetResource@@_N@Z 00000001800082f0 f   NetClass.obj
 0001:00007400       ?AddConnectionWithLogon@NetBrowser@@SA_NPEBVNetResource@@PEA_WPEB_W_N@Z 0000000180008400 f   NetClass.obj
 0001:00007670       ?AddConnectionFromFavorites@NetBrowser@@SA_NPEBVNetResource@@_N@Z 0000000180008670 f   NetClass.obj
 0001:00007720       ?DisconnectFromServer@NetBrowser@@CAXPEBVNetResource@@@Z 0000000180008720 f   NetClass.obj
 0001:00007990       ?GetLocalName@NetBrowser@@AEAA?AV?$basic_string@_WU?$char_traits@_W@std@@V?$allocator@_W@2@@std@@PEBV23@@Z 0000000180008990 f   NetClass.obj
 0001:00007ae0       ?GetNameAndPassword@NetBrowser@@CA_NPEAUNameAndPassInfo@@@Z 0000000180008ae0 f   NetClass.obj
 0001:00008c00       ?FileNames2Clipboard@NetBrowser@@AEAAX_N@Z 0000000180009c00 f   NetClass.obj
 0001:00008f20       ?GetRemoteName@NetBrowser@@CA?AV?$basic_string@_WU?$char_traits@_W@std@@V?$allocator@_W@2@@std@@PEAVNetResource@@@Z 0000000180009f20 f   NetClass.obj
 0001:000090b0       ?IsReadable@NetBrowser@@CA_NAEBV?$basic_string@_WU?$char_traits@_W@std@@V?$allocator@_W@2@@std@@@Z 000000018000a0b0 f   NetClass.obj
 0001:00009660       ?SetOpenFromCommandLine@NetBrowser@@QEAA_NPEA_W@Z 000000018000a660 f   NetClass.obj
 0001:000098f0       ?SetOpenFromFilePanel@NetBrowser@@QEAA_NPEA_W@Z 000000018000a8f0 f   NetClass.obj
 0001:00009b00       ?GotoComputer@NetBrowser@@AEAA_NPEB_W@Z 000000018000ab00 f   NetClass.obj
 0001:0000a2f0       ?GotoLocalNetwork@NetBrowser@@QEAAXXZ 000000018000b2f0 f   NetClass.obj
 0001:0000a660       ?RemoveItems@NetBrowser@@AEAAXXZ 000000018000b660 f   NetClass.obj
 0001:0000a8f0       ?GetHiddenShares@NetBrowser@@AEAAXXZ 000000018000b8f0 f   NetClass.obj
 0001:0000ae10       ?compare@?$basic_string@_WU?$char_traits@_W@std@@V?$allocator@_W@2@@std@@QEBAH_K0QEB_W@Z 000000018000be10 f i NetClass.obj
 0001:0000aea0       ??4?$basic_string@_WU?$char_traits@_W@std@@V?$allocator@_W@2@@std@@QEAAAEAV01@$$QEAV01@@Z 000000018000bea0 f i NetClass.obj
 0001:0000af40       ?assign@?$basic_string@_WU?$char_traits@_W@std@@V?$allocator@_W@2@@std@@QEAAAEAV12@QEB_W_K@Z 000000018000bf40 f i NetClass.obj
 0001:0000b0e0       ?_Xran@?$_String_val@U?$_Simple_types@_W@std@@@std@@SAXXZ 000000018000c0e0 f i NetClass.obj
 0001:0000b100       ?allocate@?$allocator@_W@std@@QEAAPEA_W_K@Z 000000018000c100 f i NetClass.obj
 0001:0000b170       ??$_Emplace_reallocate@AEBVNetResource@@@?$vector@VNetResource@@V?$allocator@VNetResource@@@std@@@std@@QEAAPEAVNetResource@@QEAV2@AEBV2@@Z 000000018000c170 f i NetClass.obj
 0001:0000b3f0       ??$_Emplace_reallocate@AEAU_NETRESOURCEW@@@?$vector@VNetResource@@V?$allocator@VNetResource@@@std@@@std@@QEAAPEAVNetResource@@QEAV2@AEAU_NETRESOURCEW@@@Z 000000018000c3f0 f i NetClass.obj
 0001:0000b600       ??$?8_WU?$char_traits@_W@std@@V?$allocator@_W@1@@std@@YA_NAEBV?$basic_string@_WU?$char_traits@_W@std@@V?$allocator@_W@2@@0@0@Z 000000018000c600 f i NetClass.obj
 0001:0000b670       ??$_Reallocate_grow_by@V<lambda_1>@?1??append@?$basic_string@_WU?$char_traits@_W@std@@V?$allocator@_W@2@@std@@QEAAAEAV34@QEB_W_K@Z@PEB_W_K@?$basic_string@_WU?$char_traits@_W@std@@V?$allocator@_W@2@@std@@AEAAAEAV01@_KV<lambda_1>@?1??append@01@QEAAAEAV01@QEB_W0@Z@PEB_W_K@Z 000000018000c670 f i NetClass.obj
 0001:0000b830       ?_Xlength@?$vector@VNetResource@@V?$allocator@VNetResource@@@std@@@std@@CAXXZ 000000018000c830 f i NetClass.obj
 0001:0000b830       ?_Xlength@?$vector@V?$basic_string@_WU?$char_traits@_W@std@@V?$allocator@_W@2@@std@@V?$allocator@V?$basic_string@_WU?$char_traits@_W@std@@V?$allocator@_W@2@@std@@@2@@std@@CAXXZ 000000018000c830 f i NetFavorites.obj
 0001:0000b850       ?_Change_array@?$vector@VNetResource@@V?$allocator@VNetResource@@@std@@@std@@AEAAXQEAVNetResource@@_K1@Z 000000018000c850 f i NetClass.obj
 0001:0000b930       ??0?$basic_string@_WU?$char_traits@_W@std@@V?$allocator@_W@2@@std@@QEAA@AEBV01@@Z 000000018000c930 f i NetClass.obj
 0001:0000ba30       ??$_Assign_range@PEAVNetResource@@@?$vector@VNetResource@@V?$allocator@VNetResource@@@std@@@std@@AEAAXPEAVNetResource@@0Uforward_iterator_tag@1@@Z 000000018000ca30 f i NetClass.obj
 0001:0000bbb0       ??$_Reallocate_grow_by@V<lambda_1>@?1??insert@?$basic_string@_WU?$char_traits@_W@std@@V?$allocator@_W@2@@std@@QEAAAEAV34@_KQEB_W0@Z@_KPEB_W_K@?$basic_string@_WU?$char_traits@_W@std@@V?$allocator@_W@2@@std@@AEAAAEAV01@_KV<lambda_1>@?1??insert@01@QEAAAEAV01@0QEB_W0@Z@_KPEB_W3@Z 000000018000cbb0 f i NetClass.obj
 0001:0000bd60       ??1?$_Uninitialized_backout_al@V?$allocator@VNetResource@@@std@@@std@@QEAA@XZ 000000018000cd60 f i NetClass.obj
 0001:0000bda0       ?_Clear_and_reserve_geometric@?$vector@VNetResource@@V?$allocator@VNetResource@@@std@@@std@@AEAAX_K@Z 000000018000cda0 f i NetClass.obj
 0001:0000bf20       ??$_Copy_unchecked@PEAVNetResource@@PEAV1@@std@@YAPEAVNetResource@@PEAV1@00@Z 000000018000cf20 f i NetClass.obj
 0001:0000c020       ??0NetResource@@QEAA@$$QEAV0@@Z 000000018000d020 f i NetClass.obj
 0001:0000c100       ??0TSaveScreen@@QEAA@XZ    000000018000d100 f   NetCommon.obj
 0001:0000c1a0       ??1TSaveScreen@@QEAA@XZ    000000018000d1a0 f   NetCommon.obj
 0001:0000c9b0       ?EnumFavorites@@YA_NPEBVNetResource@@PEAVNetResourceList@@@Z 000000018000d9b0 f   NetFavorites.obj
 0001:0000ce30       ?InFavoriteExists@@YA_NPEB_W@Z 000000018000de30 f   NetFavorites.obj
 0001:0000d020       ?WriteFavoriteItem@@YAXPEBUFAVORITEITEM@@@Z 000000018000e020 f   NetFavorites.obj
 0001:0000d280       ?ReadFavoriteItem@@YA_NPEAUFAVORITEITEM@@@Z 000000018000e280 f   NetFavorites.obj
 0001:0000d510       ?GetFavoritesParent@@YA_NAEBVNetResource@@PEAV1@@Z 000000018000e510 f   NetFavorites.obj
 0001:0000d6c0       ?GetFavoriteResource@@YA_NPEB_WPEAVNetResource@@@Z 000000018000e6c0 f   NetFavorites.obj
 0001:0000d830       ?RemoveFromFavorites@@YA_NPEB_W@Z 000000018000e830 f   NetFavorites.obj
 0001:0000da30       ??1?$vector@V?$basic_string@_WU?$char_traits@_W@std@@V?$allocator@_W@2@@std@@V?$allocator@V?$basic_string@_WU?$char_traits@_W@std@@V?$allocator@_W@2@@std@@@2@@std@@QEAA@XZ 000000018000ea30 f i NetFavorites.obj
 0001:0000daa0       ?_Reallocate_exactly@?$vector@V?$basic_string@_WU?$char_traits@_W@std@@V?$allocator@_W@2@@std@@V?$allocator@V?$basic_string@_WU?$char_traits@_W@std@@V?$allocator@_W@2@@std@@@2@@std@@AEAAX_K@Z 000000018000eaa0 f i NetFavorites.obj
 0001:0000db50       ?_Change_array@?$vector@V?$basic_string@_WU?$char_traits@_W@std@@V?$allocator@_W@2@@std@@V?$allocator@V?$basic_string@_WU?$char_traits@_W@std@@V?$allocator@_W@2@@std@@@2@@std@@AEAAXQEAV?$basic_string@_WU?$char_traits@_W@std@@V?$allocator@_W@2@@2@_K1@Z 000000018000eb50 f i NetFavorites.obj
 0001:0000dbf0       ?_Destroy@?$vector@V?$basic_string@_WU?$char_traits@_W@std@@V?$allocator@_W@2@@std@@V?$allocator@V?$basic_string@_WU?$char_traits@_W@std@@V?$allocator@_W@2@@std@@@2@@std@@AEAAXPEAV?$basic_string@_WU?$char_traits@_W@std@@V?$allocator@_W@2@@2@0@Z 000000018000ebf0 f i NetFavorites.obj
 0001:0000dc00       ?_Umove_if_noexcept@?$vector@V?$basic_string@_WU?$char_traits@_W@std@@V?$allocator@_W@2@@std@@V?$allocator@V?$basic_string@_WU?$char_traits@_W@std@@V?$allocator@_W@2@@std@@@2@@std@@AEAAXPEAV?$basic_string@_WU?$char_traits@_W@std@@V?$allocator@_W@2@@2@00@Z 000000018000ec00 f i NetFavorites.obj
 0001:0000dc70       ?deallocate@?$allocator@V?$basic_string@_WU?$char_traits@_W@std@@V?$allocator@_W@2@@std@@@std@@QEAAXQEAV?$basic_string@_WU?$char_traits@_W@std@@V?$allocator@_W@2@@2@_K@Z 000000018000ec70 f i NetFavorites.obj
 0001:0000dcc0       ??$_Emplace_reallocate@AEAY09$$CB_W@?$vector@V?$basic_string@_WU?$char_traits@_W@std@@V?$allocator@_W@2@@std@@V?$allocator@V?$basic_string@_WU?$char_traits@_W@std@@V?$allocator@_W@2@@std@@@2@@std@@QEAAPEAV?$basic_string@_WU?$char_traits@_W@std@@V?$allocator@_W@2@@1@QEAV21@AEAY09$$CB_W@Z 000000018000ecc0 f i NetFavorites.obj
 0001:0000de70       ??$?8_WU?$char_traits@_W@std@@V?$allocator@_W@1@@std@@YA_NAEBV?$basic_string@_WU?$char_traits@_W@std@@V?$allocator@_W@2@@0@QEB_W@Z 000000018000ee70 f i NetFavorites.obj
 0001:0000def0       ??$_Emplace_reallocate@AEBV?$basic_string@_WU?$char_traits@_W@std@@V?$allocator@_W@2@@std@@@?$vector@V?$basic_string@_WU?$char_traits@_W@std@@V?$allocator@_W@2@@std@@V?$allocator@V?$basic_string@_WU?$char_traits@_W@std@@V?$allocator@_W@2@@std@@@2@@std@@QEAAPEAV?$basic_string@_WU?$char_traits@_W@std@@V?$allocator@_W@2@@1@QEAV21@AEBV21@@Z 000000018000eef0 f i NetFavorites.obj
 0001:0000e070       ??$_Destroy_range@V?$allocator@V?$basic_string@_WU?$char_traits@_W@std@@V?$allocator@_W@2@@std@@@std@@@std@@YAXPEAV?$basic_string@_WU?$char_traits@_W@std@@V?$allocator@_W@2@@0@QEAV10@AEAV?$allocator@V?$basic_string@_WU?$char_traits@_W@std@@V?$allocator@_W@2@@std@@@0@@Z 000000018000f070 f i NetFavorites.obj
 0001:0000e100       ?_Umove@?$vector@V?$basic_string@_WU?$char_traits@_W@std@@V?$allocator@_W@2@@std@@V?$allocator@V?$basic_string@_WU?$char_traits@_W@std@@V?$allocator@_W@2@@std@@@2@@std@@AEAAPEAV?$basic_string@_WU?$char_traits@_W@std@@V?$allocator@_W@2@@2@PEAV32@00@Z 000000018000f100 f i NetFavorites.obj
 0001:0000e170       ??0bad_alloc@std@@QEAA@XZ  000000018000f170 f i libcpmt:xthrow.obj
 0001:0000e190       ??0length_error@std@@QEAA@AEBV01@@Z 000000018000f190 f i libcpmt:xthrow.obj
 0001:0000e1cc       ??0length_error@std@@QEAA@PEBD@Z 000000018000f1cc f i libcpmt:xthrow.obj
 0001:0000e214       ??0logic_error@std@@QEAA@AEBV01@@Z 000000018000f214 f i libcpmt:xthrow.obj
 0001:0000e250       ??0out_of_range@std@@QEAA@AEBV01@@Z 000000018000f250 f i libcpmt:xthrow.obj
 0001:0000e28c       ??0out_of_range@std@@QEAA@PEBD@Z 000000018000f28c f i libcpmt:xthrow.obj
 0001:0000e2d4       ?_Xlength_error@std@@YAXPEBD@Z 000000018000f2d4 f   libcpmt:xthrow.obj
 0001:0000e2f8       ?_Xout_of_range@std@@YAXPEBD@Z 000000018000f2f8 f   libcpmt:xthrow.obj
 0001:0000e330       __security_check_cookie    000000018000f330 f   LIBCMT:amdsecgs.obj
 0001:0000e350       __raise_securityfailure    000000018000f350 f   LIBCMT:gs_report.obj
 0001:0000e384       __report_gsfailure         000000018000f384 f   LIBCMT:gs_report.obj
 0001:0000e458       __report_rangecheckfailure 000000018000f458 f   LIBCMT:gs_report.obj
 0001:0000e46c       __report_securityfailure   000000018000f46c f   LIBCMT:gs_report.obj
 0001:0000e5ec       ??2@YAPEAX_K@Z             000000018000f5ec f   LIBCMT:new_scalar.obj
 0001:0000e628       ??3@YAXPEAX@Z              000000018000f628 f   LIBCMT:delete_scalar.obj
 0001:0000e630       ??_V@YAXPEAX@Z             000000018000f630 f   LIBCMT:delete_array.obj
 0001:0000e630       ??3@YAXPEAX_K@Z            000000018000f630 f   LIBCMT:delete_scalar_size.obj
 0001:0000e638       ??_U@YAPEAX_K@Z            000000018000f638 f   LIBCMT:new_array.obj
 0001:0000e640       ??_Etype_info@@UEAAPEAXI@Z 000000018000f640 f i LIBCMT:std_type_info_static.obj
 0001:0000e640       ??_Gtype_info@@UEAAPEAXI@Z 000000018000f640 f i LIBCMT:std_type_info_static.obj
 0001:0000e66c       __scrt_acquire_startup_lock 000000018000f66c f   LIBCMT:utility.obj
 0001:0000e6a8       __scrt_dllmain_after_initialize_c 000000018000f6a8 f   LIBCMT:utility.obj
 0001:0000e6dc       __scrt_dllmain_before_initialize_c 000000018000f6dc f   LIBCMT:utility.obj
 0001:0000e6f4       __scrt_dllmain_crt_thread_attach 000000018000f6f4 f   LIBCMT:utility.obj
 0001:0000e71c       __scrt_dllmain_crt_thread_detach 000000018000f71c f   LIBCMT:utility.obj
 0001:0000e734       __scrt_dllmain_exception_filter 000000018000f734 f   LIBCMT:utility.obj
 0001:0000e794       __scrt_dllmain_uninitialize_c 000000018000f794 f   LIBCMT:utility.obj
 0001:0000e7c4       __scrt_dllmain_uninitialize_critical 000000018000f7c4 f   LIBCMT:utility.obj
 0001:0000e7d8       __scrt_initialize_crt      000000018000f7d8 f   LIBCMT:utility.obj
 0001:0000e824       __scrt_initialize_onexit_tables 000000018000f824 f   LIBCMT:utility.obj
 0001:0000e8b0       __scrt_is_nonwritable_in_current_image 000000018000f8b0 f   LIBCMT:utility.obj
 0001:0000e948       __scrt_release_startup_lock 000000018000f948 f   LIBCMT:utility.obj
 0001:0000e96c       __scrt_uninitialize_crt    000000018000f96c f   LIBCMT:utility.obj
 0001:0000e998       _onexit                    000000018000f998 f   LIBCMT:utility.obj
 0001:0000e9d4       atexit                     000000018000f9d4 f   LIBCMT:utility.obj
 0001:0000ed0c       _DllMainCRTStartup         000000018000fd0c f   LIBCMT:dll_dllmain.obj
 0001:0000ed4c       ?__scrt_throw_std_bad_alloc@@YAXXZ 000000018000fd4c f   LIBCMT:throw_bad_alloc.obj
 0001:0000ed6c       __isa_available_init       000000018000fd6c f   LIBCMT:cpu_disp.obj
 0001:0000ef10       _get_startup_argv_mode     000000018000ff10 f   LIBCMT:argv_mode.obj
 0001:0000ef10       DllMain                    000000018000ff10 f   LIBCMT:dll_dllmain_stub.obj
 0001:0000ef18       __scrt_is_ucrt_dll_in_use  000000018000ff18 f   LIBCMT:ucrt_detection.obj
 0001:0000ef24       __crt_debugger_hook        000000018000ff24 f   LIBCMT:utility_desktop.obj
 0001:0000ef2c       __scrt_fastfail            000000018000ff2c f   LIBCMT:utility_desktop.obj
 0001:0000f078       _guard_check_icall_nop     0000000180010078 f i LIBCMT:guard_support.obj
 0001:0000f07c       __security_init_cookie     000000018001007c f   LIBCMT:gs_support.obj
 0001:0000f128       ?__scrt_initialize_type_info@@YAXXZ 0000000180010128 f   LIBCMT:tncleanup.obj
 0001:0000f138       ?__scrt_uninitialize_type_info@@YAXXZ 0000000180010138 f   LIBCMT:tncleanup.obj
 0001:0000f144       __local_stdio_printf_options 0000000180010144 f i LIBCMT:default_local_stdio_options.obj
 0001:0000f14c       __local_stdio_scanf_options 000000018001014c f i LIBCMT:default_local_stdio_options.obj
 0001:0000f154       __scrt_initialize_default_local_stdio_options 0000000180010154 f   LIBCMT:default_local_stdio_options.obj
 0001:0000f170       __scrt_get_dyn_tls_init_callback 0000000180010170 f   LIBCMT:dyn_tls_init.obj
 0001:0000f178       _RTC_Initialize            0000000180010178 f   LIBCMT:initsect.obj
 0001:0000f1b4       _RTC_Terminate             00000001800101b4 f   LIBCMT:initsect.obj
 0001:0000f1f0       ??$_CallSETranslator@V__FrameHandler4@@@@YAHPEAUEHExceptionRecord@@PEA_KPEAU_CONTEXT@@PEAU_xDISPATCHER_CONTEXT@@PEAUFuncInfo4@FH4@@K1H@Z 00000001800101f0 f i libvcruntime:risctrnsctrl.obj
 0001:0000f244       ?DecompFuncInfo@FH4@@YA_JPEAEAEAUFuncInfo4@1@_KH_N@Z 0000000180010244 f i libvcruntime:risctrnsctrl.obj
 0001:0000f368       ?ExecutionInCatch@__FrameHandler4@@SA_NPEAU_xDISPATCHER_CONTEXT@@PEAUFuncInfo4@FH4@@@Z 0000000180010368 f   libvcruntime:risctrnsctrl.obj
 0001:0000f370       ?FrameUnwindToEmptyState@__FrameHandler4@@SAXPEA_KPEAU_xDISPATCHER_CONTEXT@@PEAUFuncInfo4@FH4@@@Z 0000000180010370 f   libvcruntime:risctrnsctrl.obj
 0001:0000f3a4       ?GetEstablisherFrame@__FrameHandler4@@SAPEA_KPEA_KPEAU_xDISPATCHER_CONTEXT@@PEAUFuncInfo4@FH4@@0@Z 00000001800103a4 f   libvcruntime:risctrnsctrl.obj
 0001:0000f3c8       ?GetRangeOfTrysToCheck@__FrameHandler4@@SA?AU?$pair@Viterator@TryBlockMap4@FH4@@V123@@std@@AEAVTryBlockMap4@FH4@@HPEAU_xDISPATCHER_CONTEXT@@PEAUFuncInfo4@5@H@Z 00000001800103c8 f   libvcruntime:risctrnsctrl.obj
 0001:0000f530       ?UnwindNestedFrames@__FrameHandler4@@SAXPEA_KPEAUEHExceptionRecord@@PEAU_CONTEXT@@0PEAXPEAUFuncInfo4@FH4@@HHPEAUHandlerType4@5@PEAU_xDISPATCHER_CONTEXT@@E@Z 0000000180010530 f   libvcruntime:risctrnsctrl.obj
 0001:0000f650       ?setBuffer@TryBlockMap4@FH4@@QEAAXViterator@12@@Z 0000000180010650 f i libvcruntime:risctrnsctrl.obj
 0001:0000f810       _CreateFrameInfo           0000000180010810 f   libvcruntime:risctrnsctrl.obj
 0001:0000f84c       _FindAndUnlinkFrame        000000018001084c f   libvcruntime:risctrnsctrl.obj
 0001:0000f8a0       _GetImageBase              00000001800108a0 f   libvcruntime:risctrnsctrl.obj
 0001:0000f8b4       _GetThrowImageBase         00000001800108b4 f   libvcruntime:risctrnsctrl.obj
 0001:0000f8c8       _SetImageBase              00000001800108c8 f   libvcruntime:risctrnsctrl.obj
 0001:0000f8e0       _SetThrowImageBase         00000001800108e0 f   libvcruntime:risctrnsctrl.obj
 0001:0000f8f8       __CxxFrameHandler4         00000001800108f8 f   libvcruntime:risctrnsctrl.obj
 0001:0000f9b8       __DestructExceptionObject  00000001800109b8 f   libvcruntime:ehhelpers.obj
 0001:0000fa28       ?_CallMemberFunction0@@YAXQEAX0@Z 0000000180010a28 f i libvcruntime:ehhelpers.obj
 0001:0000fa2c       _IsExceptionObjectToBeDestroyed 0000000180010a2c f   libvcruntime:ehhelpers.obj
 0001:0000fa5c       __AdjustPointer            0000000180010a5c f   libvcruntime:ehhelpers.obj
 0001:0000fa80       __FrameUnwindFilter        0000000180010a80 f   libvcruntime:ehhelpers.obj
 0001:0000fae8       __std_terminate            0000000180010ae8 f   libvcruntime:ehhelpers.obj
 0001:0000faf4       __std_exception_copy       0000000180010af4 f   libvcruntime:std_exception.obj
 0001:0000fb84       __std_exception_destroy    0000000180010b84 f   libvcruntime:std_exception.obj
 0001:0000fbac       wcschr                     0000000180010bac f   libvcruntime:wcschr.obj
 0001:0000fc28       _CxxThrowException         0000000180010c28 f   libvcruntime:throw.obj
 0001:0000fcc8       __vcrt_initialize          0000000180010cc8 f   libvcruntime:initialization.obj
 0001:0000fcf0       __vcrt_thread_attach       0000000180010cf0 f   libvcruntime:initialization.obj
 0001:0000fd04       __vcrt_thread_detach       0000000180010d04 f   libvcruntime:initialization.obj
 0001:0000fd18       __vcrt_uninitialize        0000000180010d18 f   libvcruntime:initialization.obj
 0001:0000fd34       __vcrt_uninitialize_critical 0000000180010d34 f   libvcruntime:initialization.obj
 0001:0000fd44       __C_specific_handler       0000000180010d44 f   libvcruntime:riscchandler.obj
 0001:0000ff60       memset_repmovs             0000000180010f60 f   libvcruntime:memset.obj
 0001:0000ff80       memset                     0000000180010f80 f   libvcruntime:memset.obj
 0001:00010110       __std_type_info_compare    0000000180011110 f   libvcruntime:std_type_info.obj
 0001:00010138       __std_type_info_destroy_list 0000000180011138 f   libvcruntime:std_type_info.obj
 0001:00010164       __vcrt_freefls             0000000180011164 f   libvcruntime:per_thread_data.obj
 0001:00010184       __vcrt_freeptd             0000000180011184 f   libvcruntime:per_thread_data.obj
 0001:000101d4       __vcrt_getptd              00000001800111d4 f   libvcruntime:per_thread_data.obj
 0001:000101f0       __vcrt_getptd_noexit       00000001800111f0 f   libvcruntime:per_thread_data.obj
 0001:000102b0       __vcrt_initialize_ptd      00000001800112b0 f   libvcruntime:per_thread_data.obj
 0001:000102f8       __vcrt_uninitialize_ptd    00000001800112f8 f   libvcruntime:per_thread_data.obj
 0001:0001031c       ?StateFromControlPc@__FrameHandler4@@SAHPEAUFuncInfo4@FH4@@PEAU_xDISPATCHER_CONTEXT@@@Z 000000018001131c f   libvcruntime:ehstate.obj
 0001:00010324       ?StateFromIp@__FrameHandler4@@SAHPEAUFuncInfo4@FH4@@PEAU_xDISPATCHER_CONTEXT@@_K@Z 0000000180011324 f   libvcruntime:ehstate.obj
 0001:00010f94       ??$TypeMatchHelper@V__FrameHandler3@@@@YAHPEBU_s_HandlerType@@PEBU_s_CatchableType@@PEBU_s_ThrowInfo@@@Z 0000000180011f94 f i libvcruntime:frame.obj
 0001:000110d4       ??$TypeMatchHelper@V__FrameHandler4@@@@YAHPEAUHandlerType4@FH4@@PEBU_s_CatchableType@@PEBU_s_ThrowInfo@@@Z 00000001800120d4 f i libvcruntime:frame.obj
 0001:00011218       ??$__InternalCxxFrameHandler@V__FrameHandler4@@@@YA?AW4_EXCEPTION_DISPOSITION@@PEAUEHExceptionRecord@@PEA_KPEAU_CONTEXT@@PEAU_xDISPATCHER_CONTEXT@@PEAUFuncInfo4@FH4@@H1E@Z 0000000180012218 f i libvcruntime:frame.obj
 0001:000114ac       ??0HandlerMap4@FH4@@QEAA@PEBUTryBlockMapEntry4@1@_KH@Z 00000001800124ac f i libvcruntime:frame.obj
 0001:00011528       ??0TryBlockMap4@FH4@@QEAA@PEBUFuncInfo4@1@_K@Z 0000000180012528 f i libvcruntime:frame.obj
 0001:00011600       ??0bad_exception@std@@QEAA@AEBV01@@Z 0000000180012600 f i libvcruntime:frame.obj
 0001:0001163c       ??0bad_exception@std@@QEAA@XZ 000000018001263c f i libvcruntime:frame.obj
 0001:0001165c       ?CxxCallCatchBlock@__FrameHandler4@@SAPEAXPEAU_EXCEPTION_RECORD@@@Z 000000018001265c f   libvcruntime:frame.obj
 0001:000118ac       ?DecompHandler@HandlerMap4@FH4@@AEAAXXZ 00000001800128ac f i libvcruntime:frame.obj
 0001:00011aec       ?FrameUnwindToState@__FrameHandler4@@SAXPEA_KPEAU_xDISPATCHER_CONTEXT@@PEAUFuncInfo4@FH4@@H@Z 0000000180012aec f   libvcruntime:frame.obj
 0001:00011f4c       ?ReadEntry@UWMap4@FH4@@AEAAXPEAPEAE@Z 0000000180012f4c f i libvcruntime:frame.obj
 0001:00011fec       ?_CallMemberFunction1@@YAXQEAX00@Z 0000000180012fec f i libvcruntime:frame.obj
 0001:00011ff8       ?_CallMemberFunction2@@YAXQEAX00H@Z 0000000180012ff8 f i libvcruntime:frame.obj
 0001:00012008       ?getStartStop@UWMap4@FH4@@QEAAXHHAEAViterator@12@0@Z 0000000180013008 f i libvcruntime:frame.obj
 0001:000120d8       ?getStateFromIterators@UWMap4@FH4@@SAHAEBViterator@12@H0H0@Z 00000001800130d8 f i libvcruntime:frame.obj
 0001:000121a0       __vcrt_initialize_locks    00000001800131a0 f   libvcruntime:locks.obj
 0001:000121d4       __vcrt_uninitialize_locks  00000001800131d4 f   libvcruntime:locks.obj
 0001:00012220       _NLG_Notify                0000000180013220 f   libvcruntime:notify.obj
 0001:00012240       __NLG_Dispatch2            0000000180013240 f   libvcruntime:notify.obj
 0001:00012250       __NLG_Return2              0000000180013250 f   libvcruntime:notify.obj
 0001:00012254       __except_validate_context_record 0000000180013254 f   libvcruntime:jbcxrval.obj
 0001:000123dc       __vcrt_FlsAlloc            00000001800133dc f   libvcruntime:winapi_downlevel.obj
 0001:00012424       __vcrt_FlsFree             0000000180013424 f   libvcruntime:winapi_downlevel.obj
 0001:0001246c       __vcrt_FlsGetValue         000000018001346c f   libvcruntime:winapi_downlevel.obj
 0001:000124b4       __vcrt_FlsSetValue         00000001800134b4 f   libvcruntime:winapi_downlevel.obj
 0001:00012508       __vcrt_InitializeCriticalSectionEx 0000000180013508 f   libvcruntime:winapi_downlevel.obj
 0001:00012580       _CallSettingFrame          0000000180013580 f   libvcruntime:handlers.obj
 0001:000125d0       _CallSettingFrame_LookupContinuationIndex 00000001800135d0 f   libvcruntime:handlers.obj
 0001:00012600       _CallSettingFrame_NotifyContinuationAddr 0000000180013600 f   libvcruntime:handlers.obj
 0001:00012630       _CallSettingFrameEncoded   0000000180013630 f   libvcruntime:handlers.obj
 0001:00012690       memcpy_repmovs             0000000180013690 f   libvcruntime:memcpy.obj
 0001:000126b0       memcpy                     00000001800136b0 f   libvcruntime:memcpy.obj
 0001:000126b0       memmove                    00000001800136b0 f   libvcruntime:memcpy.obj
 0001:00012d28       __acrt_call_reportfault    0000000180013d28 f   libucrt:invalid_parameter.obj
 0001:00012e84       __acrt_initialize_invalid_parameter_handler 0000000180013e84 f   libucrt:invalid_parameter.obj
 0001:00012e8c       _invalid_parameter         0000000180013e8c f   libucrt:invalid_parameter.obj
 0001:00012f3c       _invalid_parameter_noinfo  0000000180013f3c f   libucrt:invalid_parameter.obj
 0001:00012f5c       _invalid_parameter_noinfo_noreturn 0000000180013f5c f   libucrt:invalid_parameter.obj
 0001:00012f8c       _invoke_watson             0000000180013f8c f   libucrt:invalid_parameter.obj
 0001:00012fd4       _wcsdup                    0000000180013fd4 f   libucrt:wcsdup.obj
 0001:00013058       realloc                    0000000180014058 f   libucrt:realloc.obj
 0001:00013060       free                       0000000180014060 f   libucrt:free.obj
 0001:00013074       malloc                     0000000180014074 f   libucrt:malloc.obj
 0001:0001307c       __acrt_initialize_new_handler 000000018001407c f   libucrt:new_handler.obj
 0001:00013084       _callnewh                  0000000180014084 f   libucrt:new_handler.obj
 0001:000130b4       _query_new_handler         00000001800140b4 f   libucrt:new_handler.obj
 0001:000130e8       _seh_filter_dll            00000001800140e8 f   libucrt:exception_filter.obj
 0001:000130fc       _seh_filter_exe            00000001800140fc f   libucrt:exception_filter.obj
 0001:000134ec       __acrt_initialize_thread_local_exit_callback 00000001800144ec f   libucrt:exit.obj
 0001:000134f4       _cexit                     00000001800144f4 f   libucrt:exit.obj
 0001:00013504       _exit                      0000000180014504 f   libucrt:exit.obj
 0001:00013510       _is_c_termination_complete 0000000180014510 f   libucrt:exit.obj
 0001:000136dc       __acrt_allocate_buffer_for_argv 00000001800146dc f   libucrt:argv_parsing.obj
 0001:0001373c       _configure_narrow_argv     000000018001473c f   libucrt:argv_parsing.obj
 0001:00013ab4       __dcrt_uninitialize_environments_nolock 0000000180014ab4 f   libucrt:environment_initialization.obj
 0001:00013aec       _initialize_narrow_environment 0000000180014aec f   libucrt:environment_initialization.obj
 0001:00013e34       _crt_atexit                0000000180014e34 f   libucrt:onexit.obj
 0001:00013e44       _execute_onexit_table      0000000180014e44 f   libucrt:onexit.obj
 0001:00013e80       _initialize_onexit_table   0000000180014e80 f   libucrt:onexit.obj
 0001:00013ea8       _register_onexit_function  0000000180014ea8 f   libucrt:onexit.obj
 0001:00013f28       __acrt_uninitialize_command_line 0000000180014f28 f   libucrt:argv_data.obj
 0001:00014020       __acrt_initialize          0000000180015020 f   libucrt:initialization.obj
 0001:00014034       __acrt_thread_attach       0000000180015034 f   libucrt:initialization.obj
 0001:00014048       __acrt_thread_detach       0000000180015048 f   libucrt:initialization.obj
 0001:00014058       __acrt_uninitialize        0000000180015058 f   libucrt:initialization.obj
 0001:00014090       __acrt_uninitialize_critical 0000000180015090 f   libucrt:initialization.obj
 0001:000140a0       _initterm                  00000001800150a0 f   libucrt:initterm.obj
 0001:00014104       _initterm_e                0000000180015104 f   libucrt:initterm.obj
 0001:00014144       terminate                  0000000180015144 f   libucrt:terminate.obj
 0001:00014164       abort                      0000000180015164 f   libucrt:abort.obj
 0001:000141bc       strcpy_s                   00000001800151bc f   libucrt:strcpy_s.obj
 0001:0001421c       calloc                     000000018001521c f   libucrt:calloc.obj
 0001:00014224       ??0_LocaleUpdate@@QEAA@QEAU__crt_locale_pointers@@@Z 0000000180015224 f i libucrt:output.obj
 0001:000142d0       strncmp                    00000001800152d0 f   libucrt:strncmp.obj
 0001:00014350       wcsncmp                    0000000180015350 f   libucrt:wcsncmp.obj
 0001:000146f4       __acrt_freeptd             00000001800156f4 f   libucrt:per_thread_data.obj
 0001:00014738       __acrt_getptd              0000000180015738 f   libucrt:per_thread_data.obj
 0001:0001480c       __acrt_getptd_head         000000018001580c f   libucrt:per_thread_data.obj
 0001:000148b4       __acrt_getptd_noexit       00000001800158b4 f   libucrt:per_thread_data.obj
 0001:00014980       __acrt_initialize_ptd      0000000180015980 f   libucrt:per_thread_data.obj
 0001:000149bc       __acrt_uninitialize_ptd    00000001800159bc f   libucrt:per_thread_data.obj
 0001:000149e0       wcscpy_s                   00000001800159e0 f   libucrt:wcscpy_s.obj
 0001:00014a48       _realloc_base              0000000180015a48 f   libucrt:realloc_base.obj
 0001:00014ac4       _free_base                 0000000180015ac4 f   libucrt:free_base.obj
 0001:00014b04       _malloc_base               0000000180015b04 f   libucrt:malloc_base.obj
 0001:00014b64       __acrt_initialize_locks    0000000180015b64 f   libucrt:locks.obj
 0001:00014bac       __acrt_lock                0000000180015bac f   libucrt:locks.obj
 0001:00014bc8       __acrt_uninitialize_locks  0000000180015bc8 f   libucrt:locks.obj
 0001:00014c00       __acrt_unlock              0000000180015c00 f   libucrt:locks.obj
 0001:00014c1c       __acrt_get_process_end_policy 0000000180015c1c f   libucrt:win_policies.obj
 0001:00014c58       __acrt_errno_from_os_error 0000000180015c58 f   libucrt:errno.obj
 0001:00014ca0       __acrt_errno_map_os_error  0000000180015ca0 f   libucrt:errno.obj
 0001:00014cf0       __doserrno                 0000000180015cf0 f   libucrt:errno.obj
 0001:00014d10       _errno                     0000000180015d10 f   libucrt:errno.obj
 0001:00014d30       _calloc_base               0000000180015d30 f   libucrt:calloc_base.obj
 0001:00014dbc       ??$__acrt_mbs_to_wcs_cp@U__crt_win32_buffer_internal_dynamic_resizing@@@@YAHQEBDAEAV?$__crt_win32_buffer@_WU__crt_win32_buffer_internal_dynamic_resizing@@@@I@Z 0000000180015dbc f i libucrt:argv_wildcards.obj
 0001:00014f34       ??$__acrt_wcs_to_mbs_cp@U__crt_win32_buffer_internal_dynamic_resizing@@@@YAHQEB_WAEAV?$__crt_win32_buffer@DU__crt_win32_buffer_internal_dynamic_resizing@@@@I@Z 0000000180015f34 f i libucrt:argv_wildcards.obj
 0001:00015764       __acrt_expand_narrow_argv_wildcards 0000000180016764 f   libucrt:argv_wildcards.obj
 0001:0001576c       ??$__acrt_wcs_to_mbs_cp@U__crt_win32_buffer_no_resizing@@@@YAHQEB_WAEAV?$__crt_win32_buffer@DU__crt_win32_buffer_no_resizing@@@@I@Z 000000018001676c f i libucrt:getmodulefilenamea.obj
 0001:00015880       __acrt_GetModuleFileNameA  0000000180016880 f   libucrt:getmodulefilenamea.obj
 0001:000160cc       __acrt_initialize_multibyte 00000001800170cc f   libucrt:mbctype.obj
 0001:0001612c       __acrt_update_thread_multibyte_data 000000018001712c f   libucrt:mbctype.obj
 0001:00016148       _setmbcp_nolock            0000000180017148 f   libucrt:mbctype.obj
 0001:0001647c       _ismbblead                 000000018001747c f   libucrt:ismbbyte.obj
 0001:00016490       __acrt_initialize_command_line 0000000180017490 f   libucrt:argv_data.obj
 0001:000164b8       __acrt_MultiByteToWideChar 00000001800174b8 f   libucrt:multibytetowidechar.obj
 0001:00016514       __acrt_WideCharToMultiByte 0000000180017514 f   libucrt:widechartomultibyte.obj
 0001:000165ac       __dcrt_get_narrow_environment_from_os 00000001800175ac f   libucrt:get_environment_from_os.obj
 0001:000166b0       _recalloc_base             00000001800176b0 f   libucrt:recalloc.obj
 0001:00016920       __acrt_AppPolicyGetProcessTerminationMethodInternal 0000000180017920 f   libucrt:winapi_thunks.obj
 0001:00016970       __acrt_AreFileApisANSI     0000000180017970 f   libucrt:winapi_thunks.obj
 0001:000169ac       __acrt_FlsAlloc            00000001800179ac f   libucrt:winapi_thunks.obj
 0001:000169f4       __acrt_FlsFree             00000001800179f4 f   libucrt:winapi_thunks.obj
 0001:00016a3c       __acrt_FlsGetValue         0000000180017a3c f   libucrt:winapi_thunks.obj
 0001:00016a84       __acrt_FlsSetValue         0000000180017a84 f   libucrt:winapi_thunks.obj
 0001:00016ad8       __acrt_InitializeCriticalSectionEx 0000000180017ad8 f   libucrt:winapi_thunks.obj
 0001:00016b3c       __acrt_LCMapStringEx       0000000180017b3c f   libucrt:winapi_thunks.obj
 0001:00016c18       __acrt_LocaleNameToLCID    0000000180017c18 f   libucrt:winapi_thunks.obj
 0001:00016c68       __acrt_initialize_winapi_thunks 0000000180017c68 f   libucrt:winapi_thunks.obj
 0001:00016c9c       __acrt_uninitialize_winapi_thunks 0000000180017c9c f   libucrt:winapi_thunks.obj
 0001:00016ce0       __acrt_initialize_heap     0000000180017ce0 f   libucrt:heap_handle.obj
 0001:00016cfc       __acrt_uninitialize_heap   0000000180017cfc f   libucrt:heap_handle.obj
 0001:00016f04       __acrt_initialize_lowio    0000000180017f04 f   libucrt:ioinit.obj
 0001:00016f40       __acrt_uninitialize_lowio  0000000180017f40 f   libucrt:ioinit.obj
 0001:00016f80       __acrt_execute_initializers 0000000180017f80 f   libucrt:shared_initialization.obj
 0001:00017000       __acrt_execute_uninitializers 0000000180018000 f   libucrt:shared_initialization.obj
 0001:00017084       __acrt_get_sigabrt_handler 0000000180018084 f   libucrt:signal.obj
 0001:000170b4       __acrt_initialize_signal_handlers 00000001800180b4 f   libucrt:signal.obj
 0001:000170d4       raise                      00000001800180d4 f   libucrt:signal.obj
 0001:00017340       __acrt_has_user_matherr    0000000180018340 f   libucrt:matherr.obj
 0001:00017360       __acrt_initialize_user_matherr 0000000180018360 f   libucrt:matherr.obj
 0001:00017368       __acrt_invoke_user_matherr 0000000180018368 f   libucrt:matherr.obj
 0001:00017574       __acrt_stdio_flush_nolock  0000000180018574 f   libucrt:fflush.obj
 0001:000175f0       _fflush_nolock             00000001800185f0 f   libucrt:fflush.obj
 0001:0001763c       _flushall                  000000018001863c f   libucrt:fflush.obj
 0001:00017644       __acrt_initialize_stdio    0000000180018644 f   libucrt:_file.obj
 0001:00017764       __acrt_uninitialize_stdio  0000000180018764 f   libucrt:_file.obj
 0001:000177c0       _lock_file                 00000001800187c0 f   libucrt:_file.obj
 0001:000177cc       _unlock_file               00000001800187cc f   libucrt:_file.obj
 0001:000177d8       _mbtowc_l                  00000001800187d8 f   libucrt:mbtowc.obj
 0001:00017958       mbtowc                     0000000180018958 f   libucrt:mbtowc.obj
 0001:00017960       __acrt_update_locale_info  0000000180018960 f   libucrt:locale_update.obj
 0001:00017994       __acrt_update_multibyte_info 0000000180018994 f   libucrt:locale_update.obj
 0001:000179c8       _fileno                    00000001800189c8 f   libucrt:fileno.obj
 0001:00017a60       __acrt_set_locale_changed  0000000180018a60 f   libucrt:wsetlocale.obj
 0001:00017a6c       __acrt_uninitialize_locale 0000000180018a6c f   libucrt:wsetlocale.obj
 0001:00017a9c       __pctype_func              0000000180018a9c f   libucrt:ctype.obj
 0001:00017acc       __acrt_add_locale_ref      0000000180018acc f   libucrt:locale_refcounting.obj
 0001:00017b58       __acrt_free_locale         0000000180018b58 f   libucrt:locale_refcounting.obj
 0001:00017cd0       __acrt_locale_add_lc_time_reference 0000000180018cd0 f   libucrt:locale_refcounting.obj
 0001:00017cf8       __acrt_locale_free_lc_time_if_unreferenced 0000000180018cf8 f   libucrt:locale_refcounting.obj
 0001:00017d30       __acrt_locale_release_lc_time_reference 0000000180018d30 f   libucrt:locale_refcounting.obj
 0001:00017d58       __acrt_release_locale_ref  0000000180018d58 f   libucrt:locale_refcounting.obj
 0001:00017e00       __acrt_update_thread_locale_data 0000000180018e00 f   libucrt:locale_refcounting.obj
 0001:00017e6c       _updatetlocinfoEx_nolock   0000000180018e6c f   libucrt:locale_refcounting.obj
 0001:00017ed4       _query_new_mode            0000000180018ed4 f   libucrt:new_mode.obj
 0001:00017ee0       qsort                      0000000180018ee0 f   libucrt:qsort.obj
 0001:00018290       strncpy_s                  0000000180019290 f   libucrt:strncpy_s.obj
 0001:00018410       strpbrk                    0000000180019410 f   libucrt:strpbrk.obj
 0001:000187f0       _mbsdec                    00000001800197f0 f   libucrt:mbsdec.obj
 0001:000187f8       _mbsdec_l                  00000001800197f8 f   libucrt:mbsdec.obj
 0001:0001888c       __acrt_GetStringTypeA      000000018001988c f   libucrt:getstringtypea.obj
 0001:00018d34       __acrt_LCMapStringA        0000000180019d34 f   libucrt:lcmapstringa.obj
 0001:00018de4       _msize_base                0000000180019de4 f   libucrt:msize.obj
 0001:00018e20       __acrt_DownlevelLocaleNameToLCID 0000000180019e20 f   libucrt:lcidtoname_downlevel.obj
 0001:00018ed0       __acrt_lowio_create_handle_array 0000000180019ed0 f   libucrt:osfinfo.obj
 0001:00018f78       __acrt_lowio_destroy_handle_array 0000000180019f78 f   libucrt:osfinfo.obj
 0001:00018fc8       __acrt_lowio_ensure_fh_exists 0000000180019fc8 f   libucrt:osfinfo.obj
 0001:00019070       __acrt_lowio_lock_fh       000000018001a070 f   libucrt:osfinfo.obj
 0001:00019098       __acrt_lowio_unlock_fh     000000018001a098 f   libucrt:osfinfo.obj
 0001:000190c0       _free_osfhnd               000000018001a0c0 f   libucrt:osfinfo.obj
 0001:0001917c       _get_osfhandle             000000018001a17c f   libucrt:osfinfo.obj
 0001:00019280       _commit                    000000018001a280 f   libucrt:commit.obj
 0001:00019b74       _write                     000000018001ab74 f   libucrt:write.obj
 0001:00019c60       _write_nolock              000000018001ac60 f   libucrt:write.obj
 0001:00019f3c       _fcloseall                 000000018001af3c f   libucrt:closeall.obj
 0001:00019ff0       __acrt_stdio_free_buffer_nolock 000000018001aff0 f   libucrt:_freebuf.obj
 0001:0001a030       _isatty                    000000018001b030 f   libucrt:isatty.obj
 0001:0001a090       _isleadbyte_l              000000018001b090 f i libucrt:_wctype.obj
 0001:0001a0dc       ?__mbrtowc_utf8@__crt_mbstring@@YA_KPEA_WPEBD_KPEAU_Mbstatet@@@Z 000000018001b0dc f   libucrt:mbrtowc.obj
 0001:0001a118       ?__mbsrtowcs_utf8@__crt_mbstring@@YA_KPEA_WPEAPEBD_KPEAU_Mbstatet@@@Z 000000018001b118 f   libucrt:mbrtowc.obj
 0001:0001a290       __acrt_locale_free_monetary 000000018001b290 f   libucrt:initmon.obj
 0001:0001a39c       __acrt_locale_free_numeric 000000018001b39c f   libucrt:initnum.obj
 0001:0001a460       __acrt_locale_free_time    000000018001b460 f   libucrt:inittime.obj
 0001:0001a568       __strncnt                  000000018001b568 f   libucrt:strncnt.obj
 0001:0001a580       __ascii_wcsnicmp           000000018001b580 f   libucrt:wcsnicmp.obj
 0001:0001a5cc       _query_app_type            000000018001b5cc f   libucrt:report_runtime_error.obj
 0001:0001a670       _lseeki64_nolock           000000018001b670 f   libucrt:lseek.obj
 0001:0001a678       _putwch_nolock             000000018001b678 f   libucrt:putwch.obj
 0001:0001a6b4       _fclose_nolock             000000018001b6b4 f   libucrt:fclose.obj
 0001:0001a738       fclose                     000000018001b738 f   libucrt:fclose.obj
 0001:0001a79c       ?__mbrtoc32_utf8@__crt_mbstring@@YA_KPEA_UPEBD_KPEAU_Mbstatet@@@Z 000000018001b79c f   libucrt:mbrtoc32.obj
 0001:0001a980       log10                      000000018001b980 f   libucrt:log10.obj
 0001:0001af2c       __dcrt_lowio_ensure_console_output_initialized 000000018001bf2c f   libucrt:initcon.obj
 0001:0001af80       __dcrt_terminate_console_output 000000018001bf80 f   libucrt:initcon.obj
 0001:0001af9c       __dcrt_write_console       000000018001bf9c f   libucrt:initcon.obj
 0001:0001b0d0       _close                     000000018001c0d0 f   libucrt:close.obj
 0001:0001b174       _close_nolock              000000018001c174 f   libucrt:close.obj
 0001:0001b234       ?__acrt_stdio_free_stream@@YAXV__crt_stdio_stream@@@Z 000000018001c234 f   libucrt:stream.obj
 0001:0001b374       _handle_error              000000018001c374 f   libucrt:libm_error.obj
 0001:0001b4a0       __acrt_initialize_fma3     000000018001c4a0 f   libucrt:fma3_available.obj
 0001:0001b510       _log10_special             000000018001c510 f   libucrt:log_special.obj
 0001:0001b5e0       _get_fpsr                  000000018001c5e0 f   libucrt:fpsr.obj
 0001:0001b5f0       _set_fpsr                  000000018001c5f0 f   libucrt:fpsr.obj
 0001:0001b5fa       _fclrf                     000000018001c5fa f   libucrt:fpsr.obj
 0001:0001b60e       _frnd                      000000018001c60e f   libucrt:fpsr.obj
 0001:0001b630       _raise_exc                 000000018001c630 f   libucrt:fpexcept.obj
 0001:0001b658       _raise_exc_ex              000000018001c658 f   libucrt:fpexcept.obj
 0001:0001b968       _set_errno_from_matherr    000000018001c968 f   libucrt:fpexcept.obj
 0001:0001b998       _clrfp                     000000018001c998 f   libucrt:fpctrl.obj
 0001:0001b9b8       _ctrlfp                    000000018001c9b8 f   libucrt:fpctrl.obj
 0001:0001ba34       _set_statfp                000000018001ca34 f   libucrt:fpctrl.obj
 0001:0001ba54       _statfp                    000000018001ca54 f   libucrt:fpctrl.obj
 0001:0001ba68       __GSHandlerCheck           000000018001ca68 f   LIBCMT:gshandler.obj
 0001:0001ba88       __GSHandlerCheckCommon     000000018001ca88 f   LIBCMT:gshandler.obj
 0001:0001baf0       _FindPESection             000000018001caf0 f   LIBCMT:pesect.obj
 0001:0001bb40       _IsNonwritableInCurrentImage 000000018001cb40 f   LIBCMT:pesect.obj
 0001:0001bb90       _ValidateImageBase         000000018001cb90 f   LIBCMT:pesect.obj
 0001:0001bbc0       __GSHandlerCheck_SEH       000000018001cbc0 f   LIBCMT:gshandlerseh.obj
 0001:0001bc60       _alloca_probe              000000018001cc60 f   LIBCMT:chkstk.obj
 0001:0001bc60       __chkstk                   000000018001cc60 f   LIBCMT:chkstk.obj
 0001:0001bcc0       memcmp                     000000018001ccc0 f   libvcruntime:memcmp.obj
 0001:0001bd88       __GSHandlerCheck_EH4       000000018001cd88 f   LIBCMT:gshandlereh4.obj
 0001:0001be20       _guard_dispatch_icall_nop  000000018001ce20 f   LIBCMT:guard_dispatch.obj
 0001:0001be40       _guard_xfg_dispatch_icall_nop 000000018001ce40 f   LIBCMT:guard_xfg_dispatch.obj
 0002:00000000       __imp_RegOpenKeyExW        000000018001e000     advapi32:ADVAPI32.dll
 0002:00000008       __imp_RegCloseKey          000000018001e008     advapi32:ADVAPI32.dll
 0002:00000010       \177ADVAPI32_NULL_THUNK_DATA 000000018001e010     advapi32:ADVAPI32.dll
 0002:00000018       __imp_lstrlenW             000000018001e018     kernel32:KERNEL32.dll
 0002:00000020       __imp_GetLogicalDrives     000000018001e020     kernel32:KERNEL32.dll
 0002:00000028       __imp_FindFirstFileW       000000018001e028     kernel32:KERNEL32.dll
 0002:00000030       __imp_SetLastError         000000018001e030     kernel32:KERNEL32.dll
 0002:00000038       __imp_lstrcpynW            000000018001e038     kernel32:KERNEL32.dll
 0002:00000040       __imp_ExpandEnvironmentStringsW 000000018001e040     kernel32:KERNEL32.dll
 0002:00000048       __imp_GetModuleFileNameW   000000018001e048     kernel32:KERNEL32.dll
 0002:00000050       __imp_FindClose            000000018001e050     kernel32:KERNEL32.dll
 0002:00000058       __imp_SetCurrentDirectoryW 000000018001e058     kernel32:KERNEL32.dll
 0002:00000060       __imp_GetLastError         000000018001e060     kernel32:KERNEL32.dll
 0002:00000068       __imp_lstrcatW             000000018001e068     kernel32:KERNEL32.dll
 0002:00000070       __imp_LocalFree            000000018001e070     kernel32:KERNEL32.dll
 0002:00000078       __imp_GetComputerNameW     000000018001e078     kernel32:KERNEL32.dll
 0002:00000080       __imp_lstrcpyW             000000018001e080     kernel32:KERNEL32.dll
 0002:00000088       __imp_lstrcmpiW            000000018001e088     kernel32:KERNEL32.dll
 0002:00000090       __imp_lstrcmpW             000000018001e090     kernel32:KERNEL32.dll
 0002:00000098       __imp_WriteConsoleW        000000018001e098     kernel32:KERNEL32.dll
 0002:000000a0       __imp_GetCurrentDirectoryW 000000018001e0a0     kernel32:KERNEL32.dll
 0002:000000a8       __imp_LocalAlloc           000000018001e0a8     kernel32:KERNEL32.dll
 0002:000000b0       __imp_GetSystemDirectoryW  000000018001e0b0     kernel32:KERNEL32.dll
 0002:000000b8       __imp_CloseHandle          000000018001e0b8     kernel32:KERNEL32.dll
 0002:000000c0       __imp_CreateFileW          000000018001e0c0     kernel32:KERNEL32.dll
 0002:000000c8       __imp_SetFilePointerEx     000000018001e0c8     kernel32:KERNEL32.dll
 0002:000000d0       __imp_GetConsoleMode       000000018001e0d0     kernel32:KERNEL32.dll
 0002:000000d8       __imp_GetConsoleCP         000000018001e0d8     kernel32:KERNEL32.dll
 0002:000000e0       __imp_WriteFile            000000018001e0e0     kernel32:KERNEL32.dll
 0002:000000e8       __imp_FlushFileBuffers     000000018001e0e8     kernel32:KERNEL32.dll
 0002:000000f0       __imp_SetStdHandle         000000018001e0f0     kernel32:KERNEL32.dll
 0002:000000f8       __imp_HeapSize             000000018001e0f8     kernel32:KERNEL32.dll
 0002:00000100       __imp_GetStringTypeW       000000018001e100     kernel32:KERNEL32.dll
 0002:00000108       __imp_RtlCaptureContext    000000018001e108     kernel32:KERNEL32.dll
 0002:00000110       __imp_RtlLookupFunctionEntry 000000018001e110     kernel32:KERNEL32.dll
 0002:00000118       __imp_RtlVirtualUnwind     000000018001e118     kernel32:KERNEL32.dll
 0002:00000120       __imp_UnhandledExceptionFilter 000000018001e120     kernel32:KERNEL32.dll
 0002:00000128       __imp_SetUnhandledExceptionFilter 000000018001e128     kernel32:KERNEL32.dll
 0002:00000130       __imp_GetCurrentProcess    000000018001e130     kernel32:KERNEL32.dll
 0002:00000138       __imp_TerminateProcess     000000018001e138     kernel32:KERNEL32.dll
 0002:00000140       __imp_IsProcessorFeaturePresent 000000018001e140     kernel32:KERNEL32.dll
 0002:00000148       __imp_IsDebuggerPresent    000000018001e148     kernel32:KERNEL32.dll
 0002:00000150       __imp_GetStartupInfoW      000000018001e150     kernel32:KERNEL32.dll
 0002:00000158       __imp_GetModuleHandleW     000000018001e158     kernel32:KERNEL32.dll
 0002:00000160       __imp_QueryPerformanceCounter 000000018001e160     kernel32:KERNEL32.dll
 0002:00000168       __imp_GetCurrentProcessId  000000018001e168     kernel32:KERNEL32.dll
 0002:00000170       __imp_GetCurrentThreadId   000000018001e170     kernel32:KERNEL32.dll
 0002:00000178       __imp_GetSystemTimeAsFileTime 000000018001e178     kernel32:KERNEL32.dll
 0002:00000180       __imp_InitializeSListHead  000000018001e180     kernel32:KERNEL32.dll
 0002:00000188       __imp_RtlUnwindEx          000000018001e188     kernel32:KERNEL32.dll
 0002:00000190       __imp_RtlPcToFileHeader    000000018001e190     kernel32:KERNEL32.dll
 0002:00000198       __imp_RaiseException       000000018001e198     kernel32:KERNEL32.dll
 0002:000001a0       __imp_InterlockedFlushSList 000000018001e1a0     kernel32:KERNEL32.dll
 0002:000001a8       __imp_EncodePointer        000000018001e1a8     kernel32:KERNEL32.dll
 0002:000001b0       __imp_EnterCriticalSection 000000018001e1b0     kernel32:KERNEL32.dll
 0002:000001b8       __imp_LeaveCriticalSection 000000018001e1b8     kernel32:KERNEL32.dll
 0002:000001c0       __imp_DeleteCriticalSection 000000018001e1c0     kernel32:KERNEL32.dll
 0002:000001c8       __imp_InitializeCriticalSectionAndSpinCount 000000018001e1c8     kernel32:KERNEL32.dll
 0002:000001d0       __imp_TlsAlloc             000000018001e1d0     kernel32:KERNEL32.dll
 0002:000001d8       __imp_TlsGetValue          000000018001e1d8     kernel32:KERNEL32.dll
 0002:000001e0       __imp_TlsSetValue          000000018001e1e0     kernel32:KERNEL32.dll
 0002:000001e8       __imp_TlsFree              000000018001e1e8     kernel32:KERNEL32.dll
 0002:000001f0       __imp_FreeLibrary          000000018001e1f0     kernel32:KERNEL32.dll
 0002:000001f8       __imp_GetProcAddress       000000018001e1f8     kernel32:KERNEL32.dll
 0002:00000200       __imp_LoadLibraryExW       000000018001e200     kernel32:KERNEL32.dll
 0002:00000208       __imp_ExitProcess          000000018001e208     kernel32:KERNEL32.dll
 0002:00000210       __imp_GetModuleHandleExW   000000018001e210     kernel32:KERNEL32.dll
 0002:00000218       __imp_HeapReAlloc          000000018001e218     kernel32:KERNEL32.dll
 0002:00000220       __imp_HeapFree             000000018001e220     kernel32:KERNEL32.dll
 0002:00000228       __imp_HeapAlloc            000000018001e228     kernel32:KERNEL32.dll
 0002:00000230       __imp_FindFirstFileExW     000000018001e230     kernel32:KERNEL32.dll
 0002:00000238       __imp_FindNextFileW        000000018001e238     kernel32:KERNEL32.dll
 0002:00000240       __imp_IsValidCodePage      000000018001e240     kernel32:KERNEL32.dll
 0002:00000248       __imp_GetACP               000000018001e248     kernel32:KERNEL32.dll
 0002:00000250       __imp_GetOEMCP             000000018001e250     kernel32:KERNEL32.dll
 0002:00000258       __imp_GetCPInfo            000000018001e258     kernel32:KERNEL32.dll
 0002:00000260       __imp_GetCommandLineA      000000018001e260     kernel32:KERNEL32.dll
 0002:00000268       __imp_GetCommandLineW      000000018001e268     kernel32:KERNEL32.dll
 0002:00000270       __imp_MultiByteToWideChar  000000018001e270     kernel32:KERNEL32.dll
 0002:00000278       __imp_WideCharToMultiByte  000000018001e278     kernel32:KERNEL32.dll
 0002:00000280       __imp_GetEnvironmentStringsW 000000018001e280     kernel32:KERNEL32.dll
 0002:00000288       __imp_FreeEnvironmentStringsW 000000018001e288     kernel32:KERNEL32.dll
 0002:00000290       __imp_LCMapStringW         000000018001e290     kernel32:KERNEL32.dll
 0002:00000298       __imp_GetProcessHeap       000000018001e298     kernel32:KERNEL32.dll
 0002:000002a0       __imp_GetStdHandle         000000018001e2a0     kernel32:KERNEL32.dll
 0002:000002a8       __imp_GetFileType          000000018001e2a8     kernel32:KERNEL32.dll
 0002:000002b0       \177KERNEL32_NULL_THUNK_DATA 000000018001e2b0     kernel32:KERNEL32.dll
 0002:000002b8       __imp_WNetGetResourceParentW 000000018001e2b8     mpr:MPR.dll
 0002:000002c0       __imp_WNetAddConnection2W  000000018001e2c0     mpr:MPR.dll
 0002:000002c8       __imp_WNetCancelConnection2W 000000018001e2c8     mpr:MPR.dll
 0002:000002d0       __imp_WNetGetResourceInformationW 000000018001e2d0     mpr:MPR.dll
 0002:000002d8       __imp_WNetCloseEnum        000000018001e2d8     mpr:MPR.dll
 0002:000002e0       __imp_WNetEnumResourceW    000000018001e2e0     mpr:MPR.dll
 0002:000002e8       __imp_WNetOpenEnumW        000000018001e2e8     mpr:MPR.dll
 0002:000002f0       \177MPR_NULL_THUNK_DATA    000000018001e2f0     mpr:MPR.dll
 0002:000002f8       __imp_NetApiBufferFree     000000018001e2f8     netapi32:NETAPI32.dll
 0002:00000300       __imp_NetShareEnum         000000018001e300     netapi32:NETAPI32.dll
 0002:00000308       \177NETAPI32_NULL_THUNK_DATA 000000018001e308     netapi32:NETAPI32.dll
 0002:00000310       __imp_CharUpperW           000000018001e310     user32:USER32.dll
 0002:00000318       __imp_CharUpperBuffW       000000018001e318     user32:USER32.dll
 0002:00000320       \177USER32_NULL_THUNK_DATA 000000018001e320     user32:USER32.dll
 0002:00000328       __guard_check_icall_fptr   000000018001e328     LIBCMT:guard_support.obj
 0002:00000330       __guard_xfg_check_icall_fptr 000000018001e330     LIBCMT:guard_support.obj
 0002:00000338       __guard_dispatch_icall_fptr 000000018001e338     LIBCMT:guard_support.obj
 0002:00000340       __guard_xfg_dispatch_icall_fptr 000000018001e340     LIBCMT:guard_support.obj
 0002:00000348       __guard_xfg_table_dispatch_icall_fptr 000000018001e348     LIBCMT:guard_support.obj
 0002:00000350       __xc_a                     000000018001e350     LIBCMT:initializers.obj
 0002:00000360       __xc_z                     000000018001e360     LIBCMT:initializers.obj
 0002:00000368       __xi_a                     000000018001e368     LIBCMT:initializers.obj
 0002:00000370       __acrt_multibyte_initializer 000000018001e370     libucrt:multibyte_initializer.obj
 0002:00000378       __acrt_stdio_initializer   000000018001e378     libucrt:stdio_initializer.obj
 0002:00000380       __acrt_tran_fma3_initializer 000000018001e380     libucrt:fma3_initializer.obj
 0002:00000388       __xi_z                     000000018001e388     LIBCMT:initializers.obj
 0002:00000390       __xp_a                     000000018001e390     LIBCMT:initializers.obj
 0002:00000398       __acrt_locale_terminator   000000018001e398     libucrt:locale_initializer.obj
 0002:000003a0       __dcrt_console_output_terminator 000000018001e3a0     libucrt:console_output_initializer.obj
 0002:000003a8       __acrt_stdio_terminator    000000018001e3a8     libucrt:stdio_initializer.obj
 0002:000003b0       __xp_z                     000000018001e3b0     LIBCMT:initializers.obj
 0002:000003b8       __xt_a                     000000018001e3b8     LIBCMT:initializers.obj
 0002:000003c0       __xt_z                     000000018001e3c0     LIBCMT:initializers.obj
 0002:000003d8       ??_7exception@std@@6B@     000000018001e3d8     libcpmt:xthrow.obj
 0002:000003f0       ??_7bad_alloc@std@@6B@     000000018001e3f0     libcpmt:xthrow.obj
 0002:00000400       ??_C@_0P@GHFPNOJB@bad?5allocation@ 000000018001e400     libcpmt:xthrow.obj
 0002:00000418       ??_7logic_error@std@@6B@   000000018001e418     libcpmt:xthrow.obj
 0002:00000430       ??_7length_error@std@@6B@  000000018001e430     libcpmt:xthrow.obj
 0002:00000448       ??_7out_of_range@std@@6B@  000000018001e448     libcpmt:xthrow.obj
 0002:00000470       ??_7type_info@@6B@         000000018001e470     LIBCMT:std_type_info_static.obj
 0002:00000478       _pRawDllMain               000000018001e478     LIBCMT:dll_dllmain.obj
 0002:00000478       _pDefaultRawDllMain        000000018001e478     LIBCMT:dll_dllmain.obj
 0002:00000488       ??_7bad_array_new_length@std@@6B@ 000000018001e488     LIBCMT:throw_bad_alloc.obj
 0002:00000498       ?s_negLengthTab@FH4@@3QBCB 000000018001e498     libvcruntime:risctrnsctrl.obj
 0002:000004a8       ?s_shiftTab@FH4@@3QBEB     000000018001e4a8     libvcruntime:risctrnsctrl.obj
 0002:00000558       _pDestructExceptionObject  000000018001e558     libvcruntime:ehhelpers.obj
 0002:00000568       ??_7bad_exception@std@@6B@ 000000018001e568     libvcruntime:frame.obj
 0002:00000578       ??_C@_0O@DPKOEFFH@bad?5exception@ 000000018001e578     libvcruntime:frame.obj
 0002:00000c90       ??_C@_08EHJDFFNH@__based?$CI@ 000000018001ec90     libvcruntime:undname.obj
 0002:00000ca0       ??_C@_07KOLFKCDI@__cdecl@  000000018001eca0     libvcruntime:undname.obj
 0002:00000ca8       ??_C@_08GHMPAG@__pascal@   000000018001eca8     libvcruntime:undname.obj
 0002:00000cb8       ??_C@_09IFJBGAPI@__stdcall@ 000000018001ecb8     libvcruntime:undname.obj
 0002:00000cc8       ??_C@_0L@NPHFGOKO@__thiscall@ 000000018001ecc8     libvcruntime:undname.obj
 0002:00000cd8       ??_C@_0L@JMKHOMEK@__fastcall@ 000000018001ecd8     libvcruntime:undname.obj
 0002:00000ce8       ??_C@_0N@BCKKPABJ@__vectorcall@ 000000018001ece8     libvcruntime:undname.obj
 0002:00000cf8       ??_C@_09HIJEGCPM@__clrcall@ 000000018001ecf8     libvcruntime:undname.obj
 0002:00000d04       ??_C@_06GHPCKEAG@__eabi@   000000018001ed04     libvcruntime:undname.obj
 0002:00000d10       ??_C@_09IOPIDJLG@__swift_1@ 000000018001ed10     libvcruntime:undname.obj
 0002:00000d20       ??_C@_09KFNFGKHF@__swift_2@ 000000018001ed20     libvcruntime:undname.obj
 0002:00000d30       ??_C@_07JOMMBBKO@__ptr64@  000000018001ed30     libvcruntime:undname.obj
 0002:00000d38       ??_C@_0L@PILCLIHE@__restrict@ 000000018001ed38     libvcruntime:undname.obj
 0002:00000d48       ??_C@_0M@GFIIJFMG@__unaligned@ 000000018001ed48     libvcruntime:undname.obj
 0002:00000d58       ??_C@_09DHDLOLLB@restrict?$CI@ 000000018001ed58     libvcruntime:undname.obj
 0002:00000d62       ??_C@_00CNPNBAHC@@         000000018001ed62     libvcruntime:undname.obj
 0002:00000d64       ??_C@_04NIHEBCM@?5new@     000000018001ed64     libvcruntime:undname.obj
 0002:00000d70       ??_C@_07FPCDHGMM@?5delete@ 000000018001ed70     libvcruntime:undname.obj
 0002:00000d78       ??_C@_01NEMOKFLO@?$DN@     000000018001ed78     libvcruntime:undname.obj
 0002:00000d7c       ??_C@_02GPIOPFAK@?$DO?$DO@ 000000018001ed7c     libvcruntime:undname.obj
 0002:00000d80       ??_C@_02FODMEDOG@?$DM?$DM@ 000000018001ed80     libvcruntime:undname.obj
 0002:00000d84       ??_C@_01DCLJPIOD@?$CB@     000000018001ed84     libvcruntime:undname.obj
 0002:00000d88       ??_C@_02EGOFBIJA@?$DN?$DN@ 000000018001ed88     libvcruntime:undname.obj
 0002:00000d8c       ??_C@_02FDNJECIE@?$CB?$DN@ 000000018001ed8c     libvcruntime:undname.obj
 0002:00000d90       ??_C@_02GPECMEKF@?$FL?$FN@ 000000018001ed90     libvcruntime:undname.obj
 0002:00000d98       ??_C@_08LHJFAFGD@operator@ 000000018001ed98     libvcruntime:undname.obj
 0002:00000da4       ??_C@_02HBOOOICD@?9?$DO@   000000018001eda4     libvcruntime:undname.obj
 0002:00000da8       ??_C@_01NBENCBCI@?$CK@     000000018001eda8     libvcruntime:undname.obj
 0002:00000dac       ??_C@_02ECNGHCIF@?$CL?$CL@ 000000018001edac     libvcruntime:undname.obj
 0002:00000db0       ??_C@_02BAABKJLB@?9?9@     000000018001edb0     libvcruntime:undname.obj
 0002:00000db4       ??_C@_01JOAMLHOP@?9@       000000018001edb4     libvcruntime:undname.obj
 0002:00000db8       ??_C@_01MIFGBAGJ@?$CL@     000000018001edb8     libvcruntime:undname.obj
 0002:00000dbc       ??_C@_01HNPIGOCE@?$CG@     000000018001edbc     libvcruntime:undname.obj
 0002:00000dc0       ??_C@_03MNHNFDLC@?9?$DO?$CK@ 000000018001edc0     libvcruntime:undname.obj
 0002:00000dc4       ??_C@_01KMDKNFGN@?1@       000000018001edc4     libvcruntime:undname.obj
 0002:00000dc8       ??_C@_01FGNFDNOH@?$CF@     000000018001edc8     libvcruntime:undname.obj
 0002:00000dcc       ??_C@_01MNNFJEPP@?$DM@     000000018001edcc     libvcruntime:undname.obj
 0002:00000dd0       ??_C@_02EHCHHCKH@?$DM?$DN@ 000000018001edd0     libvcruntime:undname.obj
 0002:00000dd4       ??_C@_01PPODPGHN@?$DO@     000000018001edd4     libvcruntime:undname.obj
 0002:00000dd8       ??_C@_02EEKDKGMJ@?$DO?$DN@ 000000018001edd8     libvcruntime:undname.obj
 0002:00000ddc       ??_C@_01IHBHIGKO@?0@       000000018001eddc     libvcruntime:undname.obj
 0002:00000de0       ??_C@_02HCKGKOFO@?$CI?$CJ@ 000000018001ede0     libvcruntime:undname.obj
 0002:00000de4       ??_C@_01PJKLJHI@?$HO@      000000018001ede4     libvcruntime:undname.obj
 0002:00000de8       ??_C@_01JKBOJNNK@?$FO@     000000018001ede8     libvcruntime:undname.obj
 0002:00000dec       ??_C@_01DNKMNLPK@?$HM@     000000018001edec     libvcruntime:undname.obj
 0002:00000df0       ??_C@_02PPKAJPJL@?$CG?$CG@ 000000018001edf0     libvcruntime:undname.obj
 0002:00000df4       ??_C@_02NONPIBCD@?$HM?$HM@ 000000018001edf4     libvcruntime:undname.obj
 0002:00000df8       ??_C@_02FPIMKNGF@?$CK?$DN@ 000000018001edf8     libvcruntime:undname.obj
 0002:00000dfc       ??_C@_02FOEOMHFC@?$CL?$DN@ 000000018001edfc     libvcruntime:undname.obj
 0002:00000e00       ??_C@_02FKMDLLOA@?9?$DN@   000000018001ee00     libvcruntime:undname.obj
 0002:00000e04       ??_C@_02FJEHGPIO@?1?$DN@   000000018001ee04     libvcruntime:undname.obj
 0002:00000e08       ??_C@_02FENAOKFI@?$CF?$DN@ 000000018001ee08     libvcruntime:undname.obj
 0002:00000e0c       ??_C@_03IKFCCPFF@?$DO?$DO?$DN@ 000000018001ee0c     libvcruntime:undname.obj
 0002:00000e10       ??_C@_03CDNPDDLA@?$DM?$DM?$DN@ 000000018001ee10     libvcruntime:undname.obj
 0002:00000e14       ??_C@_02FGJGFEAB@?$CG?$DN@ 000000018001ee14     libvcruntime:undname.obj
 0002:00000e18       ??_C@_02DHLNPPGH@?$HM?$DN@ 000000018001ee18     libvcruntime:undname.obj
 0002:00000e1c       ??_C@_02MHEGNOJ@?$FO?$DN@  000000018001ee1c     libvcruntime:undname.obj
 0002:00000e20       ??_C@_09IFPLHPGF@?$GAvftable?8@ 000000018001ee20     libvcruntime:undname.obj
 0002:00000e30       ??_C@_09BLBHBJP@?$GAvbtable?8@ 000000018001ee30     libvcruntime:undname.obj
 0002:00000e40       ??_C@_07FEEIOKP@?$GAvcall?8@ 000000018001ee40     libvcruntime:undname.obj
 0002:00000e48       ??_C@_08LLFFHHDJ@?$GAtypeof?8@ 000000018001ee48     libvcruntime:undname.obj
 0002:00000e58       ??_C@_0BF@KDPPACIK@?$GAlocal?5static?5guard?8@ 000000018001ee58     libvcruntime:undname.obj
 0002:00000e70       ??_C@_08OBABFOLI@?$GAstring?8@ 000000018001ee70     libvcruntime:undname.obj
 0002:00000e80       ??_C@_0BD@JDLKDPAB@?$GAvbase?5destructor?8@ 000000018001ee80     libvcruntime:undname.obj
 0002:00000e98       ??_C@_0BN@DEGPLNFK@?$GAvector?5deleting?5destructor?8@ 000000018001ee98     libvcruntime:undname.obj
 0002:00000eb8       ??_C@_0BO@OBMKPJIG@?$GAdefault?5constructor?5closure?8@ 000000018001eeb8     libvcruntime:undname.obj
 0002:00000ed8       ??_C@_0BN@IMDCHIKM@?$GAscalar?5deleting?5destructor?8@ 000000018001eed8     libvcruntime:undname.obj
 0002:00000ef8       ??_C@_0BO@PFGOCPJJ@?$GAvector?5constructor?5iterator?8@ 000000018001eef8     libvcruntime:undname.obj
 0002:00000f18       ??_C@_0BN@LFPFMEDL@?$GAvector?5destructor?5iterator?8@ 000000018001ef18     libvcruntime:undname.obj
 0002:00000f38       ??_C@_0CE@IKBNEHA@?$GAvector?5vbase?5constructor?5itera@ 000000018001ef38     libvcruntime:undname.obj
 0002:00000f60       ??_C@_0BL@NILFHHPC@?$GAvirtual?5displacement?5map?8@ 000000018001ef60     libvcruntime:undname.obj
 0002:00000f80       ??_C@_0CB@JONCMFFK@?$GAeh?5vector?5constructor?5iterator@ 000000018001ef80     libvcruntime:undname.obj
 0002:00000fa8       ??_C@_0CA@GCEOPDGL@?$GAeh?5vector?5destructor?5iterator?8@ 000000018001efa8     libvcruntime:undname.obj
 0002:00000fc8       ??_C@_0CH@OOJPLCPH@?$GAeh?5vector?5vbase?5constructor?5it@ 000000018001efc8     libvcruntime:undname.obj
 0002:00000ff0       ??_C@_0BL@LLKPOHJI@?$GAcopy?5constructor?5closure?8@ 000000018001eff0     libvcruntime:undname.obj
 0002:00001010       ??_C@_0BA@KBCDOMBN@?$GAudt?5returning?8@ 000000018001f010     libvcruntime:undname.obj
 0002:00001020       ??_C@_03KLGMFNMG@?$GAEH@   000000018001f020     libvcruntime:undname.obj
 0002:00001024       ??_C@_05KHLCHHI@?$GARTTI@  000000018001f024     libvcruntime:undname.obj
 0002:00001030       ??_C@_0BA@KKLDJDLB@?$GAlocal?5vftable?8@ 000000018001f030     libvcruntime:undname.obj
 0002:00001040       ??_C@_0CE@IIHCMGGL@?$GAlocal?5vftable?5constructor?5clos@ 000000018001f040     libvcruntime:undname.obj
 0002:00001064       ??_C@_06FHBGPFGH@?5new?$FL?$FN@ 000000018001f064     libvcruntime:undname.obj
 0002:00001070       ??_C@_09LBNFPBCA@?5delete?$FL?$FN@ 000000018001f070     libvcruntime:undname.obj
 0002:00001080       ??_C@_0P@HJKNJFNN@?$GAomni?5callsig?8@ 000000018001f080     libvcruntime:undname.obj
 0002:00001090       ??_C@_0BL@CNOONJFP@?$GAplacement?5delete?5closure?8@ 000000018001f090     libvcruntime:undname.obj
 0002:000010b0       ??_C@_0BN@CKNJLHMB@?$GAplacement?5delete?$FL?$FN?5closure?8@ 000000018001f0b0     libvcruntime:undname.obj
 0002:000010d0       ??_C@_0CG@CFDHKGGD@?$GAmanaged?5vector?5constructor?5ite@ 000000018001f0d0     libvcruntime:undname.obj
 0002:000010f8       ??_C@_0CF@IMGKMJNO@?$GAmanaged?5vector?5destructor?5iter@ 000000018001f0f8     libvcruntime:undname.obj
 0002:00001120       ??_C@_0CG@HLDDJMAG@?$GAeh?5vector?5copy?5constructor?5ite@ 000000018001f120     libvcruntime:undname.obj
 0002:00001148       ??_C@_0CM@FCBBDIGB@?$GAeh?5vector?5vbase?5copy?5construct@ 000000018001f148     libvcruntime:undname.obj
 0002:00001178       ??_C@_0BL@CLIPGLGB@?$GAdynamic?5initializer?5for?5?8@ 000000018001f178     libvcruntime:undname.obj
 0002:00001198       ??_C@_0CB@PDBIFEP@?$GAdynamic?5atexit?5destructor?5for?5@ 000000018001f198     libvcruntime:undname.obj
 0002:000011c0       ??_C@_0CD@CGAJBKEJ@?$GAvector?5copy?5constructor?5iterat@ 000000018001f1c0     libvcruntime:undname.obj
 0002:000011e8       ??_C@_0CJ@GJELGAMM@?$GAvector?5vbase?5copy?5constructor?5@ 000000018001f1e8     libvcruntime:undname.obj
 0002:00001218       ??_C@_0CL@FGIJHLCE@?$GAmanaged?5vector?5copy?5constructo@ 000000018001f218     libvcruntime:undname.obj
 0002:00001248       ??_C@_0BM@PMGGMLDN@?$GAlocal?5static?5thread?5guard?8@ 000000018001f248     libvcruntime:undname.obj
 0002:00001268       ??_C@_0N@BDNMDMOL@operator?5?$CC?$CC?5@ 000000018001f268     libvcruntime:undname.obj
 0002:00001278       ??_C@_0BC@GGEBGALA@operator?5co_await@ 000000018001f278     libvcruntime:undname.obj
 0002:00001290       ??_C@_0M@GAAIMMOH@operator?$DM?$DN?$DO@ 000000018001f290     libvcruntime:undname.obj
 0002:000012a0       ??_C@_0BC@DAFEJGAK@?5Type?5Descriptor?8@ 000000018001f2a0     libvcruntime:undname.obj
 0002:000012b8       ??_C@_0BM@LDKODKLH@?5Base?5Class?5Descriptor?5at?5?$CI@ 000000018001f2b8     libvcruntime:undname.obj
 0002:000012d8       ??_C@_0BD@LGICGFMM@?5Base?5Class?5Array?8@ 000000018001f2d8     libvcruntime:undname.obj
 0002:000012f0       ??_C@_0BN@MECKDCOJ@?5Class?5Hierarchy?5Descriptor?8@ 000000018001f2f0     libvcruntime:undname.obj
 0002:00001310       ??_C@_0BK@CFCOFLF@?5Complete?5Object?5Locator?8@ 000000018001f310     libvcruntime:undname.obj
 0002:00001330       ??_C@_0BG@JNJLAMPM@?$GAanonymous?5namespace?8@ 000000018001f330     libvcruntime:undname.obj
 0002:00001360       ??_C@_1DM@KHCHBNEB@?$AAa?$AAp?$AAi?$AA?9?$AAm?$AAs?$AA?9?$AAw?$AAi?$AAn?$AA?9?$AAc?$AAo?$AAr?$AAe@ 000000018001f360     libvcruntime:winapi_downlevel.obj
 0002:000013a0       ??_C@_1DK@LPPGFMPP@?$AAa?$AAp?$AAi?$AA?9?$AAm?$AAs?$AA?9?$AAw?$AAi?$AAn?$AA?9?$AAc?$AAo?$AAr?$AAe@ 000000018001f3a0     libvcruntime:winapi_downlevel.obj
 0002:000013e0       ??_C@_1BC@GDMECMAK@?$AAk?$AAe?$AAr?$AAn?$AAe?$AAl?$AA3?$AA2@ 000000018001f3e0     libvcruntime:winapi_downlevel.obj
 0002:000013f8       ??_C@_1BA@PFFKHIOG@?$AAa?$AAp?$AAi?$AA?9?$AAm?$AAs?$AA?9@ 000000018001f3f8     libvcruntime:winapi_downlevel.obj
 0002:00001410       ??_C@_08KNHFBNJ@FlsAlloc@  000000018001f410     libvcruntime:winapi_downlevel.obj
 0002:00001428       ??_C@_07PEJMOBNF@FlsFree@  000000018001f428     libvcruntime:winapi_downlevel.obj
 0002:00001438       ??_C@_0M@GDNOONDI@FlsGetValue@ 000000018001f438     libvcruntime:winapi_downlevel.obj
 0002:00001450       ??_C@_0M@JCPCPOEF@FlsSetValue@ 000000018001f450     libvcruntime:winapi_downlevel.obj
 0002:00001468       ??_C@_0BM@HCFOFFN@InitializeCriticalSectionEx@ 000000018001f468     libvcruntime:winapi_downlevel.obj
 0002:00001490       __acrt_exception_action_table 000000018001f490     libucrt:exception_filter.obj
 0002:00001550       __acrt_signal_action_table_count 000000018001f550     libucrt:exception_filter.obj
 0002:00001558       __acrt_signal_action_first_fpe_index 000000018001f558     libucrt:exception_filter.obj
 0002:00001560       __acrt_signal_action_fpe_count 000000018001f560     libucrt:exception_filter.obj
 0002:00001568       ??_C@_1BI@BGOHAHKC@?$AAm?$AAs?$AAc?$AAo?$AAr?$AAe?$AAe?$AA?4?$AAd?$AAl?$AAl@ 000000018001f568     libucrt:exit.obj
 0002:00001580       ??_C@_0P@MIGLKIOC@CorExitProcess@ 000000018001f580     libucrt:exit.obj
 0002:00001818       ??_C@_1M@HPNHIDJI@?$AAj?$AAa?$AA?9?$AAJ?$AAP@ 000000018001f818     libucrt:mbctype.obj
 0002:00001828       ??_C@_1M@BIBDDEMK@?$AAz?$AAh?$AA?9?$AAC?$AAN@ 000000018001f828     libucrt:mbctype.obj
 0002:00001838       ??_C@_1M@JLOOOEGK@?$AAk?$AAo?$AA?9?$AAK?$AAR@ 000000018001f838     libucrt:mbctype.obj
 0002:00001848       ??_C@_1M@CLNBBOPM@?$AAz?$AAh?$AA?9?$AAT?$AAW@ 000000018001f848     libucrt:mbctype.obj
 0002:00001900       ??_C@_1EA@JGEFHKEI@?$AAa?$AAp?$AAi?$AA?9?$AAm?$AAs?$AA?9?$AAw?$AAi?$AAn?$AA?9?$AAc?$AAo?$AAr?$AAe@ 000000018001f900     libucrt:winapi_thunks.obj
 0002:00001940       ??_C@_1DI@IJCEHOCB@?$AAa?$AAp?$AAi?$AA?9?$AAm?$AAs?$AA?9?$AAw?$AAi?$AAn?$AA?9?$AAc?$AAo?$AAr?$AAe@ 000000018001f940     libucrt:winapi_thunks.obj
 0002:00001980       ??_C@_1EI@MPIAOHOC@?$AAa?$AAp?$AAi?$AA?9?$AAm?$AAs?$AA?9?$AAw?$AAi?$AAn?$AA?9?$AAc?$AAo?$AAr?$AAe@ 000000018001f980     libucrt:winapi_thunks.obj
 0002:000019d0       ??_C@_1FK@FPHCKFIE@?$AAa?$AAp?$AAi?$AA?9?$AAm?$AAs?$AA?9?$AAw?$AAi?$AAn?$AA?9?$AAc?$AAo?$AAr?$AAe@ 000000018001f9d0     libucrt:winapi_thunks.obj
 0002:00001a30       ??_C@_1EM@DILCGIIO@?$AAa?$AAp?$AAi?$AA?9?$AAm?$AAs?$AA?9?$AAw?$AAi?$AAn?$AA?9?$AAc?$AAo?$AAr?$AAe@ 000000018001fa30     libucrt:winapi_thunks.obj
 0002:00001a80       ??_C@_1DM@LNCGDDPN@?$AAa?$AAp?$AAi?$AA?9?$AAm?$AAs?$AA?9?$AAw?$AAi?$AAn?$AA?9?$AAc?$AAo?$AAr?$AAe@ 000000018001fa80     libucrt:winapi_thunks.obj
 0002:00001ac0       ??_C@_1DO@FPAPJEMD@?$AAa?$AAp?$AAi?$AA?9?$AAm?$AAs?$AA?9?$AAw?$AAi?$AAn?$AA?9?$AAc?$AAo?$AAr?$AAe@ 000000018001fac0     libucrt:winapi_thunks.obj
 0002:00001b00       ??_C@_1DK@NDHNAHIO@?$AAa?$AAp?$AAi?$AA?9?$AAm?$AAs?$AA?9?$AAw?$AAi?$AAn?$AA?9?$AAc?$AAo?$AAr?$AAe@ 000000018001fb00     libucrt:winapi_thunks.obj
 0002:00001b40       ??_C@_1DM@KGHDGBCM@?$AAa?$AAp?$AAi?$AA?9?$AAm?$AAs?$AA?9?$AAw?$AAi?$AAn?$AA?9?$AAc?$AAo?$AAr?$AAe@ 000000018001fb40     libucrt:winapi_thunks.obj
 0002:00001b80       ??_C@_1EO@IJIOEFOH@?$AAa?$AAp?$AAi?$AA?9?$AAm?$AAs?$AA?9?$AAw?$AAi?$AAn?$AA?9?$AAr?$AAt?$AAc?$AAo@ 000000018001fb80     libucrt:winapi_thunks.obj
 0002:00001bd0       ??_C@_1FG@HHGEKANL@?$AAa?$AAp?$AAi?$AA?9?$AAm?$AAs?$AA?9?$AAw?$AAi?$AAn?$AA?9?$AAs?$AAe?$AAc?$AAu@ 000000018001fbd0     libucrt:winapi_thunks.obj
 0002:00001c30       ??_C@_1EG@DBIOJECG@?$AAe?$AAx?$AAt?$AA?9?$AAm?$AAs?$AA?9?$AAw?$AAi?$AAn?$AA?9?$AAn?$AAt?$AAu?$AAs@ 000000018001fc30     libucrt:winapi_thunks.obj
 0002:00001c80       ??_C@_1EO@FIHMJCLF@?$AAe?$AAx?$AAt?$AA?9?$AAm?$AAs?$AA?9?$AAw?$AAi?$AAn?$AA?9?$AAn?$AAt?$AAu?$AAs@ 000000018001fc80     libucrt:winapi_thunks.obj
 0002:00001cd0       ??_C@_1BC@DNHGCMLG@?$AAa?$AAd?$AAv?$AAa?$AAp?$AAi?$AA3?$AA2@ 000000018001fcd0     libucrt:winapi_thunks.obj
 0002:00001ce8       ??_C@_1M@OAIMIKLP@?$AAn?$AAt?$AAd?$AAl?$AAl@ 000000018001fce8     libucrt:winapi_thunks.obj
 0002:00001d00       ??_C@_1EG@DPGNFKGC@?$AAa?$AAp?$AAi?$AA?9?$AAm?$AAs?$AA?9?$AAw?$AAi?$AAn?$AA?9?$AAa?$AAp?$AAp?$AAm@ 000000018001fd00     libucrt:winapi_thunks.obj
 0002:00001d48       ??_C@_1O@BCCLBEOE@?$AAu?$AAs?$AAe?$AAr?$AA3?$AA2@ 000000018001fd48     libucrt:winapi_thunks.obj
 0002:00001d58       ??_C@_1BA@IAIFMGEF@?$AAe?$AAx?$AAt?$AA?9?$AAm?$AAs?$AA?9@ 000000018001fd58     libucrt:winapi_thunks.obj
 0002:00001d70       ??_C@_0BA@FHFNEAED@AreFileApisANSI@ 000000018001fd70     libucrt:winapi_thunks.obj
 0002:00001db0       ??_C@_0O@KKBNKAPF@LCMapStringEx@ 000000018001fdb0     libucrt:winapi_thunks.obj
 0002:00001dc8       ??_C@_0BB@HBDEELFH@LocaleNameToLCID@ 000000018001fdc8     libucrt:winapi_thunks.obj
 0002:00001de0       ??_C@_0CF@OJOFEIGO@AppPolicyGetProcessTerminationM@ 000000018001fde0     libucrt:winapi_thunks.obj
 0002:00001e10       __lc_time_c                000000018001fe10     libucrt:nlsdata.obj
 0002:000020d0       ??_C@_03KOEHGMDN@Sun@      00000001800200d0     libucrt:nlsdata.obj
 0002:000020d4       ??_C@_03PDAGKDH@Mon@       00000001800200d4     libucrt:nlsdata.obj
 0002:000020d8       ??_C@_03NAGEINEP@Tue@      00000001800200d8     libucrt:nlsdata.obj
 0002:000020dc       ??_C@_03MHOMLAJA@Wed@      00000001800200dc     libucrt:nlsdata.obj
 0002:000020e0       ??_C@_03IOFIKPDN@Thu@      00000001800200e0     libucrt:nlsdata.obj
 0002:000020e4       ??_C@_03IDIOELNC@Fri@      00000001800200e4     libucrt:nlsdata.obj
 0002:000020e8       ??_C@_03FEFJNEK@Sat@       00000001800200e8     libucrt:nlsdata.obj
 0002:000020ec       ??_C@_06OOPIFAJ@Sunday@    00000001800200ec     libucrt:nlsdata.obj
 0002:000020f4       ??_C@_06JLEDEDGH@Monday@   00000001800200f4     libucrt:nlsdata.obj
 0002:00002100       ??_C@_07BAAGCFCM@Tuesday@  0000000180020100     libucrt:nlsdata.obj
 0002:00002108       ??_C@_09DLIGFAKA@Wednesday@ 0000000180020108     libucrt:nlsdata.obj
 0002:00002118       ??_C@_08HACCIKIA@Thursday@ 0000000180020118     libucrt:nlsdata.obj
 0002:00002124       ??_C@_06JECMNKMI@Friday@   0000000180020124     libucrt:nlsdata.obj
 0002:00002130       ??_C@_08INBOOONO@Saturday@ 0000000180020130     libucrt:nlsdata.obj
 0002:0000213c       ??_C@_03JIHJHPIE@Jan@      000000018002013c     libucrt:nlsdata.obj
 0002:00002140       ??_C@_03HJBDCHOM@Feb@      0000000180020140     libucrt:nlsdata.obj
 0002:00002144       ??_C@_03ODNJBKGA@Mar@      0000000180020144     libucrt:nlsdata.obj
 0002:00002148       ??_C@_03LEOLGMJP@Apr@      0000000180020148     libucrt:nlsdata.obj
 0002:0000214c       ??_C@_03CNMDKL@May@        000000018002014c     libucrt:nlsdata.obj
 0002:00002150       ??_C@_03IDFGHECI@Jun@      0000000180020150     libucrt:nlsdata.obj
 0002:00002154       ??_C@_03LBGABGKK@Jul@      0000000180020154     libucrt:nlsdata.obj
 0002:00002158       ??_C@_03IFJFEIGA@Aug@      0000000180020158     libucrt:nlsdata.obj
 0002:0000215c       ??_C@_03GGCAPAJC@Sep@      000000018002015c     libucrt:nlsdata.obj
 0002:00002160       ??_C@_03BMAOKBAD@Oct@      0000000180020160     libucrt:nlsdata.obj
 0002:00002164       ??_C@_03JPJOFNIA@Nov@      0000000180020164     libucrt:nlsdata.obj
 0002:00002168       ??_C@_03MKABNOCG@Dec@      0000000180020168     libucrt:nlsdata.obj
 0002:00002170       ??_C@_07CGJPFGJA@January@  0000000180020170     libucrt:nlsdata.obj
 0002:00002178       ??_C@_08GNJGEPFN@February@ 0000000180020178     libucrt:nlsdata.obj
 0002:00002184       ??_C@_05HPCKOFNC@March@    0000000180020184     libucrt:nlsdata.obj
 0002:0000218c       ??_C@_05DMJDNLEJ@April@    000000018002018c     libucrt:nlsdata.obj
 0002:00002194       ??_C@_04CNLMGBGM@June@     0000000180020194     libucrt:nlsdata.obj
 0002:0000219c       ??_C@_04MIEPOIFP@July@     000000018002019c     libucrt:nlsdata.obj
 0002:000021a4       ??_C@_06LBBHFDDG@August@   00000001800201a4     libucrt:nlsdata.obj
 0002:000021b0       ??_C@_09BHHEALKD@September@ 00000001800201b0     libucrt:nlsdata.obj
 0002:000021c0       ??_C@_07JJNFCEND@October@  00000001800201c0     libucrt:nlsdata.obj
 0002:000021c8       ??_C@_08HCHEGEOA@November@ 00000001800201c8     libucrt:nlsdata.obj
 0002:000021d8       ??_C@_08EDHMEBNP@December@ 00000001800201d8     libucrt:nlsdata.obj
 0002:000021e4       ??_C@_02DEDBPAFC@AM@       00000001800201e4     libucrt:nlsdata.obj
 0002:000021e8       ??_C@_02CJNFDJBF@PM@       00000001800201e8     libucrt:nlsdata.obj
 0002:000021f0       ??_C@_08BPBNCDIB@MM?1dd?1yy@ 00000001800201f0     libucrt:nlsdata.obj
 0002:00002200       ??_C@_0BE@CKGJFCPC@dddd?0?5MMMM?5dd?0?5yyyy@ 0000000180020200     libucrt:nlsdata.obj
 0002:00002218       ??_C@_08JCCMCCIL@HH?3mm?3ss@ 0000000180020218     libucrt:nlsdata.obj
 0002:00002228       ??_C@_17MBGCMIPB@?$AAS?$AAu?$AAn@ 0000000180020228     libucrt:nlsdata.obj
 0002:00002230       ??_C@_17KBOMKBF@?$AAM?$AAo?$AAn@ 0000000180020230     libucrt:nlsdata.obj
 0002:00002238       ??_C@_17BMKGEGOJ@?$AAT?$AAu?$AAe@ 0000000180020238     libucrt:nlsdata.obj
 0002:00002240       ??_C@_17CJEDCEPE@?$AAW?$AAe?$AAd@ 0000000180020240     libucrt:nlsdata.obj
 0002:00002248       ??_C@_17PDPHAADD@?$AAT?$AAh?$AAu@ 0000000180020248     libucrt:nlsdata.obj
 0002:00002250       ??_C@_17HFOLPPLP@?$AAF?$AAr?$AAi@ 0000000180020250     libucrt:nlsdata.obj
 0002:00002258       ??_C@_17GGIBDPIH@?$AAS?$AAa?$AAt@ 0000000180020258     libucrt:nlsdata.obj
 0002:00002260       ??_C@_1O@IHNHDHPB@?$AAS?$AAu?$AAn?$AAd?$AAa?$AAy@ 0000000180020260     libucrt:nlsdata.obj
 0002:00002270       ??_C@_1O@MMNBFLIA@?$AAM?$AAo?$AAn?$AAd?$AAa?$AAy@ 0000000180020270     libucrt:nlsdata.obj
 0002:00002280       ??_C@_1BA@ENFBFFEK@?$AAT?$AAu?$AAe?$AAs?$AAd?$AAa?$AAy@ 0000000180020280     libucrt:nlsdata.obj
 0002:00002290       ??_C@_1BE@EBOGMDOH@?$AAW?$AAe?$AAd?$AAn?$AAe?$AAs?$AAd?$AAa?$AAy@ 0000000180020290     libucrt:nlsdata.obj
 0002:000022a8       ??_C@_1BC@HHMNLIHE@?$AAT?$AAh?$AAu?$AAr?$AAs?$AAd?$AAa?$AAy@ 00000001800202a8     libucrt:nlsdata.obj
 0002:000022c0       ??_C@_1O@PDICJHAG@?$AAF?$AAr?$AAi?$AAd?$AAa?$AAy@ 00000001800202c0     libucrt:nlsdata.obj
 0002:000022d0       ??_C@_1BC@ENMNNPAJ@?$AAS?$AAa?$AAt?$AAu?$AAr?$AAd?$AAa?$AAy@ 00000001800202d0     libucrt:nlsdata.obj
 0002:000022e8       ??_C@_17DKNBKCHM@?$AAJ?$AAa?$AAn@ 00000001800202e8     libucrt:nlsdata.obj
 0002:000022f0       ??_C@_17LMDJEKJN@?$AAF?$AAe?$AAb@ 00000001800202f0     libucrt:nlsdata.obj
 0002:000022f8       ??_C@_17CKNLEDEC@?$AAM?$AAa?$AAr@ 00000001800202f8     libucrt:nlsdata.obj
 0002:00002300       ??_C@_17LFPOIHDD@?$AAA?$AAp?$AAr@ 0000000180020300     libucrt:nlsdata.obj
 0002:00002308       ??_C@_17PNNKMEED@?$AAM?$AAa?$AAy@ 0000000180020308     libucrt:nlsdata.obj
 0002:00002310       ??_C@_17KCJGOCPB@?$AAJ?$AAu?$AAn@ 0000000180020310     libucrt:nlsdata.obj
 0002:00002318       ??_C@_17IJPCKHK@?$AAJ?$AAu?$AAl@ 0000000180020318     libucrt:nlsdata.obj
 0002:00002320       ??_C@_17ICPELBCN@?$AAA?$AAu?$AAg@ 0000000180020320     libucrt:nlsdata.obj
 0002:00002328       ??_C@_17HCHCOKMG@?$AAS?$AAe?$AAp@ 0000000180020328     libucrt:nlsdata.obj
 0002:00002330       ??_C@_17FNLKOI@?$AAO?$AAc?$AAt@ 0000000180020330     libucrt:nlsdata.obj
 0002:00002338       ??_C@_17BBDMLCIG@?$AAN?$AAo?$AAv@ 0000000180020338     libucrt:nlsdata.obj
 0002:00002340       ??_C@_17EGKACKIF@?$AAD?$AAe?$AAc@ 0000000180020340     libucrt:nlsdata.obj
 0002:00002348       ??_C@_1BA@EFMEIEBA@?$AAJ?$AAa?$AAn?$AAu?$AAa?$AAr?$AAy@ 0000000180020348     libucrt:nlsdata.obj
 0002:00002358       ??_C@_1BC@JGDDFFAM@?$AAF?$AAe?$AAb?$AAr?$AAu?$AAa?$AAr?$AAy@ 0000000180020358     libucrt:nlsdata.obj
 0002:00002370       ??_C@_1M@IKEENEDF@?$AAM?$AAa?$AAr?$AAc?$AAh@ 0000000180020370     libucrt:nlsdata.obj
 0002:00002380       ??_C@_1M@GJNLMHFD@?$AAA?$AAp?$AAr?$AAi?$AAl@ 0000000180020380     libucrt:nlsdata.obj
 0002:00002390       ??_C@_19EPFLPGAP@?$AAJ?$AAu?$AAn?$AAe@ 0000000180020390     libucrt:nlsdata.obj
 0002:000023a0       ??_C@_19BIFMLPCD@?$AAJ?$AAu?$AAl?$AAy@ 00000001800203a0     libucrt:nlsdata.obj
 0002:000023b0       ??_C@_1O@PAHLKOAC@?$AAA?$AAu?$AAg?$AAu?$AAs?$AAt@ 00000001800203b0     libucrt:nlsdata.obj
 0002:000023c0       ??_C@_1BE@DKAAMBJL@?$AAS?$AAe?$AAp?$AAt?$AAe?$AAm?$AAb?$AAe?$AAr@ 00000001800203c0     libucrt:nlsdata.obj
 0002:000023d8       ??_C@_1BA@EPANDLNG@?$AAO?$AAc?$AAt?$AAo?$AAb?$AAe?$AAr@ 00000001800203d8     libucrt:nlsdata.obj
 0002:000023e8       ??_C@_1BC@BGLIFPF@?$AAN?$AAo?$AAv?$AAe?$AAm?$AAb?$AAe?$AAr@ 00000001800203e8     libucrt:nlsdata.obj
 0002:00002400       ??_C@_1BC@FEMKIFH@?$AAD?$AAe?$AAc?$AAe?$AAm?$AAb?$AAe?$AAr@ 0000000180020400     libucrt:nlsdata.obj
 0002:00002414       ??_C@_15ODEHAHHF@?$AAA?$AAM@ 0000000180020414     libucrt:nlsdata.obj
 0002:0000241c       ??_C@_15CLMNNGEL@?$AAP?$AAM@ 000000018002041c     libucrt:nlsdata.obj
 0002:00002428       ??_C@_1BC@IEBCMHCM@?$AAM?$AAM?$AA?1?$AAd?$AAd?$AA?1?$AAy?$AAy@ 0000000180020428     libucrt:nlsdata.obj
 0002:00002440       ??_C@_1CI@KNAKOEBC@?$AAd?$AAd?$AAd?$AAd?$AA?0?$AA?5?$AAM?$AAM?$AAM?$AAM?$AA?5?$AAd?$AAd?$AA?0?$AA?5@ 0000000180020440     libucrt:nlsdata.obj
 0002:00002468       ??_C@_1BC@GDGBMEMK@?$AAH?$AAH?$AA?3?$AAm?$AAm?$AA?3?$AAs?$AAs@ 0000000180020468     libucrt:nlsdata.obj
 0002:00002480       ??_C@_1M@BMHNFIME@?$AAe?$AAn?$AA?9?$AAU?$AAS@ 0000000180020480     libucrt:nlsdata.obj
 0002:00002490       __newctype                 0000000180020490     libucrt:ctype.obj
 0002:00002790       __newclmap                 0000000180020790     libucrt:ctype.obj
 0002:00002910       __newcumap                 0000000180020910     libucrt:ctype.obj
 0002:000038d0       ??_C@_15EMKDOKLE@?$AAa?$AAr@ 00000001800218d0     libucrt:lcidtoname_downlevel.obj
 0002:000038d8       ??_C@_15KNPADPLH@?$AAb?$AAg@ 00000001800218d8     libucrt:lcidtoname_downlevel.obj
 0002:000038e0       ??_C@_15EDMHLDMO@?$AAc?$AAa@ 00000001800218e0     libucrt:lcidtoname_downlevel.obj
 0002:000038e8       ??_C@_1O@BPEAJADD@?$AAz?$AAh?$AA?9?$AAC?$AAH?$AAS@ 00000001800218e8     libucrt:lcidtoname_downlevel.obj
 0002:000038f8       ??_C@_15LJNHCMNK@?$AAc?$AAs@ 00000001800218f8     libucrt:lcidtoname_downlevel.obj
 0002:00003900       ??_C@_15FOMCIDHG@?$AAd?$AAa@ 0000000180021900     libucrt:lcidtoname_downlevel.obj
 0002:00003908       ??_C@_15NBKABECB@?$AAd?$AAe@ 0000000180021908     libucrt:lcidtoname_downlevel.obj
 0002:00003910       ??_C@_15GHPEIIAO@?$AAe?$AAl@ 0000000180021910     libucrt:lcidtoname_downlevel.obj
 0002:00003918       ??_C@_15MNPNEAIF@?$AAe?$AAn@ 0000000180021918     libucrt:lcidtoname_downlevel.obj
 0002:00003920       ??_C@_15GPIOMPMH@?$AAe?$AAs@ 0000000180021920     libucrt:lcidtoname_downlevel.obj
 0002:00003928       ??_C@_15NGLOAKJC@?$AAf?$AAi@ 0000000180021928     libucrt:lcidtoname_downlevel.obj
 0002:00003930       ??_C@_15FBKGNKAM@?$AAf?$AAr@ 0000000180021930     libucrt:lcidtoname_downlevel.obj
 0002:00003938       ??_C@_15KGGCNEFK@?$AAh?$AAe@ 0000000180021938     libucrt:lcidtoname_downlevel.obj
 0002:00003940       ??_C@_15PGHLIDMF@?$AAh?$AAu@ 0000000180021940     libucrt:lcidtoname_downlevel.obj
 0002:00003948       ??_C@_15BIEMAPLM@?$AAi?$AAs@ 0000000180021948     libucrt:lcidtoname_downlevel.obj
 0002:00003950       ??_C@_15IFJLDHAF@?$AAi?$AAt@ 0000000180021950     libucrt:lcidtoname_downlevel.obj
 0002:00003958       ??_C@_15GEMIOCAG@?$AAj?$AAa@ 0000000180021958     libucrt:lcidtoname_downlevel.obj
 0002:00003960       ??_C@_15EPELEGJA@?$AAk?$AAo@ 0000000180021960     libucrt:lcidtoname_downlevel.obj
 0002:00003968       ??_C@_15NDDHIMN@?$AAn?$AAl@ 0000000180021968     libucrt:lcidtoname_downlevel.obj
 0002:00003970       ??_C@_15BPIGNHCD@?$AAn?$AAo@ 0000000180021970     libucrt:lcidtoname_downlevel.obj
 0002:00003978       ??_C@_15DEOPBLCG@?$AAp?$AAl@ 0000000180021978     libucrt:lcidtoname_downlevel.obj
 0002:00003980       ??_C@_15KBECGEFG@?$AAp?$AAt@ 0000000180021980     libucrt:lcidtoname_downlevel.obj
 0002:00003988       ??_C@_15GLJCBFMD@?$AAr?$AAo@ 0000000180021988     libucrt:lcidtoname_downlevel.obj
 0002:00003990       ??_C@_15FEDGKCDI@?$AAr?$AAu@ 0000000180021990     libucrt:lcidtoname_downlevel.obj
 0002:00003998       ??_C@_15GLKMLLHM@?$AAh?$AAr@ 0000000180021998     libucrt:lcidtoname_downlevel.obj
 0002:000039a0       ??_C@_15CPKMFBDB@?$AAs?$AAk@ 00000001800219a0     libucrt:lcidtoname_downlevel.obj
 0002:000039a8       ??_C@_15BAAIOGMK@?$AAs?$AAq@ 00000001800219a8     libucrt:lcidtoname_downlevel.obj
 0002:000039b0       ??_C@_15INNPNOHD@?$AAs?$AAv@ 00000001800219b0     libucrt:lcidtoname_downlevel.obj
 0002:000039b8       ??_C@_15CABMMOGH@?$AAt?$AAh@ 00000001800219b8     libucrt:lcidtoname_downlevel.obj
 0002:000039c0       ??_C@_15BPLIHJJM@?$AAt?$AAr@ 00000001800219c0     libucrt:lcidtoname_downlevel.obj
 0002:000039c8       ??_C@_15NEOEKKDJ@?$AAu?$AAr@ 00000001800219c8     libucrt:lcidtoname_downlevel.obj
 0002:000039d0       ??_C@_15NFICGAJK@?$AAi?$AAd@ 00000001800219d0     libucrt:lcidtoname_downlevel.obj
 0002:000039d8       ??_C@_15PJPFLCCM@?$AAu?$AAk@ 00000001800219d8     libucrt:lcidtoname_downlevel.obj
 0002:000039e0       ??_C@_15HPJPHDM@?$AAb?$AAe@ 00000001800219e0     libucrt:lcidtoname_downlevel.obj
 0002:000039e8       ??_C@_15LCHLGJII@?$AAs?$AAl@ 00000001800219e8     libucrt:lcidtoname_downlevel.obj
 0002:000039f0       ??_C@_15PCFJPHHO@?$AAe?$AAt@ 00000001800219f0     libucrt:lcidtoname_downlevel.obj
 0002:000039f8       ??_C@_15HPFPGODN@?$AAl?$AAv@ 00000001800219f8     libucrt:lcidtoname_downlevel.obj
 0002:00003a00       ??_C@_15NFFGKGLG@?$AAl?$AAt@ 0000000180021a00     libucrt:lcidtoname_downlevel.obj
 0002:00003a08       ??_C@_15BDAKCCHN@?$AAf?$AAa@ 0000000180021a08     libucrt:lcidtoname_downlevel.obj
 0002:00003a10       ??_C@_15NFGIAIAJ@?$AAv?$AAi@ 0000000180021a10     libucrt:lcidtoname_downlevel.obj
 0002:00003a18       ??_C@_15LMKNDMHN@?$AAh?$AAy@ 0000000180021a18     libucrt:lcidtoname_downlevel.obj
 0002:00003a20       ??_C@_15IJBHMCFL@?$AAa?$AAz@ 0000000180021a20     libucrt:lcidtoname_downlevel.obj
 0002:00003a28       ??_C@_15EKOFJABL@?$AAe?$AAu@ 0000000180021a28     libucrt:lcidtoname_downlevel.obj
 0002:00003a30       ??_C@_15BGHADCNK@?$AAm?$AAk@ 0000000180021a30     libucrt:lcidtoname_downlevel.obj
 0002:00003a38       ??_C@_15JDNICKHM@?$AAa?$AAf@ 0000000180021a38     libucrt:lcidtoname_downlevel.obj
 0002:00003a40       ??_C@_15KPJEDBKD@?$AAk?$AAa@ 0000000180021a40     libucrt:lcidtoname_downlevel.obj
 0002:00003a48       ??_C@_15PDNFFFEO@?$AAf?$AAo@ 0000000180021a48     libucrt:lcidtoname_downlevel.obj
 0002:00003a50       ??_C@_15OMLEGLOC@?$AAh?$AAi@ 0000000180021a50     libucrt:lcidtoname_downlevel.obj
 0002:00003a58       ??_C@_15IDNNENKK@?$AAm?$AAs@ 0000000180021a58     libucrt:lcidtoname_downlevel.obj
 0002:00003a60       ??_C@_15MACJNBMH@?$AAk?$AAk@ 0000000180021a60     libucrt:lcidtoname_downlevel.obj
 0002:00003a68       ??_C@_15DKDJEOND@?$AAk?$AAy@ 0000000180021a68     libucrt:lcidtoname_downlevel.obj
 0002:00003a70       ??_C@_15DFGDLJBG@?$AAs?$AAw@ 0000000180021a70     libucrt:lcidtoname_downlevel.obj
 0002:00003a78       ??_C@_15BBFAICNG@?$AAu?$AAz@ 0000000180021a78     libucrt:lcidtoname_downlevel.obj
 0002:00003a80       ??_C@_15DKNDCGEA@?$AAt?$AAt@ 0000000180021a80     libucrt:lcidtoname_downlevel.obj
 0002:00003a88       ??_C@_15MGIFMDPL@?$AAp?$AAa@ 0000000180021a88     libucrt:lcidtoname_downlevel.obj
 0002:00003a90       ??_C@_15HCNDBBA@?$AAg?$AAu@ 0000000180021a90     libucrt:lcidtoname_downlevel.obj
 0002:00003a98       ??_C@_15FNBEIBON@?$AAt?$AAa@ 0000000180021a98     libucrt:lcidtoname_downlevel.obj
 0002:00003aa0       ??_C@_15NCHGBGLK@?$AAt?$AAe@ 0000000180021aa0     libucrt:lcidtoname_downlevel.obj
 0002:00003aa8       ??_C@_15PHPHCBPF@?$AAk?$AAn@ 0000000180021aa8     libucrt:lcidtoname_downlevel.obj
 0002:00003ab0       ??_C@_15DLGBCKMP@?$AAm?$AAr@ 0000000180021ab0     libucrt:lcidtoname_downlevel.obj
 0002:00003ab8       ??_C@_15EABBLBFF@?$AAs?$AAa@ 0000000180021ab8     libucrt:lcidtoname_downlevel.obj
 0002:00003ac0       ??_C@_15CBKOMCOI@?$AAm?$AAn@ 0000000180021ac0     libucrt:lcidtoname_downlevel.obj
 0002:00003ac8       ??_C@_15CKDMCJAF@?$AAg?$AAl@ 0000000180021ac8     libucrt:lcidtoname_downlevel.obj
 0002:00003ad0       ??_C@_17CNJFBPG@?$AAk?$AAo?$AAk@ 0000000180021ad0     libucrt:lcidtoname_downlevel.obj
 0002:00003ad8       ??_C@_17FFBJICPL@?$AAs?$AAy?$AAr@ 0000000180021ad8     libucrt:lcidtoname_downlevel.obj
 0002:00003ae0       ??_C@_17KPNDCPAF@?$AAd?$AAi?$AAv@ 0000000180021ae0     libucrt:lcidtoname_downlevel.obj
 0002:00003ae8       ??_C@_1M@OKAHONE@?$AAa?$AAr?$AA?9?$AAS?$AAA@ 0000000180021ae8     libucrt:lcidtoname_downlevel.obj
 0002:00003af8       ??_C@_1M@FFFIGIGK@?$AAb?$AAg?$AA?9?$AAB?$AAG@ 0000000180021af8     libucrt:lcidtoname_downlevel.obj
 0002:00003b08       ??_C@_1M@BJNKEDC@?$AAc?$AAa?$AA?9?$AAE?$AAS@ 0000000180021b08     libucrt:lcidtoname_downlevel.obj
 0002:00003b18       ??_C@_1M@IJJHFJHA@?$AAc?$AAs?$AA?9?$AAC?$AAZ@ 0000000180021b18     libucrt:lcidtoname_downlevel.obj
 0002:00003b28       ??_C@_1M@CLPEOBGI@?$AAd?$AAa?$AA?9?$AAD?$AAK@ 0000000180021b28     libucrt:lcidtoname_downlevel.obj
 0002:00003b38       ??_C@_1M@MCMADGCB@?$AAd?$AAe?$AA?9?$AAD?$AAE@ 0000000180021b38     libucrt:lcidtoname_downlevel.obj
 0002:00003b48       ??_C@_1M@OOCKEMAM@?$AAe?$AAl?$AA?9?$AAG?$AAR@ 0000000180021b48     libucrt:lcidtoname_downlevel.obj
 0002:00003b58       ??_C@_1M@DDNJFGID@?$AAf?$AAi?$AA?9?$AAF?$AAI@ 0000000180021b58     libucrt:lcidtoname_downlevel.obj
 0002:00003b68       ??_C@_1M@GLIPPMAC@?$AAf?$AAr?$AA?9?$AAF?$AAR@ 0000000180021b68     libucrt:lcidtoname_downlevel.obj
 0002:00003b78       ??_C@_1M@GFMCHPE@?$AAh?$AAe?$AA?9?$AAI?$AAL@ 0000000180021b78     libucrt:lcidtoname_downlevel.obj
 0002:00003b88       ??_C@_1M@MHLPGNKM@?$AAh?$AAu?$AA?9?$AAH?$AAU@ 0000000180021b88     libucrt:lcidtoname_downlevel.obj
 0002:00003b98       ??_C@_1M@LPDDNNPN@?$AAi?$AAs?$AA?9?$AAI?$AAS@ 0000000180021b98     libucrt:lcidtoname_downlevel.obj
 0002:00003ba8       ??_C@_1M@MADIPODN@?$AAi?$AAt?$AA?9?$AAI?$AAT@ 0000000180021ba8     libucrt:lcidtoname_downlevel.obj
 0002:00003bb8       ??_C@_1M@IHBJJGG@?$AAn?$AAl?$AA?9?$AAN?$AAL@ 0000000180021bb8     libucrt:lcidtoname_downlevel.obj
 0002:00003bc8       ??_C@_1M@EANAGDL@?$AAn?$AAb?$AA?9?$AAN?$AAO@ 0000000180021bc8     libucrt:lcidtoname_downlevel.obj
 0002:00003bd8       ??_C@_1M@NEIEMEGP@?$AAp?$AAl?$AA?9?$AAP?$AAL@ 0000000180021bd8     libucrt:lcidtoname_downlevel.obj
 0002:00003be8       ??_C@_1M@BOCFIGEP@?$AAp?$AAt?$AA?9?$AAB?$AAR@ 0000000180021be8     libucrt:lcidtoname_downlevel.obj
 0002:00003bf8       ??_C@_1M@IMPFOPBG@?$AAr?$AAo?$AA?9?$AAR?$AAO@ 0000000180021bf8     libucrt:lcidtoname_downlevel.obj
 0002:00003c08       ??_C@_1M@IDNNEJMM@?$AAr?$AAu?$AA?9?$AAR?$AAU@ 0000000180021c08     libucrt:lcidtoname_downlevel.obj
 0002:00003c18       ??_C@_1M@LILEEOGM@?$AAh?$AAr?$AA?9?$AAH?$AAR@ 0000000180021c18     libucrt:lcidtoname_downlevel.obj
 0002:00003c28       ??_C@_1M@FKIFEHPB@?$AAs?$AAk?$AA?9?$AAS?$AAK@ 0000000180021c28     libucrt:lcidtoname_downlevel.obj
 0002:00003c38       ??_C@_1M@LJMAMNPJ@?$AAs?$AAq?$AA?9?$AAA?$AAL@ 0000000180021c38     libucrt:lcidtoname_downlevel.obj
 0002:00003c48       ??_C@_1M@GIAKDKJK@?$AAs?$AAv?$AA?9?$AAS?$AAE@ 0000000180021c48     libucrt:lcidtoname_downlevel.obj
 0002:00003c58       ??_C@_1M@MKJKIKCL@?$AAt?$AAh?$AA?9?$AAT?$AAH@ 0000000180021c58     libucrt:lcidtoname_downlevel.obj
 0002:00003c68       ??_C@_1M@MFLCCMPB@?$AAt?$AAr?$AA?9?$AAT?$AAR@ 0000000180021c68     libucrt:lcidtoname_downlevel.obj
 0002:00003c78       ??_C@_1M@OIJHDKJN@?$AAu?$AAr?$AA?9?$AAP?$AAK@ 0000000180021c78     libucrt:lcidtoname_downlevel.obj
 0002:00003c88       ??_C@_1M@LHIPCIEK@?$AAi?$AAd?$AA?9?$AAI?$AAD@ 0000000180021c88     libucrt:lcidtoname_downlevel.obj
 0002:00003c98       ??_C@_1M@MFMOBGI@?$AAu?$AAk?$AA?9?$AAU?$AAA@ 0000000180021c98     libucrt:lcidtoname_downlevel.obj
 0002:00003ca8       ??_C@_1M@OBGLJIPL@?$AAb?$AAe?$AA?9?$AAB?$AAY@ 0000000180021ca8     libucrt:lcidtoname_downlevel.obj
 0002:00003cb8       ??_C@_1M@BCFAJEAD@?$AAs?$AAl?$AA?9?$AAS?$AAI@ 0000000180021cb8     libucrt:lcidtoname_downlevel.obj
 0002:00003cc8       ??_C@_1M@FKFFEDDN@?$AAe?$AAt?$AA?9?$AAE?$AAE@ 0000000180021cc8     libucrt:lcidtoname_downlevel.obj
 0002:00003cd8       ??_C@_1M@KGKKAACI@?$AAl?$AAv?$AA?9?$AAL?$AAV@ 0000000180021cd8     libucrt:lcidtoname_downlevel.obj
 0002:00003ce8       ??_C@_1M@IFGBIJO@?$AAl?$AAt?$AA?9?$AAL?$AAT@ 0000000180021ce8     libucrt:lcidtoname_downlevel.obj
 0002:00003cf8       ??_C@_1M@FGEAHEDM@?$AAf?$AAa?$AA?9?$AAI?$AAR@ 0000000180021cf8     libucrt:lcidtoname_downlevel.obj
 0002:00003d08       ??_C@_1M@KBMAIBFN@?$AAv?$AAi?$AA?9?$AAV?$AAN@ 0000000180021d08     libucrt:lcidtoname_downlevel.obj
 0002:00003d18       ??_C@_1M@GPCBKDJK@?$AAh?$AAy?$AA?9?$AAA?$AAM@ 0000000180021d18     libucrt:lcidtoname_downlevel.obj
 0002:00003d28       ??_C@_1BG@BECMDDJB@?$AAa?$AAz?$AA?9?$AAA?$AAZ?$AA?9?$AAL?$AAa?$AAt?$AAn@ 0000000180021d28     libucrt:lcidtoname_downlevel.obj
 0002:00003d40       ??_C@_1M@MAOFCAEA@?$AAe?$AAu?$AA?9?$AAE?$AAS@ 0000000180021d40     libucrt:lcidtoname_downlevel.obj
 0002:00003d50       ??_C@_1M@IGHABKPI@?$AAm?$AAk?$AA?9?$AAM?$AAK@ 0000000180021d50     libucrt:lcidtoname_downlevel.obj
 0002:00003d60       ??_C@_1M@IAIGNEJG@?$AAt?$AAn?$AA?9?$AAZ?$AAA@ 0000000180021d60     libucrt:lcidtoname_downlevel.obj
 0002:00003d70       ??_C@_1M@IIJCOJFA@?$AAx?$AAh?$AA?9?$AAZ?$AAA@ 0000000180021d70     libucrt:lcidtoname_downlevel.obj
 0002:00003d80       ??_C@_1M@LGPJHNJH@?$AAz?$AAu?$AA?9?$AAZ?$AAA@ 0000000180021d80     libucrt:lcidtoname_downlevel.obj
 0002:00003d90       ??_C@_1M@HOKAOIO@?$AAa?$AAf?$AA?9?$AAZ?$AAA@ 0000000180021d90     libucrt:lcidtoname_downlevel.obj
 0002:00003da0       ??_C@_1M@DPCLHLIE@?$AAk?$AAa?$AA?9?$AAG?$AAE@ 0000000180021da0     libucrt:lcidtoname_downlevel.obj
 0002:00003db0       ??_C@_1M@BLKMHJBI@?$AAf?$AAo?$AA?9?$AAF?$AAO@ 0000000180021db0     libucrt:lcidtoname_downlevel.obj
 0002:00003dc0       ??_C@_1M@LGGJAPPB@?$AAh?$AAi?$AA?9?$AAI?$AAN@ 0000000180021dc0     libucrt:lcidtoname_downlevel.obj
 0002:00003dd0       ??_C@_1M@FIKPIHFE@?$AAm?$AAt?$AA?9?$AAM?$AAT@ 0000000180021dd0     libucrt:lcidtoname_downlevel.obj
 0002:00003de0       ??_C@_1M@HEGGPBFA@?$AAs?$AAe?$AA?9?$AAN?$AAO@ 0000000180021de0     libucrt:lcidtoname_downlevel.obj
 0002:00003df0       ??_C@_1M@EIBJEEPA@?$AAm?$AAs?$AA?9?$AAM?$AAY@ 0000000180021df0     libucrt:lcidtoname_downlevel.obj
 0002:00003e00       ??_C@_1M@FHLBGMPP@?$AAk?$AAk?$AA?9?$AAK?$AAZ@ 0000000180021e00     libucrt:lcidtoname_downlevel.obj
 0002:00003e10       ??_C@_1M@NGJJLCGI@?$AAk?$AAy?$AA?9?$AAK?$AAG@ 0000000180021e10     libucrt:lcidtoname_downlevel.obj
 0002:00003e20       ??_C@_1M@GIENNBFC@?$AAs?$AAw?$AA?9?$AAK?$AAE@ 0000000180021e20     libucrt:lcidtoname_downlevel.obj
 0002:00003e30       ??_C@_1BG@NDGMJIMJ@?$AAu?$AAz?$AA?9?$AAU?$AAZ?$AA?9?$AAL?$AAa?$AAt?$AAn@ 0000000180021e30     libucrt:lcidtoname_downlevel.obj
 0002:00003e48       ??_C@_1M@IDCCIHBC@?$AAt?$AAt?$AA?9?$AAR?$AAU@ 0000000180021e48     libucrt:lcidtoname_downlevel.obj
 0002:00003e58       ??_C@_1M@LOICPMOJ@?$AAb?$AAn?$AA?9?$AAI?$AAN@ 0000000180021e58     libucrt:lcidtoname_downlevel.obj
 0002:00003e68       ??_C@_1M@KPKKNEAH@?$AAp?$AAa?$AA?9?$AAI?$AAN@ 0000000180021e68     libucrt:lcidtoname_downlevel.obj
 0002:00003e78       ??_C@_1M@PJGPPBOG@?$AAg?$AAu?$AA?9?$AAI?$AAN@ 0000000180021e78     libucrt:lcidtoname_downlevel.obj
 0002:00003e88       ??_C@_1M@KMKMOPHI@?$AAt?$AAa?$AA?9?$AAI?$AAN@ 0000000180021e88     libucrt:lcidtoname_downlevel.obj
 0002:00003e98       ??_C@_1M@KFEHEPAC@?$AAt?$AAe?$AA?9?$AAI?$AAN@ 0000000180021e98     libucrt:lcidtoname_downlevel.obj
 0002:00003ea8       ??_C@_1M@CDCLMGHI@?$AAk?$AAn?$AA?9?$AAI?$AAN@ 0000000180021ea8     libucrt:lcidtoname_downlevel.obj
 0002:00003eb8       ??_C@_1M@MIODLDKF@?$AAm?$AAl?$AA?9?$AAI?$AAN@ 0000000180021eb8     libucrt:lcidtoname_downlevel.obj
 0002:00003ec8       ??_C@_1M@PBIEACPO@?$AAm?$AAr?$AA?9?$AAI?$AAN@ 0000000180021ec8     libucrt:lcidtoname_downlevel.obj
 0002:00003ed8       ??_C@_1M@NIDEAGPH@?$AAs?$AAa?$AA?9?$AAI?$AAN@ 0000000180021ed8     libucrt:lcidtoname_downlevel.obj
 0002:00003ee8       ??_C@_1M@FHIHCBIO@?$AAm?$AAn?$AA?9?$AAM?$AAN@ 0000000180021ee8     libucrt:lcidtoname_downlevel.obj
 0002:00003ef8       ??_C@_1M@JAIJPENP@?$AAc?$AAy?$AA?9?$AAG?$AAB@ 0000000180021ef8     libucrt:lcidtoname_downlevel.obj
 0002:00003f08       ??_C@_1M@PHGFBEPN@?$AAg?$AAl?$AA?9?$AAE?$AAS@ 0000000180021f08     libucrt:lcidtoname_downlevel.obj
 0002:00003f18       ??_C@_1O@KPIPDNCP@?$AAk?$AAo?$AAk?$AA?9?$AAI?$AAN@ 0000000180021f18     libucrt:lcidtoname_downlevel.obj
 0002:00003f28       ??_C@_1O@KNHJLDJA@?$AAs?$AAy?$AAr?$AA?9?$AAS?$AAY@ 0000000180021f28     libucrt:lcidtoname_downlevel.obj
 0002:00003f38       ??_C@_1O@MKEKBLAH@?$AAd?$AAi?$AAv?$AA?9?$AAM?$AAV@ 0000000180021f38     libucrt:lcidtoname_downlevel.obj
 0002:00003f48       ??_C@_1O@OHDCKDDF@?$AAq?$AAu?$AAz?$AA?9?$AAB?$AAO@ 0000000180021f48     libucrt:lcidtoname_downlevel.obj
 0002:00003f58       ??_C@_1M@LEPJNLFD@?$AAn?$AAs?$AA?9?$AAZ?$AAA@ 0000000180021f58     libucrt:lcidtoname_downlevel.obj
 0002:00003f68       ??_C@_1M@OMLEIIJB@?$AAm?$AAi?$AA?9?$AAN?$AAZ@ 0000000180021f68     libucrt:lcidtoname_downlevel.obj
 0002:00003f78       ??_C@_1M@PMPEAILG@?$AAa?$AAr?$AA?9?$AAI?$AAQ@ 0000000180021f78     libucrt:lcidtoname_downlevel.obj
 0002:00003f88       ??_C@_1M@CNKPNOEE@?$AAd?$AAe?$AA?9?$AAC?$AAH@ 0000000180021f88     libucrt:lcidtoname_downlevel.obj
 0002:00003f98       ??_C@_1M@LKMGMLKO@?$AAe?$AAn?$AA?9?$AAG?$AAB@ 0000000180021f98     libucrt:lcidtoname_downlevel.obj
 0002:00003fa8       ??_C@_1M@PGKJFFGL@?$AAe?$AAs?$AA?9?$AAM?$AAX@ 0000000180021fa8     libucrt:lcidtoname_downlevel.obj
 0002:00003fb8       ??_C@_1M@DNNANBDC@?$AAf?$AAr?$AA?9?$AAB?$AAE@ 0000000180021fb8     libucrt:lcidtoname_downlevel.obj
 0002:00003fc8       ??_C@_1M@HLGMDFHM@?$AAi?$AAt?$AA?9?$AAC?$AAH@ 0000000180021fc8     libucrt:lcidtoname_downlevel.obj
 0002:00003fd8       ??_C@_1M@CLLBGJH@?$AAn?$AAl?$AA?9?$AAB?$AAE@ 0000000180021fd8     libucrt:lcidtoname_downlevel.obj
 0002:00003fe8       ??_C@_1M@BODBOGLF@?$AAn?$AAn?$AA?9?$AAN?$AAO@ 0000000180021fe8     libucrt:lcidtoname_downlevel.obj
 0002:00003ff8       ??_C@_1M@HFFAHKAD@?$AAp?$AAt?$AA?9?$AAP?$AAT@ 0000000180021ff8     libucrt:lcidtoname_downlevel.obj
 0002:00004008       ??_C@_1BG@LNOAKHIE@?$AAs?$AAr?$AA?9?$AAS?$AAP?$AA?9?$AAL?$AAa?$AAt?$AAn@ 0000000180022008     libucrt:lcidtoname_downlevel.obj
 0002:00004020       ??_C@_1M@HBMHBGAK@?$AAs?$AAv?$AA?9?$AAF?$AAI@ 0000000180022020     libucrt:lcidtoname_downlevel.obj
 0002:00004030       ??_C@_1BG@DGCJGJBE@?$AAa?$AAz?$AA?9?$AAA?$AAZ?$AA?9?$AAC?$AAy?$AAr?$AAl@ 0000000180022030     libucrt:lcidtoname_downlevel.obj
 0002:00004048       ??_C@_1M@KEJDAAHB@?$AAs?$AAe?$AA?9?$AAS?$AAE@ 0000000180022048     libucrt:lcidtoname_downlevel.obj
 0002:00004058       ??_C@_1M@HEIBJJAD@?$AAm?$AAs?$AA?9?$AAB?$AAN@ 0000000180022058     libucrt:lcidtoname_downlevel.obj
 0002:00004068       ??_C@_1BG@PBGJMCEM@?$AAu?$AAz?$AA?9?$AAU?$AAZ?$AA?9?$AAC?$AAy?$AAr?$AAl@ 0000000180022068     libucrt:lcidtoname_downlevel.obj
 0002:00004080       ??_C@_1O@LAOBCMDF@?$AAq?$AAu?$AAz?$AA?9?$AAE?$AAC@ 0000000180022080     libucrt:lcidtoname_downlevel.obj
 0002:00004090       ??_C@_1M@POEEMAIO@?$AAa?$AAr?$AA?9?$AAE?$AAG@ 0000000180022090     libucrt:lcidtoname_downlevel.obj
 0002:000040a0       ??_C@_1M@EFAKDEDL@?$AAz?$AAh?$AA?9?$AAH?$AAK@ 00000001800220a0     libucrt:lcidtoname_downlevel.obj
 0002:000040b0       ??_C@_1M@HKKIJHGI@?$AAd?$AAe?$AA?9?$AAA?$AAT@ 00000001800220b0     libucrt:lcidtoname_downlevel.obj
 0002:000040c0       ??_C@_1M@KBFBEHJF@?$AAe?$AAn?$AA?9?$AAA?$AAU@ 00000001800220c0     libucrt:lcidtoname_downlevel.obj
 0002:000040d0       ??_C@_1M@MNPLFAAH@?$AAe?$AAs?$AA?9?$AAE?$AAS@ 00000001800220d0     libucrt:lcidtoname_downlevel.obj
 0002:000040e0       ??_C@_1M@HJOOJFMA@?$AAf?$AAr?$AA?9?$AAC?$AAA@ 00000001800220e0     libucrt:lcidtoname_downlevel.obj
 0002:000040f0       ??_C@_1BG@JPOFPNAB@?$AAs?$AAr?$AA?9?$AAS?$AAP?$AA?9?$AAC?$AAy?$AAr?$AAl@ 00000001800220f0     libucrt:lcidtoname_downlevel.obj
 0002:00004108       ??_C@_1M@LNFOCMOB@?$AAs?$AAe?$AA?9?$AAF?$AAI@ 0000000180022108     libucrt:lcidtoname_downlevel.obj
 0002:00004118       ??_C@_1O@MGJBOAMB@?$AAq?$AAu?$AAz?$AA?9?$AAP?$AAE@ 0000000180022118     libucrt:lcidtoname_downlevel.obj
 0002:00004128       ??_C@_1M@GJINLBOK@?$AAa?$AAr?$AA?9?$AAL?$AAY@ 0000000180022128     libucrt:lcidtoname_downlevel.obj
 0002:00004138       ??_C@_1M@GGMNHJNL@?$AAz?$AAh?$AA?9?$AAS?$AAG@ 0000000180022138     libucrt:lcidtoname_downlevel.obj
 0002:00004148       ??_C@_1M@HOIKODND@?$AAd?$AAe?$AA?9?$AAL?$AAU@ 0000000180022148     libucrt:lcidtoname_downlevel.obj
 0002:00004158       ??_C@_1M@DDOCCGFG@?$AAe?$AAn?$AA?9?$AAC?$AAA@ 0000000180022158     libucrt:lcidtoname_downlevel.obj
 0002:00004168       ??_C@_1M@BNOEMJLF@?$AAe?$AAs?$AA?9?$AAG?$AAT@ 0000000180022168     libucrt:lcidtoname_downlevel.obj
 0002:00004178       ??_C@_1M@EOGNKEK@?$AAf?$AAr?$AA?9?$AAC?$AAH@ 0000000180022178     libucrt:lcidtoname_downlevel.obj
 0002:00004188       ??_C@_1M@FLIDJFHL@?$AAh?$AAr?$AA?9?$AAB?$AAA@ 0000000180022188     libucrt:lcidtoname_downlevel.obj
 0002:00004198       ??_C@_1O@FMCELNAJ@?$AAs?$AAm?$AAj?$AA?9?$AAN?$AAO@ 0000000180022198     libucrt:lcidtoname_downlevel.obj
 0002:000041a8       ??_C@_1M@JHGLJMGJ@?$AAa?$AAr?$AA?9?$AAD?$AAZ@ 00000001800221a8     libucrt:lcidtoname_downlevel.obj
 0002:000041b8       ??_C@_1M@JKKFDCNP@?$AAz?$AAh?$AA?9?$AAM?$AAO@ 00000001800221b8     libucrt:lcidtoname_downlevel.obj
 0002:000041c8       ??_C@_1M@GEEFALPE@?$AAd?$AAe?$AA?9?$AAL?$AAI@ 00000001800221c8     libucrt:lcidtoname_downlevel.obj
 0002:000041d8       ??_C@_1M@IGEOFBG@?$AAe?$AAn?$AA?9?$AAN?$AAZ@ 00000001800221d8     libucrt:lcidtoname_downlevel.obj
 0002:000041e8       ??_C@_1M@KDBONEHP@?$AAe?$AAs?$AA?9?$AAC?$AAR@ 00000001800221e8     libucrt:lcidtoname_downlevel.obj
 0002:000041f8       ??_C@_1M@FHMDOHNN@?$AAf?$AAr?$AA?9?$AAL?$AAU@ 00000001800221f8     libucrt:lcidtoname_downlevel.obj
 0002:00004208       ??_C@_1BG@NFKKMAFG@?$AAb?$AAs?$AA?9?$AAB?$AAA?$AA?9?$AAL?$AAa?$AAt?$AAn@ 0000000180022208     libucrt:lcidtoname_downlevel.obj
 0002:00004220       ??_C@_1O@IMNBEMCI@?$AAs?$AAm?$AAj?$AA?9?$AAS?$AAE@ 0000000180022220     libucrt:lcidtoname_downlevel.obj
 0002:00004230       ??_C@_1M@DHHMBNDP@?$AAa?$AAr?$AA?9?$AAM?$AAA@ 0000000180022230     libucrt:lcidtoname_downlevel.obj
 0002:00004240       ??_C@_1M@BNBLJCGH@?$AAe?$AAn?$AA?9?$AAI?$AAE@ 0000000180022240     libucrt:lcidtoname_downlevel.obj
 0002:00004250       ??_C@_1M@GEPAFMDL@?$AAe?$AAs?$AA?9?$AAP?$AAA@ 0000000180022250     libucrt:lcidtoname_downlevel.obj
 0002:00004260       ??_C@_1M@OJONDMDL@?$AAf?$AAr?$AA?9?$AAM?$AAC@ 0000000180022260     libucrt:lcidtoname_downlevel.obj
 0002:00004270       ??_C@_1BG@OBCNFJB@?$AAs?$AAr?$AA?9?$AAB?$AAA?$AA?9?$AAL?$AAa?$AAt?$AAn@ 0000000180022270     libucrt:lcidtoname_downlevel.obj
 0002:00004288       ??_C@_1O@KEMEEGPO@?$AAs?$AAm?$AAa?$AA?9?$AAN?$AAO@ 0000000180022288     libucrt:lcidtoname_downlevel.obj
 0002:00004298       ??_C@_1M@ELMGFODK@?$AAa?$AAr?$AA?9?$AAT?$AAN@ 0000000180022298     libucrt:lcidtoname_downlevel.obj
 0002:000042a8       ??_C@_1M@BHDLHFAF@?$AAe?$AAn?$AA?9?$AAZ?$AAA@ 00000001800222a8     libucrt:lcidtoname_downlevel.obj
 0002:000042b8       ??_C@_1M@BMGIGLIF@?$AAe?$AAs?$AA?9?$AAD?$AAO@ 00000001800222b8     libucrt:lcidtoname_downlevel.obj
 0002:000042c8       ??_C@_1BG@CMBHIPBE@?$AAs?$AAr?$AA?9?$AAB?$AAA?$AA?9?$AAC?$AAy?$AAr?$AAl@ 00000001800222c8     libucrt:lcidtoname_downlevel.obj
 0002:000042e0       ??_C@_1O@HEDBLHNP@?$AAs?$AAm?$AAa?$AA?9?$AAS?$AAE@ 00000001800222e0     libucrt:lcidtoname_downlevel.obj
 0002:000042f0       ??_C@_1M@DAGCADIM@?$AAa?$AAr?$AA?9?$AAO?$AAM@ 00000001800222f0     libucrt:lcidtoname_downlevel.obj
 0002:00004300       ??_C@_1M@FODLMICG@?$AAe?$AAn?$AA?9?$AAJ?$AAM@ 0000000180022300     libucrt:lcidtoname_downlevel.obj
 0002:00004310       ??_C@_1M@DNMLCIHB@?$AAe?$AAs?$AA?9?$AAV?$AAE@ 0000000180022310     libucrt:lcidtoname_downlevel.obj
 0002:00004320       ??_C@_1O@EOKHMKJK@?$AAs?$AAm?$AAs?$AA?9?$AAF?$AAI@ 0000000180022320     libucrt:lcidtoname_downlevel.obj
 0002:00004330       ??_C@_1M@CAFJMKOF@?$AAa?$AAr?$AA?9?$AAY?$AAE@ 0000000180022330     libucrt:lcidtoname_downlevel.obj
 0002:00004340       ??_C@_1M@CBFHIJLI@?$AAe?$AAn?$AA?9?$AAC?$AAB@ 0000000180022340     libucrt:lcidtoname_downlevel.obj
 0002:00004350       ??_C@_1M@BGNFLDN@?$AAe?$AAs?$AA?9?$AAC?$AAO@ 0000000180022350     libucrt:lcidtoname_downlevel.obj
 0002:00004360       ??_C@_1O@JMPHMAMC@?$AAs?$AAm?$AAn?$AA?9?$AAF?$AAI@ 0000000180022360     libucrt:lcidtoname_downlevel.obj
 0002:00004370       ??_C@_1M@JLANABKE@?$AAa?$AAr?$AA?9?$AAS?$AAY@ 0000000180022370     libucrt:lcidtoname_downlevel.obj
 0002:00004380       ??_C@_1M@HPKGCFGN@?$AAe?$AAn?$AA?9?$AAB?$AAZ@ 0000000180022380     libucrt:lcidtoname_downlevel.obj
 0002:00004390       ??_C@_1M@OLJCMLGM@?$AAe?$AAs?$AA?9?$AAP?$AAE@ 0000000180022390     libucrt:lcidtoname_downlevel.obj
 0002:000043a0       ??_C@_1M@MKKGFKLE@?$AAa?$AAr?$AA?9?$AAJ?$AAO@ 00000001800223a0     libucrt:lcidtoname_downlevel.obj
 0002:000043b0       ??_C@_1M@EKPGLDNI@?$AAe?$AAn?$AA?9?$AAT?$AAT@ 00000001800223b0     libucrt:lcidtoname_downlevel.obj
 0002:000043c0       ??_C@_1M@OONGHFHE@?$AAe?$AAs?$AA?9?$AAA?$AAR@ 00000001800223c0     libucrt:lcidtoname_downlevel.obj
 0002:000043d0       ??_C@_1M@OOJFGBHE@?$AAa?$AAr?$AA?9?$AAL?$AAB@ 00000001800223d0     libucrt:lcidtoname_downlevel.obj
 0002:000043e0       ??_C@_1M@GCEJHNEG@?$AAe?$AAn?$AA?9?$AAZ?$AAW@ 00000001800223e0     libucrt:lcidtoname_downlevel.obj
 0002:000043f0       ??_C@_1M@JNOCAHJI@?$AAe?$AAs?$AA?9?$AAE?$AAC@ 00000001800223f0     libucrt:lcidtoname_downlevel.obj
 0002:00004400       ??_C@_1M@JEFHPGGB@?$AAa?$AAr?$AA?9?$AAK?$AAW@ 0000000180022400     libucrt:lcidtoname_downlevel.obj
 0002:00004410       ??_C@_1M@MLKIBJOJ@?$AAe?$AAn?$AA?9?$AAP?$AAH@ 0000000180022410     libucrt:lcidtoname_downlevel.obj
 0002:00004420       ??_C@_1M@BDNIPEND@?$AAe?$AAs?$AA?9?$AAC?$AAL@ 0000000180022420     libucrt:lcidtoname_downlevel.obj
 0002:00004430       ??_C@_1M@MPNMEKBD@?$AAa?$AAr?$AA?9?$AAA?$AAE@ 0000000180022430     libucrt:lcidtoname_downlevel.obj
 0002:00004440       ??_C@_1M@KBJALCPI@?$AAe?$AAs?$AA?9?$AAU?$AAY@ 0000000180022440     libucrt:lcidtoname_downlevel.obj
 0002:00004450       ??_C@_1M@LLCCOAGA@?$AAa?$AAr?$AA?9?$AAB?$AAH@ 0000000180022450     libucrt:lcidtoname_downlevel.obj
 0002:00004460       ??_C@_1M@PBFNCDEL@?$AAe?$AAs?$AA?9?$AAP?$AAY@ 0000000180022460     libucrt:lcidtoname_downlevel.obj
 0002:00004470       ??_C@_1M@EDGINPNP@?$AAa?$AAr?$AA?9?$AAQ?$AAA@ 0000000180022470     libucrt:lcidtoname_downlevel.obj
 0002:00004480       ??_C@_1M@MKDBIIJI@?$AAe?$AAs?$AA?9?$AAB?$AAO@ 0000000180022480     libucrt:lcidtoname_downlevel.obj
 0002:00004490       ??_C@_1M@CPKKEBLD@?$AAe?$AAs?$AA?9?$AAS?$AAV@ 0000000180022490     libucrt:lcidtoname_downlevel.obj
 0002:000044a0       ??_C@_1M@NDBGMMJL@?$AAe?$AAs?$AA?9?$AAH?$AAN@ 00000001800224a0     libucrt:lcidtoname_downlevel.obj
 0002:000044b0       ??_C@_1M@JIJIBHDP@?$AAe?$AAs?$AA?9?$AAN?$AAI@ 00000001800224b0     libucrt:lcidtoname_downlevel.obj
 0002:000044c0       ??_C@_1M@CGFMKEEK@?$AAe?$AAs?$AA?9?$AAP?$AAR@ 00000001800224c0     libucrt:lcidtoname_downlevel.obj
 0002:000044d0       ??_C@_1O@ICJHKIIK@?$AAz?$AAh?$AA?9?$AAC?$AAH?$AAT@ 00000001800224d0     libucrt:lcidtoname_downlevel.obj
 0002:000044e0       ??_C@_15CLNEJCE@?$AAs?$AAr@ 00000001800224e0     libucrt:lcidtoname_downlevel.obj
 0002:00005330       ??_C@_1M@KAHEKEIG@?$AAa?$AAf?$AA?9?$AAz?$AAa@ 0000000180023330     libucrt:lcidtoname_downlevel.obj
 0002:00005340       ??_C@_1M@GIECOABL@?$AAa?$AAr?$AA?9?$AAa?$AAe@ 0000000180023340     libucrt:lcidtoname_downlevel.obj
 0002:00005350       ??_C@_1M@BMLMEKGI@?$AAa?$AAr?$AA?9?$AAb?$AAh@ 0000000180023350     libucrt:lcidtoname_downlevel.obj
 0002:00005360       ??_C@_1M@DAPFDGGB@?$AAa?$AAr?$AA?9?$AAd?$AAz@ 0000000180023360     libucrt:lcidtoname_downlevel.obj
 0002:00005370       ??_C@_1M@FJNKGKIG@?$AAa?$AAr?$AA?9?$AAe?$AAg@ 0000000180023370     libucrt:lcidtoname_downlevel.obj
 0002:00005380       ??_C@_1M@FLGKKCLO@?$AAa?$AAr?$AA?9?$AAi?$AAq@ 0000000180023380     libucrt:lcidtoname_downlevel.obj
 0002:00005390       ??_C@_1M@GNDIPALM@?$AAa?$AAr?$AA?9?$AAj?$AAo@ 0000000180023390     libucrt:lcidtoname_downlevel.obj
 0002:000053a0       ??_C@_1M@DDMJFMGJ@?$AAa?$AAr?$AA?9?$AAk?$AAw@ 00000001800233a0     libucrt:lcidtoname_downlevel.obj
 0002:000053b0       ??_C@_1M@EJALMLHM@?$AAa?$AAr?$AA?9?$AAl?$AAb@ 00000001800233b0     libucrt:lcidtoname_downlevel.obj
 0002:000053c0       ??_C@_1M@MOBDBLOC@?$AAa?$AAr?$AA?9?$AAl?$AAy@ 00000001800233c0     libucrt:lcidtoname_downlevel.obj
 0002:000053d0       ??_C@_1M@JAOCLHDH@?$AAa?$AAr?$AA?9?$AAm?$AAa@ 00000001800233d0     libucrt:lcidtoname_downlevel.obj
 0002:000053e0       ??_C@_1M@JHPMKJIE@?$AAa?$AAr?$AA?9?$AAo?$AAm@ 00000001800233e0     libucrt:lcidtoname_downlevel.obj
 0002:000053f0       ??_C@_1M@OEPGHFNH@?$AAa?$AAr?$AA?9?$AAq?$AAa@ 00000001800233f0     libucrt:lcidtoname_downlevel.obj
 0002:00005400       ??_C@_1M@KJDONENM@?$AAa?$AAr?$AA?9?$AAs?$AAa@ 0000000180023400     libucrt:lcidtoname_downlevel.obj
 0002:00005410       ??_C@_1M@DMJDKLKM@?$AAa?$AAr?$AA?9?$AAs?$AAy@ 0000000180023410     libucrt:lcidtoname_downlevel.obj
 0002:00005420       ??_C@_1M@OMFIPEDC@?$AAa?$AAr?$AA?9?$AAt?$AAn@ 0000000180023420     libucrt:lcidtoname_downlevel.obj
 0002:00005430       ??_C@_1M@IHMHGAON@?$AAa?$AAr?$AA?9?$AAy?$AAe@ 0000000180023430     libucrt:lcidtoname_downlevel.obj
 0002:00005440       ??_C@_1BG@KDCPGJGB@?$AAa?$AAz?$AA?9?$AAa?$AAz?$AA?9?$AAc?$AAy?$AAr?$AAl@ 0000000180023440     libucrt:lcidtoname_downlevel.obj
 0002:00005458       ??_C@_1BG@IBCKDDOE@?$AAa?$AAz?$AA?9?$AAa?$AAz?$AA?9?$AAl?$AAa?$AAt?$AAn@ 0000000180023458     libucrt:lcidtoname_downlevel.obj
 0002:00005470       ??_C@_1M@EGPFDCPD@?$AAb?$AAe?$AA?9?$AAb?$AAy@ 0000000180023470     libucrt:lcidtoname_downlevel.obj
 0002:00005480       ??_C@_1M@PCMGMCGC@?$AAb?$AAg?$AA?9?$AAb?$AAg@ 0000000180023480     libucrt:lcidtoname_downlevel.obj
 0002:00005490       ??_C@_1M@BJBMFGOB@?$AAb?$AAn?$AA?9?$AAi?$AAn@ 0000000180023490     libucrt:lcidtoname_downlevel.obj
 0002:000054a0       ??_C@_1BG@EAKMMACD@?$AAb?$AAs?$AA?9?$AAb?$AAa?$AA?9?$AAl?$AAa?$AAt?$AAn@ 00000001800234a0     libucrt:lcidtoname_downlevel.obj
 0002:000054b8       ??_C@_1M@KGADAODK@?$AAc?$AAa?$AA?9?$AAe?$AAs@ 00000001800234b8     libucrt:lcidtoname_downlevel.obj
 0002:000054c8       ??_C@_1M@COAJPDHI@?$AAc?$AAs?$AA?9?$AAc?$AAz@ 00000001800234c8     libucrt:lcidtoname_downlevel.obj
 0002:000054d8       ??_C@_1M@DHBHFONH@?$AAc?$AAy?$AA?9?$AAg?$AAb@ 00000001800234d8     libucrt:lcidtoname_downlevel.obj
 0002:000054e8       ??_C@_1M@IMGKELGA@?$AAd?$AAa?$AA?9?$AAd?$AAk@ 00000001800234e8     libucrt:lcidtoname_downlevel.obj
 0002:000054f8       ??_C@_1M@NNDGDNGA@?$AAd?$AAe?$AA?9?$AAa?$AAt@ 00000001800234f8     libucrt:lcidtoname_downlevel.obj
 0002:00005508       ??_C@_1M@IKDBHEEM@?$AAd?$AAe?$AA?9?$AAc?$AAh@ 0000000180023508     libucrt:lcidtoname_downlevel.obj
 0002:00005518       ??_C@_1M@GFFOJMCJ@?$AAd?$AAe?$AA?9?$AAd?$AAe@ 0000000180023518     libucrt:lcidtoname_downlevel.obj
 0002:00005528       ??_C@_1M@MDNLKBPM@?$AAd?$AAe?$AA?9?$AAl?$AAi@ 0000000180023528     libucrt:lcidtoname_downlevel.obj
 0002:00005538       ??_C@_1M@NJBEEJNL@?$AAd?$AAe?$AA?9?$AAl?$AAu@ 0000000180023538     libucrt:lcidtoname_downlevel.obj
 0002:00005548       ??_C@_1O@GNNELBAP@?$AAd?$AAi?$AAv?$AA?9?$AAm?$AAv@ 0000000180023548     libucrt:lcidtoname_downlevel.obj
 0002:00005558       ??_C@_1M@EJLEOGAE@?$AAe?$AAl?$AA?9?$AAg?$AAr@ 0000000180023558     libucrt:lcidtoname_downlevel.obj
 0002:00005568       ??_C@_1M@GMPONJN@?$AAe?$AAn?$AA?9?$AAa?$AAu@ 0000000180023568     libucrt:lcidtoname_downlevel.obj
 0002:00005578       ??_C@_1M@NIDIIPGF@?$AAe?$AAn?$AA?9?$AAb?$AAz@ 0000000180023578     libucrt:lcidtoname_downlevel.obj
 0002:00005588       ??_C@_1M@JEHMIMFO@?$AAe?$AAn?$AA?9?$AAc?$AAa@ 0000000180023588     libucrt:lcidtoname_downlevel.obj
 0002:00005598       ??_C@_1M@IGMJCDLA@?$AAe?$AAn?$AA?9?$AAc?$AAb@ 0000000180023598     libucrt:lcidtoname_downlevel.obj
 0002:000055a8       ??_C@_1M@BNFIGBKG@?$AAe?$AAn?$AA?9?$AAg?$AAb@ 00000001800235a8     libucrt:lcidtoname_downlevel.obj
 0002:000055b8       ??_C@_1M@LKIFDIGP@?$AAe?$AAn?$AA?9?$AAi?$AAe@ 00000001800235b8     libucrt:lcidtoname_downlevel.obj
 0002:000055c8       ??_C@_1M@PJKFGCCO@?$AAe?$AAn?$AA?9?$AAj?$AAm@ 00000001800235c8     libucrt:lcidtoname_downlevel.obj
 0002:000055d8       ??_C@_1M@KPPKEPBO@?$AAe?$AAn?$AA?9?$AAn?$AAz@ 00000001800235d8     libucrt:lcidtoname_downlevel.obj
 0002:000055e8       ??_C@_1M@GMDGLDOB@?$AAe?$AAn?$AA?9?$AAp?$AAh@ 00000001800235e8     libucrt:lcidtoname_downlevel.obj
 0002:000055f8       ??_C@_1M@ONGIBJNA@?$AAe?$AAn?$AA?9?$AAt?$AAt@ 00000001800235f8     libucrt:lcidtoname_downlevel.obj
 0002:00005608       ??_C@_1M@LLODPCMM@?$AAe?$AAn?$AA?9?$AAu?$AAs@ 0000000180023608     libucrt:lcidtoname_downlevel.obj
 0002:00005618       ??_C@_1M@LAKFNPAN@?$AAe?$AAn?$AA?9?$AAz?$AAa@ 0000000180023618     libucrt:lcidtoname_downlevel.obj
 0002:00005628       ??_C@_1M@MFNHNHEO@?$AAe?$AAn?$AA?9?$AAz?$AAw@ 0000000180023628     libucrt:lcidtoname_downlevel.obj
 0002:00005638       ??_C@_1M@EJEINPHM@?$AAe?$AAs?$AA?9?$AAa?$AAr@ 0000000180023638     libucrt:lcidtoname_downlevel.obj
 0002:00005648       ??_C@_1M@GNKPCCJA@?$AAe?$AAs?$AA?9?$AAb?$AAo@ 0000000180023648     libucrt:lcidtoname_downlevel.obj
 0002:00005658       ??_C@_1M@LEEGFONL@?$AAe?$AAs?$AA?9?$AAc?$AAl@ 0000000180023658     libucrt:lcidtoname_downlevel.obj
 0002:00005668       ??_C@_1M@KGPDPBDF@?$AAe?$AAs?$AA?9?$AAc?$AAo@ 0000000180023668     libucrt:lcidtoname_downlevel.obj
 0002:00005678       ??_C@_1M@EIAHOHH@?$AAe?$AAs?$AA?9?$AAc?$AAr@ 0000000180023678     libucrt:lcidtoname_downlevel.obj
 0002:00005688       ??_C@_1M@LLPGMBIN@?$AAe?$AAs?$AA?9?$AAd?$AAo@ 0000000180023688     libucrt:lcidtoname_downlevel.obj
 0002:00005698       ??_C@_1M@DKHMKNJA@?$AAe?$AAs?$AA?9?$AAe?$AAc@ 0000000180023698     libucrt:lcidtoname_downlevel.obj
 0002:000056a8       ??_C@_1M@GKGFPKAP@?$AAe?$AAs?$AA?9?$AAe?$AAs@ 00000001800236a8     libucrt:lcidtoname_downlevel.obj
 0002:000056b8       ??_C@_1M@LKHKGDLN@?$AAe?$AAs?$AA?9?$AAg?$AAt@ 00000001800236b8     libucrt:lcidtoname_downlevel.obj
 0002:000056c8       ??_C@_1M@HEIIGGJD@?$AAe?$AAs?$AA?9?$AAh?$AAn@ 00000001800236c8     libucrt:lcidtoname_downlevel.obj
 0002:000056d8       ??_C@_1M@FBDHPPGD@?$AAe?$AAs?$AA?9?$AAm?$AAx@ 00000001800236d8     libucrt:lcidtoname_downlevel.obj
 0002:000056e8       ??_C@_1M@DPAGLNDH@?$AAe?$AAs?$AA?9?$AAn?$AAi@ 00000001800236e8     libucrt:lcidtoname_downlevel.obj
 0002:000056f8       ??_C@_1M@MDGOPGDD@?$AAe?$AAs?$AA?9?$AAp?$AAa@ 00000001800236f8     libucrt:lcidtoname_downlevel.obj
 0002:00005708       ??_C@_1M@EMAMGBGE@?$AAe?$AAs?$AA?9?$AAp?$AAe@ 0000000180023708     libucrt:lcidtoname_downlevel.obj
 0002:00005718       ??_C@_1M@IBMCAOEC@?$AAe?$AAs?$AA?9?$AAp?$AAr@ 0000000180023718     libucrt:lcidtoname_downlevel.obj
 0002:00005728       ??_C@_1M@FGMDIJED@?$AAe?$AAs?$AA?9?$AAp?$AAy@ 0000000180023728     libucrt:lcidtoname_downlevel.obj
 0002:00005738       ??_C@_1M@IIDEOLLL@?$AAe?$AAs?$AA?9?$AAs?$AAv@ 0000000180023738     libucrt:lcidtoname_downlevel.obj
 0002:00005748       ??_C@_1M@GAOBIPA@?$AAe?$AAs?$AA?9?$AAu?$AAy@ 0000000180023748     libucrt:lcidtoname_downlevel.obj
 0002:00005758       ??_C@_1M@JKFFICHJ@?$AAe?$AAs?$AA?9?$AAv?$AAe@ 0000000180023758     libucrt:lcidtoname_downlevel.obj
 0002:00005768       ??_C@_1M@PNMLOJDF@?$AAe?$AAt?$AA?9?$AAe?$AAe@ 0000000180023768     libucrt:lcidtoname_downlevel.obj
 0002:00005778       ??_C@_1M@GHHLIKEI@?$AAe?$AAu?$AA?9?$AAe?$AAs@ 0000000180023778     libucrt:lcidtoname_downlevel.obj
 0002:00005788       ??_C@_1M@PBNONODE@?$AAf?$AAa?$AA?9?$AAi?$AAr@ 0000000180023788     libucrt:lcidtoname_downlevel.obj
 0002:00005798       ??_C@_1M@JEEHPMIL@?$AAf?$AAi?$AA?9?$AAf?$AAi@ 0000000180023798     libucrt:lcidtoname_downlevel.obj
 0002:000057a8       ??_C@_1M@LMDCNDBA@?$AAf?$AAo?$AA?9?$AAf?$AAo@ 00000001800237a8     libucrt:lcidtoname_downlevel.obj
 0002:000057b8       ??_C@_1M@JKEOHLDK@?$AAf?$AAr?$AA?9?$AAb?$AAe@ 00000001800237b8     libucrt:lcidtoname_downlevel.obj
 0002:000057c8       ??_C@_1M@NOHADPMI@?$AAf?$AAr?$AA?9?$AAc?$AAa@ 00000001800237c8     libucrt:lcidtoname_downlevel.obj
 0002:000057d8       ??_C@_1M@KDHIHAEC@?$AAf?$AAr?$AA?9?$AAc?$AAh@ 00000001800237d8     libucrt:lcidtoname_downlevel.obj
 0002:000057e8       ??_C@_1M@MMBBFGAK@?$AAf?$AAr?$AA?9?$AAf?$AAr@ 00000001800237e8     libucrt:lcidtoname_downlevel.obj
 0002:000057f8       ??_C@_1M@PAFNENNF@?$AAf?$AAr?$AA?9?$AAl?$AAu@ 00000001800237f8     libucrt:lcidtoname_downlevel.obj
 0002:00005808       ??_C@_1M@EOHDJGDD@?$AAf?$AAr?$AA?9?$AAm?$AAc@ 0000000180023808     libucrt:lcidtoname_downlevel.obj
 0002:00005818       ??_C@_1M@FAPLLOPF@?$AAg?$AAl?$AA?9?$AAe?$AAs@ 0000000180023818     libucrt:lcidtoname_downlevel.obj
 0002:00005828       ??_C@_1M@FOPBFLOO@?$AAg?$AAu?$AA?9?$AAi?$AAn@ 0000000180023828     libucrt:lcidtoname_downlevel.obj
 0002:00005838       ??_C@_1M@KBMCINPM@?$AAh?$AAe?$AA?9?$AAi?$AAl@ 0000000180023838     libucrt:lcidtoname_downlevel.obj
 0002:00005848       ??_C@_1M@BBPHKFPJ@?$AAh?$AAi?$AA?9?$AAi?$AAn@ 0000000180023848     libucrt:lcidtoname_downlevel.obj
 0002:00005858       ??_C@_1M@PMBNDPHD@?$AAh?$AAr?$AA?9?$AAb?$AAa@ 0000000180023858     libucrt:lcidtoname_downlevel.obj
 0002:00005868       ??_C@_1M@BPCKOEGE@?$AAh?$AAr?$AA?9?$AAh?$AAr@ 0000000180023868     libucrt:lcidtoname_downlevel.obj
 0002:00005878       ??_C@_1M@GACBMHKE@?$AAh?$AAu?$AA?9?$AAh?$AAu@ 0000000180023878     libucrt:lcidtoname_downlevel.obj
 0002:00005888       ??_C@_1M@MILPAJJC@?$AAh?$AAy?$AA?9?$AAa?$AAm@ 0000000180023888     libucrt:lcidtoname_downlevel.obj
 0002:00005898       ??_C@_1M@BABBICEC@?$AAi?$AAd?$AA?9?$AAi?$AAd@ 0000000180023898     libucrt:lcidtoname_downlevel.obj
 0002:000058a8       ??_C@_1M@BIKNHHPF@?$AAi?$AAs?$AA?9?$AAi?$AAs@ 00000001800238a8     libucrt:lcidtoname_downlevel.obj
 0002:000058b8       ??_C@_1M@NMPCJPHE@?$AAi?$AAt?$AA?9?$AAc?$AAh@ 00000001800238b8     libucrt:lcidtoname_downlevel.obj
 0002:000058c8       ??_C@_1M@GHKGFEDF@?$AAi?$AAt?$AA?9?$AAi?$AAt@ 00000001800238c8     libucrt:lcidtoname_downlevel.obj
 0002:000058d8       ??_C@_1M@NIEJCJJA@?$AAj?$AAa?$AA?9?$AAj?$AAp@ 00000001800238d8     libucrt:lcidtoname_downlevel.obj
 0002:000058e8       ??_C@_1M@JILFNBIM@?$AAk?$AAa?$AA?9?$AAg?$AAe@ 00000001800238e8     libucrt:lcidtoname_downlevel.obj
 0002:000058f8       ??_C@_1M@PACPMGPH@?$AAk?$AAk?$AA?9?$AAk?$AAz@ 00000001800238f8     libucrt:lcidtoname_downlevel.obj
 0002:00005908       ??_C@_1M@IELFGMHA@?$AAk?$AAn?$AA?9?$AAi?$AAn@ 0000000180023908     libucrt:lcidtoname_downlevel.obj
 0002:00005918       ??_C@_1O@IBBJHCH@?$AAk?$AAo?$AAk?$AA?9?$AAi?$AAn@ 0000000180023918     libucrt:lcidtoname_downlevel.obj
 0002:00005928       ??_C@_1M@DMHAEOGC@?$AAk?$AAo?$AA?9?$AAk?$AAr@ 0000000180023928     libucrt:lcidtoname_downlevel.obj
 0002:00005938       ??_C@_1M@HBAHBIGA@?$AAk?$AAy?$AA?9?$AAk?$AAg@ 0000000180023938     libucrt:lcidtoname_downlevel.obj
 0002:00005948       ??_C@_1M@KPMILCJG@?$AAl?$AAt?$AA?9?$AAl?$AAt@ 0000000180023948     libucrt:lcidtoname_downlevel.obj
 0002:00005958       ??_C@_1M@BDEKKCA@?$AAl?$AAv?$AA?9?$AAl?$AAv@ 0000000180023958     libucrt:lcidtoname_downlevel.obj
 0002:00005968       ??_C@_1M@ELCKCCJJ@?$AAm?$AAi?$AA?9?$AAn?$AAz@ 0000000180023968     libucrt:lcidtoname_downlevel.obj
 0002:00005978       ??_C@_1M@CBOOLAPA@?$AAm?$AAk?$AA?9?$AAm?$AAk@ 0000000180023978     libucrt:lcidtoname_downlevel.obj
 0002:00005988       ??_C@_1M@GPHNBJKN@?$AAm?$AAl?$AA?9?$AAi?$AAn@ 0000000180023988     libucrt:lcidtoname_downlevel.obj
 0002:00005998       ??_C@_1M@PABJILIG@?$AAm?$AAn?$AA?9?$AAm?$AAn@ 0000000180023998     libucrt:lcidtoname_downlevel.obj
 0002:000059a8       ??_C@_1M@FGBKKIPG@?$AAm?$AAr?$AA?9?$AAi?$AAn@ 00000001800239a8     libucrt:lcidtoname_downlevel.obj
 0002:000059b8       ??_C@_1M@NDBPDDAL@?$AAm?$AAs?$AA?9?$AAb?$AAn@ 00000001800239b8     libucrt:lcidtoname_downlevel.obj
 0002:000059c8       ??_C@_1M@OPIHOOPI@?$AAm?$AAs?$AA?9?$AAm?$AAy@ 00000001800239c8     libucrt:lcidtoname_downlevel.obj
 0002:000059d8       ??_C@_1M@PPDBCNFM@?$AAm?$AAt?$AA?9?$AAm?$AAt@ 00000001800239d8     libucrt:lcidtoname_downlevel.obj
 0002:000059e8       ??_C@_1M@KDJDKMDD@?$AAn?$AAb?$AA?9?$AAn?$AAo@ 00000001800239e8     libucrt:lcidtoname_downlevel.obj
 0002:000059f8       ??_C@_1M@KFCFLMJP@?$AAn?$AAl?$AA?9?$AAb?$AAe@ 00000001800239f8     libucrt:lcidtoname_downlevel.obj
 0002:00005a08       ??_C@_1M@KPOPDDGO@?$AAn?$AAl?$AA?9?$AAn?$AAl@ 0000000180023a08     libucrt:lcidtoname_downlevel.obj
 0002:00005a18       ??_C@_1M@LJKPEMLN@?$AAn?$AAn?$AA?9?$AAn?$AAo@ 0000000180023a18     libucrt:lcidtoname_downlevel.obj
 0002:00005a28       ??_C@_1M@BDGHHBFL@?$AAn?$AAs?$AA?9?$AAz?$AAa@ 0000000180023a28     libucrt:lcidtoname_downlevel.obj
 0002:00005a38       ??_C@_1M@IDEHOAP@?$AAp?$AAa?$AA?9?$AAi?$AAn@ 0000000180023a38     libucrt:lcidtoname_downlevel.obj
 0002:00005a48       ??_C@_1M@HDBKGOGH@?$AAp?$AAl?$AA?9?$AAp?$AAl@ 0000000180023a48     libucrt:lcidtoname_downlevel.obj
 0002:00005a58       ??_C@_1M@LJLLCMEH@?$AAp?$AAt?$AA?9?$AAb?$AAr@ 0000000180023a58     libucrt:lcidtoname_downlevel.obj
 0002:00005a68       ??_C@_1M@NCMONAAL@?$AAp?$AAt?$AA?9?$AAp?$AAt@ 0000000180023a68     libucrt:lcidtoname_downlevel.obj
 0002:00005a78       ??_C@_1O@EAKMAJDN@?$AAq?$AAu?$AAz?$AA?9?$AAb?$AAo@ 0000000180023a78     libucrt:lcidtoname_downlevel.obj
 0002:00005a88       ??_C@_1O@BHHPIGDN@?$AAq?$AAu?$AAz?$AA?9?$AAe?$AAc@ 0000000180023a88     libucrt:lcidtoname_downlevel.obj
 0002:00005a98       ??_C@_1O@GBAPEKMJ@?$AAq?$AAu?$AAz?$AA?9?$AAp?$AAe@ 0000000180023a98     libucrt:lcidtoname_downlevel.obj
 0002:00005aa8       ??_C@_1M@CLGLEFBO@?$AAr?$AAo?$AA?9?$AAr?$AAo@ 0000000180023aa8     libucrt:lcidtoname_downlevel.obj
 0002:00005ab8       ??_C@_1M@CEEDODME@?$AAr?$AAu?$AA?9?$AAr?$AAu@ 0000000180023ab8     libucrt:lcidtoname_downlevel.obj
 0002:00005ac8       ??_C@_1M@HPKKKMPP@?$AAs?$AAa?$AA?9?$AAi?$AAn@ 0000000180023ac8     libucrt:lcidtoname_downlevel.obj
 0002:00005ad8       ??_C@_1M@BKMAIGOJ@?$AAs?$AAe?$AA?9?$AAf?$AAi@ 0000000180023ad8     libucrt:lcidtoname_downlevel.obj
 0002:00005ae8       ??_C@_1M@NDPIFLFI@?$AAs?$AAe?$AA?9?$AAn?$AAo@ 0000000180023ae8     libucrt:lcidtoname_downlevel.obj
 0002:00005af8       ??_C@_1M@DANKKHJ@?$AAs?$AAe?$AA?9?$AAs?$AAe@ 0000000180023af8     libucrt:lcidtoname_downlevel.obj
 0002:00005b08       ??_C@_1M@PNBLONPJ@?$AAs?$AAk?$AA?9?$AAs?$AAk@ 0000000180023b08     libucrt:lcidtoname_downlevel.obj
 0002:00005b18       ??_C@_1M@LFMODOAL@?$AAs?$AAl?$AA?9?$AAs?$AAi@ 0000000180023b18     libucrt:lcidtoname_downlevel.obj
 0002:00005b28       ??_C@_1O@DFKOMPG@?$AAs?$AAm?$AAa?$AA?9?$AAn?$AAo@ 0000000180023b28     libucrt:lcidtoname_downlevel.obj
 0002:00005b38       ??_C@_1O@NDKPBNNH@?$AAs?$AAm?$AAa?$AA?9?$AAs?$AAe@ 0000000180023b38     libucrt:lcidtoname_downlevel.obj
 0002:00005b48       ??_C@_1O@PLLKBHAB@?$AAs?$AAm?$AAj?$AA?9?$AAn?$AAo@ 0000000180023b48     libucrt:lcidtoname_downlevel.obj
 0002:00005b58       ??_C@_1O@CLEPOGCA@?$AAs?$AAm?$AAj?$AA?9?$AAs?$AAe@ 0000000180023b58     libucrt:lcidtoname_downlevel.obj
 0002:00005b68       ??_C@_1O@DLGJGKMK@?$AAs?$AAm?$AAn?$AA?9?$AAf?$AAi@ 0000000180023b68     libucrt:lcidtoname_downlevel.obj
 0002:00005b78       ??_C@_1O@OJDJGAJC@?$AAs?$AAm?$AAs?$AA?9?$AAf?$AAi@ 0000000180023b78     libucrt:lcidtoname_downlevel.obj
 0002:00005b88       ??_C@_1M@BOFOGHPB@?$AAs?$AAq?$AA?9?$AAa?$AAl@ 0000000180023b88     libucrt:lcidtoname_downlevel.obj
 0002:00005b98       ??_C@_1BG@LJBBIPGB@?$AAs?$AAr?$AA?9?$AAb?$AAa?$AA?9?$AAc?$AAy?$AAr?$AAl@ 0000000180023b98     libucrt:lcidtoname_downlevel.obj
 0002:00005bb0       ??_C@_1BG@JLBENFOE@?$AAs?$AAr?$AA?9?$AAb?$AAa?$AA?9?$AAl?$AAa?$AAt?$AAn@ 0000000180023bb0     libucrt:lcidtoname_downlevel.obj
 0002:00005bc8       ??_C@_1BG@KODPNHE@?$AAs?$AAr?$AA?9?$AAs?$AAp?$AA?9?$AAc?$AAy?$AAr?$AAl@ 0000000180023bc8     libucrt:lcidtoname_downlevel.obj
 0002:00005be0       ??_C@_1BG@CIOGKHPB@?$AAs?$AAr?$AA?9?$AAs?$AAp?$AA?9?$AAl?$AAa?$AAt?$AAn@ 0000000180023be0     libucrt:lcidtoname_downlevel.obj
 0002:00005bf8       ??_C@_1M@NGFJLMAC@?$AAs?$AAv?$AA?9?$AAf?$AAi@ 0000000180023bf8     libucrt:lcidtoname_downlevel.obj
 0002:00005c08       ??_C@_1M@MPJEJAJC@?$AAs?$AAv?$AA?9?$AAs?$AAe@ 0000000180023c08     libucrt:lcidtoname_downlevel.obj
 0002:00005c18       ??_C@_1M@MPNDHLFK@?$AAs?$AAw?$AA?9?$AAk?$AAe@ 0000000180023c18     libucrt:lcidtoname_downlevel.obj
 0002:00005c28       ??_C@_1O@KOHBJJI@?$AAs?$AAy?$AAr?$AA?9?$AAs?$AAy@ 0000000180023c28     libucrt:lcidtoname_downlevel.obj
 0002:00005c38       ??_C@_1M@LDCEFHA@?$AAt?$AAa?$AA?9?$AAi?$AAn@ 0000000180023c38     libucrt:lcidtoname_downlevel.obj
 0002:00005c48       ??_C@_1M@CNJOFAK@?$AAt?$AAe?$AA?9?$AAi?$AAn@ 0000000180023c48     libucrt:lcidtoname_downlevel.obj
 0002:00005c58       ??_C@_1M@GNAECACD@?$AAt?$AAh?$AA?9?$AAt?$AAh@ 0000000180023c58     libucrt:lcidtoname_downlevel.obj
 0002:00005c68       ??_C@_1M@CHBIHOJO@?$AAt?$AAn?$AA?9?$AAz?$AAa@ 0000000180023c68     libucrt:lcidtoname_downlevel.obj
 0002:00005c78       ??_C@_1M@GCCMIGPJ@?$AAt?$AAr?$AA?9?$AAt?$AAr@ 0000000180023c78     libucrt:lcidtoname_downlevel.obj
 0002:00005c88       ??_C@_1M@CELMCNBK@?$AAt?$AAt?$AA?9?$AAr?$AAu@ 0000000180023c88     libucrt:lcidtoname_downlevel.obj
 0002:00005c98       ??_C@_1M@KLMCELGA@?$AAu?$AAk?$AA?9?$AAu?$AAa@ 0000000180023c98     libucrt:lcidtoname_downlevel.obj
 0002:00005ca8       ??_C@_1M@EPAJJAJF@?$AAu?$AAr?$AA?9?$AAp?$AAk@ 0000000180023ca8     libucrt:lcidtoname_downlevel.obj
 0002:00005cb8       ??_C@_1BG@GEGPMCDJ@?$AAu?$AAz?$AA?9?$AAu?$AAz?$AA?9?$AAc?$AAy?$AAr?$AAl@ 0000000180023cb8     libucrt:lcidtoname_downlevel.obj
 0002:00005cd0       ??_C@_1BG@EGGKJILM@?$AAu?$AAz?$AA?9?$AAu?$AAz?$AA?9?$AAl?$AAa?$AAt?$AAn@ 0000000180023cd0     libucrt:lcidtoname_downlevel.obj
 0002:00005ce8       ??_C@_1M@GFOCLFF@?$AAv?$AAi?$AA?9?$AAv?$AAn@ 0000000180023ce8     libucrt:lcidtoname_downlevel.obj
 0002:00005cf8       ??_C@_1M@CPAMEDFI@?$AAx?$AAh?$AA?9?$AAz?$AAa@ 0000000180023cf8     libucrt:lcidtoname_downlevel.obj
 0002:00005d08       ??_C@_1O@EBKIFIGN@?$AAz?$AAh?$AA?9?$AAc?$AAh?$AAs@ 0000000180023d08     libucrt:lcidtoname_downlevel.obj
 0002:00005d18       ??_C@_1O@NMHPGANE@?$AAz?$AAh?$AA?9?$AAc?$AAh?$AAt@ 0000000180023d18     libucrt:lcidtoname_downlevel.obj
 0002:00005d28       ??_C@_1M@LPINJOMC@?$AAz?$AAh?$AA?9?$AAc?$AAn@ 0000000180023d28     libucrt:lcidtoname_downlevel.obj
 0002:00005d38       ??_C@_1M@OCJEJODD@?$AAz?$AAh?$AA?9?$AAh?$AAk@ 0000000180023d38     libucrt:lcidtoname_downlevel.obj
 0002:00005d48       ??_C@_1M@DNDLJINH@?$AAz?$AAh?$AA?9?$AAm?$AAo@ 0000000180023d48     libucrt:lcidtoname_downlevel.obj
 0002:00005d58       ??_C@_1M@MBFDNDND@?$AAz?$AAh?$AA?9?$AAs?$AAg@ 0000000180023d58     libucrt:lcidtoname_downlevel.obj
 0002:00005d68       ??_C@_1M@IMEPLEPE@?$AAz?$AAh?$AA?9?$AAt?$AAw@ 0000000180023d68     libucrt:lcidtoname_downlevel.obj
 0002:00005d78       ??_C@_1M@BBGHNHJP@?$AAz?$AAu?$AA?9?$AAz?$AAa@ 0000000180023d78     libucrt:lcidtoname_downlevel.obj
 0002:00005fe0       ??_C@_1BA@BALFACEM@?$AAC?$AAO?$AAN?$AAO?$AAU?$AAT?$AA$@ 0000000180023fe0     libucrt:initcon.obj
 0002:00005ff0       __log10_256_lead           0000000180023ff0     libucrt:log10_256_lead_tail_table.obj
 0002:00006800       __log10_256_tail           0000000180024800     libucrt:log10_256_lead_tail_table.obj
 0002:00007010       __log_F_inv_qword          0000000180025010     libucrt:log_f_inv_qword_table.obj
 0002:00007820       ??_C@_05HGHHAHAP@log10@    0000000180025820     libucrt:log_special.obj
 0002:00007840       ??_C@_1BA@IFBJBPAK@?$AAN?$AAe?$AAt?$AAw?$AAo?$AAr?$AAk@ 0000000180025840     Network.obj
 0002:00007850       ??_C@_1DO@KECGBOGC@?$AAN?$AAe?$AAt?$AAw?$AAo?$AAr?$AAk?$AA?5?$AAP?$AAl?$AAu?$AAg?$AAi?$AAn?$AA?5@ 0000000180025850     Network.obj
 0002:00007890       ??_C@_1DE@BGKMIKPD@?$AAE?$AAu?$AAg?$AAe?$AAn?$AAe?$AA?5?$AAR?$AAo?$AAs?$AAh?$AAa?$AAl?$AA?5?$AA?$CG@ 0000000180025890     Network.obj
 0002:000078c8       ??_C@_1BC@EJKAECLA@?$AAn?$AAe?$AAt?$AA?3?$AAn?$AAe?$AAt?$AAg@ 00000001800258c8     Network.obj
 0002:000078e0       DisconnectDialogGuid       00000001800258e0     Network.obj
 0002:000078f0       MenuGuid                   00000001800258f0     Network.obj
 0002:00007900       MainGuid                   0000000180025900     Network.obj
 0002:00007910       ConfigDialogGuid           0000000180025910     Network.obj
 0002:00007920       UserPassDialogGuid         0000000180025920     Network.obj
 0002:00007930       ??_C@_11LOCGONAA@@         0000000180025930     NetCfg.obj
 0002:00007938       ??_C@_1BE@OMHKNOGL@?$AAP?$AAa?$AAn?$AAe?$AAl?$AAM?$AAo?$AAd?$AAe@ 0000000180025938     NetCfg.obj
 0002:00007950       ??_C@_1BC@ENICKDH@?$AAC?$AAo?$AAn?$AAt?$AAe?$AAn?$AAt?$AAs@ 0000000180025950     NetCfg.obj
 0002:00007968       ??_C@_1BO@ONNGHKLG@?$AAD?$AAi?$AAs?$AAc?$AAo?$AAn?$AAn?$AAe?$AAc?$AAt?$AAM?$AAo?$AAd?$AAe@ 0000000180025968     NetCfg.obj
 0002:00007988       ??_C@_1BO@NGDOFANC@?$AAA?$AAd?$AAd?$AAT?$AAo?$AAD?$AAi?$AAs?$AAk?$AAs?$AAM?$AAe?$AAn?$AAu@ 0000000180025988     NetCfg.obj
 0002:000079a8       ??_C@_1CC@PNNAOHJC@?$AAA?$AAd?$AAd?$AAT?$AAo?$AAP?$AAl?$AAu?$AAg?$AAi?$AAn?$AAs?$AAM?$AAe?$AAn@ 00000001800259a8     NetCfg.obj
 0002:000079d0       ??_C@_1BK@KLHOCBFH@?$AAH?$AAi?$AAd?$AAd?$AAe?$AAn?$AAS?$AAh?$AAa?$AAr?$AAe?$AAs@ 00000001800259d0     NetCfg.obj
 0002:000079f0       ??_C@_1BK@BMPKBAI@?$AAS?$AAh?$AAo?$AAw?$AAP?$AAr?$AAi?$AAn?$AAt?$AAe?$AAr?$AAs@ 00000001800259f0     NetCfg.obj
 0002:00007a10       ??_C@_1BK@IMMOFPGP@?$AAL?$AAo?$AAc?$AAa?$AAl?$AAN?$AAe?$AAt?$AAw?$AAo?$AAr?$AAk@ 0000000180025a10     NetCfg.obj
 0002:00007a30       ??_C@_1CK@LKLAIIEF@?$AAH?$AAi?$AAd?$AAd?$AAe?$AAn?$AAS?$AAh?$AAa?$AAr?$AAe?$AAs?$AAA?$AAs?$AAH@ 0000000180025a30     NetCfg.obj
 0002:00007a60       ??_C@_1BO@FLKJOEGH@?$AAF?$AAu?$AAl?$AAl?$AAP?$AAa?$AAt?$AAh?$AAS?$AAh?$AAa?$AAr?$AAe?$AAs@ 0000000180025a60     NetCfg.obj
 0002:00007a80       ??_C@_1BO@LADGPGKF@?$AAF?$AAa?$AAv?$AAo?$AAr?$AAi?$AAt?$AAe?$AAs?$AAF?$AAl?$AAa?$AAg?$AAs@ 0000000180025a80     NetCfg.obj
 0002:00007aa0       ??_C@_1CE@DLMGFKCB@?$AAN?$AAo?$AAR?$AAo?$AAo?$AAt?$AAD?$AAo?$AAu?$AAb?$AAl?$AAe?$AAP?$AAo?$AAi@ 0000000180025aa0     NetCfg.obj
 0002:00007ac8       ??_C@_1CE@JCLLPGFN@?$AAN?$AAa?$AAv?$AAi?$AAg?$AAa?$AAt?$AAe?$AAT?$AAo?$AAD?$AAo?$AAm?$AAa?$AAi@ 0000000180025ac8     NetCfg.obj
 0002:00007af0       ??_C@_1BI@EOGLPBJ@?$AAS?$AAc?$AAa?$AAn?$AAN?$AAe?$AAt?$AAw?$AAo?$AAr?$AAk@ 0000000180025af0     NetCfg.obj
 0002:00007b08       ??_C@_1O@BJPKKLLM@?$AAC?$AAo?$AAn?$AAf?$AAi?$AAg@ 0000000180025b08     NetCfg.obj
 0002:00007b18       ?FarGuid@@3U_GUID@@B       0000000180025b18     NetCfg.obj
 0002:00007b30       ??_7PluginCheckBoxBinding@@6B@ 0000000180025b30     NetCfg.obj
 0002:00007b48       ??_7PluginRadioButtonBinding@@6B@ 0000000180025b48     NetCfg.obj
 0002:00007b58       ??_C@_0BC@EOODALEL@Unknown?5exception@ 0000000180025b58     NetClass.obj
 0002:00007b70       ??_C@_0BF@KINCDENJ@bad?5array?5new?5length@ 0000000180025b70     NetClass.obj
 0002:00007b88       ??_C@_0BA@JFNIOLAK@string?5too?5long@ 0000000180025b88     NetClass.obj
 0002:00007b98       ??_C@_13DMCFHHKM@?$AA3@    0000000180025b98     NetClass.obj
 0002:00007ba0       ??_C@_1M@DFKENGJN@?$AA?$CF?$AAs?$AA?2?$AA?$CF?$AAs@ 0000000180025ba0     NetClass.obj
 0002:00007bac       ??_C@_13GGAHEHIG@?$AA?$AB@ 0000000180025bac     NetClass.obj
 0002:00007bb0       ??_C@_13LBAGMAIH@?$AA?6@   0000000180025bb0     NetClass.obj
 0002:00007bb8       ??_C@_1BG@PFLPMIKK@?$AAN?$AAe?$AAt?$AAw?$AAo?$AAr?$AAk?$AA?2?$AA?$CF?$AAc@ 0000000180025bb8     NetClass.obj
 0002:00007bd0       ??_C@_1CA@FPAJCONG@?$AAD?$AAi?$AAs?$AAc?$AAo?$AAn?$AAn?$AAe?$AAc?$AAt?$AAD?$AAr?$AAi?$AAv?$AAe@ 0000000180025bd0     NetClass.obj
 0002:00007bf0       ??_C@_1CC@DJEEMKIM@?$AAR?$AAe?$AAm?$AAo?$AAv?$AAe?$AAC?$AAo?$AAn?$AAn?$AAe?$AAc?$AAt?$AAi?$AAo@ 0000000180025bf0     NetClass.obj
 0002:00007c18       ??_C@_1BC@BDJLNJKB@?$AA?5?$AA?$CF?$AAs?$AA?3?$AA?5?$AA?$CF?$AAs?$AA?5@ 0000000180025c18     NetClass.obj
 0002:00007c30       ??_C@_1BA@LKKFCKCJ@?$AAN?$AA?0?$AAC?$AA0?$AA?0?$AAC?$AA1@ 0000000180025c30     NetClass.obj
 0002:00007c40       ??_C@_1M@ICMPIFCG@?$AA0?$AA?0?$AA2?$AA?0?$AA0@ 0000000180025c40     NetClass.obj
 0002:00007c50       ??_C@_19ELDIFHOA@?$AAN?$AA?0?$AAC?$AA0@ 0000000180025c50     NetClass.obj
 0002:00007c60       ??_C@_17DFFMIGIM@?$AA0?$AA?0?$AA2@ 0000000180025c60     NetClass.obj
 0002:00007c68       ??_C@_13FPGAJAPJ@?$AA?2@   0000000180025c68     NetClass.obj
 0002:00007c6c       ??_C@_15DDHGOCBH@?$AA?4?$AA?4@ 0000000180025c6c     NetClass.obj
 0002:00007c74       ??_C@_15LEKKCGMK@?$AA?2?$AA?2@ 0000000180025c74     NetClass.obj
 0002:00007c80       ??_C@_1BE@DEAPIJA@?$AAM?$AAi?$AAc?$AAr?$AAo?$AAs?$AAo?$AAf?$AAt@ 0000000180025c80     NetClass.obj
 0002:00007c98       ??_C@_1M@GGFFHEOF@?$AAI?$AAn?$AAf?$AAo?$AA?6@ 0000000180025c98     NetClass.obj
 0002:00007cb0       ??_C@_1CC@FMHKFHHK@?$AAT?$AAh?$AAi?$AAs?$AA?5?$AAi?$AAs?$AA?5?$AAa?$AA?5?$AAd?$AAo?$AAm?$AAa?$AAi@ 0000000180025cb0     NetClass.obj
 0002:00007ce0       ??_C@_1CC@LMAEILBC@?$AAT?$AAh?$AAi?$AAs?$AA?5?$AAi?$AAs?$AA?5?$AAa?$AA?5?$AAS?$AAE?$AAR?$AAV?$AAE@ 0000000180025ce0     NetClass.obj
 0002:00007d08       ??_C@_19IEEMEPMH@?$AAD?$AAa?$AAt?$AAa@ 0000000180025d08     NetClass.obj
 0002:00007d18       ??_C@_19POFGONBN@?$AA?$CG?$AA?$CF?$AAc?$AA?3@ 0000000180025d18     NetClass.obj
 0002:00007d28       ??_C@_1M@JNLNDDIN@?$AA?$CF?$AAT?$AAM?$AAP?$AA?$CF@ 0000000180025d28     NetClass.obj
 0002:00007d38       ??_C@_1BI@LJGELBNP@?$AAN?$AAe?$AAt?$AAw?$AAo?$AAr?$AAk?$AAU?$AAs?$AAe?$AAr@ 0000000180025d38     NetClass.obj
 0002:00007d50       ??_C@_15PCEAIKAA@?$AA?4?$AA?2@ 0000000180025d50     NetClass.obj
 0002:00007d58       ??_C@_13HOIJIPNN@?$AA?5@   0000000180025d58     NetClass.obj
 0002:00007d5c       ??_C@_15JNBOKNOG@?$AA?$AN?$AA?6@ 0000000180025d5c     NetClass.obj
 0002:00007d64       ??_C@_15PKPONJIK@?$AA?2?$AA?$CK@ 0000000180025d64     NetClass.obj
 0002:00007d70       ??_C@_1BA@BFGBFLGI@?$AA?2?$AA?2?$AA?$DP?$AA?2?$AAU?$AAN?$AAC@ 0000000180025d70     NetClass.obj
 0002:00007d80       ??_C@_19HNBCINPI@?$AAn?$AAe?$AAt?$AAg@ 0000000180025d80     NetClass.obj
 0002:00007d90       ??_C@_17ODNIDLDN@?$AAn?$AAe?$AAt@ 0000000180025d90     NetClass.obj
 0002:00007d98       ??_C@_1BM@EONNLOAH@?$AAR?$AAe?$AAm?$AAo?$AAv?$AAe?$AAI?$AAt?$AAe?$AAm?$AAF?$AAa?$AAv@ 0000000180025d98     NetClass.obj
 0002:00007db8       ??_C@_19INGAAIIO@?$AAI?$AAP?$AAC?$AA$@ 0000000180025db8     NetClass.obj
 0002:00007dc8       ??_C@_0BI@CFPLBAOH@invalid?5string?5position@ 0000000180025dc8     NetClass.obj
 0002:00007de0       ??_C@_0BA@FOIKENOD@vector?5too?5long@ 0000000180025de0     NetClass.obj
 0002:00007e70       ??_7PluginEditFieldBinding@@6B@ 0000000180025e70     NetClass.obj
 0002:00007f50       __xmm@00000000000000070000000000000000 0000000180025f50     NetClass.obj
 0002:00007f60       __xmm@ffffffffffffffffffffffffffffffff 0000000180025f60     NetClass.obj
 0002:00007fd0       _load_config_used          0000000180025fd0     LIBCMT:loadcfg.obj
 0002:00008180       ??_R4logic_error@std@@6B@  0000000180026180     libcpmt:xthrow.obj
 0002:000081a8       ??_R3logic_error@std@@8    00000001800261a8     libcpmt:xthrow.obj
 0002:000081c0       ??_R2logic_error@std@@8    00000001800261c0     libcpmt:xthrow.obj
 0002:000081d8       ??_R1A@?0A@EA@logic_error@std@@8 00000001800261d8     libcpmt:xthrow.obj
 0002:00008200       ??_R4length_error@std@@6B@ 0000000180026200     libcpmt:xthrow.obj
 0002:00008228       ??_R3length_error@std@@8   0000000180026228     libcpmt:xthrow.obj
 0002:00008240       ??_R2length_error@std@@8   0000000180026240     libcpmt:xthrow.obj
 0002:00008260       ??_R1A@?0A@EA@length_error@std@@8 0000000180026260     libcpmt:xthrow.obj
 0002:00008288       ??_R4out_of_range@std@@6B@ 0000000180026288     libcpmt:xthrow.obj
 0002:000082b0       ??_R3out_of_range@std@@8   00000001800262b0     libcpmt:xthrow.obj
 0002:000082c8       ??_R2out_of_range@std@@8   00000001800262c8     libcpmt:xthrow.obj
 0002:000082e8       ??_R1A@?0A@EA@out_of_range@std@@8 00000001800262e8     libcpmt:xthrow.obj
 0002:00008310       ??_R4type_info@@6B@        0000000180026310     LIBCMT:std_type_info_static.obj
 0002:00008338       ??_R3type_info@@8          0000000180026338     LIBCMT:std_type_info_static.obj
 0002:00008350       ??_R2type_info@@8          0000000180026350     LIBCMT:std_type_info_static.obj
 0002:00008360       ??_R1A@?0A@EA@type_info@@8 0000000180026360     LIBCMT:std_type_info_static.obj
 0002:00008388       ??_R4bad_exception@std@@6B@ 0000000180026388     libvcruntime:frame.obj
 0002:000083b0       ??_R3bad_exception@std@@8  00000001800263b0     libvcruntime:frame.obj
 0002:000083c8       ??_R2bad_exception@std@@8  00000001800263c8     libvcruntime:frame.obj
 0002:000083e0       ??_R1A@?0A@EA@bad_exception@std@@8 00000001800263e0     libvcruntime:frame.obj
 0002:00008408       ??_R3DialogAPIBinding@@8   0000000180026408     NetCfg.obj
 0002:00008420       ??_R1A@?0A@EA@PluginCheckBoxBinding@@8 0000000180026420     NetCfg.obj
 0002:00008448       ??_R2PluginRadioButtonBinding@@8 0000000180026448     NetCfg.obj
 0002:00008460       ??_R3PluginRadioButtonBinding@@8 0000000180026460     NetCfg.obj
 0002:00008478       ??_R4PluginRadioButtonBinding@@6B@ 0000000180026478     NetCfg.obj
 0002:000084a0       ??_R3PluginCheckBoxBinding@@8 00000001800264a0     NetCfg.obj
 0002:000084b8       ??_R2DialogAPIBinding@@8   00000001800264b8     NetCfg.obj
 0002:000084c8       ??_R4PluginCheckBoxBinding@@6B@ 00000001800264c8     NetCfg.obj
 0002:000084f0       ??_R1A@?0A@EA@PluginRadioButtonBinding@@8 00000001800264f0     NetCfg.obj
 0002:00008518       ??_R2PluginCheckBoxBinding@@8 0000000180026518     NetCfg.obj
 0002:00008530       ??_R1A@?0A@EA@DialogAPIBinding@@8 0000000180026530     NetCfg.obj
 0002:00008558       ??_R4exception@std@@6B@    0000000180026558     NetClass.obj
 0002:00008580       ??_R2bad_array_new_length@std@@8 0000000180026580     NetClass.obj
 0002:000085a0       ??_R2PluginEditFieldBinding@@8 00000001800265a0     NetClass.obj
 0002:000085b8       ??_R2bad_alloc@std@@8      00000001800265b8     NetClass.obj
 0002:000085d0       ??_R1A@?0A@EA@exception@std@@8 00000001800265d0     NetClass.obj
 0002:000085f8       ??_R1A@?0A@EA@bad_alloc@std@@8 00000001800265f8     NetClass.obj
 0002:00008620       ??_R2exception@std@@8      0000000180026620     NetClass.obj
 0002:00008630       ??_R3exception@std@@8      0000000180026630     NetClass.obj
 0002:00008648       ??_R4PluginEditFieldBinding@@6B@ 0000000180026648     NetClass.obj
 0002:00008670       ??_R4bad_alloc@std@@6B@    0000000180026670     NetClass.obj
 0002:00008698       ??_R3bad_array_new_length@std@@8 0000000180026698     NetClass.obj
 0002:000086b0       ??_R3bad_alloc@std@@8      00000001800266b0     NetClass.obj
 0002:000086c8       ??_R4bad_array_new_length@std@@6B@ 00000001800266c8     NetClass.obj
 0002:000086f0       ??_R3PluginEditFieldBinding@@8 00000001800266f0     NetClass.obj
 0002:00008708       ??_R1A@?0A@EA@bad_array_new_length@std@@8 0000000180026708     NetClass.obj
 0002:00008730       ??_R1A@?0A@EA@PluginEditFieldBinding@@8 0000000180026730     NetClass.obj
 0002:00008754       __volatile_metadata        0000000180026754     <linker-defined>
 0002:00008af8       __rtc_iaa                  0000000180026af8     LIBCMT:initsect.obj
 0002:00008b00       __rtc_izz                  0000000180026b00     LIBCMT:initsect.obj
 0002:00008b08       __rtc_taa                  0000000180026b08     LIBCMT:initsect.obj
 0002:00008b10       __rtc_tzz                  0000000180026b10     LIBCMT:initsect.obj
 0002:0000acb0       _TI2?AVbad_alloc@std@@     0000000180028cb0     libcpmt:xthrow.obj
 0002:0000acd0       _CTA2?AVbad_alloc@std@@    0000000180028cd0     libcpmt:xthrow.obj
 0002:0000ace8       _CT??_R0?AVlogic_error@std@@@8??0logic_error@std@@QEAA@AEBV01@@Z24 0000000180028ce8     libcpmt:xthrow.obj
 0002:0000ad10       _TI3?AVlength_error@std@@  0000000180028d10     libcpmt:xthrow.obj
 0002:0000ad30       _CTA3?AVlength_error@std@@ 0000000180028d30     libcpmt:xthrow.obj
 0002:0000ad50       _CT??_R0?AVlength_error@std@@@8??0length_error@std@@QEAA@AEBV01@@Z24 0000000180028d50     libcpmt:xthrow.obj
 0002:0000ad78       _TI3?AVout_of_range@std@@  0000000180028d78     libcpmt:xthrow.obj
 0002:0000ad98       _CTA3?AVout_of_range@std@@ 0000000180028d98     libcpmt:xthrow.obj
 0002:0000adb8       _CT??_R0?AVout_of_range@std@@@8??0out_of_range@std@@QEAA@AEBV01@@Z24 0000000180028db8     libcpmt:xthrow.obj
 0002:0000ade0       _TI2?AVbad_exception@std@@ 0000000180028de0     libvcruntime:frame.obj
 0002:0000ae00       _CTA2?AVbad_exception@std@@ 0000000180028e00     libvcruntime:frame.obj
 0002:0000ae18       _CT??_R0?AVbad_exception@std@@@8??0bad_exception@std@@QEAA@AEBV01@@Z24 0000000180028e18     libvcruntime:frame.obj
 0002:0000ae40       _CTA3?AVbad_array_new_length@std@@ 0000000180028e40     NetClass.obj
 0002:0000ae60       _CT??_R0?AVbad_array_new_length@std@@@8??0bad_array_new_length@std@@QEAA@AEBV01@@Z24 0000000180028e60     NetClass.obj
 0002:0000ae88       _CT??_R0?AVbad_alloc@std@@@8??0bad_alloc@std@@QEAA@AEBV01@@Z24 0000000180028e88     NetClass.obj
 0002:0000aeb0       _CT??_R0?AVexception@std@@@8??0exception@std@@QEAA@AEBV01@@Z24 0000000180028eb0     NetClass.obj
 0002:0000aed8       _TI3?AVbad_array_new_length@std@@ 0000000180028ed8     NetClass.obj
 0002:0000b184       __IMPORT_DESCRIPTOR_KERNEL32 0000000180029184     kernel32:KERNEL32.dll
 0002:0000b198       __IMPORT_DESCRIPTOR_ADVAPI32 0000000180029198     advapi32:ADVAPI32.dll
 0002:0000b1ac       __IMPORT_DESCRIPTOR_USER32 00000001800291ac     user32:USER32.dll
 0002:0000b1c0       __IMPORT_DESCRIPTOR_NETAPI32 00000001800291c0     netapi32:NETAPI32.dll
 0002:0000b1d4       __IMPORT_DESCRIPTOR_MPR    00000001800291d4     mpr:MPR.dll
 0002:0000b1e8       __NULL_IMPORT_DESCRIPTOR   00000001800291e8     kernel32:KERNEL32.dll
 0003:00000000       __scrt_native_dllmain_reason 000000018002a000     LIBCMT:utility.obj
 0003:00000008       __security_cookie_complement 000000018002a008     LIBCMT:gs_cookie.obj
 0003:00000010       __security_cookie          000000018002a010     LIBCMT:gs_cookie.obj
 0003:00000018       __isa_available            000000018002a018     LIBCMT:cpu_disp.obj
 0003:0000001c       __isa_enabled              000000018002a01c     LIBCMT:cpu_disp.obj
 0003:00000020       __memcpy_nt_iters          000000018002a020     LIBCMT:cpu_disp.obj
 0003:00000028       __memset_nt_iters          000000018002a028     LIBCMT:cpu_disp.obj
 0003:00000040       __abort_behavior           000000018002a040     libucrt:abort.obj
 0003:00000060       __acrt_initial_multibyte_data 000000018002a060     libucrt:mbctype.obj
 0003:000005a0       __acrt_initial_locale_data 000000018002a5a0     libucrt:nlsdata.obj
 0003:000006f8       __acrt_initial_locale_pointers 000000018002a6f8     libucrt:nlsdata.obj
 0003:00000708       __acrt_wide_c_locale_string 000000018002a708     libucrt:nlsdata.obj
 0003:00000710       _iob                       000000018002a710     libucrt:_file.obj
 0003:00000818       __globallocalestatus       000000018002a818     libucrt:glstatus.obj
 0003:00000820       __acrt_lconv_c             000000018002a820     libucrt:localeconv.obj
 0003:000008b8       __acrt_lconv_static_decimal 000000018002a8b8     libucrt:localeconv.obj
 0003:000008bc       __acrt_lconv_static_W_decimal 000000018002a8bc     libucrt:localeconv.obj
 0003:000008c0       _lookuptrailbytes          000000018002a8c0     libucrt:read.obj
 0003:000009d4       _fltused                   000000018002a9d4     LIBCMT:fltused.obj
 0003:000009e0       ?IsFirstRun@@3HA           000000018002a9e0     Network.obj
 0003:00000a40       ?CommonCurResource@@3VNetResource@@A 000000018002aa40     NetCommon.obj
 0003:00000ad0       ??_R0?AVlogic_error@std@@@8 000000018002aad0     libcpmt:xthrow.obj
 0003:00000af8       ??_R0?AVlength_error@std@@@8 000000018002aaf8     libcpmt:xthrow.obj
 0003:00000b20       ??_R0?AVout_of_range@std@@@8 000000018002ab20     libcpmt:xthrow.obj
 0003:00000b48       ??_R0?AVbad_exception@std@@@8 000000018002ab48     libvcruntime:frame.obj
 0003:00000b70       ??_R0?AVbad_alloc@std@@@8  000000018002ab70     NetClass.obj
 0003:00000b98       ??_R0?AVexception@std@@@8  000000018002ab98     NetClass.obj
 0003:00000bc0       ??_R0?AVbad_array_new_length@std@@@8 000000018002abc0     NetClass.obj
 0003:00000bf0       ??_R0?AVtype_info@@@8      000000018002abf0     LIBCMT:std_type_info_static.obj
 0003:00000c10       ??_R0?AVPluginRadioButtonBinding@@@8 000000018002ac10     NetCfg.obj
 0003:00000c40       ??_R0?AVDialogAPIBinding@@@8 000000018002ac40     NetCfg.obj
 0003:00000c68       ??_R0?AVPluginCheckBoxBinding@@@8 000000018002ac68     NetCfg.obj
 0003:00000c98       ??_R0?AVPluginEditFieldBinding@@@8 000000018002ac98     NetClass.obj
 0003:00001240       __scrt_current_native_startup_state 000000018002b240     LIBCMT:utility.obj
 0003:00001248       __scrt_native_startup_lock 000000018002b248     LIBCMT:utility.obj
 0003:0000128c       __favor                    000000018002b28c     LIBCMT:cpu_disp.obj
 0003:00001290       __scrt_debugger_hook_flag  000000018002b290     LIBCMT:utility_desktop.obj
 0003:00001298       __castguard_check_failure_os_handled_fptr 000000018002b298     LIBCMT:guard_support.obj
 0003:000012a0       ?__type_info_root_node@@3U__type_info_node@@A 000000018002b2a0     LIBCMT:tncleanup.obj
 0003:000012b0       ?_OptionsStorage@?1??__local_stdio_printf_options@@9@4_KA 000000018002b2b0     LIBCMT:default_local_stdio_options.obj
 0003:000012b8       ?_OptionsStorage@?1??__local_stdio_scanf_options@@9@4_KA 000000018002b2b8     LIBCMT:default_local_stdio_options.obj
 0003:000012c0       ?__WinRTOutOfMemoryExceptionCallback@@3P6APEAXXZEA 000000018002b2c0     libvcruntime:ehhelpers.obj
 0003:00001350       __pPurecall                000000018002b350     libvcruntime:purevirt_data.obj
 0003:00001388       ?pArgList@UnDecorator@@0PEAVReplicator@@EA 000000018002b388     libvcruntime:undname.obj
 0003:00001390       ?pZNameList@UnDecorator@@0PEAVReplicator@@EA 000000018002b390     libvcruntime:undname.obj
 0003:00001398       ?pTemplateArgList@UnDecorator@@0PEAVReplicator@@EA 000000018002b398     libvcruntime:undname.obj
 0003:000013a0       ?gName@UnDecorator@@0PEBDEB 000000018002b3a0     libvcruntime:undname.obj
 0003:000013a8       ?name@UnDecorator@@0PEBDEB 000000018002b3a8     libvcruntime:undname.obj
 0003:000013b0       ?disableFlags@UnDecorator@@0KA 000000018002b3b0     libvcruntime:undname.obj
 0003:000013b4       ?fExplicitTemplateParams@UnDecorator@@0_NA 000000018002b3b4     libvcruntime:undname.obj
 0003:000013b5       ?fGetTemplateArgumentList@UnDecorator@@0_NA 000000018002b3b5     libvcruntime:undname.obj
 0003:000013b8       ?m_pGetParameter@UnDecorator@@0P6APEADJ@ZEA 000000018002b3b8     libvcruntime:undname.obj
 0003:000013c0       ?m_CHPENameOffset@UnDecorator@@0KA 000000018002b3c0     libvcruntime:undname.obj
 0003:000013c4       ?m_recursionLevel@UnDecorator@@0KA 000000018002b3c4     libvcruntime:undname.obj
 0003:00001450       ?c_exit_complete@?1???R<lambda_6e4b09c48022b2350581041d5f6b0c4c>@@QEBA@XZ@4_NA 000000018002b450     libucrt:exit.obj
 0003:00001568       _environ_table             000000018002b568     libucrt:environment_initialization.obj
 0003:00001570       _wenviron_table            000000018002b570     libucrt:environment_initialization.obj
 0003:00001578       __dcrt_initial_wide_environment 000000018002b578     libucrt:environment_initialization.obj
 0003:00001580       __dcrt_initial_narrow_environment 000000018002b580     libucrt:environment_initialization.obj
 0003:00001588       __acrt_atexit_table        000000018002b588     libucrt:onexit.obj
 0003:000015a0       __acrt_at_quick_exit_table 000000018002b5a0     libucrt:onexit.obj
 0003:000017f8       _mbctype                   000000018002b7f8     libucrt:mbctype.obj
 0003:00001800       _mbcasemap                 000000018002b800     libucrt:mbctype.obj
 0003:00001808       __acrt_current_multibyte_data 000000018002b808     libucrt:mbctype.obj
 0003:00001818       _pgmptr                    000000018002b818     libucrt:argv_data.obj
 0003:00001820       __argc                     000000018002b820     libucrt:argv_data.obj
 0003:00001828       __argv                     000000018002b828     libucrt:argv_data.obj
 0003:00001830       __wargv                    000000018002b830     libucrt:argv_data.obj
 0003:00001838       _acmdln                    000000018002b838     libucrt:argv_data.obj
 0003:00001840       _wcmdln                    000000018002b840     libucrt:argv_data.obj
 0003:00001a00       __acrt_heap                000000018002ba00     libucrt:heap_handle.obj
 0003:00001a10       __pioinfo                  000000018002ba10     libucrt:ioinit.obj
 0003:00001e10       _nhandle                   000000018002be10     libucrt:ioinit.obj
 0003:00001e40       __acrt_current_locale_data 000000018002be40     libucrt:nlsdata.obj
 0003:00001e48       _nstream                   000000018002be48     libucrt:_file.obj
 0003:00001e50       __piob                     000000018002be50     libucrt:_file.obj
 0003:00001e58       __acrt_stdout_buffer       000000018002be58     libucrt:_sftbuf.obj
 0003:00001e60       __acrt_stderr_buffer       000000018002be60     libucrt:_sftbuf.obj
 0003:00001e70       __acrt_locale_changed_data 000000018002be70     libucrt:wsetlocale.obj
 0003:00001e78       __acrt_lconv_static_null   000000018002be78     libucrt:localeconv.obj
 0003:00001e7c       __acrt_lconv_static_W_null 000000018002be7c     libucrt:localeconv.obj
 0003:00001e90       __fma3_is_available        000000018002be90     libucrt:fma3_available.obj
 0003:00001e94       __use_fma3_lib             000000018002be94     libucrt:fma3_available.obj
 0003:00001ea0       ?PsInfo@@3UPluginStartupInfo@@A 000000018002bea0     Network.obj
 0003:00001fb8       ?CommonRootResources@@3PEAVNetResourceList@@EA 000000018002bfb8     NetClass.obj
 0003:00001fc0       ?FSF@@3UFarStandardFunctions@@A 000000018002bfc0     Network.obj
 0003:00002150       ?Opt@@3UOptions@@A         000000018002c150     NetCommon.obj
 0003:00002530       ?SavedCommonRootResources@@3_NA 000000018002c530     NetClass.obj
 0003:00002538       ?PCommonCurResource@@3PEAVNetResource@@EA 000000018002c538     NetCommon.obj
 0003:00002f68       __dyn_tls_init_callback    000000018002cf68     <common>
 0003:00002f70       __scrt_ucrt_dll_is_in_use  000000018002cf70     <common>

 entry point at        0001:0000ed0c

 Static symbols

 0000:fffcf000       .debug$S                   0000000180000000     Network.exp
 0000:fffcf000       .debug$S                   0000000180000000     advapi32:ADVAPI32.dll
 0000:fffcf000       .debug$S                   0000000180000000     advapi32:ADVAPI32.dll
 0000:fffcf000       .debug$S                   0000000180000000     kernel32:KERNEL32.dll
 0000:fffcf000       .debug$S                   0000000180000000     kernel32:KERNEL32.dll
 0000:fffcf000       .debug$S                   0000000180000000     kernel32:KERNEL32.dll
 0000:fffcf000       .debug$S                   0000000180000000     kernel32:KERNEL32.dll
 0000:fffcf000       .debug$S                   0000000180000000     kernel32:KERNEL32.dll
 0000:fffcf000       .debug$S                   0000000180000000     kernel32:KERNEL32.dll
 0000:fffcf000       .debug$S                   0000000180000000     kernel32:KERNEL32.dll
 0000:fffcf000       .debug$S                   0000000180000000     kernel32:KERNEL32.dll
 0000:fffcf000       .debug$S                   0000000180000000     kernel32:KERNEL32.dll
 0000:fffcf000       .debug$S                   0000000180000000     kernel32:KERNEL32.dll
 0000:fffcf000       .debug$S                   0000000180000000     kernel32:KERNEL32.dll
 0000:fffcf000       .debug$S                   0000000180000000     kernel32:KERNEL32.dll
 0000:fffcf000       .debug$S                   0000000180000000     kernel32:KERNEL32.dll
 0000:fffcf000       .debug$S                   0000000180000000     kernel32:KERNEL32.dll
 0000:fffcf000       .debug$S                   0000000180000000     kernel32:KERNEL32.dll
 0000:fffcf000       .debug$S                   0000000180000000     kernel32:KERNEL32.dll
 0000:fffcf000       .debug$S                   0000000180000000     kernel32:KERNEL32.dll
 0000:fffcf000       .debug$S                   0000000180000000     kernel32:KERNEL32.dll
 0000:fffcf000       .debug$S                   0000000180000000     kernel32:KERNEL32.dll
 0000:fffcf000       .debug$S                   0000000180000000     kernel32:KERNEL32.dll
 0000:fffcf000       .debug$S                   0000000180000000     kernel32:KERNEL32.dll
 0000:fffcf000       .debug$S                   0000000180000000     kernel32:KERNEL32.dll
 0000:fffcf000       .debug$S                   0000000180000000     kernel32:KERNEL32.dll
 0000:fffcf000       .debug$S                   0000000180000000     kernel32:KERNEL32.dll
 0000:fffcf000       .debug$S                   0000000180000000     kernel32:KERNEL32.dll
 0000:fffcf000       .debug$S                   0000000180000000     kernel32:KERNEL32.dll
 0000:fffcf000       .debug$S                   0000000180000000     kernel32:KERNEL32.dll
 0000:fffcf000       .debug$S                   0000000180000000     kernel32:KERNEL32.dll
 0000:fffcf000       .debug$S                   0000000180000000     kernel32:KERNEL32.dll
 0000:fffcf000       .debug$S                   0000000180000000     kernel32:KERNEL32.dll
 0000:fffcf000       .debug$S                   0000000180000000     kernel32:KERNEL32.dll
 0000:fffcf000       .debug$S                   0000000180000000     kernel32:KERNEL32.dll
 0000:fffcf000       .debug$S                   0000000180000000     kernel32:KERNEL32.dll
 0000:fffcf000       .debug$S                   0000000180000000     kernel32:KERNEL32.dll
 0000:fffcf000       .debug$S                   0000000180000000     kernel32:KERNEL32.dll
 0000:fffcf000       .debug$S                   0000000180000000     kernel32:KERNEL32.dll
 0000:fffcf000       .debug$S                   0000000180000000     kernel32:KERNEL32.dll
 0000:fffcf000       .debug$S                   0000000180000000     kernel32:KERNEL32.dll
 0000:fffcf000       .debug$S                   0000000180000000     kernel32:KERNEL32.dll
 0000:fffcf000       .debug$S                   0000000180000000     kernel32:KERNEL32.dll
 0000:fffcf000       .debug$S                   0000000180000000     kernel32:KERNEL32.dll
 0000:fffcf000       .debug$S                   0000000180000000     kernel32:KERNEL32.dll
 0000:fffcf000       .debug$S                   0000000180000000     kernel32:KERNEL32.dll
 0000:fffcf000       .debug$S                   0000000180000000     kernel32:KERNEL32.dll
 0000:fffcf000       .debug$S                   0000000180000000     kernel32:KERNEL32.dll
 0000:fffcf000       .debug$S                   0000000180000000     kernel32:KERNEL32.dll
 0000:fffcf000       .debug$S                   0000000180000000     kernel32:KERNEL32.dll
 0000:fffcf000       .debug$S                   0000000180000000     kernel32:KERNEL32.dll
 0000:fffcf000       .debug$S                   0000000180000000     kernel32:KERNEL32.dll
 0000:fffcf000       .debug$S                   0000000180000000     kernel32:KERNEL32.dll
 0000:fffcf000       .debug$S                   0000000180000000     kernel32:KERNEL32.dll
 0000:fffcf000       .debug$S                   0000000180000000     kernel32:KERNEL32.dll
 0000:fffcf000       .debug$S                   0000000180000000     kernel32:KERNEL32.dll
 0000:fffcf000       .debug$S                   0000000180000000     kernel32:KERNEL32.dll
 0000:fffcf000       .debug$S                   0000000180000000     kernel32:KERNEL32.dll
 0000:fffcf000       .debug$S                   0000000180000000     kernel32:KERNEL32.dll
 0000:fffcf000       .debug$S                   0000000180000000     kernel32:KERNEL32.dll
 0000:fffcf000       .debug$S                   0000000180000000     kernel32:KERNEL32.dll
 0000:fffcf000       .debug$S                   0000000180000000     kernel32:KERNEL32.dll
 0000:fffcf000       .debug$S                   0000000180000000     kernel32:KERNEL32.dll
 0000:fffcf000       .debug$S                   0000000180000000     kernel32:KERNEL32.dll
 0000:fffcf000       .debug$S                   0000000180000000     kernel32:KERNEL32.dll
 0000:fffcf000       .debug$S                   0000000180000000     kernel32:KERNEL32.dll
 0000:fffcf000       .debug$S                   0000000180000000     kernel32:KERNEL32.dll
 0000:fffcf000       .debug$S                   0000000180000000     kernel32:KERNEL32.dll
 0000:fffcf000       .debug$S                   0000000180000000     kernel32:KERNEL32.dll
 0000:fffcf000       .debug$S                   0000000180000000     kernel32:KERNEL32.dll
 0000:fffcf000       .debug$S                   0000000180000000     kernel32:KERNEL32.dll
 0000:fffcf000       .debug$S                   0000000180000000     kernel32:KERNEL32.dll
 0000:fffcf000       .debug$S                   0000000180000000     kernel32:KERNEL32.dll
 0000:fffcf000       .debug$S                   0000000180000000     kernel32:KERNEL32.dll
 0000:fffcf000       .debug$S                   0000000180000000     kernel32:KERNEL32.dll
 0000:fffcf000       .debug$S                   0000000180000000     kernel32:KERNEL32.dll
 0000:fffcf000       .debug$S                   0000000180000000     kernel32:KERNEL32.dll
 0000:fffcf000       .debug$S                   0000000180000000     kernel32:KERNEL32.dll
 0000:fffcf000       .debug$S                   0000000180000000     kernel32:KERNEL32.dll
 0000:fffcf000       .debug$S                   0000000180000000     kernel32:KERNEL32.dll
 0000:fffcf000       .debug$S                   0000000180000000     kernel32:KERNEL32.dll
 0000:fffcf000       .debug$S                   0000000180000000     kernel32:KERNEL32.dll
 0000:fffcf000       .debug$S                   0000000180000000     kernel32:KERNEL32.dll
 0000:fffcf000       .debug$S                   0000000180000000     kernel32:KERNEL32.dll
 0000:fffcf000       .debug$S                   0000000180000000     kernel32:KERNEL32.dll
 0000:fffcf000       .debug$S                   0000000180000000     kernel32:KERNEL32.dll
 0000:fffcf000       .debug$S                   0000000180000000     kernel32:KERNEL32.dll
 0000:fffcf000       .debug$S                   0000000180000000     kernel32:KERNEL32.dll
 0000:fffcf000       .debug$S                   0000000180000000     kernel32:KERNEL32.dll
 0000:fffcf000       .debug$S                   0000000180000000     kernel32:KERNEL32.dll
 0000:fffcf000       .debug$S                   0000000180000000     kernel32:KERNEL32.dll
 0000:fffcf000       .debug$S                   0000000180000000     kernel32:KERNEL32.dll
 0000:fffcf000       .debug$S                   0000000180000000     kernel32:KERNEL32.dll
 0000:fffcf000       .debug$S                   0000000180000000     kernel32:KERNEL32.dll
 0000:fffcf000       .debug$S                   0000000180000000     kernel32:KERNEL32.dll
 0000:fffcf000       .debug$S                   0000000180000000     kernel32:KERNEL32.dll
 0000:fffcf000       .debug$S                   0000000180000000     kernel32:KERNEL32.dll
 0000:fffcf000       .debug$S                   0000000180000000     kernel32:KERNEL32.dll
 0000:fffcf000       .debug$S                   0000000180000000     kernel32:KERNEL32.dll
 0000:fffcf000       .debug$S                   0000000180000000     kernel32:KERNEL32.dll
 0000:fffcf000       .debug$S                   0000000180000000     kernel32:KERNEL32.dll
 0000:fffcf000       .debug$S                   0000000180000000     kernel32:KERNEL32.dll
 0000:fffcf000       .debug$S                   0000000180000000     mpr:MPR.dll
 0000:fffcf000       .debug$S                   0000000180000000     mpr:MPR.dll
 0000:fffcf000       .debug$S                   0000000180000000     mpr:MPR.dll
 0000:fffcf000       .debug$S                   0000000180000000     mpr:MPR.dll
 0000:fffcf000       .debug$S                   0000000180000000     mpr:MPR.dll
 0000:fffcf000       .debug$S                   0000000180000000     mpr:MPR.dll
 0000:fffcf000       .debug$S                   0000000180000000     mpr:MPR.dll
 0000:fffcf000       .debug$S                   0000000180000000     netapi32:NETAPI32.dll
 0000:fffcf000       .debug$S                   0000000180000000     netapi32:NETAPI32.dll
 0000:fffcf000       .debug$S                   0000000180000000     user32:USER32.dll
 0000:fffcf000       .debug$S                   0000000180000000     user32:USER32.dll
 0001:00000000       ??__ECommonCurResource@@YAXXZ 0000000180001000 f   NetCommon.obj
 0001:000010e0       $LN60                      00000001800020e0     NetCfg.obj
 0001:000013e0       $LN50                      00000001800023e0     NetCfg.obj
 0001:00001730       $LN75                      0000000180002730     NetCfg.obj
 0001:0000196c       $LN19                      000000018000296c     NetCfg.obj
 0001:0000c1d0       ?SplitPath@@YA?AV?$vector@V?$basic_string@_WU?$char_traits@_W@std@@V?$allocator@_W@2@@std@@V?$allocator@V?$basic_string@_WU?$char_traits@_W@std@@V?$allocator@_W@2@@std@@@2@@std@@PEB_W@Z 000000018000d1d0 f   NetFavorites.obj
 0001:0000e320       $$000000                   000000018000f320     LIBCMT:amdsecgs.obj
 0001:0000e508       capture_current_context    000000018000f508 f   LIBCMT:gs_report.obj
 0001:0000e578       capture_previous_context   000000018000f578 f   LIBCMT:gs_report.obj
 0001:0000e9ec       ?dllmain_crt_dispatch@@YAHQEAUHINSTANCE__@@KQEAX@Z 000000018000f9ec f   LIBCMT:dll_dllmain.obj
 0001:0000ea3c       ?dllmain_crt_process_attach@@YAHQEAUHINSTANCE__@@QEAX@Z 000000018000fa3c f   LIBCMT:dll_dllmain.obj
 0001:0000eb54       ?dllmain_crt_process_detach@@YAH_N@Z 000000018000fb54 f   LIBCMT:dll_dllmain.obj
 0001:0000ebd8       ?dllmain_dispatch@@YAHQEAUHINSTANCE__@@KQEAX@Z 000000018000fbd8 f   LIBCMT:dll_dllmain.obj
 0001:0000ff50       $$000000                   0000000180010f50     libvcruntime:memset.obj
 0001:0001040c       ??$BuildCatchObjectHelperInternal@V__FrameHandler4@@@@YAHPEAUEHExceptionRecord@@PEAXPEAUHandlerType4@FH4@@PEBU_s_CatchableType@@@Z 000000018001140c f   libvcruntime:frame.obj
 0001:00010610       ??$BuildCatchObjectInternal@V__FrameHandler4@@@@YAXPEAUEHExceptionRecord@@PEAXPEAUHandlerType4@FH4@@PEBU_s_CatchableType@@@Z 0000000180011610 f   libvcruntime:frame.obj
 0001:000106d4       ??$CatchIt@V__FrameHandler4@@@@YAXPEAUEHExceptionRecord@@PEA_KPEAU_CONTEXT@@PEAU_xDISPATCHER_CONTEXT@@PEAUFuncInfo4@FH4@@PEAUHandlerType4@4@PEBU_s_CatchableType@@PEAUTryBlockMapEntry4@4@H1EE@Z 00000001800116d4 f   libvcruntime:frame.obj
 0001:000107a8       ??$FindHandler@V__FrameHandler4@@@@YAXPEAUEHExceptionRecord@@PEA_KPEAU_CONTEXT@@PEAU_xDISPATCHER_CONTEXT@@PEAUFuncInfo4@FH4@@EH1@Z 00000001800117a8 f   libvcruntime:frame.obj
 0001:00010ca4       ??$FindHandlerForForeignException@V__FrameHandler4@@@@YAXPEAUEHExceptionRecord@@PEA_KPEAU_CONTEXT@@PEAU_xDISPATCHER_CONTEXT@@PEAUFuncInfo4@FH4@@HH1@Z 0000000180011ca4 f   libvcruntime:frame.obj
 0001:00011a34       ?ExFilterRethrow@@YAHPEAU_EXCEPTION_POINTERS@@PEAUEHExceptionRecord@@PEAH@Z 0000000180012a34 f   libvcruntime:frame.obj
 0001:00011abc       ?ExFilterRethrowFH4@@YAHPEAU_EXCEPTION_POINTERS@@PEAUEHExceptionRecord@@HPEAH@Z 0000000180012abc f   libvcruntime:frame.obj
 0001:00011dd4       ?IsInExceptionSpec@@YAEPEAUEHExceptionRecord@@PEBU_s_ESTypeList@@@Z 0000000180012dd4 f   libvcruntime:frame.obj
 0001:00011ec4       ?Is_bad_exception_allowed@@YAEPEBU_s_ESTypeList@@@Z 0000000180012ec4 f   libvcruntime:frame.obj
 0001:00012210       $$000000                   0000000180013210     libvcruntime:notify.obj
 0001:0001228c       ?try_get_function@@YAPEAXW4function_id@?A0xf6f43728@@QEBDQEBW4module_id@2@2@Z 000000018001328c f   libvcruntime:winapi_downlevel.obj
 0001:00012570       $$000000                   0000000180013570     libvcruntime:handlers.obj
 0001:00012680       $$000000                   0000000180013680     libvcruntime:memcpy.obj
 0001:00013280       ??$?RV<lambda_d80eeec6fff315bfe5c115232f3240e3>@@AEAV<lambda_6e4b09c48022b2350581041d5f6b0c4c>@@V<lambda_2358e3775559c9db80273638284d5e45>@@@?$__crt_seh_guarded_call@X@@QEAAX$$QEAV<lambda_d80eeec6fff315bfe5c115232f3240e3>@@AEAV<lambda_6e4b09c48022b2350581041d5f6b0c4c>@@$$QEAV<lambda_2358e3775559c9db80273638284d5e45>@@@Z 0000000180014280 f   libucrt:exit.obj
 0001:000132b8       ??R<lambda_6e4b09c48022b2350581041d5f6b0c4c>@@QEBA@XZ 00000001800142b8 f   libucrt:exit.obj
 0001:0001337c       ?atexit_exception_filter@@YAHK@Z 000000018001437c f   libucrt:exit.obj
 0001:00013388       ?common_exit@@YAXHW4_crt_exit_cleanup_mode@@W4_crt_exit_return_mode@@@Z 0000000180014388 f   libucrt:exit.obj
 0001:00013444       ?exit_or_terminate_process@@YAXI@Z 0000000180014444 f   libucrt:exit.obj
 0001:00013490       ?try_cor_exit_process@@YAXI@Z 0000000180014490 f   libucrt:exit.obj
 0001:00013518       ??$parse_command_line@D@@YAXPEADPEAPEAD0PEA_K2@Z 0000000180014518 f   libucrt:argv_parsing.obj
 0001:000138c4       ??$common_initialize_environment_nolock@D@@YAHXZ 00000001800148c4 f   libucrt:environment_initialization.obj
 0001:00013930       ??$create_environment@D@@YAQEAPEADQEAD@Z 0000000180014930 f   libucrt:environment_initialization.obj
 0001:00013a38       ??$free_environment@D@@YAXQEAPEAD@Z 0000000180014a38 f   libucrt:environment_initialization.obj
 0001:00013a38       ??$free_environment@_W@@YAXQEAPEA_W@Z 0000000180014a38 f   libucrt:environment_initialization.obj
 0001:00013a7c       ??$uninitialize_environment_internal@D@@YAXAEAPEAPEAD@Z 0000000180014a7c f   libucrt:environment_initialization.obj
 0001:00013a98       ??$uninitialize_environment_internal@_W@@YAXAEAPEAPEA_W@Z 0000000180014a98 f   libucrt:environment_initialization.obj
 0001:00013af4       ??$?RV<lambda_638799b9deba96c50f710eeac98168cd>@@AEAV<lambda_22ebabd17bc4fa466a2aca6d8deb888d>@@V<lambda_a6f7d7db0129f75315ebf26d50c089f1>@@@?$__crt_seh_guarded_call@H@@QEAAH$$QEAV<lambda_638799b9deba96c50f710eeac98168cd>@@AEAV<lambda_22ebabd17bc4fa466a2aca6d8deb888d>@@$$QEAV<lambda_a6f7d7db0129f75315ebf26d50c089f1>@@@Z 0000000180014af4 f   libucrt:onexit.obj
 0001:00013b30       ??$?RV<lambda_7777bce6b2f8c936911f934f8298dc43>@@AEAV<lambda_f03950bc5685219e0bcd2087efbe011e>@@V<lambda_3883c3dff614d5e0c5f61bb1ac94921c>@@@?$__crt_seh_guarded_call@H@@QEAAH$$QEAV<lambda_7777bce6b2f8c936911f934f8298dc43>@@AEAV<lambda_f03950bc5685219e0bcd2087efbe011e>@@$$QEAV<lambda_3883c3dff614d5e0c5f61bb1ac94921c>@@@Z 0000000180014b30 f   libucrt:onexit.obj
 0001:00013b6c       ??R<lambda_22ebabd17bc4fa466a2aca6d8deb888d>@@QEBAHXZ 0000000180014b6c f   libucrt:onexit.obj
 0001:00013d1c       ??R<lambda_f03950bc5685219e0bcd2087efbe011e>@@QEBAHXZ 0000000180014d1c f   libucrt:onexit.obj
 0001:00013ef0       initialize_global_variables 0000000180014ef0 f   libucrt:initialization.obj
 0001:00013f04       initialize_c               0000000180014f04 f   libucrt:initialization.obj
 0001:00013f28       initialize_environment     0000000180014f28 f   libucrt:initialization.obj
 0001:00013f28       initialize_global_state_isolation 0000000180014f28 f   libucrt:initialization.obj
 0001:00013f28       report_memory_leaks        0000000180014f28 f   libucrt:initialization.obj
 0001:00013f28       uninitialize_c             0000000180014f28 f   libucrt:initialization.obj
 0001:00013f28       uninitialize_global_state_isolation 0000000180014f28 f   libucrt:initialization.obj
 0001:00013f2c       uninitialize_environment   0000000180014f2c f   libucrt:initialization.obj
 0001:00013f3c       initialize_pointers        0000000180014f3c f   libucrt:initialization.obj
 0001:00013f7c       uninitialize_vcruntime     0000000180014f7c f   libucrt:initialization.obj
 0001:00013f84       uninitialize_allocated_memory 0000000180014f84 f   libucrt:initialization.obj
 0001:00013fc4       uninitialize_allocated_io_buffers 0000000180014fc4 f   libucrt:initialization.obj
 0001:000142c0       $$000000                   00000001800152c0     libucrt:strncmp.obj
 0001:0001437c       ??$?RV<lambda_0ae27a3a962d80f24befdcbee591983d>@@AEAV<lambda_8d0ee55de4b1038c4002e0adecdf1839>@@V<lambda_dc504788e8f1664fe9b84e20bfb512f2>@@@?$__crt_seh_guarded_call@X@@QEAAX$$QEAV<lambda_0ae27a3a962d80f24befdcbee591983d>@@AEAV<lambda_8d0ee55de4b1038c4002e0adecdf1839>@@$$QEAV<lambda_dc504788e8f1664fe9b84e20bfb512f2>@@@Z 000000018001537c f   libucrt:per_thread_data.obj
 0001:000143bc       ??$?RV<lambda_2d41944a1d46af3157314b8a01080d33>@@AEAV<lambda_8f455de75cd7d7f24b4096f044d8b9e6>@@V<lambda_aa500f224e6afead328df44964fe2772>@@@?$__crt_seh_guarded_call@X@@QEAAX$$QEAV<lambda_2d41944a1d46af3157314b8a01080d33>@@AEAV<lambda_8f455de75cd7d7f24b4096f044d8b9e6>@@$$QEAV<lambda_aa500f224e6afead328df44964fe2772>@@@Z 00000001800153bc f   libucrt:per_thread_data.obj
 0001:000143fc       ??$?RV<lambda_aa87e3671a710a21b5dc78c0bdf72e11>@@AEAV<lambda_92619d2358a28f41a33ba319515a20b9>@@V<lambda_6992ecaafeb10aed2b74cb1fae11a551>@@@?$__crt_seh_guarded_call@X@@QEAAX$$QEAV<lambda_aa87e3671a710a21b5dc78c0bdf72e11>@@AEAV<lambda_92619d2358a28f41a33ba319515a20b9>@@$$QEAV<lambda_6992ecaafeb10aed2b74cb1fae11a551>@@@Z 00000001800153fc f   libucrt:per_thread_data.obj
 0001:00014444       ??$?RV<lambda_f2e299630e499de9f9a165e60fcd3db5>@@AEAV<lambda_2ae9d31cdba2644fcbeaf08da7c24588>@@V<lambda_40d01ff24d0e7b3814fdbdcee8eab3c7>@@@?$__crt_seh_guarded_call@X@@QEAAX$$QEAV<lambda_f2e299630e499de9f9a165e60fcd3db5>@@AEAV<lambda_2ae9d31cdba2644fcbeaf08da7c24588>@@$$QEAV<lambda_40d01ff24d0e7b3814fdbdcee8eab3c7>@@@Z 0000000180015444 f   libucrt:per_thread_data.obj
 0001:000144a4       ?construct_ptd_array@@YAXQEAU__acrt_ptd@@@Z 00000001800154a4 f   libucrt:per_thread_data.obj
 0001:00014574       ?destroy_fls@@YAXPEAX@Z    0000000180015574 f   libucrt:per_thread_data.obj
 0001:00014594       ?destroy_ptd_array@@YAXQEAU__acrt_ptd@@@Z 0000000180015594 f   libucrt:per_thread_data.obj
 0001:0001468c       ?replace_current_thread_locale_nolock@@YAXQEAU__acrt_ptd@@QEAU__crt_locale_data@@@Z 000000018001568c f   libucrt:per_thread_data.obj
 0001:00014da8       ?<lambda_invoker_cdecl>@<lambda_a1ce4c8ae42411fd470c77163914f50e>@@CAHPEBX0@Z 0000000180015da8 f   libucrt:argv_wildcards.obj
 0001:000150c0       ??$common_expand_argv_wildcards@D@@YAHQEAPEADQEAPEAPEAD@Z 00000001800160c0 f   libucrt:argv_wildcards.obj
 0001:000152cc       ??$copy_and_add_argument_to_buffer@D@@YAHQEBD0_KAEAV?$argument_list@D@?A0x5f5c8891@@@Z 00000001800162cc f   libucrt:argv_wildcards.obj
 0001:00015454       ??$expand_argument_wildcards@D@@YAHQEAD0AEAV?$argument_list@D@?A0x5f5c8891@@@Z 0000000180016454 f   libucrt:argv_wildcards.obj
 0001:000159a0       ??$?RV<lambda_efdfa57d1f175319df784efa44bb7b81>@@AEAV<lambda_5f0a4c1567f8adc6734073e5d1e1b35c>@@V<lambda_2e8a7d3640ea6ccb4c2413664c2db6fd>@@@?$__crt_seh_guarded_call@X@@QEAAX$$QEAV<lambda_efdfa57d1f175319df784efa44bb7b81>@@AEAV<lambda_5f0a4c1567f8adc6734073e5d1e1b35c>@@$$QEAV<lambda_2e8a7d3640ea6ccb4c2413664c2db6fd>@@@Z 00000001800169a0 f   libucrt:mbctype.obj
 0001:00015b5c       ?getSystemCP@@YAHH@Z       0000000180016b5c f   libucrt:mbctype.obj
 0001:00015bdc       ?setSBCS@@YAXPEAU__crt_multibyte_data@@@Z 0000000180016bdc f   libucrt:mbctype.obj
 0001:00015c6c       ?setSBUpLow@@YAXPEAU__crt_multibyte_data@@@Z 0000000180016c6c f   libucrt:mbctype.obj
 0001:00015e50       ?setmbcp_internal@@YAHH_NQEAU__acrt_ptd@@QEAPEAU__crt_multibyte_data@@@Z 0000000180016e50 f   libucrt:mbctype.obj
 0001:00016014       ?update_thread_multibyte_data_internal@@YAPEAU__crt_multibyte_data@@QEAU__acrt_ptd@@QEAPEAU1@@Z 0000000180017014 f   libucrt:mbctype.obj
 0001:00016404       ?x_ismbbtype_l@@YAHPEAU__crt_locale_pointers@@IHH@Z 0000000180017404 f   libucrt:ismbbyte.obj
 0001:00016748       ?try_get_function@@YAPEAXW4function_id@?A0x391cf84c@@QEBDQEBW4module_id@2@2@Z 0000000180017748 f   libucrt:winapi_thunks.obj
 0001:00016d08       ?initialize_inherited_file_handles_nolock@@YAXXZ 0000000180017d08 f   libucrt:ioinit.obj
 0001:00016df8       ?initialize_stdio_handles_nolock@@YAXXZ 0000000180017df8 f   libucrt:ioinit.obj
 0001:0001703c       ??$?RV<lambda_450d765d439847d4c735a33c368b5fc0>@@AEAV<lambda_44731a7d0e6d81c3e6aa82d741081786>@@V<lambda_601a2a7da3b7a96e9554ac7215c4b07c>@@@?$__crt_seh_guarded_call@P6AXH@Z@@QEAAP6AXH@Z$$QEAV<lambda_450d765d439847d4c735a33c368b5fc0>@@AEAV<lambda_44731a7d0e6d81c3e6aa82d741081786>@@$$QEAV<lambda_601a2a7da3b7a96e9554ac7215c4b07c>@@@Z 000000018001803c f   libucrt:signal.obj
 0001:00017398       ??$?RV<lambda_842d9ff0dc9ef11c61343bbaebe7f885>@@AEAV<lambda_c5860995281e5c4ce005b3de8f5874ee>@@V<lambda_d90129c13df834fdcbf8d2b88dafcf2d>@@@?$__crt_seh_guarded_call@X@@QEAAX$$QEAV<lambda_842d9ff0dc9ef11c61343bbaebe7f885>@@AEAV<lambda_c5860995281e5c4ce005b3de8f5874ee>@@$$QEAV<lambda_d90129c13df834fdcbf8d2b88dafcf2d>@@@Z 0000000180018398 f   libucrt:fflush.obj
 0001:00017434       ??$?RV<lambda_886d6c58226a84441f68b9f2b8217b83>@@AEAV<lambda_ab61a845afdef5b7c387490eaf3616ee>@@V<lambda_f7f22ab5edc0698d5f6905b0d3f44752>@@@?$__crt_seh_guarded_call@X@@QEAAX$$QEAV<lambda_886d6c58226a84441f68b9f2b8217b83>@@AEAV<lambda_ab61a845afdef5b7c387490eaf3616ee>@@$$QEAV<lambda_f7f22ab5edc0698d5f6905b0d3f44752>@@@Z 0000000180018434 f   libucrt:fflush.obj
 0001:00017514       ?common_flush_all@@YAH_N@Z 0000000180018514 f   libucrt:fflush.obj
 0001:000179f0       ??$?RV<lambda_410d79af7f07d98d83a3f525b3859a53>@@AEAV<lambda_3e16ef9562a7dcce91392c22ab16ea36>@@V<lambda_38119f0e861e05405d8a144b9b982f0a>@@@?$__crt_seh_guarded_call@X@@QEAAX$$QEAV<lambda_410d79af7f07d98d83a3f525b3859a53>@@AEAV<lambda_3e16ef9562a7dcce91392c22ab16ea36>@@$$QEAV<lambda_38119f0e861e05405d8a144b9b982f0a>@@@Z 00000001800189f0 f   libucrt:wsetlocale.obj
 0001:00018364       fallbackMethod             0000000180019364 f   libucrt:strpbrk.obj
 0001:00018734       $LN78                      0000000180019734     libucrt:strpbrk.obj
 0001:00018770       $LN77                      0000000180019770     libucrt:strpbrk.obj
 0001:000187b0       $LN76                      00000001800197b0     libucrt:strpbrk.obj
 0001:00018a1c       ?__acrt_LCMapStringA_stat@@YAHPEAU__crt_locale_pointers@@PEB_WKPEBDHPEADHHH@Z 0000000180019a1c f   libucrt:lcmapstringa.obj
 0001:00018dcc       ?initialize_multibyte@@YAHXZ 0000000180019dcc f   libucrt:multibyte_initializer.obj
 0001:000191f4       ??$?RV<lambda_a37b2b86f63e897a80ea819b0eb08c01>@@AEAV<lambda_38ce7e780aa69e748d6df282ebc68efe>@@V<lambda_99fb1378e971ab6e7edea83e3a7a83a2>@@@?$__crt_seh_guarded_call@H@@QEAAH$$QEAV<lambda_a37b2b86f63e897a80ea819b0eb08c01>@@AEAV<lambda_38ce7e780aa69e748d6df282ebc68efe>@@$$QEAV<lambda_99fb1378e971ab6e7edea83e3a7a83a2>@@@Z 000000018001a1f4 f   libucrt:commit.obj
 0001:00019314       ?write_double_translated_ansi_nolock@@YA?AUwrite_result@?A0x17268360@@HQEBDI@Z 000000018001a314 f   libucrt:write.obj
 0001:000197e4       ?write_text_ansi_nolock@@YA?AUwrite_result@?A0x17268360@@HQEBDI@Z 000000018001a7e4 f   libucrt:write.obj
 0001:000198e8       ?write_text_utf16le_nolock@@YA?AUwrite_result@?A0x17268360@@HQEBDI@Z 000000018001a8e8 f   libucrt:write.obj
 0001:00019a04       ?write_text_utf8_nolock@@YA?AUwrite_result@?A0x17268360@@HQEBDI@Z 000000018001aa04 f   libucrt:write.obj
 0001:0001a408       ?free_crt_array_internal@@YAXQEAPEBX_K@Z 000000018001b408 f   libucrt:inittime.obj
 0001:0001a5d4       ??$common_lseek_nolock@_J@@YA_JH_JH@Z 000000018001b5d4 f   libucrt:lseek.obj
 0001:0001a980       $$000000                   000000018001b980     libucrt:log10.obj
 0001:0001b05c       ??$?RV<lambda_751a882b2c74d4b022dec766aa51a29a>@@AEAV<lambda_628dfdc04ba53c8bfc02c9951375f3f5>@@V<lambda_f6c7be5f7998530c34de24c7437d6b54>@@@?$__crt_seh_guarded_call@H@@QEAAH$$QEAV<lambda_751a882b2c74d4b022dec766aa51a29a>@@AEAV<lambda_628dfdc04ba53c8bfc02c9951375f3f5>@@$$QEAV<lambda_f6c7be5f7998530c34de24c7437d6b54>@@@Z 000000018001c05c f   libucrt:close.obj
 0001:0001b250       _call_matherr              000000018001c250 f   libucrt:libm_error.obj
 0001:0001b2b8       _exception_enabled         000000018001c2b8 f   libucrt:libm_error.obj
 0001:0001b530       _log_special_common        000000018001c530 f   libucrt:log_special.obj
 0001:0001b5d0       $$000000                   000000018001c5d0     libucrt:fpsr.obj
 0001:0001bc50       $$000000                   000000018001cc50     LIBCMT:chkstk.obj
 0001:0001bcb0       $$000000                   000000018001ccb0     libvcruntime:memcmp.obj
 0001:0001be10       $$000000                   000000018001ce10     LIBCMT:guard_dispatch.obj
 0001:0001be30       $$000000                   000000018001ce30     LIBCMT:guard_xfg_dispatch.obj
 0001:0001be50       ?dtor$0@?0??Config@@YAHXZ@4HA 000000018001ce50 f   NetCfg.obj
 0001:0001be60       ?dtor$0@?0??Read@Options@@SAXXZ@4HA 000000018001ce60 f   NetCfg.obj
 0001:0001be60       ?dtor$0@?0??Write@Options@@SAXXZ@4HA 000000018001ce60 f   NetCfg.obj
 0001:0001be60       ?dtor$1@?0??InFavoriteExists@@YA_NPEB_W@Z@4HA 000000018001ce60 f   NetFavorites.obj
 0001:0001be60       ?dtor$1@?0??RemoveFromFavorites@@YA_NPEB_W@Z@4HA 000000018001ce60 f   NetFavorites.obj
 0001:0001be70       ?dtor$0@?0???0NetResource@@QEAA@AEAU_NETRESOURCEW@@@Z@4HA 000000018001ce70 f   NetClass.obj
 0001:0001be80       ?dtor$1@?0???0NetResource@@QEAA@AEAU_NETRESOURCEW@@@Z@4HA 000000018001ce80 f   NetClass.obj
 0001:0001be90       ?dtor$2@?0???0NetResource@@QEAA@AEAU_NETRESOURCEW@@@Z@4HA 000000018001ce90 f   NetClass.obj
 0001:0001bea0       ?dtor$3@?0???0NetResource@@QEAA@AEAU_NETRESOURCEW@@@Z@4HA 000000018001cea0 f   NetClass.obj
 0001:0001beb0       ?dtor$4@?0???$_Emplace_reallocate@AEBVNetResource@@@?$vector@VNetResource@@V?$allocator@VNetResource@@@std@@@std@@QEAAPEAVNetResource@@QEAV2@AEBV2@@Z@4HA 000000018001ceb0 f   NetClass.obj
 0001:0001beb0       ?dtor$4@?0??Push@NetResourceList@@QEAAXAEBVNetResource@@@Z@4HA 000000018001ceb0 f   NetClass.obj
 0001:0001bec0       ?dtor$5@?0???$_Emplace_reallocate@AEBVNetResource@@@?$vector@VNetResource@@V?$allocator@VNetResource@@@std@@@std@@QEAAPEAVNetResource@@QEAV2@AEBV2@@Z@4HA 000000018001cec0 f   NetClass.obj
 0001:0001bec0       ?dtor$5@?0??Push@NetResourceList@@QEAAXAEBVNetResource@@@Z@4HA 000000018001cec0 f   NetClass.obj
 0001:0001bed0       ?dtor$6@?0???$_Emplace_reallocate@AEBVNetResource@@@?$vector@VNetResource@@V?$allocator@VNetResource@@@std@@@std@@QEAAPEAVNetResource@@QEAV2@AEBV2@@Z@4HA 000000018001ced0 f   NetClass.obj
 0001:0001bed0       ?dtor$6@?0??Push@NetResourceList@@QEAAXAEBVNetResource@@@Z@4HA 000000018001ced0 f   NetClass.obj
 0001:0001bee0       ?dtor$0@?0???0NetBrowser@@QEAA@XZ@4HA 000000018001cee0 f   NetClass.obj
 0001:0001bef0       ?dtor$1@?0???0NetBrowser@@QEAA@XZ@4HA 000000018001cef0 f   NetClass.obj
 0001:0001bf00       ?dtor$2@?0???0NetBrowser@@QEAA@XZ@4HA 000000018001cf00 f   NetClass.obj
 0001:0001bf10       ?dtor$3@?0???0NetBrowser@@QEAA@XZ@4HA 000000018001cf10 f   NetClass.obj
 0001:0001bf20       ?dtor$4@?0???0NetBrowser@@QEAA@XZ@4HA 000000018001cf20 f   NetClass.obj
 0001:0001bf30       ?dtor$0@?0??ProcessEvent@NetBrowser@@QEAAH_JPEAX@Z@4HA 000000018001cf30 f   NetClass.obj
 0001:0001bf30       ?dtor$5@?0???0NetBrowser@@QEAA@XZ@4HA 000000018001cf30 f   NetClass.obj
 0001:0001bf40       ?dtor$0@?0??GetFindData@NetBrowser@@QEAAHPEAPEAUPluginPanelItem@@PEA_K_K@Z@4HA 000000018001cf40 f   NetClass.obj
 0001:0001bf50       ?dtor$1@?0??GetFindData@NetBrowser@@QEAAHPEAPEAUPluginPanelItem@@PEA_K_K@Z@4HA 000000018001cf50 f   NetClass.obj
 0001:0001bf50       ?dtor$2@?0??IsReadable@NetBrowser@@CA_NAEBV?$basic_string@_WU?$char_traits@_W@std@@V?$allocator@_W@2@@std@@@Z@4HA 000000018001cf50 f   NetClass.obj
 0001:0001bf60       ?dtor$1@?0??IsReadable@NetBrowser@@CA_NAEBV?$basic_string@_WU?$char_traits@_W@std@@V?$allocator@_W@2@@std@@@Z@4HA 000000018001cf60 f   NetClass.obj
 0001:0001bf60       ?dtor$2@?0??GetFindData@NetBrowser@@QEAAHPEAPEAUPluginPanelItem@@PEA_K_K@Z@4HA 000000018001cf60 f   NetClass.obj
 0001:0001bf70       ?dtor$0@?0??ConfirmCancelConnection@NetBrowser@@CA_NPEA_W0AEAH@Z@4HA 000000018001cf70 f   NetClass.obj
 0001:0001bf80       ?dtor$1@?0??ConfirmCancelConnection@NetBrowser@@CA_NPEA_W0AEAH@Z@4HA 000000018001cf80 f   NetClass.obj
 0001:0001bf90       ?dtor$0@?0??SetDirectory@NetBrowser@@QEAAHPEB_W_K@Z@4HA 000000018001cf90 f   NetClass.obj
 0001:0001bf90       ?dtor$1@?0??GotoLocalNetwork@NetBrowser@@QEAAXXZ@4HA 000000018001cf90 f   NetClass.obj
 0001:0001bfa0       ?dtor$0@?0??ProcessKey@NetBrowser@@QEAAHPEBU_INPUT_RECORD@@@Z@4HA 000000018001cfa0 f   NetClass.obj
 0001:0001bfa0       ?dtor$1@?0??ChangeToDirectory@NetBrowser@@AEAA_NPEB_W_K_N@Z@4HA 000000018001cfa0 f   NetClass.obj
 0001:0001bfa0       ?dtor$1@?0??SetDirectory@NetBrowser@@QEAAHPEB_W_K@Z@4HA 000000018001cfa0 f   NetClass.obj
 0001:0001bfa0       ?dtor$2@?0??EditFavorites@NetBrowser@@QEAA_NXZ@4HA 000000018001cfa0 f   NetClass.obj
 0001:0001bfb0       ?dtor$0@?0??ChangeToDirectory@NetBrowser@@AEAA_NPEB_W_K_N@Z@4HA 000000018001cfb0 f   NetClass.obj
 0001:0001bfc0       ?dtor$0@?0??EditFavorites@NetBrowser@@QEAA_NXZ@4HA 000000018001cfc0 f   NetClass.obj
 0001:0001bfc0       ?dtor$2@?0??ChangeToDirectory@NetBrowser@@AEAA_NPEB_W_K_N@Z@4HA 000000018001cfc0 f   NetClass.obj
 0001:0001bfd0       ?dtor$0@?0??GetResourceParent@NetBrowser@@SA_NAEBVNetResource@@PEAV2@@Z@4HA 000000018001cfd0 f   NetClass.obj
 0001:0001bfe0       ?dtor$0@?0??GotoComputer@NetBrowser@@AEAA_NPEB_W@Z@4HA 000000018001cfe0 f   NetClass.obj
 0001:0001bfe0       ?dtor$1@?0??EditFavorites@NetBrowser@@QEAA_NXZ@4HA 000000018001cfe0 f   NetClass.obj
 0001:0001bff0       ?dtor$0@?0??MapNetworkDrive@NetBrowser@@CA_NPEB_W_N1@Z@4HA 000000018001cff0 f   NetClass.obj
 0001:0001c000       ?dtor$1@?0??MapNetworkDrive@NetBrowser@@CA_NPEB_W_N1@Z@4HA 000000018001d000 f   NetClass.obj
 0001:0001c010       ?dtor$0@?0??GetLocalName@NetBrowser@@AEAA?AV?$basic_string@_WU?$char_traits@_W@std@@V?$allocator@_W@2@@std@@PEBV23@@Z@4HA 000000018001d010 f   NetClass.obj
 0001:0001c040       ?dtor$0@?0??GetNameAndPassword@NetBrowser@@CA_NPEAUNameAndPassInfo@@@Z@4HA 000000018001d040 f   NetClass.obj
 0001:0001c050       ?dtor$0@?0??GetRemoteName@NetBrowser@@CA?AV?$basic_string@_WU?$char_traits@_W@std@@V?$allocator@_W@2@@std@@PEAVNetResource@@@Z@4HA 000000018001d050 f   NetClass.obj
 0001:0001c080       ?dtor$0@?0??IsReadable@NetBrowser@@CA_NAEBV?$basic_string@_WU?$char_traits@_W@std@@V?$allocator@_W@2@@std@@@Z@4HA 000000018001d080 f   NetClass.obj
 0001:0001c090       ?dtor$0@?0??SetOpenFromCommandLine@NetBrowser@@QEAA_NPEA_W@Z@4HA 000000018001d090 f   NetClass.obj
 0001:0001c090       ?dtor$0@?0??SetOpenFromFilePanel@NetBrowser@@QEAA_NPEA_W@Z@4HA 000000018001d090 f   NetClass.obj
 0001:0001c0a0       ?dtor$0@?0??GotoLocalNetwork@NetBrowser@@QEAAXXZ@4HA 000000018001d0a0 f   NetClass.obj
 0001:0001c0b0       ?dtor$2@?0??GotoLocalNetwork@NetBrowser@@QEAAXXZ@4HA 000000018001d0b0 f   NetClass.obj
 0001:0001c0c0       ?dtor$0@?0??GetHiddenShares@NetBrowser@@AEAAXXZ@4HA 000000018001d0c0 f   NetClass.obj
 0001:0001c0c0       ?dtor$0@?0??EnumFavorites@@YA_NPEBVNetResource@@PEAVNetResourceList@@@Z@4HA 000000018001d0c0 f   NetFavorites.obj
 0001:0001c0c0       ?dtor$2@?0??EnumFavorites@@YA_NPEBVNetResource@@PEAVNetResourceList@@@Z@4HA 000000018001d0c0 f   NetFavorites.obj
 0001:0001c0d0       ?dtor$1@?0??GetHiddenShares@NetBrowser@@AEAAXXZ@4HA 000000018001d0d0 f   NetClass.obj
 0001:0001c0e0       ?dtor$2@?0??GetHiddenShares@NetBrowser@@AEAAXXZ@4HA 000000018001d0e0 f   NetClass.obj
 0001:0001c0f0       ?dtor$3@?0??GetHiddenShares@NetBrowser@@AEAAXXZ@4HA 000000018001d0f0 f   NetClass.obj
 0001:0001c100       ?dtor$4@?0??GetHiddenShares@NetBrowser@@AEAAXXZ@4HA 000000018001d100 f   NetClass.obj
 0001:0001c110       ?dtor$25@?0??GetHiddenShares@NetBrowser@@AEAAXXZ@4HA 000000018001d110 f   NetClass.obj
 0001:0001c120       ?dtor$26@?0??GetHiddenShares@NetBrowser@@AEAAXXZ@4HA 000000018001d120 f   NetClass.obj
 0001:0001c130       ?dtor$27@?0??GetHiddenShares@NetBrowser@@AEAAXXZ@4HA 000000018001d130 f   NetClass.obj
 0001:0001c140       ?catch$8@?0???$_Emplace_reallocate@AEBVNetResource@@@?$vector@VNetResource@@V?$allocator@VNetResource@@@std@@@std@@QEAAPEAVNetResource@@QEAV2@AEBV2@@Z@4HA 000000018001d140 f   NetClass.obj
 0001:0001c14d       __catch$??$_Emplace_reallocate@AEBVNetResource@@@?$vector@VNetResource@@V?$allocator@VNetResource@@@std@@@std@@QEAAPEAVNetResource@@QEAV2@AEBV2@@Z$0 000000018001d14d f   NetClass.obj
 0001:0001c180       ?catch$0@?0???$_Emplace_reallocate@AEAU_NETRESOURCEW@@@?$vector@VNetResource@@V?$allocator@VNetResource@@@std@@@std@@QEAAPEAVNetResource@@QEAV2@AEAU_NETRESOURCEW@@@Z@4HA 000000018001d180 f   NetClass.obj
 0001:0001c18d       __catch$??$_Emplace_reallocate@AEAU_NETRESOURCEW@@@?$vector@VNetResource@@V?$allocator@VNetResource@@@std@@@std@@QEAAPEAVNetResource@@QEAV2@AEAU_NETRESOURCEW@@@Z$0 000000018001d18d f   NetClass.obj
 0001:0001c1c0       ?dtor$0@?0???$_Assign_range@PEAVNetResource@@@?$vector@VNetResource@@V?$allocator@VNetResource@@@std@@@std@@AEAAXPEAVNetResource@@0Uforward_iterator_tag@1@@Z@4HA 000000018001d1c0 f   NetClass.obj
 0001:0001c1d0       ?dtor$5@?0???$_Assign_range@PEAVNetResource@@@?$vector@VNetResource@@V?$allocator@VNetResource@@@std@@@std@@AEAAXPEAVNetResource@@0Uforward_iterator_tag@1@@Z@4HA 000000018001d1d0 f   NetClass.obj
 0001:0001c1e0       ?dtor$6@?0???$_Assign_range@PEAVNetResource@@@?$vector@VNetResource@@V?$allocator@VNetResource@@@std@@@std@@AEAAXPEAVNetResource@@0Uforward_iterator_tag@1@@Z@4HA 000000018001d1e0 f   NetClass.obj
 0001:0001c1f0       ?dtor$7@?0???$_Assign_range@PEAVNetResource@@@?$vector@VNetResource@@V?$allocator@VNetResource@@@std@@@std@@AEAAXPEAVNetResource@@0Uforward_iterator_tag@1@@Z@4HA 000000018001d1f0 f   NetClass.obj
 0001:0001c200       ?dtor$0@?0??SplitPath@@YA?AV?$vector@V?$basic_string@_WU?$char_traits@_W@std@@V?$allocator@_W@2@@std@@V?$allocator@V?$basic_string@_WU?$char_traits@_W@std@@V?$allocator@_W@2@@std@@@2@@std@@PEB_W@Z@4HA 000000018001d200 f   NetFavorites.obj
 0001:0001c230       ?dtor$1@?0??SplitPath@@YA?AV?$vector@V?$basic_string@_WU?$char_traits@_W@std@@V?$allocator@_W@2@@std@@V?$allocator@V?$basic_string@_WU?$char_traits@_W@std@@V?$allocator@_W@2@@std@@@2@@std@@PEB_W@Z@4HA 000000018001d230 f   NetFavorites.obj
 0001:0001c240       ?dtor$3@?0??SplitPath@@YA?AV?$vector@V?$basic_string@_WU?$char_traits@_W@std@@V?$allocator@_W@2@@std@@V?$allocator@V?$basic_string@_WU?$char_traits@_W@std@@V?$allocator@_W@2@@std@@@2@@std@@PEB_W@Z@4HA 000000018001d240 f   NetFavorites.obj
 0001:0001c250       ?dtor$4@?0??SplitPath@@YA?AV?$vector@V?$basic_string@_WU?$char_traits@_W@std@@V?$allocator@_W@2@@std@@V?$allocator@V?$basic_string@_WU?$char_traits@_W@std@@V?$allocator@_W@2@@std@@@2@@std@@PEB_W@Z@4HA 000000018001d250 f   NetFavorites.obj
 0001:0001c260       ?dtor$1@?0??EnumFavorites@@YA_NPEBVNetResource@@PEAVNetResourceList@@@Z@4HA 000000018001d260 f   NetFavorites.obj
 0001:0001c260       ?dtor$1@?0??ReadFavoriteItem@@YA_NPEAUFAVORITEITEM@@@Z@4HA 000000018001d260 f   NetFavorites.obj
 0001:0001c260       ?dtor$1@?0??WriteFavoriteItem@@YAXPEBUFAVORITEITEM@@@Z@4HA 000000018001d260 f   NetFavorites.obj
 0001:0001c270       ?dtor$24@?0??EnumFavorites@@YA_NPEBVNetResource@@PEAVNetResourceList@@@Z@4HA 000000018001d270 f   NetFavorites.obj
 0001:0001c280       ?dtor$25@?0??EnumFavorites@@YA_NPEBVNetResource@@PEAVNetResourceList@@@Z@4HA 000000018001d280 f   NetFavorites.obj
 0001:0001c290       ?dtor$26@?0??EnumFavorites@@YA_NPEBVNetResource@@PEAVNetResourceList@@@Z@4HA 000000018001d290 f   NetFavorites.obj
 0001:0001c2a0       ?dtor$49@?0??EnumFavorites@@YA_NPEBVNetResource@@PEAVNetResourceList@@@Z@4HA 000000018001d2a0 f   NetFavorites.obj
 0001:0001c2a0       ?dtor$57@?0??EnumFavorites@@YA_NPEBVNetResource@@PEAVNetResourceList@@@Z@4HA 000000018001d2a0 f   NetFavorites.obj
 0001:0001c2b0       ?dtor$50@?0??EnumFavorites@@YA_NPEBVNetResource@@PEAVNetResourceList@@@Z@4HA 000000018001d2b0 f   NetFavorites.obj
 0001:0001c2b0       ?dtor$58@?0??EnumFavorites@@YA_NPEBVNetResource@@PEAVNetResourceList@@@Z@4HA 000000018001d2b0 f   NetFavorites.obj
 0001:0001c2c0       ?dtor$51@?0??EnumFavorites@@YA_NPEBVNetResource@@PEAVNetResourceList@@@Z@4HA 000000018001d2c0 f   NetFavorites.obj
 0001:0001c2c0       ?dtor$59@?0??EnumFavorites@@YA_NPEBVNetResource@@PEAVNetResourceList@@@Z@4HA 000000018001d2c0 f   NetFavorites.obj
 0001:0001c2d0       ?dtor$0@?0??InFavoriteExists@@YA_NPEB_W@Z@4HA 000000018001d2d0 f   NetFavorites.obj
 0001:0001c2e0       ?dtor$0@?0??ReadFavoriteItem@@YA_NPEAUFAVORITEITEM@@@Z@4HA 000000018001d2e0 f   NetFavorites.obj
 0001:0001c2e0       ?dtor$0@?0??WriteFavoriteItem@@YAXPEBUFAVORITEITEM@@@Z@4HA 000000018001d2e0 f   NetFavorites.obj
 0001:0001c2f0       ?dtor$0@?0??RemoveFromFavorites@@YA_NPEB_W@Z@4HA 000000018001d2f0 f   NetFavorites.obj
 0001:0001c300       ?catch$6@?0???$_Emplace_reallocate@AEAY09$$CB_W@?$vector@V?$basic_string@_WU?$char_traits@_W@std@@V?$allocator@_W@2@@std@@V?$allocator@V?$basic_string@_WU?$char_traits@_W@std@@V?$allocator@_W@2@@std@@@2@@std@@QEAAPEAV?$basic_string@_WU?$char_traits@_W@std@@V?$allocator@_W@2@@1@QEAV21@AEAY09$$CB_W@Z@4HA 000000018001d300 f   NetFavorites.obj
 0001:0001c30d       __catch$??$_Emplace_reallocate@AEAY09$$CB_W@?$vector@V?$basic_string@_WU?$char_traits@_W@std@@V?$allocator@_W@2@@std@@V?$allocator@V?$basic_string@_WU?$char_traits@_W@std@@V?$allocator@_W@2@@std@@@2@@std@@QEAAPEAV?$basic_string@_WU?$char_traits@_W@std@@V?$allocator@_W@2@@1@QEAV21@AEAY09$$CB_W@Z$0 000000018001d30d f   NetFavorites.obj
 0001:0001c340       ?catch$0@?0???$_Emplace_reallocate@AEBV?$basic_string@_WU?$char_traits@_W@std@@V?$allocator@_W@2@@std@@@?$vector@V?$basic_string@_WU?$char_traits@_W@std@@V?$allocator@_W@2@@std@@V?$allocator@V?$basic_string@_WU?$char_traits@_W@std@@V?$allocator@_W@2@@std@@@2@@std@@QEAAPEAV?$basic_string@_WU?$char_traits@_W@std@@V?$allocator@_W@2@@1@QEAV21@AEBV21@@Z@4HA 000000018001d340 f   NetFavorites.obj
 0001:0001c34d       __catch$??$_Emplace_reallocate@AEBV?$basic_string@_WU?$char_traits@_W@std@@V?$allocator@_W@2@@std@@@?$vector@V?$basic_string@_WU?$char_traits@_W@std@@V?$allocator@_W@2@@std@@V?$allocator@V?$basic_string@_WU?$char_traits@_W@std@@V?$allocator@_W@2@@std@@@2@@std@@QEAAPEAV?$basic_string@_WU?$char_traits@_W@std@@V?$allocator@_W@2@@1@QEAV21@AEBV21@@Z$0 000000018001d34d f   NetFavorites.obj
 0001:0001c374       __scrt_is_nonwritable_in_current_image$filt$0 000000018001d374 f   LIBCMT:utility.obj
 0001:0001c38c       ?fin$0@?0??dllmain_crt_process_attach@@YAHQEAUHINSTANCE__@@QEAX@Z@4HA 000000018001d38c f   LIBCMT:dll_dllmain.obj
 0001:0001c3a3       ?fin$0@?0??dllmain_crt_process_detach@@YAH_N@Z@4HA 000000018001d3a3 f   LIBCMT:dll_dllmain.obj
 0001:0001c3bc       ?fin$1@?0??dllmain_crt_process_detach@@YAH_N@Z@4HA 000000018001d3bc f   LIBCMT:dll_dllmain.obj
 0001:0001c3d0       ?filt$0@?0??dllmain_dispatch@@YAHQEAUHINSTANCE__@@KQEAX@Z@4HA 000000018001d3d0 f   LIBCMT:dll_dllmain.obj
 0001:0001c406       ?filt$0@?0???$_CallSETranslator@V__FrameHandler4@@@@YAHPEAUEHExceptionRecord@@PEA_KPEAU_CONTEXT@@PEAU_xDISPATCHER_CONTEXT@@PEAUFuncInfo4@FH4@@K1H@Z@4HA 000000018001d406 f   libvcruntime:risctrnsctrl.obj
 0001:0001c4a5       __DestructExceptionObject$filt$0 000000018001d4a5 f   libvcruntime:ehhelpers.obj
 0001:0001c53b       ?filt$0@?0??CxxCallCatchBlock@__FrameHandler4@@SAPEAXPEAU_EXCEPTION_RECORD@@@Z@4HA 000000018001d53b f   libvcruntime:frame.obj
 0001:0001c56a       ?fin$1@?0??CxxCallCatchBlock@__FrameHandler4@@SAPEAXPEAU_EXCEPTION_RECORD@@@Z@4HA 000000018001d56a f   libvcruntime:frame.obj
 0001:0001c5ed       ?filt$0@?0??FrameUnwindToState@__FrameHandler4@@SAXPEA_KPEAU_xDISPATCHER_CONTEXT@@PEAUFuncInfo4@FH4@@H@Z@4HA 000000018001d5ed f   libvcruntime:frame.obj
 0001:0001c603       ?fin$1@?0??FrameUnwindToState@__FrameHandler4@@SAXPEA_KPEAU_xDISPATCHER_CONTEXT@@PEAUFuncInfo4@FH4@@H@Z@4HA 000000018001d603 f   libvcruntime:frame.obj
 0001:0001c626       _query_new_handler$fin$0   000000018001d626 f   libucrt:new_handler.obj
 0001:0001c63c       ?fin$0@?0???$?RV<lambda_0ae27a3a962d80f24befdcbee591983d>@@AEAV<lambda_8d0ee55de4b1038c4002e0adecdf1839>@@V<lambda_dc504788e8f1664fe9b84e20bfb512f2>@@@?$__crt_seh_guarded_call@X@@QEAAX$$QEAV<lambda_0ae27a3a962d80f24befdcbee591983d>@@AEAV<lambda_8d0ee55de4b1038c4002e0adecdf1839>@@$$QEAV<lambda_dc504788e8f1664fe9b84e20bfb512f2>@@@Z@4HA 000000018001d63c f   libucrt:per_thread_data.obj
 0001:0001c63c       ?fin$0@?0???$?RV<lambda_2d41944a1d46af3157314b8a01080d33>@@AEAV<lambda_8f455de75cd7d7f24b4096f044d8b9e6>@@V<lambda_aa500f224e6afead328df44964fe2772>@@@?$__crt_seh_guarded_call@X@@QEAAX$$QEAV<lambda_2d41944a1d46af3157314b8a01080d33>@@AEAV<lambda_8f455de75cd7d7f24b4096f044d8b9e6>@@$$QEAV<lambda_aa500f224e6afead328df44964fe2772>@@@Z@4HA 000000018001d63c f   libucrt:per_thread_data.obj
 0001:0001c63c       ?fin$0@?0???$?RV<lambda_aa87e3671a710a21b5dc78c0bdf72e11>@@AEAV<lambda_92619d2358a28f41a33ba319515a20b9>@@V<lambda_6992ecaafeb10aed2b74cb1fae11a551>@@@?$__crt_seh_guarded_call@X@@QEAAX$$QEAV<lambda_aa87e3671a710a21b5dc78c0bdf72e11>@@AEAV<lambda_92619d2358a28f41a33ba319515a20b9>@@$$QEAV<lambda_6992ecaafeb10aed2b74cb1fae11a551>@@@Z@4HA 000000018001d63c f   libucrt:per_thread_data.obj
 0001:0001c63c       ?fin$0@?0???$?RV<lambda_f2e299630e499de9f9a165e60fcd3db5>@@AEAV<lambda_2ae9d31cdba2644fcbeaf08da7c24588>@@V<lambda_40d01ff24d0e7b3814fdbdcee8eab3c7>@@@?$__crt_seh_guarded_call@X@@QEAAX$$QEAV<lambda_f2e299630e499de9f9a165e60fcd3db5>@@AEAV<lambda_2ae9d31cdba2644fcbeaf08da7c24588>@@$$QEAV<lambda_40d01ff24d0e7b3814fdbdcee8eab3c7>@@@Z@4HA 000000018001d63c f   libucrt:per_thread_data.obj
 0001:0001c63c       ?fin$0@?0???$?RV<lambda_efdfa57d1f175319df784efa44bb7b81>@@AEAV<lambda_5f0a4c1567f8adc6734073e5d1e1b35c>@@V<lambda_2e8a7d3640ea6ccb4c2413664c2db6fd>@@@?$__crt_seh_guarded_call@X@@QEAAX$$QEAV<lambda_efdfa57d1f175319df784efa44bb7b81>@@AEAV<lambda_5f0a4c1567f8adc6734073e5d1e1b35c>@@$$QEAV<lambda_2e8a7d3640ea6ccb4c2413664c2db6fd>@@@Z@4HA 000000018001d63c f   libucrt:mbctype.obj
 0001:0001c63c       ?fin$0@?0???$?RV<lambda_450d765d439847d4c735a33c368b5fc0>@@AEAV<lambda_44731a7d0e6d81c3e6aa82d741081786>@@V<lambda_601a2a7da3b7a96e9554ac7215c4b07c>@@@?$__crt_seh_guarded_call@P6AXH@Z@@QEAAP6AXH@Z$$QEAV<lambda_450d765d439847d4c735a33c368b5fc0>@@AEAV<lambda_44731a7d0e6d81c3e6aa82d741081786>@@$$QEAV<lambda_601a2a7da3b7a96e9554ac7215c4b07c>@@@Z@4HA 000000018001d63c f   libucrt:signal.obj
 0001:0001c63c       ?fin$0@?0???$?RV<lambda_d80eeec6fff315bfe5c115232f3240e3>@@AEAV<lambda_6e4b09c48022b2350581041d5f6b0c4c>@@V<lambda_2358e3775559c9db80273638284d5e45>@@@?$__crt_seh_guarded_call@X@@QEAAX$$QEAV<lambda_d80eeec6fff315bfe5c115232f3240e3>@@AEAV<lambda_6e4b09c48022b2350581041d5f6b0c4c>@@$$QEAV<lambda_2358e3775559c9db80273638284d5e45>@@@Z@4HA 000000018001d63c f   libucrt:exit.obj
 0001:0001c63c       ?fin$0@?0???$?RV<lambda_638799b9deba96c50f710eeac98168cd>@@AEAV<lambda_22ebabd17bc4fa466a2aca6d8deb888d>@@V<lambda_a6f7d7db0129f75315ebf26d50c089f1>@@@?$__crt_seh_guarded_call@H@@QEAAH$$QEAV<lambda_638799b9deba96c50f710eeac98168cd>@@AEAV<lambda_22ebabd17bc4fa466a2aca6d8deb888d>@@$$QEAV<lambda_a6f7d7db0129f75315ebf26d50c089f1>@@@Z@4HA 000000018001d63c f   libucrt:onexit.obj
 0001:0001c63c       ?fin$0@?0???$?RV<lambda_7777bce6b2f8c936911f934f8298dc43>@@AEAV<lambda_f03950bc5685219e0bcd2087efbe011e>@@V<lambda_3883c3dff614d5e0c5f61bb1ac94921c>@@@?$__crt_seh_guarded_call@H@@QEAAH$$QEAV<lambda_7777bce6b2f8c936911f934f8298dc43>@@AEAV<lambda_f03950bc5685219e0bcd2087efbe011e>@@$$QEAV<lambda_3883c3dff614d5e0c5f61bb1ac94921c>@@@Z@4HA 000000018001d63c f   libucrt:onexit.obj
 0001:0001c656       ?filt$0@?0???R<lambda_6e4b09c48022b2350581041d5f6b0c4c>@@QEBA@XZ@4HA 000000018001d656 f   libucrt:exit.obj
 0001:0001c671       ?fin$0@?0??update_thread_multibyte_data_internal@@YAPEAU__crt_multibyte_data@@QEAU__acrt_ptd@@QEAPEAU1@@Z@4HA 000000018001d671 f   libucrt:mbctype.obj
 0001:0001c68a       __acrt_initialize_lowio$fin$0 000000018001d68a f   libucrt:ioinit.obj
 0001:0001c68a       __acrt_lowio_ensure_fh_exists$fin$0 000000018001d68a f   libucrt:osfinfo.obj
 0001:0001c6a3       raise$fin$0                000000018001d6a3 f   libucrt:signal.obj
 0001:0001c6c4       ?fin$0@?0???$?RV<lambda_842d9ff0dc9ef11c61343bbaebe7f885>@@AEAV<lambda_c5860995281e5c4ce005b3de8f5874ee>@@V<lambda_d90129c13df834fdcbf8d2b88dafcf2d>@@@?$__crt_seh_guarded_call@X@@QEAAX$$QEAV<lambda_842d9ff0dc9ef11c61343bbaebe7f885>@@AEAV<lambda_c5860995281e5c4ce005b3de8f5874ee>@@$$QEAV<lambda_d90129c13df834fdcbf8d2b88dafcf2d>@@@Z@4HA 000000018001d6c4 f   libucrt:fflush.obj
 0001:0001c6df       ?fin$0@?0???$?RV<lambda_886d6c58226a84441f68b9f2b8217b83>@@AEAV<lambda_ab61a845afdef5b7c387490eaf3616ee>@@V<lambda_f7f22ab5edc0698d5f6905b0d3f44752>@@@?$__crt_seh_guarded_call@X@@QEAAX$$QEAV<lambda_886d6c58226a84441f68b9f2b8217b83>@@AEAV<lambda_ab61a845afdef5b7c387490eaf3616ee>@@$$QEAV<lambda_f7f22ab5edc0698d5f6905b0d3f44752>@@@Z@4HA 000000018001d6df f   libucrt:fflush.obj
 0001:0001c6fc       ?fin$0@?0???$?RV<lambda_410d79af7f07d98d83a3f525b3859a53>@@AEAV<lambda_3e16ef9562a7dcce91392c22ab16ea36>@@V<lambda_38119f0e861e05405d8a144b9b982f0a>@@@?$__crt_seh_guarded_call@X@@QEAAX$$QEAV<lambda_410d79af7f07d98d83a3f525b3859a53>@@AEAV<lambda_3e16ef9562a7dcce91392c22ab16ea36>@@$$QEAV<lambda_38119f0e861e05405d8a144b9b982f0a>@@@Z@4HA 000000018001d6fc f   libucrt:wsetlocale.obj
 0001:0001c716       __acrt_update_thread_locale_data$fin$0 000000018001d716 f   libucrt:locale_refcounting.obj
 0001:0001c72f       ?fin$0@?0???$?RV<lambda_751a882b2c74d4b022dec766aa51a29a>@@AEAV<lambda_628dfdc04ba53c8bfc02c9951375f3f5>@@V<lambda_f6c7be5f7998530c34de24c7437d6b54>@@@?$__crt_seh_guarded_call@H@@QEAAH$$QEAV<lambda_751a882b2c74d4b022dec766aa51a29a>@@AEAV<lambda_628dfdc04ba53c8bfc02c9951375f3f5>@@$$QEAV<lambda_f6c7be5f7998530c34de24c7437d6b54>@@@Z@4HA 000000018001d72f f   libucrt:close.obj
 0001:0001c72f       ?fin$0@?0???$?RV<lambda_a37b2b86f63e897a80ea819b0eb08c01>@@AEAV<lambda_38ce7e780aa69e748d6df282ebc68efe>@@V<lambda_99fb1378e971ab6e7edea83e3a7a83a2>@@@?$__crt_seh_guarded_call@H@@QEAAH$$QEAV<lambda_a37b2b86f63e897a80ea819b0eb08c01>@@AEAV<lambda_38ce7e780aa69e748d6df282ebc68efe>@@$$QEAV<lambda_99fb1378e971ab6e7edea83e3a7a83a2>@@@Z@4HA 000000018001d72f f   libucrt:commit.obj
 0001:0001c749       _write$fin$0               000000018001d749 f   libucrt:write.obj
 0001:0001c760       _fcloseall$fin$0           000000018001d760 f   libucrt:closeall.obj
 0001:0001c779       fclose$fin$0               000000018001d779 f   libucrt:fclose.obj
 0001:0001c791       _ctrlfp$filt$0             000000018001d791 f   libucrt:fpctrl.obj
 0001:0001c7c0       _IsNonwritableInCurrentImage$filt$0 000000018001d7c0 f   LIBCMT:pesect.obj
 0001:0001c7e0       ??__FCommonCurResource@@YAXXZ 000000018001d7e0 f   NetCommon.obj
 0002:00000358       ?CommonCurResource$initializer$@@3P6AXXZEA 000000018001e358     NetCommon.obj
 0002:00000458       GS_ExceptionPointers       000000018001e458     LIBCMT:gs_report.obj
 0002:000004c0       ?ExceptionTemplate@?1??UnwindNestedFrames@__FrameHandler4@@SAXPEA_KPEAUEHExceptionRecord@@PEAU_CONTEXT@@0PEAXPEAUFuncInfo4@FH4@@HHPEAUHandlerType4@6@PEAU_xDISPATCHER_CONTEXT@@E@Z@4U_EXCEPTION_RECORD@@B 000000018001e4c0     libvcruntime:risctrnsctrl.obj
 0002:00000590       ?tokenTable@@3QBUStringLiteral@@B 000000018001e590     libvcruntime:undname.obj
 0002:00000690       ?nameTable@@3QBUStringLiteral@@B 000000018001e690     libvcruntime:undname.obj
 0002:00000bc0       ?rttiTable@@3QBUStringLiteral@@B 000000018001ebc0     libvcruntime:undname.obj
 0002:00000c10       ?IndirectionName@@3QBUStringLiteral@@B 000000018001ec10     libvcruntime:undname.obj
 0002:00000c70       ?PrefixName@@3QBUStringLiteral@@B 000000018001ec70     libvcruntime:undname.obj
 0002:00001348       ?module_names@?A0xf6f43728@@3QBQEB_WB 000000018001f348     libvcruntime:winapi_downlevel.obj
 0002:00001408       ?candidate_modules@?1??try_get_FlsAlloc@@YAP6AKP6AXPEAX@Z@ZXZ@4QBW4module_id@?A0xf6f43728@@B 000000018001f408     libvcruntime:winapi_downlevel.obj
 0002:00001420       ?candidate_modules@?1??try_get_FlsFree@@YAP6AHK@ZXZ@4QBW4module_id@?A0xf6f43728@@B 000000018001f420     libvcruntime:winapi_downlevel.obj
 0002:00001430       ?candidate_modules@?1??try_get_FlsGetValue@@YAP6APEAXK@ZXZ@4QBW4module_id@?A0xf6f43728@@B 000000018001f430     libvcruntime:winapi_downlevel.obj
 0002:00001448       ?candidate_modules@?1??try_get_FlsSetValue@@YAP6AHKPEAX@ZXZ@4QBW4module_id@?A0xf6f43728@@B 000000018001f448     libvcruntime:winapi_downlevel.obj
 0002:00001460       ?candidate_modules@?1??try_get_InitializeCriticalSectionEx@@YAP6AHPEAU_RTL_CRITICAL_SECTION@@KK@ZXZ@4QBW4module_id@?A0xf6f43728@@B 000000018001f460     libvcruntime:winapi_downlevel.obj
 0002:00001590       __acrt_initializers        000000018001f590     libucrt:initialization.obj
 0002:00001690       ?errtable@@3QBUerrentry@?A0x31fdb9ec@@B 000000018001f690     libucrt:errno.obj
 0002:000017f8       ?_mb_locale_names@@3QBQEB_WB 000000018001f7f8     libucrt:mbctype.obj
 0002:00001860       ?module_names@?A0x391cf84c@@3QBQEB_WB 000000018001f860     libucrt:winapi_thunks.obj
 0002:00001d68       ?candidate_modules@?1??try_get_AreFileApisANSI@@YAP6AHXZXZ@4QBW4module_id@?A0x391cf84c@@B 000000018001fd68     libucrt:winapi_thunks.obj
 0002:00001d80       ?candidate_modules@?1??try_get_FlsAlloc@@YAP6AKP6AXPEAX@Z@ZXZ@4QBW4module_id@?A0x391cf84c@@B 000000018001fd80     libucrt:winapi_thunks.obj
 0002:00001d88       ?candidate_modules@?1??try_get_FlsFree@@YAP6AHK@ZXZ@4QBW4module_id@?A0x391cf84c@@B 000000018001fd88     libucrt:winapi_thunks.obj
 0002:00001d90       ?candidate_modules@?1??try_get_FlsGetValue@@YAP6APEAXK@ZXZ@4QBW4module_id@?A0x391cf84c@@B 000000018001fd90     libucrt:winapi_thunks.obj
 0002:00001d98       ?candidate_modules@?1??try_get_FlsSetValue@@YAP6AHKPEAX@ZXZ@4QBW4module_id@?A0x391cf84c@@B 000000018001fd98     libucrt:winapi_thunks.obj
 0002:00001da0       ?candidate_modules@?1??try_get_InitializeCriticalSectionEx@@YAP6AHPEAU_RTL_CRITICAL_SECTION@@KK@ZXZ@4QBW4module_id@?A0x391cf84c@@B 000000018001fda0     libucrt:winapi_thunks.obj
 0002:00001da8       ?candidate_modules@?1??try_get_LCMapStringEx@@YAP6AHPEB_WK0HPEA_WHPEAU_nlsversioninfo@@PEAX_J@ZXZ@4QBW4module_id@?A0x391cf84c@@B 000000018001fda8     libucrt:winapi_thunks.obj
 0002:00001dc0       ?candidate_modules@?1??try_get_LocaleNameToLCID@@YAP6AKPEB_WK@ZXZ@4QBW4module_id@?A0x391cf84c@@B 000000018001fdc0     libucrt:winapi_thunks.obj
 0002:00001ddc       ?candidate_modules@?1??try_get_AppPolicyGetProcessTerminationMethod@@YAP6AJPEAXPEAW4AppPolicyProcessTerminationMethod@@@ZXZ@4QBW4module_id@?A0x391cf84c@@B 000000018001fddc     libucrt:winapi_thunks.obj
 0002:00002a90       ?LcidToLocaleNameTable@?A0x881e4c05@@3QBULcidToLocaleName@1@B 0000000180020a90     libucrt:lcidtoname_downlevel.obj
 0002:000044f0       ?LocaleNameToIndexTable@?A0x881e4c05@@3QBULocaleNameIndex@1@B 00000001800224f0     libucrt:lcidtoname_downlevel.obj
 0002:00005d90       __real_ninf                0000000180023d90     libucrt:log10.obj
 0002:00005da0       __real_inf                 0000000180023da0     libucrt:log10.obj
 0002:00005db0       __real_neg_qnan            0000000180023db0     libucrt:log10.obj
 0002:00005dc0       __real_qnanbit             0000000180023dc0     libucrt:log10.obj
 0002:00005dd0       __int_1023                 0000000180023dd0     libucrt:log10.obj
 0002:00005de0       __mask_001                 0000000180023de0     libucrt:log10.obj
 0002:00005df0       __mask_mant                0000000180023df0     libucrt:log10.obj
 0002:00005e00       __mask_mant_top8           0000000180023e00     libucrt:log10.obj
 0002:00005e10       __mask_mant9               0000000180023e10     libucrt:log10.obj
 0002:00005e20       __real_log10_e             0000000180023e20     libucrt:log10.obj
 0002:00005e30       __real_log10_e_lead        0000000180023e30     libucrt:log10.obj
 0002:00005e40       __real_log10_e_tail        0000000180023e40     libucrt:log10.obj
 0002:00005e50       __real_log10_2_lead        0000000180023e50     libucrt:log10.obj
 0002:00005e60       __real_log10_2_tail        0000000180023e60     libucrt:log10.obj
 0002:00005e70       __real_two                 0000000180023e70     libucrt:log10.obj
 0002:00005e80       __real_one                 0000000180023e80     libucrt:log10.obj
 0002:00005e90       __real_half                0000000180023e90     libucrt:log10.obj
 0002:00005ea0       __mask_100                 0000000180023ea0     libucrt:log10.obj
 0002:00005eb0       __real_1_over_512          0000000180023eb0     libucrt:log10.obj
 0002:00005ec0       __real_1_over_2            0000000180023ec0     libucrt:log10.obj
 0002:00005ed0       __real_1_over_3            0000000180023ed0     libucrt:log10.obj
 0002:00005ee0       __real_1_over_4            0000000180023ee0     libucrt:log10.obj
 0002:00005ef0       __real_1_over_5            0000000180023ef0     libucrt:log10.obj
 0002:00005f00       __real_1_over_6            0000000180023f00     libucrt:log10.obj
 0002:00005f10       __real_neg_1023            0000000180023f10     libucrt:log10.obj
 0002:00005f20       __mask_2045                0000000180023f20     libucrt:log10.obj
 0002:00005f30       __real_threshold           0000000180023f30     libucrt:log10.obj
 0002:00005f40       __real_near_one_lt         0000000180023f40     libucrt:log10.obj
 0002:00005f50       __real_near_one_gt         0000000180023f50     libucrt:log10.obj
 0002:00005f60       __real_min_norm            0000000180023f60     libucrt:log10.obj
 0002:00005f70       __real_notsign             0000000180023f70     libucrt:log10.obj
 0002:00005f80       __real_ca1                 0000000180023f80     libucrt:log10.obj
 0002:00005f90       __real_ca2                 0000000180023f90     libucrt:log10.obj
 0002:00005fa0       __real_ca3                 0000000180023fa0     libucrt:log10.obj
 0002:00005fb0       __real_ca4                 0000000180023fb0     libucrt:log10.obj
 0002:00005fc0       __mask_lower               0000000180023fc0     libucrt:log10.obj
 0002:00005fd0       __flag_x_zero              0000000180023fd0     libucrt:log10.obj
 0002:00005fd4       __flag_x_neg               0000000180023fd4     libucrt:log10.obj
 0002:00005fd8       __flag_x_nan               0000000180023fd8     libucrt:log10.obj
 0002:00007830       __real@433fffffffffffff    0000000180025830     libucrt:fpsr.obj
 0002:00007838       __real@c33fffffffffffff    0000000180025838     libucrt:fpsr.obj
 0002:00007df0       ?FKeys@?BE@??GetOpenPanelInfo@NetBrowser@@QEAAXPEAUOpenPanelInfo@@@Z@4PAGA 0000000180025df0     NetClass.obj
 0002:00007e80       ?FKeys@?BN@??GetOpenPanelInfo@NetBrowser@@QEAAXPEAUOpenPanelInfo@@@Z@4PAGA 0000000180025e80     NetClass.obj
 0002:00007ef8       ?SZ_USERNAME@@3QB_WB       0000000180025ef8     NetFavorites.obj
 0002:00007f10       ?SZ_USERPASS@@3QB_WB       0000000180025f10     NetFavorites.obj
 0002:00007f30       ?SZ_FAVORITES@@3QB_WB      0000000180025f30     NetFavorites.obj
 0002:00008b18       $unwind$?ItemWidth@PluginDialogBuilder@@CA_JAEBUFarDialogItem@@@Z 0000000180026b18     NetCfg.obj
 0002:00008b18       $unwind$?IsMSNetResource@NetBrowser@@SA_NAEBVNetResource@@@Z 0000000180026b18     NetClass.obj
 0002:00008b18       $unwind$?_Xlen_string@std@@YAXXZ 0000000180026b18     NetClass.obj
 0002:00008b18       $unwind$?_Xlength@?$vector@VNetResource@@V?$allocator@VNetResource@@@std@@@std@@CAXXZ 0000000180026b18     NetClass.obj
 0002:00008b18       $unwind$?_Xran@?$_String_val@U?$_Simple_types@_W@std@@@std@@SAXXZ 0000000180026b18     NetClass.obj
 0002:00008b18       $unwind$?allocate@?$allocator@_W@std@@QEAAPEA_W_K@Z 0000000180026b18     NetClass.obj
 0002:00008b18       $unwind$?_Xlength@?$vector@V?$basic_string@_WU?$char_traits@_W@std@@V?$allocator@_W@2@@std@@V?$allocator@V?$basic_string@_WU?$char_traits@_W@std@@V?$allocator@_W@2@@std@@@2@@std@@CAXXZ 0000000180026b18     NetFavorites.obj
 0002:00008b18       $unwind$?deallocate@?$allocator@V?$basic_string@_WU?$char_traits@_W@std@@V?$allocator@_W@2@@std@@@std@@QEAAXQEAV?$basic_string@_WU?$char_traits@_W@std@@V?$allocator@_W@2@@2@_K@Z 0000000180026b18     NetFavorites.obj
 0002:00008b18       $unwind$?deallocate@?$allocator@VNetResource@@@std@@QEAAXQEAVNetResource@@_K@Z 0000000180026b18     Network.obj
 0002:00008b18       $unwind$ConfigureW         0000000180026b18     Network.obj
 0002:00008b18       $unwind$GetFindDataW       0000000180026b18     Network.obj
 0002:00008b18       $unwind$GetGlobalInfoW     0000000180026b18     Network.obj
 0002:00008b18       $unwind$ProcessPanelEventW 0000000180026b18     Network.obj
 0002:00008b18       $unwind$ProcessPanelInputW 0000000180026b18     Network.obj
 0002:00008b18       $unwind$SetDirectoryW      0000000180026b18     Network.obj
 0002:00008b18       $unwind$SetStartupInfoW    0000000180026b18     Network.obj
 0002:00008b18       $unwind$__scrt_initialize_default_local_stdio_options 0000000180026b18     LIBCMT:default_local_stdio_options.obj
 0002:00008b18       $unwind$?dllmain_crt_dispatch@@YAHQEAUHINSTANCE__@@KQEAX@Z 0000000180026b18     LIBCMT:dll_dllmain.obj
 0002:00008b18       $unwind$__report_rangecheckfailure 0000000180026b18     LIBCMT:gs_report.obj
 0002:00008b18       $unwind$__GSHandlerCheck   0000000180026b18     LIBCMT:gshandler.obj
 0002:00008b18       $unwind$__scrt_acquire_startup_lock 0000000180026b18     LIBCMT:utility.obj
 0002:00008b18       $unwind$__scrt_dllmain_after_initialize_c 0000000180026b18     LIBCMT:utility.obj
 0002:00008b18       $unwind$__scrt_dllmain_before_initialize_c 0000000180026b18     LIBCMT:utility.obj
 0002:00008b18       $unwind$__scrt_dllmain_crt_thread_attach 0000000180026b18     LIBCMT:utility.obj
 0002:00008b18       $unwind$__scrt_dllmain_crt_thread_detach 0000000180026b18     LIBCMT:utility.obj
 0002:00008b18       $unwind$__scrt_dllmain_uninitialize_c 0000000180026b18     LIBCMT:utility.obj
 0002:00008b18       $unwind$__scrt_dllmain_uninitialize_critical 0000000180026b18     LIBCMT:utility.obj
 0002:00008b18       $unwind$atexit             0000000180026b18     LIBCMT:utility.obj
 0002:00008b18       $unwind$__std_terminate    0000000180026b18     libvcruntime:ehhelpers.obj
 0002:00008b18       $unwind$__vcrt_initialize  0000000180026b18     libvcruntime:initialization.obj
 0002:00008b18       $unwind$__vcrt_thread_attach 0000000180026b18     libvcruntime:initialization.obj
 0002:00008b18       $unwind$__vcrt_thread_detach 0000000180026b18     libvcruntime:initialization.obj
 0002:00008b18       $unwind$__vcrt_uninitialize 0000000180026b18     libvcruntime:initialization.obj
 0002:00008b18       $unwind$__vcrt_uninitialize_critical 0000000180026b18     libvcruntime:initialization.obj
 0002:00008b18       $unwind$__vcrt_initialize_locks 0000000180026b18     libvcruntime:locks.obj
 0002:00008b18       $unwind$__vcrt_freefls     0000000180026b18     libvcruntime:per_thread_data.obj
 0002:00008b18       $unwind$__vcrt_getptd      0000000180026b18     libvcruntime:per_thread_data.obj
 0002:00008b18       $unwind$__vcrt_initialize_ptd 0000000180026b18     libvcruntime:per_thread_data.obj
 0002:00008b18       $unwind$__vcrt_uninitialize_ptd 0000000180026b18     libvcruntime:per_thread_data.obj
 0002:00008b18       $unwind$?FrameUnwindToEmptyState@__FrameHandler4@@SAXPEA_KPEAU_xDISPATCHER_CONTEXT@@PEAUFuncInfo4@FH4@@@Z 0000000180026b18     libvcruntime:risctrnsctrl.obj
 0002:00008b18       $unwind$_GetImageBase      0000000180026b18     libvcruntime:risctrnsctrl.obj
 0002:00008b18       $unwind$_GetThrowImageBase 0000000180026b18     libvcruntime:risctrnsctrl.obj
 0002:00008b18       $unwind$__dcrt_terminate_console_output 0000000180026b18     libucrt:initcon.obj
 0002:00008b18       $unwind$??$uninitialize_environment_internal@D@@YAXAEAPEAPEAD@Z 0000000180026b18     libucrt:environment_initialization.obj
 0002:00008b18       $unwind$??$uninitialize_environment_internal@_W@@YAXAEAPEAPEA_W@Z 0000000180026b18     libucrt:environment_initialization.obj
 0002:00008b18       $unwind$__dcrt_uninitialize_environments_nolock 0000000180026b18     libucrt:environment_initialization.obj
 0002:00008b18       $unwind$__acrt_initialize_heap 0000000180026b18     libucrt:heap_handle.obj
 0002:00008b18       $unwind$_msize_base        0000000180026b18     libucrt:msize.obj
 0002:00008b18       $unwind$?initialize_multibyte@@YAHXZ 0000000180026b18     libucrt:multibyte_initializer.obj
 0002:00008b18       $unwind$__acrt_thread_attach 0000000180026b18     libucrt:initialization.obj
 0002:00008b18       $unwind$__acrt_thread_detach 0000000180026b18     libucrt:initialization.obj
 0002:00008b18       $unwind$__acrt_uninitialize 0000000180026b18     libucrt:initialization.obj
 0002:00008b18       $unwind$__acrt_uninitialize_critical 0000000180026b18     libucrt:initialization.obj
 0002:00008b18       $unwind$initialize_c       0000000180026b18     libucrt:initialization.obj
 0002:00008b18       $unwind$uninitialize_allocated_io_buffers 0000000180026b18     libucrt:initialization.obj
 0002:00008b18       $unwind$uninitialize_environment 0000000180026b18     libucrt:initialization.obj
 0002:00008b18       $unwind$__acrt_initialize_ptd 0000000180026b18     libucrt:per_thread_data.obj
 0002:00008b18       $unwind$__acrt_uninitialize_ptd 0000000180026b18     libucrt:per_thread_data.obj
 0002:00008b18       $unwind$__acrt_AreFileApisANSI 0000000180026b18     libucrt:winapi_thunks.obj
 0002:00008b18       $unwind$__pctype_func      0000000180026b18     libucrt:ctype.obj
 0002:00008b18       $unwind$__acrt_release_locale_ref 0000000180026b18     libucrt:locale_refcounting.obj
 0002:00008b18       $unwind$_isatty            0000000180026b18     libucrt:isatty.obj
 0002:00008b18       $unwind$_get_osfhandle     0000000180026b18     libucrt:osfinfo.obj
 0002:00008b18       $unwind$__acrt_initialize_multibyte 0000000180026b18     libucrt:mbctype.obj
 0002:00008b18       $unwind$__acrt_update_thread_multibyte_data 0000000180026b18     libucrt:mbctype.obj
 0002:00008b18       $unwind$__doserrno         0000000180026b18     libucrt:errno.obj
 0002:00008b18       $unwind$_errno             0000000180026b18     libucrt:errno.obj
 0002:00008b18       $unwind$_invoke_watson     0000000180026b18     libucrt:invalid_parameter.obj
 0002:00008b18       $unwind$abort              0000000180026b18     libucrt:abort.obj
 0002:00008b18       $unwind$__acrt_initialize_command_line 0000000180026b18     libucrt:argv_data.obj
 0002:00008b18       $unwind$_fileno            0000000180026b18     libucrt:fileno.obj
 0002:00008b18       $unwind$_statfp            0000000180026b18     libucrt:fpctrl.obj
 0002:00008b18       $unwind$_set_errno_from_matherr 0000000180026b18     libucrt:fpexcept.obj
 0002:00008b20       $unwind$?SaveValue@PluginRadioButtonBinding@@UEAAXPEBUFarDialogItem@@H@Z 0000000180026b20     NetCfg.obj
 0002:00008b20       $unwind$??1?$_Uninitialized_backout_al@V?$allocator@VNetResource@@@std@@@std@@QEAA@XZ 0000000180026b20     NetClass.obj
 0002:00008b20       $unwind$??4NetResource@@QEAAAEAV0@$$QEAV0@@Z 0000000180026b20     NetClass.obj
 0002:00008b20       $unwind$??4NetResource@@QEAAAEAV0@AEBV0@@Z 0000000180026b20     NetClass.obj
 0002:00008b20       $unwind$??_Gbad_alloc@std@@UEAAPEAXI@Z 0000000180026b20     NetClass.obj
 0002:00008b20       $unwind$??_Gbad_array_new_length@std@@UEAAPEAXI@Z 0000000180026b20     NetClass.obj
 0002:00008b20       $unwind$??_Gexception@std@@UEAAPEAXI@Z 0000000180026b20     NetClass.obj
 0002:00008b20       $unwind$??1NetResource@@QEAA@XZ 0000000180026b20     Network.obj
 0002:00008b20       $unwind$GetPluginInfoW     0000000180026b20     Network.obj
 0002:00008b20       $unwind$_RTC_Initialize    0000000180026b20     LIBCMT:initsect.obj
 0002:00008b20       $unwind$_RTC_Terminate     0000000180026b20     LIBCMT:initsect.obj
 0002:00008b20       $unwind$??_Glength_error@std@@UEAAPEAXI@Z 0000000180026b20     libcpmt:xthrow.obj
 0002:00008b20       $unwind$??_Glogic_error@std@@UEAAPEAXI@Z 0000000180026b20     libcpmt:xthrow.obj
 0002:00008b20       $unwind$??_Gout_of_range@std@@UEAAPEAXI@Z 0000000180026b20     libcpmt:xthrow.obj
 0002:00008b20       $unwind$__FrameUnwindFilter 0000000180026b20     libvcruntime:ehhelpers.obj
 0002:00008b20       $unwind$??_Gbad_exception@std@@UEAAPEAXI@Z 0000000180026b20     libvcruntime:frame.obj
 0002:00008b20       $unwind$?ExFilterRethrowFH4@@YAHPEAU_EXCEPTION_POINTERS@@PEAUEHExceptionRecord@@HPEAH@Z 0000000180026b20     libvcruntime:frame.obj
 0002:00008b20       $unwind$_FindAndUnlinkFrame 0000000180026b20     libvcruntime:risctrnsctrl.obj
 0002:00008b20       $unwind$__vcrt_FlsSetValue 0000000180026b20     libvcruntime:winapi_downlevel.obj
 0002:00008b20       $unwind$??$common_initialize_environment_nolock@D@@YAHXZ 0000000180026b20     libucrt:environment_initialization.obj
 0002:00008b20       $unwind$_realloc_base      0000000180026b20     libucrt:realloc_base.obj
 0002:00008b20       $unwind$?replace_current_thread_locale_nolock@@YAXQEAU__acrt_ptd@@QEAU__crt_locale_data@@@Z 0000000180026b20     libucrt:per_thread_data.obj
 0002:00008b20       $unwind$__acrt_execute_uninitializers 0000000180026b20     libucrt:shared_initialization.obj
 0002:00008b20       $unwind$__acrt_FlsSetValue 0000000180026b20     libucrt:winapi_thunks.obj
 0002:00008b20       $unwind$__acrt_LocaleNameToLCID 0000000180026b20     libucrt:winapi_thunks.obj
 0002:00008b20       $unwind$_updatetlocinfoEx_nolock 0000000180026b20     libucrt:locale_refcounting.obj
 0002:00008b20       $unwind$_close_nolock      0000000180026b20     libucrt:close.obj
 0002:00008b20       $unwind$__acrt_uninitialize_lowio 0000000180026b20     libucrt:ioinit.obj
 0002:00008b20       $unwind$__acrt_errno_map_os_error 0000000180026b20     libucrt:errno.obj
 0002:00008b20       $unwind$_initterm_e        0000000180026b20     libucrt:initterm.obj
 0002:00008b20       $unwind$_fclose_nolock     0000000180026b20     libucrt:fclose.obj
 0002:00008b20       $unwind$strncpy_s          0000000180026b20     libucrt:strncpy_s.obj
 0002:00008b2c       $unwind$OpenW              0000000180026b2c     Network.obj
 0002:00008b44       $unwind$??_GPluginCheckBoxBinding@@UEAAPEAXI@Z 0000000180026b44     NetCfg.obj
 0002:00008b44       $unwind$??_GPluginRadioButtonBinding@@UEAAPEAXI@Z 0000000180026b44     NetCfg.obj
 0002:00008b44       $unwind$?SaveValue@PluginCheckBoxBinding@@UEAAXPEBUFarDialogItem@@H@Z 0000000180026b44     NetCfg.obj
 0002:00008b44       $unwind$??0bad_alloc@std@@QEAA@AEBV01@@Z 0000000180026b44     NetClass.obj
 0002:00008b44       $unwind$??0bad_array_new_length@std@@QEAA@AEBV01@@Z 0000000180026b44     NetClass.obj
 0002:00008b44       $unwind$??0exception@std@@QEAA@AEBV01@@Z 0000000180026b44     NetClass.obj
 0002:00008b44       $unwind$??_GPluginEditFieldBinding@@UEAAPEAXI@Z 0000000180026b44     NetClass.obj
 0002:00008b44       $unwind$?SaveValue@PluginEditFieldBinding@@UEAAXPEBUFarDialogItem@@H@Z 0000000180026b44     NetClass.obj
 0002:00008b44       $unwind$??1?$vector@V?$basic_string@_WU?$char_traits@_W@std@@V?$allocator@_W@2@@std@@V?$allocator@V?$basic_string@_WU?$char_traits@_W@std@@V?$allocator@_W@2@@std@@@2@@std@@QEAA@XZ 0000000180026b44     NetFavorites.obj
 0002:00008b44       $unwind$??1?$basic_string@_WU?$char_traits@_W@std@@V?$allocator@_W@2@@std@@QEAA@XZ 0000000180026b44     Network.obj
 0002:00008b44       $unwind$??1?$unique_ptr@VNetBrowser@@U?$default_delete@VNetBrowser@@@std@@@std@@QEAA@XZ 0000000180026b44     Network.obj
 0002:00008b44       $unwind$ClosePanelW        0000000180026b44     Network.obj
 0002:00008b44       $unwind$ExitFARW           0000000180026b44     Network.obj
 0002:00008b44       $unwind$__raise_securityfailure 0000000180026b44     LIBCMT:gs_report.obj
 0002:00008b44       $unwind$??2@YAPEAX_K@Z     0000000180026b44     LIBCMT:new_scalar.obj
 0002:00008b44       $unwind$??_Gtype_info@@UEAAPEAXI@Z 0000000180026b44     LIBCMT:std_type_info_static.obj
 0002:00008b44       $unwind$__scrt_initialize_crt 0000000180026b44     LIBCMT:utility.obj
 0002:00008b44       $unwind$__scrt_initialize_onexit_tables 0000000180026b44     LIBCMT:utility.obj
 0002:00008b44       $unwind$__scrt_release_startup_lock 0000000180026b44     LIBCMT:utility.obj
 0002:00008b44       $unwind$__scrt_uninitialize_crt 0000000180026b44     LIBCMT:utility.obj
 0002:00008b44       $unwind$_onexit            0000000180026b44     LIBCMT:utility.obj
 0002:00008b44       $unwind$??0length_error@std@@QEAA@AEBV01@@Z 0000000180026b44     libcpmt:xthrow.obj
 0002:00008b44       $unwind$??0logic_error@std@@QEAA@AEBV01@@Z 0000000180026b44     libcpmt:xthrow.obj
 0002:00008b44       $unwind$??0out_of_range@std@@QEAA@AEBV01@@Z 0000000180026b44     libcpmt:xthrow.obj
 0002:00008b44       $unwind$_IsExceptionObjectToBeDestroyed 0000000180026b44     libvcruntime:ehhelpers.obj
 0002:00008b44       $unwind$??0HandlerMap4@FH4@@QEAA@PEBUTryBlockMapEntry4@1@_KH@Z 0000000180026b44     libvcruntime:frame.obj
 0002:00008b44       $unwind$??0bad_exception@std@@QEAA@AEBV01@@Z 0000000180026b44     libvcruntime:frame.obj
 0002:00008b44       $unwind$?ExFilterRethrow@@YAHPEAU_EXCEPTION_POINTERS@@PEAUEHExceptionRecord@@PEAH@Z 0000000180026b44     libvcruntime:frame.obj
 0002:00008b44       $unwind$__vcrt_uninitialize_locks 0000000180026b44     libvcruntime:locks.obj
 0002:00008b44       $unwind$__vcrt_freeptd     0000000180026b44     libvcruntime:per_thread_data.obj
 0002:00008b44       $unwind$_CreateFrameInfo   0000000180026b44     libvcruntime:risctrnsctrl.obj
 0002:00008b44       $unwind$_SetImageBase      0000000180026b44     libvcruntime:risctrnsctrl.obj
 0002:00008b44       $unwind$_SetThrowImageBase 0000000180026b44     libvcruntime:risctrnsctrl.obj
 0002:00008b44       $unwind$__std_exception_destroy 0000000180026b44     libvcruntime:std_exception.obj
 0002:00008b44       $unwind$__std_type_info_destroy_list 0000000180026b44     libvcruntime:std_type_info.obj
 0002:00008b44       $unwind$__vcrt_FlsAlloc    0000000180026b44     libvcruntime:winapi_downlevel.obj
 0002:00008b44       $unwind$__vcrt_FlsFree     0000000180026b44     libvcruntime:winapi_downlevel.obj
 0002:00008b44       $unwind$__vcrt_FlsGetValue 0000000180026b44     libvcruntime:winapi_downlevel.obj
 0002:00008b44       $unwind$_calloc_base       0000000180026b44     libucrt:calloc_base.obj
 0002:00008b44       $unwind$_malloc_base       0000000180026b44     libucrt:malloc_base.obj
 0002:00008b44       $unwind$_callnewh          0000000180026b44     libucrt:new_handler.obj
 0002:00008b44       $unwind$initialize_pointers 0000000180026b44     libucrt:initialization.obj
 0002:00008b44       $unwind$uninitialize_allocated_memory 0000000180026b44     libucrt:initialization.obj
 0002:00008b44       $unwind$__acrt_initialize_locks 0000000180026b44     libucrt:locks.obj
 0002:00008b44       $unwind$__acrt_uninitialize_locks 0000000180026b44     libucrt:locks.obj
 0002:00008b44       $unwind$__acrt_freeptd     0000000180026b44     libucrt:per_thread_data.obj
 0002:00008b44       $unwind$__acrt_getptd_head 0000000180026b44     libucrt:per_thread_data.obj
 0002:00008b44       $unwind$__acrt_get_process_end_policy 0000000180026b44     libucrt:win_policies.obj
 0002:00008b44       $unwind$__acrt_AppPolicyGetProcessTerminationMethodInternal 0000000180026b44     libucrt:winapi_thunks.obj
 0002:00008b44       $unwind$__acrt_FlsAlloc    0000000180026b44     libucrt:winapi_thunks.obj
 0002:00008b44       $unwind$__acrt_FlsFree     0000000180026b44     libucrt:winapi_thunks.obj
 0002:00008b44       $unwind$__acrt_FlsGetValue 0000000180026b44     libucrt:winapi_thunks.obj
 0002:00008b44       $unwind$__acrt_uninitialize_winapi_thunks 0000000180026b44     libucrt:winapi_thunks.obj
 0002:00008b44       $unwind$__acrt_update_locale_info 0000000180026b44     libucrt:locale_update.obj
 0002:00008b44       $unwind$__acrt_update_multibyte_info 0000000180026b44     libucrt:locale_update.obj
 0002:00008b44       $unwind$__acrt_allocate_buffer_for_argv 0000000180026b44     libucrt:argv_parsing.obj
 0002:00008b44       $unwind$?exit_or_terminate_process@@YAXI@Z 0000000180026b44     libucrt:exit.obj
 0002:00008b44       $unwind$?try_cor_exit_process@@YAXI@Z 0000000180026b44     libucrt:exit.obj
 0002:00008b44       $unwind$__acrt_uninitialize_stdio 0000000180026b44     libucrt:_file.obj
 0002:00008b44       $unwind$__acrt_stdio_free_buffer_nolock 0000000180026b44     libucrt:_freebuf.obj
 0002:00008b44       $unwind$_fflush_nolock     0000000180026b44     libucrt:fflush.obj
 0002:00008b44       $unwind$strcpy_s           0000000180026b44     libucrt:strcpy_s.obj
 0002:00008b44       $unwind$wcscpy_s           0000000180026b44     libucrt:wcscpy_s.obj
 0002:00008b44       $unwind$_clrfp             0000000180026b44     libucrt:fpctrl.obj
 0002:00008b44       $unwind$_set_statfp        0000000180026b44     libucrt:fpctrl.obj
 0002:00008b4c       $unwind$??$_Copy_unchecked@PEAVNetResource@@PEAV1@@std@@YAPEAVNetResource@@PEAV1@00@Z 0000000180026b4c     NetClass.obj
 0002:00008b4c       $unwind$FreeFindDataW      0000000180026b4c     Network.obj
 0002:00008b58       $chain$0$FreeFindDataW     0000000180026b58     Network.obj
 0002:00008b6c       $chain$1$FreeFindDataW     0000000180026b6c     Network.obj
 0002:00008b7c       $unwind$DeleteFilesW       0000000180026b7c     Network.obj
 0002:00008b8c       $chain$0$DeleteFilesW      0000000180026b8c     Network.obj
 0002:00008ba0       $chain$1$DeleteFilesW      0000000180026ba0     Network.obj
 0002:00008bb0       $unwind$??1?$vector@VNetResource@@V?$allocator@VNetResource@@@std@@@std@@QEAA@XZ 0000000180026bb0     Network.obj
 0002:00008bbc       $chain$0$??1?$vector@VNetResource@@V?$allocator@VNetResource@@@std@@@std@@QEAA@XZ 0000000180026bbc     Network.obj
 0002:00008bd0       $chain$1$??1?$vector@VNetResource@@V?$allocator@VNetResource@@@std@@@std@@QEAA@XZ 0000000180026bd0     Network.obj
 0002:00008be0       $unwind$?_Destroy@?$vector@VNetResource@@V?$allocator@VNetResource@@@std@@@std@@AEAAXPEAVNetResource@@0@Z 0000000180026be0     Network.obj
 0002:00008be0       $unwind$??$free_environment@D@@YAXQEAPEAD@Z 0000000180026be0     libucrt:environment_initialization.obj
 0002:00008be0       $unwind$??$free_environment@_W@@YAXQEAPEA_W@Z 0000000180026be0     libucrt:environment_initialization.obj
 0002:00008bec       $unwind$??0PluginDialogBuilder@@QEAA@AEBUPluginStartupInfo@@AEBU_GUID@@1HPEB_WP6A_JPEAX_J43@Z3_K@Z 0000000180026bec     NetCfg.obj
 0002:00008c00       $chain$0$??0PluginDialogBuilder@@QEAA@AEBUPluginStartupInfo@@AEBU_GUID@@1HPEB_WP6A_JPEAX_J43@Z3_K@Z 0000000180026c00     NetCfg.obj
 0002:00008c14       $chain$1$??0PluginDialogBuilder@@QEAA@AEBUPluginStartupInfo@@AEBU_GUID@@1HPEB_WP6A_JPEAX_J43@Z3_K@Z 0000000180026c14     NetCfg.obj
 0002:00008c24       $unwind$??1PluginDialogBuilder@@QEAA@XZ 0000000180026c24     NetCfg.obj
 0002:00008c3c       $cppxdata$??1PluginDialogBuilder@@QEAA@XZ 0000000180026c3c     NetCfg.obj
 0002:00008c41       $ip2state$??1PluginDialogBuilder@@QEAA@XZ 0000000180026c41     NetCfg.obj
 0002:00008c44       $unwind$?AddRadioButtons@PluginDialogBuilder@@QEAAPEAUFarDialogItem@@PEAHHQEBH_N@Z 0000000180026c44     NetCfg.obj
 0002:00008c60       $unwind$?AddButtons@PluginDialogBuilder@@QEAAXHPEBHHH@Z 0000000180026c60     NetCfg.obj
 0002:00008c70       $chain$3$?AddButtons@PluginDialogBuilder@@QEAAXHPEBHHH@Z 0000000180026c70     NetCfg.obj
 0002:00008c90       $chain$4$?AddButtons@PluginDialogBuilder@@QEAAXHPEBHHH@Z 0000000180026c90     NetCfg.obj
 0002:00008ca0       $unwind$?ShowDialogEx@PluginDialogBuilder@@QEAA_JXZ 0000000180026ca0     NetCfg.obj
 0002:00008cac       $chain$4$?ShowDialogEx@PluginDialogBuilder@@QEAA_JXZ 0000000180026cac     NetCfg.obj
 0002:00008cd0       $chain$6$?ShowDialogEx@PluginDialogBuilder@@QEAA_JXZ 0000000180026cd0     NetCfg.obj
 0002:00008ce8       $chain$7$?ShowDialogEx@PluginDialogBuilder@@QEAA_JXZ 0000000180026ce8     NetCfg.obj
 0002:00008cfc       $chain$8$?ShowDialogEx@PluginDialogBuilder@@QEAA_JXZ 0000000180026cfc     NetCfg.obj
 0002:00008d0c       $unwind$?AddDialogItem@PluginDialogBuilder@@AEAAPEAUFarDialogItem@@W4FARDIALOGITEMTYPES@@PEB_W@Z 0000000180026d0c     NetCfg.obj
 0002:00008d1c       $chain$0$?AddDialogItem@PluginDialogBuilder@@AEAAPEAUFarDialogItem@@W4FARDIALOGITEMTYPES@@PEB_W@Z 0000000180026d1c     NetCfg.obj
 0002:00008d30       $chain$1$?AddDialogItem@PluginDialogBuilder@@AEAAPEAUFarDialogItem@@W4FARDIALOGITEMTYPES@@PEB_W@Z 0000000180026d30     NetCfg.obj
 0002:00008d44       $chain$2$?AddDialogItem@PluginDialogBuilder@@AEAAPEAUFarDialogItem@@W4FARDIALOGITEMTYPES@@PEB_W@Z 0000000180026d44     NetCfg.obj
 0002:00008d54       $chain$3$?AddDialogItem@PluginDialogBuilder@@AEAAPEAUFarDialogItem@@W4FARDIALOGITEMTYPES@@PEB_W@Z 0000000180026d54     NetCfg.obj
 0002:00008d64       $unwind$??1PluginSettings@@QEAA@XZ 0000000180026d64     NetCfg.obj
 0002:00008d74       $cppxdata$??1PluginSettings@@QEAA@XZ 0000000180026d74     NetCfg.obj
 0002:00008d79       $ip2state$??1PluginSettings@@QEAA@XZ 0000000180026d79     NetCfg.obj
 0002:00008d7c       $unwind$?Config@@YAHXZ     0000000180026d7c     NetCfg.obj
 0002:00008da0       $cppxdata$?Config@@YAHXZ   0000000180026da0     NetCfg.obj
 0002:00008da9       $stateUnwindMap$?Config@@YAHXZ 0000000180026da9     NetCfg.obj
 0002:00008db5       $ip2state$?Config@@YAHXZ   0000000180026db5     NetCfg.obj
 0002:00008dc0       $unwind$?Read@Options@@SAXXZ 0000000180026dc0     NetCfg.obj
 0002:00008de4       $cppxdata$?Read@Options@@SAXXZ 0000000180026de4     NetCfg.obj
 0002:00008ded       $stateUnwindMap$?Read@Options@@SAXXZ 0000000180026ded     NetCfg.obj
 0002:00008ded       $stateUnwindMap$?Write@Options@@SAXXZ 0000000180026ded     NetCfg.obj
 0002:00008df9       $ip2state$?Read@Options@@SAXXZ 0000000180026df9     NetCfg.obj
 0002:00008e04       $unwind$?Write@Options@@SAXXZ 0000000180026e04     NetCfg.obj
 0002:00008e28       $cppxdata$?Write@Options@@SAXXZ 0000000180026e28     NetCfg.obj
 0002:00008e31       $ip2state$?Write@Options@@SAXXZ 0000000180026e31     NetCfg.obj
 0002:00008e3c       $unwind$?_Throw_bad_array_new_length@std@@YAXXZ 0000000180026e3c     NetClass.obj
 0002:00008e3c       $unwind$?__scrt_throw_std_bad_alloc@@YAXXZ 0000000180026e3c     LIBCMT:throw_bad_alloc.obj
 0002:00008e3c       $unwind$?__scrt_throw_std_bad_array_new_length@@YAXXZ 0000000180026e3c     LIBCMT:throw_bad_alloc.obj
 0002:00008e3c       $unwind$?_Xlength_error@std@@YAXPEBD@Z 0000000180026e3c     libcpmt:xthrow.obj
 0002:00008e3c       $unwind$?_Xout_of_range@std@@YAXPEBD@Z 0000000180026e3c     libcpmt:xthrow.obj
 0002:00008e3c       $unwind$_raise_exc         0000000180026e3c     libucrt:fpexcept.obj
 0002:00008e44       $unwind$??0NetResource@@QEAA@AEAU_NETRESOURCEW@@@Z 0000000180026e44     NetClass.obj
 0002:00008e64       $cppxdata$??0NetResource@@QEAA@AEAU_NETRESOURCEW@@@Z 0000000180026e64     NetClass.obj
 0002:00008e6d       $stateUnwindMap$??0NetResource@@QEAA@AEAU_NETRESOURCEW@@@Z 0000000180026e6d     NetClass.obj
 0002:00008e96       $ip2state$??0NetResource@@QEAA@AEAU_NETRESOURCEW@@@Z 0000000180026e96     NetClass.obj
 0002:00008e9c       $unwind$?Clear@NetResourceList@@QEAAXXZ 0000000180026e9c     NetClass.obj
 0002:00008e9c       $unwind$_DllMainCRTStartup 0000000180026e9c     LIBCMT:dll_dllmain.obj
 0002:00008e9c       $unwind$__vcrt_getptd_noexit 0000000180026e9c     libvcruntime:per_thread_data.obj
 0002:00008e9c       $unwind$__vcrt_InitializeCriticalSectionEx 0000000180026e9c     libvcruntime:winapi_downlevel.obj
 0002:00008e9c       $unwind$__acrt_getptd      0000000180026e9c     libucrt:per_thread_data.obj
 0002:00008e9c       $unwind$__acrt_getptd_noexit 0000000180026e9c     libucrt:per_thread_data.obj
 0002:00008e9c       $unwind$__acrt_execute_initializers 0000000180026e9c     libucrt:shared_initialization.obj
 0002:00008e9c       $unwind$__acrt_InitializeCriticalSectionEx 0000000180026e9c     libucrt:winapi_thunks.obj
 0002:00008e9c       $unwind$?free_crt_array_internal@@YAXQEAPEBX_K@Z 0000000180026e9c     libucrt:inittime.obj
 0002:00008e9c       $unwind$??$common_lseek_nolock@_J@@YA_JH_JH@Z 0000000180026e9c     libucrt:lseek.obj
 0002:00008e9c       $unwind$__acrt_stdio_flush_nolock 0000000180026e9c     libucrt:fflush.obj
 0002:00008e9c       $unwind$??0_LocaleUpdate@@QEAA@QEAU__crt_locale_pointers@@@Z 0000000180026e9c     libucrt:output.obj
 0002:00008e9c       $unwind$_exception_enabled 0000000180026e9c     libucrt:libm_error.obj
 0002:00008eac       $unwind$?Push@NetResourceList@@QEAAXAEBVNetResource@@@Z 0000000180026eac     NetClass.obj
 0002:00008ec4       $cppxdata$?Push@NetResourceList@@QEAAXAEBVNetResource@@@Z 0000000180026ec4     NetClass.obj
 0002:00008ecd       $stateUnwindMap$?Push@NetResourceList@@QEAAXAEBVNetResource@@@Z 0000000180026ecd     NetClass.obj
 0002:00008ee0       $ip2state$?Push@NetResourceList@@QEAAXAEBVNetResource@@@Z 0000000180026ee0     NetClass.obj
 0002:00008eec       $unwind$?Enumerate@NetResourceList@@QEAA_NKKKPEAVNetResource@@@Z 0000000180026eec     NetClass.obj
 0002:00008f0c       $unwind$??0NetBrowser@@QEAA@XZ 0000000180026f0c     NetClass.obj
 0002:00008f34       $cppxdata$??0NetBrowser@@QEAA@XZ 0000000180026f34     NetClass.obj
 0002:00008f3d       $stateUnwindMap$??0NetBrowser@@QEAA@XZ 0000000180026f3d     NetClass.obj
 0002:00008f6d       $ip2state$??0NetBrowser@@QEAA@XZ 0000000180026f6d     NetClass.obj
 0002:00008f7c       $unwind$?EnumerateNetList@NetBrowser@@AEAA_NXZ 0000000180026f7c     NetClass.obj
 0002:00008f90       $unwind$?GetFindData@NetBrowser@@QEAAHPEAPEAUPluginPanelItem@@PEA_K_K@Z 0000000180026f90     NetClass.obj
 0002:00008fb8       $cppxdata$?GetFindData@NetBrowser@@QEAAHPEAPEAUPluginPanelItem@@PEA_K_K@Z 0000000180026fb8     NetClass.obj
 0002:00008fc1       $stateUnwindMap$?GetFindData@NetBrowser@@QEAAHPEAPEAUPluginPanelItem@@PEA_K_K@Z 0000000180026fc1     NetClass.obj
 0002:00008fda       $ip2state$?GetFindData@NetBrowser@@QEAAHPEAPEAUPluginPanelItem@@PEA_K_K@Z 0000000180026fda     NetClass.obj
 0002:00008ff4       $unwind$?ProcessEvent@NetBrowser@@QEAAH_JPEAX@Z 0000000180026ff4     NetClass.obj
 0002:00009018       $cppxdata$?ProcessEvent@NetBrowser@@QEAAH_JPEAX@Z 0000000180027018     NetClass.obj
 0002:00009021       $stateUnwindMap$?ProcessEvent@NetBrowser@@QEAAH_JPEAX@Z 0000000180027021     NetClass.obj
 0002:0000902d       $ip2state$?ProcessEvent@NetBrowser@@QEAAH_JPEAX@Z 000000018002702d     NetClass.obj
 0002:00009038       $unwind$?CancelConnection@NetBrowser@@AEAA_NPEB_W@Z 0000000180027038     NetClass.obj
 0002:00009050       $chain$0$?CancelConnection@NetBrowser@@AEAA_NPEB_W@Z 0000000180027050     NetClass.obj
 0002:00009064       $chain$1$?CancelConnection@NetBrowser@@AEAA_NPEB_W@Z 0000000180027064     NetClass.obj
 0002:00009074       $unwind$?GetDriveToDisconnect@NetBrowser@@AEAA_NPEB_WPEA_W@Z 0000000180027074     NetClass.obj
 0002:00009094       $unwind$?ConfirmCancelConnection@NetBrowser@@CA_NPEA_W0AEAH@Z 0000000180027094     NetClass.obj
 0002:000090b8       $cppxdata$?ConfirmCancelConnection@NetBrowser@@CA_NPEA_W0AEAH@Z 00000001800270b8     NetClass.obj
 0002:000090c1       $stateUnwindMap$?ConfirmCancelConnection@NetBrowser@@CA_NPEA_W0AEAH@Z 00000001800270c1     NetClass.obj
 0002:000090da       $ip2state$?ConfirmCancelConnection@NetBrowser@@CA_NPEA_W0AEAH@Z 00000001800270da     NetClass.obj
 0002:000090ec       $unwind$?GetOpenPanelInfo@NetBrowser@@QEAAXPEAUOpenPanelInfo@@@Z 00000001800270ec     NetClass.obj
 0002:000090ec       $unwind$??R<lambda_22ebabd17bc4fa466a2aca6d8deb888d>@@QEBAHXZ 00000001800270ec     libucrt:onexit.obj
 0002:00009104       $chain$0$?GetOpenPanelInfo@NetBrowser@@QEAAXPEAUOpenPanelInfo@@@Z 0000000180027104     NetClass.obj
 0002:00009118       $chain$1$?GetOpenPanelInfo@NetBrowser@@QEAAXPEAUOpenPanelInfo@@@Z 0000000180027118     NetClass.obj
 0002:00009128       $unwind$?SetDirectory@NetBrowser@@QEAAHPEB_W_K@Z 0000000180027128     NetClass.obj
 0002:00009150       $cppxdata$?SetDirectory@NetBrowser@@QEAAHPEB_W_K@Z 0000000180027150     NetClass.obj
 0002:00009159       $stateUnwindMap$?SetDirectory@NetBrowser@@QEAAHPEB_W_K@Z 0000000180027159     NetClass.obj
 0002:0000916b       $ip2state$?SetDirectory@NetBrowser@@QEAAHPEB_W_K@Z 000000018002716b     NetClass.obj
 0002:0000917c       $unwind$?ChangeToDirectory@NetBrowser@@AEAA_NPEB_W_K_N@Z 000000018002717c     NetClass.obj
 0002:000091a4       $cppxdata$?ChangeToDirectory@NetBrowser@@AEAA_NPEB_W_K_N@Z 00000001800271a4     NetClass.obj
 0002:000091ad       $stateUnwindMap$?ChangeToDirectory@NetBrowser@@AEAA_NPEB_W_K_N@Z 00000001800271ad     NetClass.obj
 0002:000091c6       $ip2state$?ChangeToDirectory@NetBrowser@@AEAA_NPEB_W_K_N@Z 00000001800271c6     NetClass.obj
 0002:000091e4       $chain$2$?IsMSNetResource@NetBrowser@@SA_NAEBVNetResource@@@Z 00000001800271e4     NetClass.obj
 0002:00009200       $chain$4$?IsMSNetResource@NetBrowser@@SA_NAEBVNetResource@@@Z 0000000180027200     NetClass.obj
 0002:0000921c       $unwind$?IsResourceReadable@NetBrowser@@SA_NAEBVNetResource@@@Z 000000018002721c     NetClass.obj
 0002:00009224       $unwind$?GetResourceInfo@NetBrowser@@SA_NPEA_WAEAVNetResource@@@Z 0000000180027224     NetClass.obj
 0002:0000923c       $chain$0$?GetResourceInfo@NetBrowser@@SA_NPEA_WAEAVNetResource@@@Z 000000018002723c     NetClass.obj
 0002:00009250       $chain$1$?GetResourceInfo@NetBrowser@@SA_NPEA_WAEAVNetResource@@@Z 0000000180027250     NetClass.obj
 0002:00009260       $unwind$?GetResourceParent@NetBrowser@@SA_NAEBVNetResource@@PEAV2@@Z 0000000180027260     NetClass.obj
 0002:00009288       $cppxdata$?GetResourceParent@NetBrowser@@SA_NAEBVNetResource@@PEAV2@@Z 0000000180027288     NetClass.obj
 0002:00009291       $stateUnwindMap$?GetResourceParent@NetBrowser@@SA_NAEBVNetResource@@PEAV2@@Z 0000000180027291     NetClass.obj
 0002:0000929e       $ip2state$?GetResourceParent@NetBrowser@@SA_NAEBVNetResource@@PEAV2@@Z 000000018002729e     NetClass.obj
 0002:000092ac       $unwind$?EditFavorites@NetBrowser@@QEAA_NXZ 00000001800272ac     NetClass.obj
 0002:000092d4       $cppxdata$?EditFavorites@NetBrowser@@QEAA_NXZ 00000001800272d4     NetClass.obj
 0002:000092dd       $stateUnwindMap$?EditFavorites@NetBrowser@@QEAA_NXZ 00000001800272dd     NetClass.obj
 0002:00009300       $ip2state$?EditFavorites@NetBrowser@@QEAA_NXZ 0000000180027300     NetClass.obj
 0002:00009318       $unwind$?ProcessKey@NetBrowser@@QEAAHPEBU_INPUT_RECORD@@@Z 0000000180027318     NetClass.obj
 0002:00009340       $cppxdata$?ProcessKey@NetBrowser@@QEAAHPEBU_INPUT_RECORD@@@Z 0000000180027340     NetClass.obj
 0002:00009349       $stateUnwindMap$?ProcessKey@NetBrowser@@QEAAHPEBU_INPUT_RECORD@@@Z 0000000180027349     NetClass.obj
 0002:00009350       $ip2state$?ProcessKey@NetBrowser@@QEAAHPEBU_INPUT_RECORD@@@Z 0000000180027350     NetClass.obj
 0002:0000935c       $unwind$?MapNetworkDrive@NetBrowser@@CA_NPEB_W_N1@Z 000000018002735c     NetClass.obj
 0002:00009384       $cppxdata$?MapNetworkDrive@NetBrowser@@CA_NPEB_W_N1@Z 0000000180027384     NetClass.obj
 0002:0000938d       $stateUnwindMap$?MapNetworkDrive@NetBrowser@@CA_NPEB_W_N1@Z 000000018002738d     NetClass.obj
 0002:000093a6       $ip2state$?MapNetworkDrive@NetBrowser@@CA_NPEB_W_N1@Z 00000001800273a6     NetClass.obj
 0002:000093c4       $unwind$?AskMapDrive@NetBrowser@@CA_NPEA_WAEA_N@Z 00000001800273c4     NetClass.obj
 0002:000093e8       $unwind$?AddConnection@NetBrowser@@SA_NAEBVNetResource@@_N@Z 00000001800273e8     NetClass.obj
 0002:000093f0       $unwind$?AddConnectionExplicit@NetBrowser@@SA_NPEBVNetResource@@_N@Z 00000001800273f0     NetClass.obj
 0002:0000940c       $unwind$?AddConnectionWithLogon@NetBrowser@@SA_NPEBVNetResource@@PEA_WPEB_W_N@Z 000000018002740c     NetClass.obj
 0002:0000942c       $unwind$?AddConnectionFromFavorites@NetBrowser@@SA_NPEBVNetResource@@_N@Z 000000018002742c     NetClass.obj
 0002:00009444       $unwind$?DisconnectFromServer@NetBrowser@@CAXPEBVNetResource@@@Z 0000000180027444     NetClass.obj
 0002:00009454       $chain$4$?DisconnectFromServer@NetBrowser@@CAXPEBVNetResource@@@Z 0000000180027454     NetClass.obj
 0002:00009478       $chain$5$?DisconnectFromServer@NetBrowser@@CAXPEBVNetResource@@@Z 0000000180027478     NetClass.obj
 0002:0000948c       $chain$6$?DisconnectFromServer@NetBrowser@@CAXPEBVNetResource@@@Z 000000018002748c     NetClass.obj
 0002:0000949c       $chain$7$?DisconnectFromServer@NetBrowser@@CAXPEBVNetResource@@@Z 000000018002749c     NetClass.obj
 0002:000094ac       $unwind$?GetLocalName@NetBrowser@@AEAA?AV?$basic_string@_WU?$char_traits@_W@std@@V?$allocator@_W@2@@std@@PEBV23@@Z 00000001800274ac     NetClass.obj
 0002:000094c8       $cppxdata$?GetLocalName@NetBrowser@@AEAA?AV?$basic_string@_WU?$char_traits@_W@std@@V?$allocator@_W@2@@std@@PEBV23@@Z 00000001800274c8     NetClass.obj
 0002:000094d1       $stateUnwindMap$?GetLocalName@NetBrowser@@AEAA?AV?$basic_string@_WU?$char_traits@_W@std@@V?$allocator@_W@2@@std@@PEBV23@@Z 00000001800274d1     NetClass.obj
 0002:000094dc       $ip2state$?GetLocalName@NetBrowser@@AEAA?AV?$basic_string@_WU?$char_traits@_W@std@@V?$allocator@_W@2@@std@@PEBV23@@Z 00000001800274dc     NetClass.obj
 0002:000094e0       $unwind$?dtor$0@?0??GetLocalName@NetBrowser@@AEAA?AV?$basic_string@_WU?$char_traits@_W@std@@V?$allocator@_W@2@@std@@PEBV23@@Z@4HA 00000001800274e0     NetClass.obj
 0002:000094e0       $unwind$?dtor$0@?0??GetRemoteName@NetBrowser@@CA?AV?$basic_string@_WU?$char_traits@_W@std@@V?$allocator@_W@2@@std@@PEAVNetResource@@@Z@4HA 00000001800274e0     NetClass.obj
 0002:000094e0       $unwind$?dtor$0@?0??SplitPath@@YA?AV?$vector@V?$basic_string@_WU?$char_traits@_W@std@@V?$allocator@_W@2@@std@@V?$allocator@V?$basic_string@_WU?$char_traits@_W@std@@V?$allocator@_W@2@@std@@@2@@std@@PEB_W@Z@4HA 00000001800274e0     NetFavorites.obj
 0002:000094e0       $unwind$?fin$0@?0??dllmain_crt_process_attach@@YAHQEAUHINSTANCE__@@QEAX@Z@4HA 00000001800274e0     LIBCMT:dll_dllmain.obj
 0002:000094e0       $unwind$?fin$0@?0??dllmain_crt_process_detach@@YAH_N@Z@4HA 00000001800274e0     LIBCMT:dll_dllmain.obj
 0002:000094e0       $unwind$?fin$1@?0??dllmain_crt_process_detach@@YAH_N@Z@4HA 00000001800274e0     LIBCMT:dll_dllmain.obj
 0002:000094e0       $unwind$_IsNonwritableInCurrentImage$filt$0 00000001800274e0     LIBCMT:pesect.obj
 0002:000094e0       $unwind$?filt$0@?0??CxxCallCatchBlock@__FrameHandler4@@SAPEAXPEAU_EXCEPTION_RECORD@@@Z@4HA 00000001800274e0     libvcruntime:frame.obj
 0002:000094e0       $unwind$_query_new_handler$fin$0 00000001800274e0     libucrt:new_handler.obj
 0002:000094e0       $unwind$?fin$0@?0???$?RV<lambda_0ae27a3a962d80f24befdcbee591983d>@@AEAV<lambda_8d0ee55de4b1038c4002e0adecdf1839>@@V<lambda_dc504788e8f1664fe9b84e20bfb512f2>@@@?$__crt_seh_guarded_call@X@@QEAAX$$QEAV<lambda_0ae27a3a962d80f24befdcbee591983d>@@AEAV<lambda_8d0ee55de4b1038c4002e0adecdf1839>@@$$QEAV<lambda_dc504788e8f1664fe9b84e20bfb512f2>@@@Z@4HA 00000001800274e0     libucrt:per_thread_data.obj
 0002:000094e0       $unwind$?fin$0@?0???$?RV<lambda_2d41944a1d46af3157314b8a01080d33>@@AEAV<lambda_8f455de75cd7d7f24b4096f044d8b9e6>@@V<lambda_aa500f224e6afead328df44964fe2772>@@@?$__crt_seh_guarded_call@X@@QEAAX$$QEAV<lambda_2d41944a1d46af3157314b8a01080d33>@@AEAV<lambda_8f455de75cd7d7f24b4096f044d8b9e6>@@$$QEAV<lambda_aa500f224e6afead328df44964fe2772>@@@Z@4HA 00000001800274e0     libucrt:per_thread_data.obj
 0002:000094e0       $unwind$?fin$0@?0???$?RV<lambda_aa87e3671a710a21b5dc78c0bdf72e11>@@AEAV<lambda_92619d2358a28f41a33ba319515a20b9>@@V<lambda_6992ecaafeb10aed2b74cb1fae11a551>@@@?$__crt_seh_guarded_call@X@@QEAAX$$QEAV<lambda_aa87e3671a710a21b5dc78c0bdf72e11>@@AEAV<lambda_92619d2358a28f41a33ba319515a20b9>@@$$QEAV<lambda_6992ecaafeb10aed2b74cb1fae11a551>@@@Z@4HA 00000001800274e0     libucrt:per_thread_data.obj
 0002:000094e0       $unwind$?fin$0@?0???$?RV<lambda_f2e299630e499de9f9a165e60fcd3db5>@@AEAV<lambda_2ae9d31cdba2644fcbeaf08da7c24588>@@V<lambda_40d01ff24d0e7b3814fdbdcee8eab3c7>@@@?$__crt_seh_guarded_call@X@@QEAAX$$QEAV<lambda_f2e299630e499de9f9a165e60fcd3db5>@@AEAV<lambda_2ae9d31cdba2644fcbeaf08da7c24588>@@$$QEAV<lambda_40d01ff24d0e7b3814fdbdcee8eab3c7>@@@Z@4HA 00000001800274e0     libucrt:per_thread_data.obj
 0002:000094e0       $unwind$__acrt_update_thread_locale_data$fin$0 00000001800274e0     libucrt:locale_refcounting.obj
 0002:000094e0       $unwind$?fin$0@?0???$?RV<lambda_410d79af7f07d98d83a3f525b3859a53>@@AEAV<lambda_3e16ef9562a7dcce91392c22ab16ea36>@@V<lambda_38119f0e861e05405d8a144b9b982f0a>@@@?$__crt_seh_guarded_call@X@@QEAAX$$QEAV<lambda_410d79af7f07d98d83a3f525b3859a53>@@AEAV<lambda_3e16ef9562a7dcce91392c22ab16ea36>@@$$QEAV<lambda_38119f0e861e05405d8a144b9b982f0a>@@@Z@4HA 00000001800274e0     libucrt:wsetlocale.obj
 0002:000094e0       $unwind$?fin$0@?0???$?RV<lambda_751a882b2c74d4b022dec766aa51a29a>@@AEAV<lambda_628dfdc04ba53c8bfc02c9951375f3f5>@@V<lambda_f6c7be5f7998530c34de24c7437d6b54>@@@?$__crt_seh_guarded_call@H@@QEAAH$$QEAV<lambda_751a882b2c74d4b022dec766aa51a29a>@@AEAV<lambda_628dfdc04ba53c8bfc02c9951375f3f5>@@$$QEAV<lambda_f6c7be5f7998530c34de24c7437d6b54>@@@Z@4HA 00000001800274e0     libucrt:close.obj
 0002:000094e0       $unwind$?fin$0@?0???$?RV<lambda_a37b2b86f63e897a80ea819b0eb08c01>@@AEAV<lambda_38ce7e780aa69e748d6df282ebc68efe>@@V<lambda_99fb1378e971ab6e7edea83e3a7a83a2>@@@?$__crt_seh_guarded_call@H@@QEAAH$$QEAV<lambda_a37b2b86f63e897a80ea819b0eb08c01>@@AEAV<lambda_38ce7e780aa69e748d6df282ebc68efe>@@$$QEAV<lambda_99fb1378e971ab6e7edea83e3a7a83a2>@@@Z@4HA 00000001800274e0     libucrt:commit.obj
 0002:000094e0       $unwind$__acrt_initialize_lowio$fin$0 00000001800274e0     libucrt:ioinit.obj
 0002:000094e0       $unwind$__acrt_lowio_ensure_fh_exists$fin$0 00000001800274e0     libucrt:osfinfo.obj
 0002:000094e0       $unwind$_write$fin$0       00000001800274e0     libucrt:write.obj
 0002:000094e0       $unwind$?fin$0@?0???$?RV<lambda_efdfa57d1f175319df784efa44bb7b81>@@AEAV<lambda_5f0a4c1567f8adc6734073e5d1e1b35c>@@V<lambda_2e8a7d3640ea6ccb4c2413664c2db6fd>@@@?$__crt_seh_guarded_call@X@@QEAAX$$QEAV<lambda_efdfa57d1f175319df784efa44bb7b81>@@AEAV<lambda_5f0a4c1567f8adc6734073e5d1e1b35c>@@$$QEAV<lambda_2e8a7d3640ea6ccb4c2413664c2db6fd>@@@Z@4HA 00000001800274e0     libucrt:mbctype.obj
 0002:000094e0       $unwind$?fin$0@?0??update_thread_multibyte_data_internal@@YAPEAU__crt_multibyte_data@@QEAU__acrt_ptd@@QEAPEAU1@@Z@4HA 00000001800274e0     libucrt:mbctype.obj
 0002:000094e0       $unwind$?fin$0@?0???$?RV<lambda_450d765d439847d4c735a33c368b5fc0>@@AEAV<lambda_44731a7d0e6d81c3e6aa82d741081786>@@V<lambda_601a2a7da3b7a96e9554ac7215c4b07c>@@@?$__crt_seh_guarded_call@P6AXH@Z@@QEAAP6AXH@Z$$QEAV<lambda_450d765d439847d4c735a33c368b5fc0>@@AEAV<lambda_44731a7d0e6d81c3e6aa82d741081786>@@$$QEAV<lambda_601a2a7da3b7a96e9554ac7215c4b07c>@@@Z@4HA 00000001800274e0     libucrt:signal.obj
 0002:000094e0       $unwind$raise$fin$0        00000001800274e0     libucrt:signal.obj
 0002:000094e0       $unwind$?filt$0@?0???R<lambda_6e4b09c48022b2350581041d5f6b0c4c>@@QEBA@XZ@4HA 00000001800274e0     libucrt:exit.obj
 0002:000094e0       $unwind$?fin$0@?0???$?RV<lambda_d80eeec6fff315bfe5c115232f3240e3>@@AEAV<lambda_6e4b09c48022b2350581041d5f6b0c4c>@@V<lambda_2358e3775559c9db80273638284d5e45>@@@?$__crt_seh_guarded_call@X@@QEAAX$$QEAV<lambda_d80eeec6fff315bfe5c115232f3240e3>@@AEAV<lambda_6e4b09c48022b2350581041d5f6b0c4c>@@$$QEAV<lambda_2358e3775559c9db80273638284d5e45>@@@Z@4HA 00000001800274e0     libucrt:exit.obj
 0002:000094e0       $unwind$?fin$0@?0???$?RV<lambda_638799b9deba96c50f710eeac98168cd>@@AEAV<lambda_22ebabd17bc4fa466a2aca6d8deb888d>@@V<lambda_a6f7d7db0129f75315ebf26d50c089f1>@@@?$__crt_seh_guarded_call@H@@QEAAH$$QEAV<lambda_638799b9deba96c50f710eeac98168cd>@@AEAV<lambda_22ebabd17bc4fa466a2aca6d8deb888d>@@$$QEAV<lambda_a6f7d7db0129f75315ebf26d50c089f1>@@@Z@4HA 00000001800274e0     libucrt:onexit.obj
 0002:000094e0       $unwind$?fin$0@?0???$?RV<lambda_7777bce6b2f8c936911f934f8298dc43>@@AEAV<lambda_f03950bc5685219e0bcd2087efbe011e>@@V<lambda_3883c3dff614d5e0c5f61bb1ac94921c>@@@?$__crt_seh_guarded_call@H@@QEAAH$$QEAV<lambda_7777bce6b2f8c936911f934f8298dc43>@@AEAV<lambda_f03950bc5685219e0bcd2087efbe011e>@@$$QEAV<lambda_3883c3dff614d5e0c5f61bb1ac94921c>@@@Z@4HA 00000001800274e0     libucrt:onexit.obj
 0002:000094e0       $unwind$_fcloseall$fin$0   00000001800274e0     libucrt:closeall.obj
 0002:000094e0       $unwind$fclose$fin$0       00000001800274e0     libucrt:fclose.obj
 0002:000094e0       $unwind$?fin$0@?0???$?RV<lambda_842d9ff0dc9ef11c61343bbaebe7f885>@@AEAV<lambda_c5860995281e5c4ce005b3de8f5874ee>@@V<lambda_d90129c13df834fdcbf8d2b88dafcf2d>@@@?$__crt_seh_guarded_call@X@@QEAAX$$QEAV<lambda_842d9ff0dc9ef11c61343bbaebe7f885>@@AEAV<lambda_c5860995281e5c4ce005b3de8f5874ee>@@$$QEAV<lambda_d90129c13df834fdcbf8d2b88dafcf2d>@@@Z@4HA 00000001800274e0     libucrt:fflush.obj
 0002:000094e0       $unwind$?fin$0@?0???$?RV<lambda_886d6c58226a84441f68b9f2b8217b83>@@AEAV<lambda_ab61a845afdef5b7c387490eaf3616ee>@@V<lambda_f7f22ab5edc0698d5f6905b0d3f44752>@@@?$__crt_seh_guarded_call@X@@QEAAX$$QEAV<lambda_886d6c58226a84441f68b9f2b8217b83>@@AEAV<lambda_ab61a845afdef5b7c387490eaf3616ee>@@$$QEAV<lambda_f7f22ab5edc0698d5f6905b0d3f44752>@@@Z@4HA 00000001800274e0     libucrt:fflush.obj
 0002:000094e0       $unwind$_ctrlfp$filt$0     00000001800274e0     libucrt:fpctrl.obj
 0002:000094e8       $unwind$?GetNameAndPassword@NetBrowser@@CA_NPEAUNameAndPassInfo@@@Z 00000001800274e8     NetClass.obj
 0002:00009514       $cppxdata$?GetNameAndPassword@NetBrowser@@CA_NPEAUNameAndPassInfo@@@Z 0000000180027514     NetClass.obj
 0002:0000951d       $stateUnwindMap$?GetNameAndPassword@NetBrowser@@CA_NPEAUNameAndPassInfo@@@Z 000000018002751d     NetClass.obj
 0002:0000952a       $ip2state$?GetNameAndPassword@NetBrowser@@CA_NPEAUNameAndPassInfo@@@Z 000000018002752a     NetClass.obj
 0002:00009538       $unwind$?FileNames2Clipboard@NetBrowser@@AEAAX_N@Z 0000000180027538     NetClass.obj
 0002:00009558       $chain$1$?FileNames2Clipboard@NetBrowser@@AEAAX_N@Z 0000000180027558     NetClass.obj
 0002:00009570       $chain$2$?FileNames2Clipboard@NetBrowser@@AEAAX_N@Z 0000000180027570     NetClass.obj
 0002:00009580       $chain$3$?FileNames2Clipboard@NetBrowser@@AEAAX_N@Z 0000000180027580     NetClass.obj
 0002:00009598       $unwind$?GetRemoteName@NetBrowser@@CA?AV?$basic_string@_WU?$char_traits@_W@std@@V?$allocator@_W@2@@std@@PEAVNetResource@@@Z 0000000180027598     NetClass.obj
 0002:000095b0       $cppxdata$?GetRemoteName@NetBrowser@@CA?AV?$basic_string@_WU?$char_traits@_W@std@@V?$allocator@_W@2@@std@@PEAVNetResource@@@Z 00000001800275b0     NetClass.obj
 0002:000095b9       $stateUnwindMap$?GetRemoteName@NetBrowser@@CA?AV?$basic_string@_WU?$char_traits@_W@std@@V?$allocator@_W@2@@std@@PEAVNetResource@@@Z 00000001800275b9     NetClass.obj
 0002:000095c4       $ip2state$?GetRemoteName@NetBrowser@@CA?AV?$basic_string@_WU?$char_traits@_W@std@@V?$allocator@_W@2@@std@@PEAVNetResource@@@Z 00000001800275c4     NetClass.obj
 0002:000095c8       $unwind$?IsReadable@NetBrowser@@CA_NAEBV?$basic_string@_WU?$char_traits@_W@std@@V?$allocator@_W@2@@std@@@Z 00000001800275c8     NetClass.obj
 0002:000095f4       $cppxdata$?IsReadable@NetBrowser@@CA_NAEBV?$basic_string@_WU?$char_traits@_W@std@@V?$allocator@_W@2@@std@@@Z 00000001800275f4     NetClass.obj
 0002:000095fd       $stateUnwindMap$?IsReadable@NetBrowser@@CA_NAEBV?$basic_string@_WU?$char_traits@_W@std@@V?$allocator@_W@2@@std@@@Z 00000001800275fd     NetClass.obj
 0002:0000962a       $ip2state$?IsReadable@NetBrowser@@CA_NAEBV?$basic_string@_WU?$char_traits@_W@std@@V?$allocator@_W@2@@std@@@Z 000000018002762a     NetClass.obj
 0002:00009644       $unwind$?SetOpenFromCommandLine@NetBrowser@@QEAA_NPEA_W@Z 0000000180027644     NetClass.obj
 0002:0000966c       $cppxdata$?SetOpenFromCommandLine@NetBrowser@@QEAA_NPEA_W@Z 000000018002766c     NetClass.obj
 0002:00009675       $stateUnwindMap$?SetOpenFromCommandLine@NetBrowser@@QEAA_NPEA_W@Z 0000000180027675     NetClass.obj
 0002:00009675       $stateUnwindMap$?SetOpenFromFilePanel@NetBrowser@@QEAA_NPEA_W@Z 0000000180027675     NetClass.obj
 0002:00009681       $ip2state$?SetOpenFromCommandLine@NetBrowser@@QEAA_NPEA_W@Z 0000000180027681     NetClass.obj
 0002:0000968c       $unwind$?SetOpenFromFilePanel@NetBrowser@@QEAA_NPEA_W@Z 000000018002768c     NetClass.obj
 0002:000096b4       $cppxdata$?SetOpenFromFilePanel@NetBrowser@@QEAA_NPEA_W@Z 00000001800276b4     NetClass.obj
 0002:000096bd       $ip2state$?SetOpenFromFilePanel@NetBrowser@@QEAA_NPEA_W@Z 00000001800276bd     NetClass.obj
 0002:000096c4       $unwind$?GotoComputer@NetBrowser@@AEAA_NPEB_W@Z 00000001800276c4     NetClass.obj
 0002:000096ec       $cppxdata$?GotoComputer@NetBrowser@@AEAA_NPEB_W@Z 00000001800276ec     NetClass.obj
 0002:000096f5       $stateUnwindMap$?GotoComputer@NetBrowser@@AEAA_NPEB_W@Z 00000001800276f5     NetClass.obj
 0002:00009702       $ip2state$?GotoComputer@NetBrowser@@AEAA_NPEB_W@Z 0000000180027702     NetClass.obj
 0002:0000970c       $unwind$?GotoLocalNetwork@NetBrowser@@QEAAXXZ 000000018002770c     NetClass.obj
 0002:00009734       $cppxdata$?GotoLocalNetwork@NetBrowser@@QEAAXXZ 0000000180027734     NetClass.obj
 0002:0000973d       $stateUnwindMap$?GotoLocalNetwork@NetBrowser@@QEAAXXZ 000000018002773d     NetClass.obj
 0002:00009765       $ip2state$?GotoLocalNetwork@NetBrowser@@QEAAXXZ 0000000180027765     NetClass.obj
 0002:00009778       $unwind$?RemoveItems@NetBrowser@@AEAAXXZ 0000000180027778     NetClass.obj
 0002:0000978c       $chain$2$?RemoveItems@NetBrowser@@AEAAXXZ 000000018002778c     NetClass.obj
 0002:000097a8       $chain$3$?RemoveItems@NetBrowser@@AEAAXXZ 00000001800277a8     NetClass.obj
 0002:000097b8       $unwind$?GetHiddenShares@NetBrowser@@AEAAXXZ 00000001800277b8     NetClass.obj
 0002:000097e4       $cppxdata$?GetHiddenShares@NetBrowser@@AEAAXXZ 00000001800277e4     NetClass.obj
 0002:000097ed       $stateUnwindMap$?GetHiddenShares@NetBrowser@@AEAAXXZ 00000001800277ed     NetClass.obj
 0002:00009830       $ip2state$?GetHiddenShares@NetBrowser@@AEAAXXZ 0000000180027830     NetClass.obj
 0002:00009844       $unwind$??4?$basic_string@_WU?$char_traits@_W@std@@V?$allocator@_W@2@@std@@QEAAAEAV01@$$QEAV01@@Z 0000000180027844     NetClass.obj
 0002:00009858       $cppxdata$??4?$basic_string@_WU?$char_traits@_W@std@@V?$allocator@_W@2@@std@@QEAAAEAV01@$$QEAV01@@Z 0000000180027858     NetClass.obj
 0002:00009861       $stateUnwindMap$??4?$basic_string@_WU?$char_traits@_W@std@@V?$allocator@_W@2@@std@@QEAAAEAV01@$$QEAV01@@Z 0000000180027861     NetClass.obj
 0002:00009868       $ip2state$??0NetResource@@QEAA@$$QEAV0@@Z 0000000180027868     NetClass.obj
 0002:00009868       $ip2state$??4?$basic_string@_WU?$char_traits@_W@std@@V?$allocator@_W@2@@std@@QEAAAEAV01@$$QEAV01@@Z 0000000180027868     NetClass.obj
 0002:00009868       $ip2state$??__ECommonCurResource@@YAXXZ 0000000180027868     NetCommon.obj
 0002:00009868       $ip2state$?_Umove@?$vector@V?$basic_string@_WU?$char_traits@_W@std@@V?$allocator@_W@2@@std@@V?$allocator@V?$basic_string@_WU?$char_traits@_W@std@@V?$allocator@_W@2@@std@@@2@@std@@AEAAPEAV?$basic_string@_WU?$char_traits@_W@std@@V?$allocator@_W@2@@2@PEAV32@00@Z 0000000180027868     NetFavorites.obj
 0002:00009868       $ip2state$?_Umove_if_noexcept@?$vector@V?$basic_string@_WU?$char_traits@_W@std@@V?$allocator@_W@2@@std@@V?$allocator@V?$basic_string@_WU?$char_traits@_W@std@@V?$allocator@_W@2@@std@@@2@@std@@AEAAXPEAV?$basic_string@_WU?$char_traits@_W@std@@V?$allocator@_W@2@@2@00@Z 0000000180027868     NetFavorites.obj
 0002:0000986c       $unwind$?assign@?$basic_string@_WU?$char_traits@_W@std@@V?$allocator@_W@2@@std@@QEAAAEAV12@QEB_W_K@Z 000000018002786c     NetClass.obj
 0002:00009888       $unwind$??$_Emplace_reallocate@AEBVNetResource@@@?$vector@VNetResource@@V?$allocator@VNetResource@@@std@@@std@@QEAAPEAVNetResource@@QEAV2@AEBV2@@Z 0000000180027888     NetClass.obj
 0002:000098a4       $cppxdata$??$_Emplace_reallocate@AEBVNetResource@@@?$vector@VNetResource@@V?$allocator@VNetResource@@@std@@@std@@QEAAPEAVNetResource@@QEAV2@AEBV2@@Z 00000001800278a4     NetClass.obj
 0002:000098b1       $stateUnwindMap$??$_Emplace_reallocate@AEBVNetResource@@@?$vector@VNetResource@@V?$allocator@VNetResource@@@std@@@std@@QEAAPEAVNetResource@@QEAV2@AEBV2@@Z 00000001800278b1     NetClass.obj
 0002:000098c6       $tryMap$??$_Emplace_reallocate@AEBVNetResource@@@?$vector@VNetResource@@V?$allocator@VNetResource@@@std@@@std@@QEAAPEAVNetResource@@QEAV2@AEBV2@@Z 00000001800278c6     NetClass.obj
 0002:000098ce       $handlerMap$??$_Emplace_reallocate@AEBVNetResource@@@?$vector@VNetResource@@V?$allocator@VNetResource@@@std@@@std@@QEAAPEAVNetResource@@QEAV2@AEBV2@@Z 00000001800278ce     NetClass.obj
 0002:000098d5       $ip2state$??$_Emplace_reallocate@AEBVNetResource@@@?$vector@VNetResource@@V?$allocator@VNetResource@@@std@@@std@@QEAAPEAVNetResource@@QEAV2@AEBV2@@Z 00000001800278d5     NetClass.obj
 0002:000098e8       $unwind$?catch$0@?0???$_Emplace_reallocate@AEAU_NETRESOURCEW@@@?$vector@VNetResource@@V?$allocator@VNetResource@@@std@@@std@@QEAAPEAVNetResource@@QEAV2@AEAU_NETRESOURCEW@@@Z@4HA 00000001800278e8     NetClass.obj
 0002:000098e8       $unwind$?catch$8@?0???$_Emplace_reallocate@AEBVNetResource@@@?$vector@VNetResource@@V?$allocator@VNetResource@@@std@@@std@@QEAAPEAVNetResource@@QEAV2@AEBV2@@Z@4HA 00000001800278e8     NetClass.obj
 0002:000098e8       $unwind$?catch$0@?0???$_Emplace_reallocate@AEBV?$basic_string@_WU?$char_traits@_W@std@@V?$allocator@_W@2@@std@@@?$vector@V?$basic_string@_WU?$char_traits@_W@std@@V?$allocator@_W@2@@std@@V?$allocator@V?$basic_string@_WU?$char_traits@_W@std@@V?$allocator@_W@2@@std@@@2@@std@@QEAAPEAV?$basic_string@_WU?$char_traits@_W@std@@V?$allocator@_W@2@@1@QEAV21@AEBV21@@Z@4HA 00000001800278e8     NetFavorites.obj
 0002:000098e8       $unwind$?catch$6@?0???$_Emplace_reallocate@AEAY09$$CB_W@?$vector@V?$basic_string@_WU?$char_traits@_W@std@@V?$allocator@_W@2@@std@@V?$allocator@V?$basic_string@_WU?$char_traits@_W@std@@V?$allocator@_W@2@@std@@@2@@std@@QEAAPEAV?$basic_string@_WU?$char_traits@_W@std@@V?$allocator@_W@2@@1@QEAV21@AEAY09$$CB_W@Z@4HA 00000001800278e8     NetFavorites.obj
 0002:000098f0       $unwind$??$_Emplace_reallocate@AEAU_NETRESOURCEW@@@?$vector@VNetResource@@V?$allocator@VNetResource@@@std@@@std@@QEAAPEAVNetResource@@QEAV2@AEAU_NETRESOURCEW@@@Z 00000001800278f0     NetClass.obj
 0002:0000990c       $cppxdata$??$_Emplace_reallocate@AEAU_NETRESOURCEW@@@?$vector@VNetResource@@V?$allocator@VNetResource@@@std@@@std@@QEAAPEAVNetResource@@QEAV2@AEAU_NETRESOURCEW@@@Z 000000018002790c     NetClass.obj
 0002:00009919       $stateUnwindMap$??$_Emplace_reallocate@AEAU_NETRESOURCEW@@@?$vector@VNetResource@@V?$allocator@VNetResource@@@std@@@std@@QEAAPEAVNetResource@@QEAV2@AEAU_NETRESOURCEW@@@Z 0000000180027919     NetClass.obj
 0002:00009919       $stateUnwindMap$??$_Emplace_reallocate@AEBV?$basic_string@_WU?$char_traits@_W@std@@V?$allocator@_W@2@@std@@@?$vector@V?$basic_string@_WU?$char_traits@_W@std@@V?$allocator@_W@2@@std@@V?$allocator@V?$basic_string@_WU?$char_traits@_W@std@@V?$allocator@_W@2@@std@@@2@@std@@QEAAPEAV?$basic_string@_WU?$char_traits@_W@std@@V?$allocator@_W@2@@1@QEAV21@AEBV21@@Z 0000000180027919     NetFavorites.obj
 0002:0000991c       $tryMap$??$_Emplace_reallocate@AEAU_NETRESOURCEW@@@?$vector@VNetResource@@V?$allocator@VNetResource@@@std@@@std@@QEAAPEAVNetResource@@QEAV2@AEAU_NETRESOURCEW@@@Z 000000018002791c     NetClass.obj
 0002:00009924       $handlerMap$??$_Emplace_reallocate@AEAU_NETRESOURCEW@@@?$vector@VNetResource@@V?$allocator@VNetResource@@@std@@@std@@QEAAPEAVNetResource@@QEAV2@AEAU_NETRESOURCEW@@@Z 0000000180027924     NetClass.obj
 0002:0000992b       $ip2state$??$_Emplace_reallocate@AEAU_NETRESOURCEW@@@?$vector@VNetResource@@V?$allocator@VNetResource@@@std@@@std@@QEAAPEAVNetResource@@QEAV2@AEAU_NETRESOURCEW@@@Z 000000018002792b     NetClass.obj
 0002:00009934       $unwind$??$_Reallocate_grow_by@V<lambda_1>@?1??append@?$basic_string@_WU?$char_traits@_W@std@@V?$allocator@_W@2@@std@@QEAAAEAV34@QEB_W_K@Z@PEB_W_K@?$basic_string@_WU?$char_traits@_W@std@@V?$allocator@_W@2@@std@@AEAAAEAV01@_KV<lambda_1>@?1??append@01@QEAAAEAV01@QEB_W0@Z@PEB_W_K@Z 0000000180027934     NetClass.obj
 0002:00009944       $chain$3$??$_Reallocate_grow_by@V<lambda_1>@?1??append@?$basic_string@_WU?$char_traits@_W@std@@V?$allocator@_W@2@@std@@QEAAAEAV34@QEB_W_K@Z@PEB_W_K@?$basic_string@_WU?$char_traits@_W@std@@V?$allocator@_W@2@@std@@AEAAAEAV01@_KV<lambda_1>@?1??append@01@QEAAAEAV01@QEB_W0@Z@PEB_W_K@Z 0000000180027944     NetClass.obj
 0002:00009964       $chain$5$??$_Reallocate_grow_by@V<lambda_1>@?1??append@?$basic_string@_WU?$char_traits@_W@std@@V?$allocator@_W@2@@std@@QEAAAEAV34@QEB_W_K@Z@PEB_W_K@?$basic_string@_WU?$char_traits@_W@std@@V?$allocator@_W@2@@std@@AEAAAEAV01@_KV<lambda_1>@?1??append@01@QEAAAEAV01@QEB_W0@Z@PEB_W_K@Z 0000000180027964     NetClass.obj
 0002:00009984       $chain$6$??$_Reallocate_grow_by@V<lambda_1>@?1??append@?$basic_string@_WU?$char_traits@_W@std@@V?$allocator@_W@2@@std@@QEAAAEAV34@QEB_W_K@Z@PEB_W_K@?$basic_string@_WU?$char_traits@_W@std@@V?$allocator@_W@2@@std@@AEAAAEAV01@_KV<lambda_1>@?1??append@01@QEAAAEAV01@QEB_W0@Z@PEB_W_K@Z 0000000180027984     NetClass.obj
 0002:00009994       $unwind$?_Change_array@?$vector@VNetResource@@V?$allocator@VNetResource@@@std@@@std@@AEAAXQEAVNetResource@@_K1@Z 0000000180027994     NetClass.obj
 0002:000099a8       $chain$0$?_Change_array@?$vector@VNetResource@@V?$allocator@VNetResource@@@std@@@std@@AEAAXQEAVNetResource@@_K1@Z 00000001800279a8     NetClass.obj
 0002:000099bc       $chain$1$?_Change_array@?$vector@VNetResource@@V?$allocator@VNetResource@@@std@@@std@@AEAAXQEAVNetResource@@_K1@Z 00000001800279bc     NetClass.obj
 0002:000099cc       $unwind$??0?$basic_string@_WU?$char_traits@_W@std@@V?$allocator@_W@2@@std@@QEAA@AEBV01@@Z 00000001800279cc     NetClass.obj
 0002:000099e0       $unwind$??$_Assign_range@PEAVNetResource@@@?$vector@VNetResource@@V?$allocator@VNetResource@@@std@@@std@@AEAAXPEAVNetResource@@0Uforward_iterator_tag@1@@Z 00000001800279e0     NetClass.obj
 0002:000099fc       $cppxdata$??$_Assign_range@PEAVNetResource@@@?$vector@VNetResource@@V?$allocator@VNetResource@@@std@@@std@@AEAAXPEAVNetResource@@0Uforward_iterator_tag@1@@Z 00000001800279fc     NetClass.obj
 0002:00009a05       $stateUnwindMap$??$_Assign_range@PEAVNetResource@@@?$vector@VNetResource@@V?$allocator@VNetResource@@@std@@@std@@AEAAXPEAVNetResource@@0Uforward_iterator_tag@1@@Z 0000000180027a05     NetClass.obj
 0002:00009a1e       $ip2state$??$_Assign_range@PEAVNetResource@@@?$vector@VNetResource@@V?$allocator@VNetResource@@@std@@@std@@AEAAXPEAVNetResource@@0Uforward_iterator_tag@1@@Z 0000000180027a1e     NetClass.obj
 0002:00009a30       $unwind$??$_Reallocate_grow_by@V<lambda_1>@?1??insert@?$basic_string@_WU?$char_traits@_W@std@@V?$allocator@_W@2@@std@@QEAAAEAV34@_KQEB_W0@Z@_KPEB_W_K@?$basic_string@_WU?$char_traits@_W@std@@V?$allocator@_W@2@@std@@AEAAAEAV01@_KV<lambda_1>@?1??insert@01@QEAAAEAV01@0QEB_W0@Z@_KPEB_W3@Z 0000000180027a30     NetClass.obj
 0002:00009a40       $chain$2$??$_Reallocate_grow_by@V<lambda_1>@?1??insert@?$basic_string@_WU?$char_traits@_W@std@@V?$allocator@_W@2@@std@@QEAAAEAV34@_KQEB_W0@Z@_KPEB_W_K@?$basic_string@_WU?$char_traits@_W@std@@V?$allocator@_W@2@@std@@AEAAAEAV01@_KV<lambda_1>@?1??insert@01@QEAAAEAV01@0QEB_W0@Z@_KPEB_W3@Z 0000000180027a40     NetClass.obj
 0002:00009a5c       $chain$4$??$_Reallocate_grow_by@V<lambda_1>@?1??insert@?$basic_string@_WU?$char_traits@_W@std@@V?$allocator@_W@2@@std@@QEAAAEAV34@_KQEB_W0@Z@_KPEB_W_K@?$basic_string@_WU?$char_traits@_W@std@@V?$allocator@_W@2@@std@@AEAAAEAV01@_KV<lambda_1>@?1??insert@01@QEAAAEAV01@0QEB_W0@Z@_KPEB_W3@Z 0000000180027a5c     NetClass.obj
 0002:00009a78       $chain$5$??$_Reallocate_grow_by@V<lambda_1>@?1??insert@?$basic_string@_WU?$char_traits@_W@std@@V?$allocator@_W@2@@std@@QEAAAEAV34@_KQEB_W0@Z@_KPEB_W_K@?$basic_string@_WU?$char_traits@_W@std@@V?$allocator@_W@2@@std@@AEAAAEAV01@_KV<lambda_1>@?1??insert@01@QEAAAEAV01@0QEB_W0@Z@_KPEB_W3@Z 0000000180027a78     NetClass.obj
 0002:00009a88       $unwind$?_Clear_and_reserve_geometric@?$vector@VNetResource@@V?$allocator@VNetResource@@@std@@@std@@AEAAX_K@Z 0000000180027a88     NetClass.obj
 0002:00009a94       $chain$3$?_Clear_and_reserve_geometric@?$vector@VNetResource@@V?$allocator@VNetResource@@@std@@@std@@AEAAX_K@Z 0000000180027a94     NetClass.obj
 0002:00009ab4       $chain$4$?_Clear_and_reserve_geometric@?$vector@VNetResource@@V?$allocator@VNetResource@@@std@@@std@@AEAAX_K@Z 0000000180027ab4     NetClass.obj
 0002:00009ac8       $chain$5$?_Clear_and_reserve_geometric@?$vector@VNetResource@@V?$allocator@VNetResource@@@std@@@std@@AEAAX_K@Z 0000000180027ac8     NetClass.obj
 0002:00009ad8       $chain$7$?_Clear_and_reserve_geometric@?$vector@VNetResource@@V?$allocator@VNetResource@@@std@@@std@@AEAAX_K@Z 0000000180027ad8     NetClass.obj
 0002:00009af8       $chain$8$?_Clear_and_reserve_geometric@?$vector@VNetResource@@V?$allocator@VNetResource@@@std@@@std@@AEAAX_K@Z 0000000180027af8     NetClass.obj
 0002:00009b08       $chain$0$??$_Copy_unchecked@PEAVNetResource@@PEAV1@@std@@YAPEAVNetResource@@PEAV1@00@Z 0000000180027b08     NetClass.obj
 0002:00009b1c       $chain$1$??$_Copy_unchecked@PEAVNetResource@@PEAV1@@std@@YAPEAVNetResource@@PEAV1@00@Z 0000000180027b1c     NetClass.obj
 0002:00009b2c       $unwind$??0NetResource@@QEAA@$$QEAV0@@Z 0000000180027b2c     NetClass.obj
 0002:00009b38       $cppxdata$??0NetResource@@QEAA@$$QEAV0@@Z 0000000180027b38     NetClass.obj
 0002:00009b41       $stateUnwindMap$??0NetResource@@QEAA@$$QEAV0@@Z 0000000180027b41     NetClass.obj
 0002:00009b4c       $unwind$??__ECommonCurResource@@YAXXZ 0000000180027b4c     NetCommon.obj
 0002:00009b58       $cppxdata$??__ECommonCurResource@@YAXXZ 0000000180027b58     NetCommon.obj
 0002:00009b61       $stateUnwindMap$??__ECommonCurResource@@YAXXZ 0000000180027b61     NetCommon.obj
 0002:00009b61       $stateUnwindMap$?GetFavoriteResource@@YA_NPEB_WPEAVNetResource@@@Z 0000000180027b61     NetFavorites.obj
 0002:00009b61       $stateUnwindMap$?GetFavoritesParent@@YA_NAEBVNetResource@@PEAV1@@Z 0000000180027b61     NetFavorites.obj
 0002:00009b68       $unwind$??0TSaveScreen@@QEAA@XZ 0000000180027b68     NetCommon.obj
 0002:00009b70       $unwind$??1TSaveScreen@@QEAA@XZ 0000000180027b70     NetCommon.obj
 0002:00009b80       $cppxdata$??1TSaveScreen@@QEAA@XZ 0000000180027b80     NetCommon.obj
 0002:00009b85       $ip2state$??1TSaveScreen@@QEAA@XZ 0000000180027b85     NetCommon.obj
 0002:00009b88       $unwind$?SplitPath@@YA?AV?$vector@V?$basic_string@_WU?$char_traits@_W@std@@V?$allocator@_W@2@@std@@V?$allocator@V?$basic_string@_WU?$char_traits@_W@std@@V?$allocator@_W@2@@std@@@2@@std@@PEB_W@Z 0000000180027b88     NetFavorites.obj
 0002:00009bb0       $cppxdata$?SplitPath@@YA?AV?$vector@V?$basic_string@_WU?$char_traits@_W@std@@V?$allocator@_W@2@@std@@V?$allocator@V?$basic_string@_WU?$char_traits@_W@std@@V?$allocator@_W@2@@std@@@2@@std@@PEB_W@Z 0000000180027bb0     NetFavorites.obj
 0002:00009bb9       $stateUnwindMap$?SplitPath@@YA?AV?$vector@V?$basic_string@_WU?$char_traits@_W@std@@V?$allocator@_W@2@@std@@V?$allocator@V?$basic_string@_WU?$char_traits@_W@std@@V?$allocator@_W@2@@std@@@2@@std@@PEB_W@Z 0000000180027bb9     NetFavorites.obj
 0002:00009be8       $ip2state$?SplitPath@@YA?AV?$vector@V?$basic_string@_WU?$char_traits@_W@std@@V?$allocator@_W@2@@std@@V?$allocator@V?$basic_string@_WU?$char_traits@_W@std@@V?$allocator@_W@2@@std@@@2@@std@@PEB_W@Z 0000000180027be8     NetFavorites.obj
 0002:00009c10       $unwind$?EnumFavorites@@YA_NPEBVNetResource@@PEAVNetResourceList@@@Z 0000000180027c10     NetFavorites.obj
 0002:00009c38       $cppxdata$?EnumFavorites@@YA_NPEBVNetResource@@PEAVNetResourceList@@@Z 0000000180027c38     NetFavorites.obj
 0002:00009c41       $stateUnwindMap$?EnumFavorites@@YA_NPEBVNetResource@@PEAVNetResourceList@@@Z 0000000180027c41     NetFavorites.obj
 0002:00009c96       $ip2state$?EnumFavorites@@YA_NPEBVNetResource@@PEAVNetResourceList@@@Z 0000000180027c96     NetFavorites.obj
 0002:00009cc0       $unwind$?InFavoriteExists@@YA_NPEB_W@Z 0000000180027cc0     NetFavorites.obj
 0002:00009ce4       $cppxdata$?InFavoriteExists@@YA_NPEB_W@Z 0000000180027ce4     NetFavorites.obj
 0002:00009ced       $stateUnwindMap$?InFavoriteExists@@YA_NPEB_W@Z 0000000180027ced     NetFavorites.obj
 0002:00009d00       $ip2state$?InFavoriteExists@@YA_NPEB_W@Z 0000000180027d00     NetFavorites.obj
 0002:00009d0c       $unwind$?WriteFavoriteItem@@YAXPEBUFAVORITEITEM@@@Z 0000000180027d0c     NetFavorites.obj
 0002:00009d38       $cppxdata$?WriteFavoriteItem@@YAXPEBUFAVORITEITEM@@@Z 0000000180027d38     NetFavorites.obj
 0002:00009d41       $stateUnwindMap$?ReadFavoriteItem@@YA_NPEAUFAVORITEITEM@@@Z 0000000180027d41     NetFavorites.obj
 0002:00009d41       $stateUnwindMap$?WriteFavoriteItem@@YAXPEBUFAVORITEITEM@@@Z 0000000180027d41     NetFavorites.obj
 0002:00009d54       $ip2state$?WriteFavoriteItem@@YAXPEBUFAVORITEITEM@@@Z 0000000180027d54     NetFavorites.obj
 0002:00009d60       $unwind$?ReadFavoriteItem@@YA_NPEAUFAVORITEITEM@@@Z 0000000180027d60     NetFavorites.obj
 0002:00009d8c       $cppxdata$?ReadFavoriteItem@@YA_NPEAUFAVORITEITEM@@@Z 0000000180027d8c     NetFavorites.obj
 0002:00009d95       $ip2state$?ReadFavoriteItem@@YA_NPEAUFAVORITEITEM@@@Z 0000000180027d95     NetFavorites.obj
 0002:00009da4       $unwind$?GetFavoritesParent@@YA_NAEBVNetResource@@PEAV1@@Z 0000000180027da4     NetFavorites.obj
 0002:00009dc8       $cppxdata$?GetFavoritesParent@@YA_NAEBVNetResource@@PEAV1@@Z 0000000180027dc8     NetFavorites.obj
 0002:00009dd1       $ip2state$?GetFavoritesParent@@YA_NAEBVNetResource@@PEAV1@@Z 0000000180027dd1     NetFavorites.obj
 0002:00009ddc       $unwind$?GetFavoriteResource@@YA_NPEB_WPEAVNetResource@@@Z 0000000180027ddc     NetFavorites.obj
 0002:00009dfc       $cppxdata$?GetFavoriteResource@@YA_NPEB_WPEAVNetResource@@@Z 0000000180027dfc     NetFavorites.obj
 0002:00009e05       $ip2state$?GetFavoriteResource@@YA_NPEB_WPEAVNetResource@@@Z 0000000180027e05     NetFavorites.obj
 0002:00009e10       $unwind$?RemoveFromFavorites@@YA_NPEB_W@Z 0000000180027e10     NetFavorites.obj
 0002:00009e34       $cppxdata$?RemoveFromFavorites@@YA_NPEB_W@Z 0000000180027e34     NetFavorites.obj
 0002:00009e3d       $stateUnwindMap$?RemoveFromFavorites@@YA_NPEB_W@Z 0000000180027e3d     NetFavorites.obj
 0002:00009e50       $ip2state$?RemoveFromFavorites@@YA_NPEB_W@Z 0000000180027e50     NetFavorites.obj
 0002:00009e60       $unwind$?_Reallocate_exactly@?$vector@V?$basic_string@_WU?$char_traits@_W@std@@V?$allocator@_W@2@@std@@V?$allocator@V?$basic_string@_WU?$char_traits@_W@std@@V?$allocator@_W@2@@std@@@2@@std@@AEAAX_K@Z 0000000180027e60     NetFavorites.obj
 0002:00009e78       $cppxdata$?_Reallocate_exactly@?$vector@V?$basic_string@_WU?$char_traits@_W@std@@V?$allocator@_W@2@@std@@V?$allocator@V?$basic_string@_WU?$char_traits@_W@std@@V?$allocator@_W@2@@std@@@2@@std@@AEAAX_K@Z 0000000180027e78     NetFavorites.obj
 0002:00009e81       $stateUnwindMap$?_Reallocate_exactly@?$vector@V?$basic_string@_WU?$char_traits@_W@std@@V?$allocator@_W@2@@std@@V?$allocator@V?$basic_string@_WU?$char_traits@_W@std@@V?$allocator@_W@2@@std@@@2@@std@@AEAAX_K@Z 0000000180027e81     NetFavorites.obj
 0002:00009e8c       $ip2state$?_Reallocate_exactly@?$vector@V?$basic_string@_WU?$char_traits@_W@std@@V?$allocator@_W@2@@std@@V?$allocator@V?$basic_string@_WU?$char_traits@_W@std@@V?$allocator@_W@2@@std@@@2@@std@@AEAAX_K@Z 0000000180027e8c     NetFavorites.obj
 0002:00009e90       $unwind$?_Change_array@?$vector@V?$basic_string@_WU?$char_traits@_W@std@@V?$allocator@_W@2@@std@@V?$allocator@V?$basic_string@_WU?$char_traits@_W@std@@V?$allocator@_W@2@@std@@@2@@std@@AEAAXQEAV?$basic_string@_WU?$char_traits@_W@std@@V?$allocator@_W@2@@2@_K1@Z 0000000180027e90     NetFavorites.obj
 0002:00009e90       $unwind$__scrt_dllmain_exception_filter 0000000180027e90     LIBCMT:utility.obj
 0002:00009e90       $unwind$?Is_bad_exception_allowed@@YAEPEBU_s_ESTypeList@@@Z 0000000180027e90     libvcruntime:frame.obj
 0002:00009e90       $unwind$_recalloc_base     0000000180027e90     libucrt:recalloc.obj
 0002:00009e90       $unwind$__acrt_free_locale 0000000180027e90     libucrt:locale_refcounting.obj
 0002:00009e90       $unwind$__acrt_lowio_create_handle_array 0000000180027e90     libucrt:osfinfo.obj
 0002:00009e90       $unwind$?setSBCS@@YAXPEAU__crt_multibyte_data@@@Z 0000000180027e90     libucrt:mbctype.obj
 0002:00009e90       $unwind$_seh_filter_exe    0000000180027e90     libucrt:exception_filter.obj
 0002:00009e90       $unwind$_initterm          0000000180027e90     libucrt:initterm.obj
 0002:00009ea4       $unwind$?_Umove_if_noexcept@?$vector@V?$basic_string@_WU?$char_traits@_W@std@@V?$allocator@_W@2@@std@@V?$allocator@V?$basic_string@_WU?$char_traits@_W@std@@V?$allocator@_W@2@@std@@@2@@std@@AEAAXPEAV?$basic_string@_WU?$char_traits@_W@std@@V?$allocator@_W@2@@2@00@Z 0000000180027ea4     NetFavorites.obj
 0002:00009eb0       $cppxdata$?_Umove@?$vector@V?$basic_string@_WU?$char_traits@_W@std@@V?$allocator@_W@2@@std@@V?$allocator@V?$basic_string@_WU?$char_traits@_W@std@@V?$allocator@_W@2@@std@@@2@@std@@AEAAPEAV?$basic_string@_WU?$char_traits@_W@std@@V?$allocator@_W@2@@2@PEAV32@00@Z 0000000180027eb0     NetFavorites.obj
 0002:00009eb0       $cppxdata$?_Umove_if_noexcept@?$vector@V?$basic_string@_WU?$char_traits@_W@std@@V?$allocator@_W@2@@std@@V?$allocator@V?$basic_string@_WU?$char_traits@_W@std@@V?$allocator@_W@2@@std@@@2@@std@@AEAAXPEAV?$basic_string@_WU?$char_traits@_W@std@@V?$allocator@_W@2@@2@00@Z 0000000180027eb0     NetFavorites.obj
 0002:00009eb9       $stateUnwindMap$?_Umove@?$vector@V?$basic_string@_WU?$char_traits@_W@std@@V?$allocator@_W@2@@std@@V?$allocator@V?$basic_string@_WU?$char_traits@_W@std@@V?$allocator@_W@2@@std@@@2@@std@@AEAAPEAV?$basic_string@_WU?$char_traits@_W@std@@V?$allocator@_W@2@@2@PEAV32@00@Z 0000000180027eb9     NetFavorites.obj
 0002:00009eb9       $stateUnwindMap$?_Umove_if_noexcept@?$vector@V?$basic_string@_WU?$char_traits@_W@std@@V?$allocator@_W@2@@std@@V?$allocator@V?$basic_string@_WU?$char_traits@_W@std@@V?$allocator@_W@2@@std@@@2@@std@@AEAAXPEAV?$basic_string@_WU?$char_traits@_W@std@@V?$allocator@_W@2@@2@00@Z 0000000180027eb9     NetFavorites.obj
 0002:00009ec4       $unwind$??$_Emplace_reallocate@AEAY09$$CB_W@?$vector@V?$basic_string@_WU?$char_traits@_W@std@@V?$allocator@_W@2@@std@@V?$allocator@V?$basic_string@_WU?$char_traits@_W@std@@V?$allocator@_W@2@@std@@@2@@std@@QEAAPEAV?$basic_string@_WU?$char_traits@_W@std@@V?$allocator@_W@2@@1@QEAV21@AEAY09$$CB_W@Z 0000000180027ec4     NetFavorites.obj
 0002:00009ee0       $cppxdata$??$_Emplace_reallocate@AEAY09$$CB_W@?$vector@V?$basic_string@_WU?$char_traits@_W@std@@V?$allocator@_W@2@@std@@V?$allocator@V?$basic_string@_WU?$char_traits@_W@std@@V?$allocator@_W@2@@std@@@2@@std@@QEAAPEAV?$basic_string@_WU?$char_traits@_W@std@@V?$allocator@_W@2@@1@QEAV21@AEAY09$$CB_W@Z 0000000180027ee0     NetFavorites.obj
 0002:00009eed       $stateUnwindMap$??$_Emplace_reallocate@AEAY09$$CB_W@?$vector@V?$basic_string@_WU?$char_traits@_W@std@@V?$allocator@_W@2@@std@@V?$allocator@V?$basic_string@_WU?$char_traits@_W@std@@V?$allocator@_W@2@@std@@@2@@std@@QEAAPEAV?$basic_string@_WU?$char_traits@_W@std@@V?$allocator@_W@2@@1@QEAV21@AEAY09$$CB_W@Z 0000000180027eed     NetFavorites.obj
 0002:00009ef6       $tryMap$??$_Emplace_reallocate@AEAY09$$CB_W@?$vector@V?$basic_string@_WU?$char_traits@_W@std@@V?$allocator@_W@2@@std@@V?$allocator@V?$basic_string@_WU?$char_traits@_W@std@@V?$allocator@_W@2@@std@@@2@@std@@QEAAPEAV?$basic_string@_WU?$char_traits@_W@std@@V?$allocator@_W@2@@1@QEAV21@AEAY09$$CB_W@Z 0000000180027ef6     NetFavorites.obj
 0002:00009efe       $handlerMap$??$_Emplace_reallocate@AEAY09$$CB_W@?$vector@V?$basic_string@_WU?$char_traits@_W@std@@V?$allocator@_W@2@@std@@V?$allocator@V?$basic_string@_WU?$char_traits@_W@std@@V?$allocator@_W@2@@std@@@2@@std@@QEAAPEAV?$basic_string@_WU?$char_traits@_W@std@@V?$allocator@_W@2@@1@QEAV21@AEAY09$$CB_W@Z 0000000180027efe     NetFavorites.obj
 0002:00009f05       $ip2state$??$_Emplace_reallocate@AEAY09$$CB_W@?$vector@V?$basic_string@_WU?$char_traits@_W@std@@V?$allocator@_W@2@@std@@V?$allocator@V?$basic_string@_WU?$char_traits@_W@std@@V?$allocator@_W@2@@std@@@2@@std@@QEAAPEAV?$basic_string@_WU?$char_traits@_W@std@@V?$allocator@_W@2@@1@QEAV21@AEAY09$$CB_W@Z 0000000180027f05     NetFavorites.obj
 0002:00009f10       $unwind$??$_Emplace_reallocate@AEBV?$basic_string@_WU?$char_traits@_W@std@@V?$allocator@_W@2@@std@@@?$vector@V?$basic_string@_WU?$char_traits@_W@std@@V?$allocator@_W@2@@std@@V?$allocator@V?$basic_string@_WU?$char_traits@_W@std@@V?$allocator@_W@2@@std@@@2@@std@@QEAAPEAV?$basic_string@_WU?$char_traits@_W@std@@V?$allocator@_W@2@@1@QEAV21@AEBV21@@Z 0000000180027f10     NetFavorites.obj
 0002:00009f2c       $cppxdata$??$_Emplace_reallocate@AEBV?$basic_string@_WU?$char_traits@_W@std@@V?$allocator@_W@2@@std@@@?$vector@V?$basic_string@_WU?$char_traits@_W@std@@V?$allocator@_W@2@@std@@V?$allocator@V?$basic_string@_WU?$char_traits@_W@std@@V?$allocator@_W@2@@std@@@2@@std@@QEAAPEAV?$basic_string@_WU?$char_traits@_W@std@@V?$allocator@_W@2@@1@QEAV21@AEBV21@@Z 0000000180027f2c     NetFavorites.obj
 0002:00009f39       $tryMap$??$_Emplace_reallocate@AEBV?$basic_string@_WU?$char_traits@_W@std@@V?$allocator@_W@2@@std@@@?$vector@V?$basic_string@_WU?$char_traits@_W@std@@V?$allocator@_W@2@@std@@V?$allocator@V?$basic_string@_WU?$char_traits@_W@std@@V?$allocator@_W@2@@std@@@2@@std@@QEAAPEAV?$basic_string@_WU?$char_traits@_W@std@@V?$allocator@_W@2@@1@QEAV21@AEBV21@@Z 0000000180027f39     NetFavorites.obj
 0002:00009f41       $handlerMap$??$_Emplace_reallocate@AEBV?$basic_string@_WU?$char_traits@_W@std@@V?$allocator@_W@2@@std@@@?$vector@V?$basic_string@_WU?$char_traits@_W@std@@V?$allocator@_W@2@@std@@V?$allocator@V?$basic_string@_WU?$char_traits@_W@std@@V?$allocator@_W@2@@std@@@2@@std@@QEAAPEAV?$basic_string@_WU?$char_traits@_W@std@@V?$allocator@_W@2@@1@QEAV21@AEBV21@@Z 0000000180027f41     NetFavorites.obj
 0002:00009f48       $ip2state$??$_Emplace_reallocate@AEBV?$basic_string@_WU?$char_traits@_W@std@@V?$allocator@_W@2@@std@@@?$vector@V?$basic_string@_WU?$char_traits@_W@std@@V?$allocator@_W@2@@std@@V?$allocator@V?$basic_string@_WU?$char_traits@_W@std@@V?$allocator@_W@2@@std@@@2@@std@@QEAAPEAV?$basic_string@_WU?$char_traits@_W@std@@V?$allocator@_W@2@@1@QEAV21@AEBV21@@Z 0000000180027f48     NetFavorites.obj
 0002:00009f50       $unwind$??$_Destroy_range@V?$allocator@V?$basic_string@_WU?$char_traits@_W@std@@V?$allocator@_W@2@@std@@@std@@@std@@YAXPEAV?$basic_string@_WU?$char_traits@_W@std@@V?$allocator@_W@2@@0@QEAV10@AEAV?$allocator@V?$basic_string@_WU?$char_traits@_W@std@@V?$allocator@_W@2@@std@@@0@@Z 0000000180027f50     NetFavorites.obj
 0002:00009f58       $chain$1$??$_Destroy_range@V?$allocator@V?$basic_string@_WU?$char_traits@_W@std@@V?$allocator@_W@2@@std@@@std@@@std@@YAXPEAV?$basic_string@_WU?$char_traits@_W@std@@V?$allocator@_W@2@@0@QEAV10@AEAV?$allocator@V?$basic_string@_WU?$char_traits@_W@std@@V?$allocator@_W@2@@std@@@0@@Z 0000000180027f58     NetFavorites.obj
 0002:00009f70       $chain$2$??$_Destroy_range@V?$allocator@V?$basic_string@_WU?$char_traits@_W@std@@V?$allocator@_W@2@@std@@@std@@@std@@YAXPEAV?$basic_string@_WU?$char_traits@_W@std@@V?$allocator@_W@2@@0@QEAV10@AEAV?$allocator@V?$basic_string@_WU?$char_traits@_W@std@@V?$allocator@_W@2@@std@@@0@@Z 0000000180027f70     NetFavorites.obj
 0002:00009f80       $chain$3$??$_Destroy_range@V?$allocator@V?$basic_string@_WU?$char_traits@_W@std@@V?$allocator@_W@2@@std@@@std@@@std@@YAXPEAV?$basic_string@_WU?$char_traits@_W@std@@V?$allocator@_W@2@@0@QEAV10@AEAV?$allocator@V?$basic_string@_WU?$char_traits@_W@std@@V?$allocator@_W@2@@std@@@0@@Z 0000000180027f80     NetFavorites.obj
 0002:00009f98       $unwind$?_Umove@?$vector@V?$basic_string@_WU?$char_traits@_W@std@@V?$allocator@_W@2@@std@@V?$allocator@V?$basic_string@_WU?$char_traits@_W@std@@V?$allocator@_W@2@@std@@@2@@std@@AEAAPEAV?$basic_string@_WU?$char_traits@_W@std@@V?$allocator@_W@2@@2@PEAV32@00@Z 0000000180027f98     NetFavorites.obj
 0002:00009fa8       $unwind$??0length_error@std@@QEAA@PEBD@Z 0000000180027fa8     libcpmt:xthrow.obj
 0002:00009fa8       $unwind$??0out_of_range@std@@QEAA@PEBD@Z 0000000180027fa8     libcpmt:xthrow.obj
 0002:00009fa8       $unwind$?__mbrtowc_utf8@__crt_mbstring@@YA_KPEA_WPEBD_KPEAU_Mbstatet@@@Z 0000000180027fa8     libucrt:mbrtowc.obj
 0002:00009fb0       $xdatasym                  0000000180027fb0     LIBCMT:amdsecgs.obj
 0002:00009fb4       $unwind$__report_securityfailure 0000000180027fb4     LIBCMT:gs_report.obj
 0002:00009fbc       $unwind$__report_gsfailure 0000000180027fbc     LIBCMT:gs_report.obj
 0002:00009fc4       $unwind$capture_current_context 0000000180027fc4     LIBCMT:gs_report.obj
 0002:00009fd0       $unwind$capture_previous_context 0000000180027fd0     LIBCMT:gs_report.obj
 0002:00009fdc       $unwind$__scrt_is_nonwritable_in_current_image 0000000180027fdc     LIBCMT:utility.obj
 0002:00009ffc       $unwind$__scrt_is_nonwritable_in_current_image$filt$0 0000000180027ffc     LIBCMT:utility.obj
 0002:0000a004       $unwind$?dllmain_crt_process_attach@@YAHQEAUHINSTANCE__@@QEAX@Z 0000000180028004     LIBCMT:dll_dllmain.obj
 0002:0000a040       $unwind$?dllmain_crt_process_detach@@YAH_N@Z 0000000180028040     LIBCMT:dll_dllmain.obj
 0002:0000a094       $unwind$?dllmain_dispatch@@YAHQEAUHINSTANCE__@@KQEAX@Z 0000000180028094     LIBCMT:dll_dllmain.obj
 0002:0000a0bc       $unwind$?filt$0@?0??dllmain_dispatch@@YAHQEAUHINSTANCE__@@KQEAX@Z@4HA 00000001800280bc     LIBCMT:dll_dllmain.obj
 0002:0000a0bc       $unwind$?filt$0@?0??FrameUnwindToState@__FrameHandler4@@SAXPEA_KPEAU_xDISPATCHER_CONTEXT@@PEAUFuncInfo4@FH4@@H@Z@4HA 00000001800280bc     libvcruntime:frame.obj
 0002:0000a0bc       $unwind$?fin$1@?0??FrameUnwindToState@__FrameHandler4@@SAXPEA_KPEAU_xDISPATCHER_CONTEXT@@PEAUFuncInfo4@FH4@@H@Z@4HA 00000001800280bc     libvcruntime:frame.obj
 0002:0000a0c4       $unwind$__isa_available_init 00000001800280c4     LIBCMT:cpu_disp.obj
 0002:0000a0d4       $unwind$__scrt_fastfail    00000001800280d4     LIBCMT:utility_desktop.obj
 0002:0000a0e4       $unwind$__security_init_cookie 00000001800280e4     LIBCMT:gs_support.obj
 0002:0000a0f0       $xdatasym                  00000001800280f0     LIBCMT:guard_dispatch.obj
 0002:0000a0f8       $xdatasym                  00000001800280f8     LIBCMT:guard_xfg_dispatch.obj
 0002:0000a0fc       $unwind$?DecompFuncInfo@FH4@@YA_JPEAEAEAUFuncInfo4@1@_KH_N@Z 00000001800280fc     libvcruntime:risctrnsctrl.obj
 0002:0000a114       $unwind$?UnwindNestedFrames@__FrameHandler4@@SAXPEA_KPEAUEHExceptionRecord@@PEAU_CONTEXT@@0PEAXPEAUFuncInfo4@FH4@@HHPEAUHandlerType4@5@PEAU_xDISPATCHER_CONTEXT@@E@Z 0000000180028114     libvcruntime:risctrnsctrl.obj
 0002:0000a128       $unwind$?GetRangeOfTrysToCheck@__FrameHandler4@@SA?AU?$pair@Viterator@TryBlockMap4@FH4@@V123@@std@@AEAVTryBlockMap4@FH4@@HPEAU_xDISPATCHER_CONTEXT@@PEAUFuncInfo4@5@H@Z 0000000180028128     libvcruntime:risctrnsctrl.obj
 0002:0000a144       $unwind$__CxxFrameHandler4 0000000180028144     libvcruntime:risctrnsctrl.obj
 0002:0000a158       $unwind$??$_CallSETranslator@V__FrameHandler4@@@@YAHPEAUEHExceptionRecord@@PEA_KPEAU_CONTEXT@@PEAU_xDISPATCHER_CONTEXT@@PEAUFuncInfo4@FH4@@K1H@Z 0000000180028158     libvcruntime:risctrnsctrl.obj
 0002:0000a178       $unwind$?filt$0@?0???$_CallSETranslator@V__FrameHandler4@@@@YAHPEAUEHExceptionRecord@@PEA_KPEAU_CONTEXT@@PEAU_xDISPATCHER_CONTEXT@@PEAUFuncInfo4@FH4@@K1H@Z@4HA 0000000180028178     libvcruntime:risctrnsctrl.obj
 0002:0000a184       $unwind$__DestructExceptionObject 0000000180028184     libvcruntime:ehhelpers.obj
 0002:0000a1a4       $unwind$__DestructExceptionObject$filt$0 00000001800281a4     libvcruntime:ehhelpers.obj
 0002:0000a1a4       $unwind$?fin$1@?0??CxxCallCatchBlock@__FrameHandler4@@SAPEAXPEAU_EXCEPTION_RECORD@@@Z@4HA 00000001800281a4     libvcruntime:frame.obj
 0002:0000a1b0       $unwind$__std_exception_copy 00000001800281b0     libvcruntime:std_exception.obj
 0002:0000a1b0       $unwind$_free_osfhnd       00000001800281b0     libucrt:osfinfo.obj
 0002:0000a1c4       $unwind$_CxxThrowException 00000001800281c4     libvcruntime:throw.obj
 0002:0000a1d4       $unwind$__C_specific_handler 00000001800281d4     libvcruntime:riscchandler.obj
 0002:0000a1f0       $xdatasym                  00000001800281f0     libvcruntime:memset.obj
 0002:0000a200       $unwind$?StateFromIp@__FrameHandler4@@SAHPEAUFuncInfo4@FH4@@PEAU_xDISPATCHER_CONTEXT@@_K@Z 0000000180028200     libvcruntime:ehstate.obj
 0002:0000a214       $unwind$?getStartStop@UWMap4@FH4@@QEAAXHHAEAViterator@12@0@Z 0000000180028214     libvcruntime:frame.obj
 0002:0000a22c       $unwind$?getStateFromIterators@UWMap4@FH4@@SAHAEBViterator@12@H0H0@Z 000000018002822c     libvcruntime:frame.obj
 0002:0000a22c       $unwind$strpbrk            000000018002822c     libucrt:strpbrk.obj
 0002:0000a23c       $unwind$?FrameUnwindToState@__FrameHandler4@@SAXPEA_KPEAU_xDISPATCHER_CONTEXT@@PEAUFuncInfo4@FH4@@H@Z 000000018002823c     libvcruntime:frame.obj
 0002:0000a284       $unwind$?CxxCallCatchBlock@__FrameHandler4@@SAPEAXPEAU_EXCEPTION_RECORD@@@Z 0000000180028284     libvcruntime:frame.obj
 0002:0000a2e0       $unwind$?IsInExceptionSpec@@YAEPEAUEHExceptionRecord@@PEBU_s_ESTypeList@@@Z 00000001800282e0     libvcruntime:frame.obj
 0002:0000a2fc       $unwind$??$__InternalCxxFrameHandler@V__FrameHandler4@@@@YA?AW4_EXCEPTION_DISPOSITION@@PEAUEHExceptionRecord@@PEA_KPEAU_CONTEXT@@PEAU_xDISPATCHER_CONTEXT@@PEAUFuncInfo4@FH4@@H1E@Z 00000001800282fc     libvcruntime:frame.obj
 0002:0000a314       $unwind$__GSHandlerCheck_EH4 0000000180028314     LIBCMT:gshandlereh4.obj
 0002:0000a314       $unwind$__GSHandlerCheck_SEH 0000000180028314     LIBCMT:gshandlerseh.obj
 0002:0000a314       $unwind$??$TypeMatchHelper@V__FrameHandler3@@@@YAHPEBU_s_HandlerType@@PEBU_s_CatchableType@@PEBU_s_ThrowInfo@@@Z 0000000180028314     libvcruntime:frame.obj
 0002:0000a314       $unwind$??$TypeMatchHelper@V__FrameHandler4@@@@YAHPEAUHandlerType4@FH4@@PEBU_s_CatchableType@@PEBU_s_ThrowInfo@@@Z 0000000180028314     libvcruntime:frame.obj
 0002:0000a314       $unwind$?initialize_stdio_handles_nolock@@YAXXZ 0000000180028314     libucrt:ioinit.obj
 0002:0000a314       $unwind$__acrt_initialize_stdio 0000000180028314     libucrt:_file.obj
 0002:0000a32c       $unwind$??$BuildCatchObjectHelperInternal@V__FrameHandler4@@@@YAHPEAUEHExceptionRecord@@PEAXPEAUHandlerType4@FH4@@PEBU_s_CatchableType@@@Z 000000018002832c     libvcruntime:frame.obj
 0002:0000a36c       $unwind$??$BuildCatchObjectInternal@V__FrameHandler4@@@@YAXPEAUEHExceptionRecord@@PEAXPEAUHandlerType4@FH4@@PEBU_s_CatchableType@@@Z 000000018002836c     libvcruntime:frame.obj
 0002:0000a398       $unwind$??$FindHandler@V__FrameHandler4@@@@YAXPEAUEHExceptionRecord@@PEA_KPEAU_CONTEXT@@PEAU_xDISPATCHER_CONTEXT@@PEAUFuncInfo4@FH4@@EH1@Z 0000000180028398     libvcruntime:frame.obj
 0002:0000a3b8       $unwind$??$CatchIt@V__FrameHandler4@@@@YAXPEAUEHExceptionRecord@@PEA_KPEAU_CONTEXT@@PEAU_xDISPATCHER_CONTEXT@@PEAUFuncInfo4@FH4@@PEAUHandlerType4@4@PEBU_s_CatchableType@@PEAUTryBlockMapEntry4@4@H1EE@Z 00000001800283b8     libvcruntime:frame.obj
 0002:0000a3d0       $unwind$??$FindHandlerForForeignException@V__FrameHandler4@@@@YAXPEAUEHExceptionRecord@@PEA_KPEAU_CONTEXT@@PEAU_xDISPATCHER_CONTEXT@@PEAUFuncInfo4@FH4@@HH1@Z 00000001800283d0     libvcruntime:frame.obj
 0002:0000a3f0       $xdatasym                  00000001800283f0     libvcruntime:notify.obj
 0002:0000a3fc       $unwind$?try_get_function@@YAPEAXW4function_id@?A0xf6f43728@@QEBDQEBW4module_id@2@2@Z 00000001800283fc     libvcruntime:winapi_downlevel.obj
 0002:0000a3fc       $unwind$?try_get_function@@YAPEAXW4function_id@?A0x391cf84c@@QEBDQEBW4module_id@2@2@Z 00000001800283fc     libucrt:winapi_thunks.obj
 0002:0000a418       $xdatasym                  0000000180028418     libvcruntime:handlers.obj
 0002:0000a438       $xdatasym                  0000000180028438     libvcruntime:memcpy.obj
 0002:0000a448       $unwind$_invalid_parameter_noinfo 0000000180028448     libucrt:invalid_parameter.obj
 0002:0000a448       $unwind$_invalid_parameter_noinfo_noreturn 0000000180028448     libucrt:invalid_parameter.obj
 0002:0000a448       $unwind$_log10_special     0000000180028448     libucrt:log_special.obj
 0002:0000a450       $unwind$__acrt_call_reportfault 0000000180028450     libucrt:invalid_parameter.obj
 0002:0000a470       $unwind$_invalid_parameter 0000000180028470     libucrt:invalid_parameter.obj
 0002:0000a470       $unwind$_wcsdup            0000000180028470     libucrt:wcsdup.obj
 0002:0000a484       $unwind$_query_new_handler 0000000180028484     libucrt:new_handler.obj
 0002:0000a4a4       $unwind$?common_exit@@YAXHW4_crt_exit_cleanup_mode@@W4_crt_exit_return_mode@@@Z 00000001800284a4     libucrt:exit.obj
 0002:0000a4b0       $unwind$??R<lambda_6e4b09c48022b2350581041d5f6b0c4c>@@QEBA@XZ 00000001800284b0     libucrt:exit.obj
 0002:0000a4d0       $unwind$??$?RV<lambda_d80eeec6fff315bfe5c115232f3240e3>@@AEAV<lambda_6e4b09c48022b2350581041d5f6b0c4c>@@V<lambda_2358e3775559c9db80273638284d5e45>@@@?$__crt_seh_guarded_call@X@@QEAAX$$QEAV<lambda_d80eeec6fff315bfe5c115232f3240e3>@@AEAV<lambda_6e4b09c48022b2350581041d5f6b0c4c>@@$$QEAV<lambda_2358e3775559c9db80273638284d5e45>@@@Z 00000001800284d0     libucrt:exit.obj
 0002:0000a4f4       $unwind$_configure_narrow_argv 00000001800284f4     libucrt:argv_parsing.obj
 0002:0000a508       $unwind$??$parse_command_line@D@@YAXPEADPEAPEAD0PEA_K2@Z 0000000180028508     libucrt:argv_parsing.obj
 0002:0000a524       $unwind$??$create_environment@D@@YAQEAPEADQEAD@Z 0000000180028524     libucrt:environment_initialization.obj
 0002:0000a53c       $unwind$_register_onexit_function 000000018002853c     libucrt:onexit.obj
 0002:0000a544       $unwind$_execute_onexit_table 0000000180028544     libucrt:onexit.obj
 0002:0000a54c       $unwind$__acrt_DownlevelLocaleNameToLCID 000000018002854c     libucrt:lcidtoname_downlevel.obj
 0002:0000a54c       $unwind$??R<lambda_f03950bc5685219e0bcd2087efbe011e>@@QEBAHXZ 000000018002854c     libucrt:onexit.obj
 0002:0000a564       $unwind$??$?RV<lambda_638799b9deba96c50f710eeac98168cd>@@AEAV<lambda_22ebabd17bc4fa466a2aca6d8deb888d>@@V<lambda_a6f7d7db0129f75315ebf26d50c089f1>@@@?$__crt_seh_guarded_call@H@@QEAAH$$QEAV<lambda_638799b9deba96c50f710eeac98168cd>@@AEAV<lambda_22ebabd17bc4fa466a2aca6d8deb888d>@@$$QEAV<lambda_a6f7d7db0129f75315ebf26d50c089f1>@@@Z 0000000180028564     libucrt:onexit.obj
 0002:0000a588       $unwind$??$?RV<lambda_7777bce6b2f8c936911f934f8298dc43>@@AEAV<lambda_f03950bc5685219e0bcd2087efbe011e>@@V<lambda_3883c3dff614d5e0c5f61bb1ac94921c>@@@?$__crt_seh_guarded_call@H@@QEAAH$$QEAV<lambda_7777bce6b2f8c936911f934f8298dc43>@@AEAV<lambda_f03950bc5685219e0bcd2087efbe011e>@@$$QEAV<lambda_3883c3dff614d5e0c5f61bb1ac94921c>@@@Z 0000000180028588     libucrt:onexit.obj
 0002:0000a5ac       $unwind$terminate          00000001800285ac     libucrt:terminate.obj
 0002:0000a5d0       $xdatasym                  00000001800285d0     libucrt:strncmp.obj
 0002:0000a5d4       $unwind$_free_base         00000001800285d4     libucrt:free_base.obj
 0002:0000a5d4       $unwind$?destroy_fls@@YAXPEAX@Z 00000001800285d4     libucrt:per_thread_data.obj
 0002:0000a5d4       $unwind$__acrt_locale_free_numeric 00000001800285d4     libucrt:initnum.obj
 0002:0000a5d4       $unwind$__acrt_locale_free_lc_time_if_unreferenced 00000001800285d4     libucrt:locale_refcounting.obj
 0002:0000a5dc       $unwind$?construct_ptd_array@@YAXQEAU__acrt_ptd@@@Z 00000001800285dc     libucrt:per_thread_data.obj
 0002:0000a5e4       $unwind$?destroy_ptd_array@@YAXQEAU__acrt_ptd@@@Z 00000001800285e4     libucrt:per_thread_data.obj
 0002:0000a5ec       $unwind$??$?RV<lambda_0ae27a3a962d80f24befdcbee591983d>@@AEAV<lambda_8d0ee55de4b1038c4002e0adecdf1839>@@V<lambda_dc504788e8f1664fe9b84e20bfb512f2>@@@?$__crt_seh_guarded_call@X@@QEAAX$$QEAV<lambda_0ae27a3a962d80f24befdcbee591983d>@@AEAV<lambda_8d0ee55de4b1038c4002e0adecdf1839>@@$$QEAV<lambda_dc504788e8f1664fe9b84e20bfb512f2>@@@Z 00000001800285ec     libucrt:per_thread_data.obj
 0002:0000a610       $unwind$??$?RV<lambda_aa87e3671a710a21b5dc78c0bdf72e11>@@AEAV<lambda_92619d2358a28f41a33ba319515a20b9>@@V<lambda_6992ecaafeb10aed2b74cb1fae11a551>@@@?$__crt_seh_guarded_call@X@@QEAAX$$QEAV<lambda_aa87e3671a710a21b5dc78c0bdf72e11>@@AEAV<lambda_92619d2358a28f41a33ba319515a20b9>@@$$QEAV<lambda_6992ecaafeb10aed2b74cb1fae11a551>@@@Z 0000000180028610     libucrt:per_thread_data.obj
 0002:0000a634       $unwind$??$?RV<lambda_f2e299630e499de9f9a165e60fcd3db5>@@AEAV<lambda_2ae9d31cdba2644fcbeaf08da7c24588>@@V<lambda_40d01ff24d0e7b3814fdbdcee8eab3c7>@@@?$__crt_seh_guarded_call@X@@QEAAX$$QEAV<lambda_f2e299630e499de9f9a165e60fcd3db5>@@AEAV<lambda_2ae9d31cdba2644fcbeaf08da7c24588>@@$$QEAV<lambda_40d01ff24d0e7b3814fdbdcee8eab3c7>@@@Z 0000000180028634     libucrt:per_thread_data.obj
 0002:0000a658       $unwind$??$?RV<lambda_2d41944a1d46af3157314b8a01080d33>@@AEAV<lambda_8f455de75cd7d7f24b4096f044d8b9e6>@@V<lambda_aa500f224e6afead328df44964fe2772>@@@?$__crt_seh_guarded_call@X@@QEAAX$$QEAV<lambda_2d41944a1d46af3157314b8a01080d33>@@AEAV<lambda_8f455de75cd7d7f24b4096f044d8b9e6>@@$$QEAV<lambda_aa500f224e6afead328df44964fe2772>@@@Z 0000000180028658     libucrt:per_thread_data.obj
 0002:0000a67c       $unwind$??$__acrt_mbs_to_wcs_cp@U__crt_win32_buffer_internal_dynamic_resizing@@@@YAHQEBDAEAV?$__crt_win32_buffer@_WU__crt_win32_buffer_internal_dynamic_resizing@@@@I@Z 000000018002867c     libucrt:argv_wildcards.obj
 0002:0000a694       $unwind$__dcrt_get_narrow_environment_from_os 0000000180028694     libucrt:get_environment_from_os.obj
 0002:0000a694       $unwind$??$__acrt_wcs_to_mbs_cp@U__crt_win32_buffer_internal_dynamic_resizing@@@@YAHQEB_WAEAV?$__crt_win32_buffer@DU__crt_win32_buffer_internal_dynamic_resizing@@@@I@Z 0000000180028694     libucrt:argv_wildcards.obj
 0002:0000a6ac       $unwind$??$common_expand_argv_wildcards@D@@YAHQEAPEADQEAPEAPEAD@Z 00000001800286ac     libucrt:argv_wildcards.obj
 0002:0000a6c4       $unwind$??$copy_and_add_argument_to_buffer@D@@YAHQEBD0_KAEAV?$argument_list@D@?A0x5f5c8891@@@Z 00000001800286c4     libucrt:argv_wildcards.obj
 0002:0000a6e0       $unwind$??$expand_argument_wildcards@D@@YAHQEAD0AEAV?$argument_list@D@?A0x5f5c8891@@@Z 00000001800286e0     libucrt:argv_wildcards.obj
 0002:0000a704       $unwind$__acrt_GetModuleFileNameA 0000000180028704     libucrt:getmodulefilenamea.obj
 0002:0000a720       $unwind$__dcrt_write_console 0000000180028720     libucrt:initcon.obj
 0002:0000a720       $unwind$??$__acrt_wcs_to_mbs_cp@U__crt_win32_buffer_no_resizing@@@@YAHQEB_WAEAV?$__crt_win32_buffer@DU__crt_win32_buffer_no_resizing@@@@I@Z 0000000180028720     libucrt:getmodulefilenamea.obj
 0002:0000a734       $unwind$_setmbcp_nolock    0000000180028734     libucrt:mbctype.obj
 0002:0000a754       $unwind$__dcrt_lowio_ensure_console_output_initialized 0000000180028754     libucrt:initcon.obj
 0002:0000a754       $unwind$_isleadbyte_l      0000000180028754     libucrt:_wctype.obj
 0002:0000a754       $unwind$?getSystemCP@@YAHH@Z 0000000180028754     libucrt:mbctype.obj
 0002:0000a75c       $unwind$?update_thread_multibyte_data_internal@@YAPEAU__crt_multibyte_data@@QEAU__acrt_ptd@@QEAPEAU1@@Z 000000018002875c     libucrt:mbctype.obj
 0002:0000a784       $unwind$?setmbcp_internal@@YAHH_NQEAU__acrt_ptd@@QEAPEAU__crt_multibyte_data@@@Z 0000000180028784     libucrt:mbctype.obj
 0002:0000a794       $unwind$?setSBUpLow@@YAXPEAU__crt_multibyte_data@@@Z 0000000180028794     libucrt:mbctype.obj
 0002:0000a7b0       $unwind$??$?RV<lambda_efdfa57d1f175319df784efa44bb7b81>@@AEAV<lambda_5f0a4c1567f8adc6734073e5d1e1b35c>@@V<lambda_2e8a7d3640ea6ccb4c2413664c2db6fd>@@@?$__crt_seh_guarded_call@X@@QEAAX$$QEAV<lambda_efdfa57d1f175319df784efa44bb7b81>@@AEAV<lambda_5f0a4c1567f8adc6734073e5d1e1b35c>@@$$QEAV<lambda_2e8a7d3640ea6ccb4c2413664c2db6fd>@@@Z 00000001800287b0     libucrt:mbctype.obj
 0002:0000a7d4       $unwind$?x_ismbbtype_l@@YAHPEAU__crt_locale_pointers@@IHH@Z 00000001800287d4     libucrt:ismbbyte.obj
 0002:0000a7e4       $unwind$__GSHandlerCheckCommon 00000001800287e4     LIBCMT:gshandler.obj
 0002:0000a7e4       $unwind$__acrt_WideCharToMultiByte 00000001800287e4     libucrt:widechartomultibyte.obj
 0002:0000a7ec       $unwind$__acrt_initialize_winapi_thunks 00000001800287ec     libucrt:winapi_thunks.obj
 0002:0000a7f4       $unwind$_mbtowc_l          00000001800287f4     libucrt:mbtowc.obj
 0002:0000a7f4       $unwind$__acrt_LCMapStringEx 00000001800287f4     libucrt:winapi_thunks.obj
 0002:0000a808       $unwind$__acrt_initialize_lowio 0000000180028808     libucrt:ioinit.obj
 0002:0000a828       $unwind$?initialize_inherited_file_handles_nolock@@YAXXZ 0000000180028828     libucrt:ioinit.obj
 0002:0000a844       $unwind$__acrt_uninitialize_locale 0000000180028844     libucrt:wsetlocale.obj
 0002:0000a844       $unwind$__acrt_get_sigabrt_handler 0000000180028844     libucrt:signal.obj
 0002:0000a84c       $unwind$raise              000000018002884c     libucrt:signal.obj
 0002:0000a888       $unwind$??$?RV<lambda_450d765d439847d4c735a33c368b5fc0>@@AEAV<lambda_44731a7d0e6d81c3e6aa82d741081786>@@V<lambda_601a2a7da3b7a96e9554ac7215c4b07c>@@@?$__crt_seh_guarded_call@P6AXH@Z@@QEAAP6AXH@Z$$QEAV<lambda_450d765d439847d4c735a33c368b5fc0>@@AEAV<lambda_44731a7d0e6d81c3e6aa82d741081786>@@$$QEAV<lambda_601a2a7da3b7a96e9554ac7215c4b07c>@@@Z 0000000180028888     libucrt:signal.obj
 0002:0000a8ac       $unwind$?common_flush_all@@YAH_N@Z 00000001800288ac     libucrt:fflush.obj
 0002:0000a8b4       $unwind$??$?RV<lambda_842d9ff0dc9ef11c61343bbaebe7f885>@@AEAV<lambda_c5860995281e5c4ce005b3de8f5874ee>@@V<lambda_d90129c13df834fdcbf8d2b88dafcf2d>@@@?$__crt_seh_guarded_call@X@@QEAAX$$QEAV<lambda_842d9ff0dc9ef11c61343bbaebe7f885>@@AEAV<lambda_c5860995281e5c4ce005b3de8f5874ee>@@$$QEAV<lambda_d90129c13df834fdcbf8d2b88dafcf2d>@@@Z 00000001800288b4     libucrt:fflush.obj
 0002:0000a8d8       $unwind$??$?RV<lambda_886d6c58226a84441f68b9f2b8217b83>@@AEAV<lambda_ab61a845afdef5b7c387490eaf3616ee>@@V<lambda_f7f22ab5edc0698d5f6905b0d3f44752>@@@?$__crt_seh_guarded_call@X@@QEAAX$$QEAV<lambda_886d6c58226a84441f68b9f2b8217b83>@@AEAV<lambda_ab61a845afdef5b7c387490eaf3616ee>@@$$QEAV<lambda_f7f22ab5edc0698d5f6905b0d3f44752>@@@Z 00000001800288d8     libucrt:fflush.obj
 0002:0000a900       $unwind$??$?RV<lambda_410d79af7f07d98d83a3f525b3859a53>@@AEAV<lambda_3e16ef9562a7dcce91392c22ab16ea36>@@V<lambda_38119f0e861e05405d8a144b9b982f0a>@@@?$__crt_seh_guarded_call@X@@QEAAX$$QEAV<lambda_410d79af7f07d98d83a3f525b3859a53>@@AEAV<lambda_3e16ef9562a7dcce91392c22ab16ea36>@@$$QEAV<lambda_38119f0e861e05405d8a144b9b982f0a>@@@Z 0000000180028900     libucrt:wsetlocale.obj
 0002:0000a928       $unwind$__acrt_update_thread_locale_data 0000000180028928     libucrt:locale_refcounting.obj
 0002:0000a94c       $unwind$qsort              000000018002894c     libucrt:qsort.obj
 0002:0000a964       $chain$4$qsort             0000000180028964     libucrt:qsort.obj
 0002:0000a988       $chain$5$qsort             0000000180028988     libucrt:qsort.obj
 0002:0000a998       $unwind$fallbackMethod     0000000180028998     libucrt:strpbrk.obj
 0002:0000a9a8       $unwind$_mbsdec_l          00000001800289a8     libucrt:mbsdec.obj
 0002:0000a9b4       $unwind$__acrt_GetStringTypeA 00000001800289b4     libucrt:getstringtypea.obj
 0002:0000a9dc       $unwind$__acrt_LCMapStringA 00000001800289dc     libucrt:lcmapstringa.obj
 0002:0000a9ec       $unwind$?__acrt_LCMapStringA_stat@@YAHPEAU__crt_locale_pointers@@PEB_WKPEBDHPEADHHH@Z 00000001800289ec     libucrt:lcmapstringa.obj
 0002:0000aa14       $unwind$__acrt_lowio_destroy_handle_array 0000000180028a14     libucrt:osfinfo.obj
 0002:0000aa24       $unwind$__acrt_lowio_ensure_fh_exists 0000000180028a24     libucrt:osfinfo.obj
 0002:0000aa50       $unwind$_close             0000000180028a50     libucrt:close.obj
 0002:0000aa50       $unwind$_commit            0000000180028a50     libucrt:commit.obj
 0002:0000aa58       $unwind$??$?RV<lambda_a37b2b86f63e897a80ea819b0eb08c01>@@AEAV<lambda_38ce7e780aa69e748d6df282ebc68efe>@@V<lambda_99fb1378e971ab6e7edea83e3a7a83a2>@@@?$__crt_seh_guarded_call@H@@QEAAH$$QEAV<lambda_a37b2b86f63e897a80ea819b0eb08c01>@@AEAV<lambda_38ce7e780aa69e748d6df282ebc68efe>@@$$QEAV<lambda_99fb1378e971ab6e7edea83e3a7a83a2>@@@Z 0000000180028a58     libucrt:commit.obj
 0002:0000aa7c       $unwind$_write             0000000180028a7c     libucrt:write.obj
 0002:0000aaac       $unwind$_write_nolock      0000000180028aac     libucrt:write.obj
 0002:0000aac4       $unwind$?write_double_translated_ansi_nolock@@YA?AUwrite_result@?A0x17268360@@HQEBDI@Z 0000000180028ac4     libucrt:write.obj
 0002:0000aae8       $unwind$?write_text_ansi_nolock@@YA?AUwrite_result@?A0x17268360@@HQEBDI@Z 0000000180028ae8     libucrt:write.obj
 0002:0000aae8       $unwind$?write_text_utf16le_nolock@@YA?AUwrite_result@?A0x17268360@@HQEBDI@Z 0000000180028ae8     libucrt:write.obj
 0002:0000ab08       $unwind$?write_text_utf8_nolock@@YA?AUwrite_result@?A0x17268360@@HQEBDI@Z 0000000180028b08     libucrt:write.obj
 0002:0000ab2c       $unwind$_fcloseall         0000000180028b2c     libucrt:closeall.obj
 0002:0000ab50       $unwind$?__mbsrtowcs_utf8@__crt_mbstring@@YA_KPEA_WPEAPEBD_KPEAU_Mbstatet@@@Z 0000000180028b50     libucrt:mbrtowc.obj
 0002:0000ab68       $unwind$__acrt_locale_free_monetary 0000000180028b68     libucrt:initmon.obj
 0002:0000ab70       $unwind$__acrt_locale_free_time 0000000180028b70     libucrt:inittime.obj
 0002:0000ab80       $unwind$_putwch_nolock     0000000180028b80     libucrt:putwch.obj
 0002:0000ab88       $unwind$fclose             0000000180028b88     libucrt:fclose.obj
 0002:0000abac       $unwind$?__mbrtoc32_utf8@__crt_mbstring@@YA_KPEA_UPEBD_KPEAU_Mbstatet@@@Z 0000000180028bac     libucrt:mbrtoc32.obj
 0002:0000abc8       $xdatasym                  0000000180028bc8     libucrt:log10.obj
 0002:0000abd4       $unwind$??$?RV<lambda_751a882b2c74d4b022dec766aa51a29a>@@AEAV<lambda_628dfdc04ba53c8bfc02c9951375f3f5>@@V<lambda_f6c7be5f7998530c34de24c7437d6b54>@@@?$__crt_seh_guarded_call@H@@QEAAH$$QEAV<lambda_751a882b2c74d4b022dec766aa51a29a>@@AEAV<lambda_628dfdc04ba53c8bfc02c9951375f3f5>@@$$QEAV<lambda_f6c7be5f7998530c34de24c7437d6b54>@@@Z 0000000180028bd4     libucrt:close.obj
 0002:0000abf8       $unwind$_call_matherr      0000000180028bf8     libucrt:libm_error.obj
 0002:0000ac00       $unwind$_handle_error      0000000180028c00     libucrt:libm_error.obj
 0002:0000ac20       $unwind$__acrt_initialize_fma3 0000000180028c20     libucrt:fma3_available.obj
 0002:0000ac28       $unwind$_log_special_common 0000000180028c28     libucrt:log_special.obj
 0002:0000ac38       $xdatasym                  0000000180028c38     libucrt:fpsr.obj
 0002:0000ac40       $unwind$_raise_exc_ex      0000000180028c40     libucrt:fpexcept.obj
 0002:0000ac54       $unwind$_ctrlfp            0000000180028c54     libucrt:fpctrl.obj
 0002:0000ac7c       $unwind$_IsNonwritableInCurrentImage 0000000180028c7c     LIBCMT:pesect.obj
 0002:0000aca0       $xdatasym                  0000000180028ca0     LIBCMT:chkstk.obj
 0002:0000aca8       $xdatasym                  0000000180028ca8     libvcruntime:memcmp.obj
 0002:0000af00       MsetTab                    0000000180028f00     libvcruntime:memset.obj
 0002:0000af50       MoveSmall                  0000000180028f50     libvcruntime:memcpy.obj
 0002:0000af90       MoveSmallYmm               0000000180028f90     libvcruntime:memcpy.obj
 0002:0000afb4       MoveSmallYmmNT             0000000180028fb4     libvcruntime:memcpy.obj
 0002:0000afd8       MoveSmallXmm               0000000180028fd8     libvcruntime:memcpy.obj
 0002:0000b000       .edata                     0000000180029000     Network.exp
 0002:0000b028       rgpv                       0000000180029028     Network.exp
 0002:0000b060       rgszName                   0000000180029060     Network.exp
 0002:0000b098       rgwOrd                     0000000180029098     Network.exp
 0002:0000b0b4       szName                     00000001800290b4     Network.exp
 0002:0000b0c0       $N00001                    00000001800290c0     Network.exp
 0002:0000b0cc       $N00002                    00000001800290cc     Network.exp
 0002:0000b0d7       $N00003                    00000001800290d7     Network.exp
 0002:0000b0e4       $N00004                    00000001800290e4     Network.exp
 0002:0000b0ed       $N00005                    00000001800290ed     Network.exp
 0002:0000b0fb       $N00006                    00000001800290fb     Network.exp
 0002:0000b108       $N00007                    0000000180029108     Network.exp
 0002:0000b117       $N00008                    0000000180029117     Network.exp
 0002:0000b129       $N00009                    0000000180029129     Network.exp
 0002:0000b138       $N00010                    0000000180029138     Network.exp
 0002:0000b13e       $N00011                    000000018002913e     Network.exp
 0002:0000b151       $N00012                    0000000180029151     Network.exp
 0002:0000b164       $N00013                    0000000180029164     Network.exp
 0002:0000b172       $N00014                    0000000180029172     Network.exp
 0002:0000b668       .idata$6                   0000000180029668     kernel32:KERNEL32.dll
 0002:0000b694       .idata$6                   0000000180029694     advapi32:ADVAPI32.dll
 0002:0000b6c2       .idata$6                   00000001800296c2     user32:USER32.dll
 0002:0000b6f2       .idata$6                   00000001800296f2     netapi32:NETAPI32.dll
 0002:0000b79c       .idata$6                   000000018002979c     mpr:MPR.dll
 0003:00000030       ?__vcrt_flsindex@@3KA      000000018002a030     libvcruntime:per_thread_data.obj
 0003:00000050       ?__acrt_flsindex@@3KA      000000018002a050     libucrt:per_thread_data.obj
 0003:00000054       ?errno_no_memory@@3HA      000000018002a054     libucrt:errno.obj
 0003:00000058       ?doserrno_no_memory@@3KA   000000018002a058     libucrt:errno.obj
 0003:00000290       _mbctypes                  000000018002a290     libucrt:mbctype.obj
 0003:000003a0       _mbcasemaps                000000018002a3a0     libucrt:mbctype.obj
 0003:000004a0       ?__rgctypeflag@@3PADA      000000018002a4a0     libucrt:mbctype.obj
 0003:000004b0       ?__rgcode_page_info@@3PAUcode_page_info@@A 000000018002a4b0     libucrt:mbctype.obj
 0003:000009c0       ?__dcrt_lowio_console_output_handle@@3PEAXEA 000000018002a9c0     libucrt:initcon.obj
 0003:000009d0       ?dazSupported@?1??_ctrlfp@@9@9 000000018002a9d0     libucrt:fpctrl.obj
 0003:000009e8       ?kbt@?BE@??GetOpenPanelInfo@NetBrowser@@QEAAXPEAUOpenPanelInfo@@@Z@4UKeyBarTitles@@A 000000018002a9e8     NetClass.obj
 0003:000009f8       ?kbt@?BN@??GetOpenPanelInfo@NetBrowser@@QEAAXPEAUOpenPanelInfo@@@Z@4UKeyBarTitles@@A 000000018002a9f8     NetClass.obj
 0003:00000a10       ?szFavProv@@3PA_WA         000000018002aa10     NetFavorites.obj
 0003:00000cd0       GS_ExceptionRecord         000000018002acd0     LIBCMT:gs_report.obj
 0003:00000d70       GS_ContextRecord           000000018002ad70     LIBCMT:gs_report.obj
 0003:00001250       ?is_initialized_as_dll@@3_NA 000000018002b250     LIBCMT:utility.obj
 0003:00001251       ?module_local_atexit_table_initialized@@3_NA 000000018002b251     LIBCMT:utility.obj
 0003:00001258       ?module_local_atexit_table@@3U_onexit_table_t@@A 000000018002b258     LIBCMT:utility.obj
 0003:00001270       ?module_local_at_quick_exit_table@@3U_onexit_table_t@@A 000000018002b270     LIBCMT:utility.obj
 0003:00001288       ?__proc_attached@@3HA      000000018002b288     LIBCMT:dll_dllmain.obj
 0003:000012d0       ?__vcrt_startup_thread_ptd@@3U__vcrt_ptd@@A 000000018002b2d0     libvcruntime:per_thread_data.obj
 0003:00001358       __vcrt_lock_table          000000018002b358     libvcruntime:locks.obj
 0003:00001380       __vcrt_locks_initialized   000000018002b380     libvcruntime:locks.obj
 0003:000013c8       ?heap@@3V_HeapManager@@A   000000018002b3c8     libvcruntime:undname.obj
 0003:000013f0       ?module_handles@@3PAPEAUHINSTANCE__@@A 000000018002b3f0     libvcruntime:winapi_downlevel.obj
 0003:00001408       ?function_pointers@@3PAPEAXA 000000018002b408     libvcruntime:winapi_downlevel.obj
 0003:00001430       ?__acrt_invalid_parameter_handler@@3V?$dual_state_global@P6AXPEB_W00I_K@Z@__crt_state_management@@A 000000018002b430     libucrt:invalid_parameter.obj
 0003:00001438       ?__acrt_new_handler@@3V?$dual_state_global@P6AH_K@Z@__crt_state_management@@A 000000018002b438     libucrt:new_handler.obj
 0003:00001440       ?c_termination_complete@@3JA 000000018002b440     libucrt:exit.obj
 0003:00001448       ?thread_local_exit_callback_func@@3P6AXPEAXK0@ZEA 000000018002b448     libucrt:exit.obj
 0003:00001460       ?program_name@?1???$common_configure_argv@D@@YAHW4_crt_argv_mode@@@Z@4PADA 000000018002b460     libucrt:argv_parsing.obj
 0003:000015c0       ?__acrt_lock_table@@3PAU_RTL_CRITICAL_SECTION@@A 000000018002b5c0     libucrt:locks.obj
 0003:000017f0       ?__acrt_locks_initialized@@3IA 000000018002b7f0     libucrt:locks.obj
 0003:00001810       ?fSystemSet@@3HA           000000018002b810     libucrt:mbctype.obj
 0003:00001814       ?initialized@?1??__acrt_initialize_multibyte@@9@4_NA 000000018002b814     libucrt:mbctype.obj
 0003:00001850       ?module_handles@@3PAPEAUHINSTANCE__@@A 000000018002b850     libucrt:winapi_thunks.obj
 0003:000018f0       ?encoded_function_pointers@@3PAPEAXA 000000018002b8f0     libucrt:winapi_thunks.obj
 0003:00001e18       ?ctrlc_action@@3V?$dual_state_global@P6AXH@Z@__crt_state_management@@A 000000018002be18     libucrt:signal.obj
 0003:00001e20       ?ctrlbreak_action@@3V?$dual_state_global@P6AXH@Z@__crt_state_management@@A 000000018002be20     libucrt:signal.obj
 0003:00001e28       ?abort_action@@3V?$dual_state_global@P6AXH@Z@__crt_state_management@@A 000000018002be28     libucrt:signal.obj
 0003:00001e30       ?term_action@@3V?$dual_state_global@P6AXH@Z@__crt_state_management@@A 000000018002be30     libucrt:signal.obj
 0003:00001e38       ?user_matherr@@3V?$dual_state_global@P6AHPEAU_exception@@@Z@__crt_state_management@@A 000000018002be38     libucrt:matherr.obj
 0003:00001e68       ?internal_state@?1??_mbtowc_l@@9@4U_Mbstatet@@A 000000018002be68     libucrt:mbtowc.obj
 0003:00001e74       ?__acrt_global_new_mode@@3V?$dual_state_global@J@__crt_state_management@@A 000000018002be74     libucrt:new_mode.obj
 0003:00001e80       ?__acrt_app_type@@3W4_crt_app_type@@A 000000018002be80     libucrt:report_runtime_error.obj
 0003:00001e88       ?internal_pst@?1??__mbrtoc32_utf8@__crt_mbstring@@YA_KPEA_UPEBD_KPEAU_Mbstatet@@@Z@4U3@A 000000018002be88     libucrt:mbrtoc32.obj
 0003:00002180       ?kbl@?BE@??GetOpenPanelInfo@NetBrowser@@QEAAXPEAUOpenPanelInfo@@@Z@4PAUKeyBarLabel@@A 000000018002c180     NetClass.obj
 0003:00002350       ?kbl@?BN@??GetOpenPanelInfo@NetBrowser@@QEAAXPEAUOpenPanelInfo@@@Z@4PAUKeyBarLabel@@A 000000018002c350     NetClass.obj
 0003:00002540       ?PluginMenuStrings@?1??GetPluginInfoW@@9@4PAPEB_WA 000000018002c540     Network.obj
 0003:00002548       ?DiskMenuStrings@?4??GetPluginInfoW@@9@4PAPEB_WA 000000018002c548     Network.obj
 0003:00002550       ?CurDir@?8??GetOpenPanelInfo@NetBrowser@@QEAAXPEAUOpenPanelInfo@@@Z@4PA_WA 000000018002c550     NetClass.obj
 0003:00002760       ?PanelModesArray@?1??GetOpenPanelInfo@NetBrowser@@QEAAXPEAUOpenPanelInfo@@@Z@4PAUPanelMode@@A 000000018002c760     NetClass.obj
 0003:00002940       ?LastPassword@?1??GetNameAndPassword@NetBrowser@@CA_NPEAUNameAndPassInfo@@@Z@4PA_WA 000000018002c940     NetClass.obj
 0003:00002b40       ?Title@?1??GetOpenPanelInfo@NetBrowser@@QEAAXPEAUOpenPanelInfo@@@Z@4PA_WA 000000018002cb40     NetClass.obj
 0003:00002d50       ?LastName@?1??GetNameAndPassword@NetBrowser@@CA_NPEAUNameAndPassInfo@@@Z@4PA_WA 000000018002cd50     NetClass.obj
 0003:00002f50       ?ColumnTitles@?1??GetOpenPanelInfo@NetBrowser@@QEAAXPEAUOpenPanelInfo@@@Z@4PAPEB_WA 000000018002cf50     NetClass.obj
 0005:00000060       $R000000                   000000018002f060     Network.res
