 sqlite3

 Timestamp is 6611e39c (Sun Apr  7 01:06:52 2024)

 Preferred load address is 0000000180000000

 Start         Length     Name                   Class
 0001:00000000 000e6dd0H .text$mn                CODE
 0001:000e6dd0 00000040H .text$mn$00             CODE
 0001:000e6e10 00000630H .text$x                 CODE
 0002:00000000 00000370H .idata$5                DATA
 0002:00000370 00000028H .00cfg                  DATA
 0002:00000398 00000008H .CRT$XCA                DATA
 0002:000003a0 00000008H .CRT$XCZ                DATA
 0002:000003a8 00000008H .CRT$XIA                DATA
 0002:000003b0 00000020H .CRT$XIC                DATA
 0002:000003d0 00000008H .CRT$XIZ                DATA
 0002:000003d8 00000008H .CRT$XPA                DATA
 0002:000003e0 00000010H .CRT$XPX                DATA
 0002:000003f0 00000008H .CRT$XPXA               DATA
 0002:000003f8 00000008H .CRT$XPZ                DATA
 0002:00000400 00000008H .CRT$XTA                DATA
 0002:00000408 00000008H .CRT$XTZ                DATA
 0002:00000410 00000000H .gehcont$y              DATA
 0002:00000410 00000000H .gfids$y                DATA
 0002:00000410 00015d70H .rdata                  DATA
 0002:00016180 00000000H .rdata$CastGuardVftablesA DATA
 0002:00016180 00000000H .rdata$CastGuardVftablesC DATA
 0002:00016180 00000000H .rdata$r                DATA
 0002:00016180 000002ecH .rdata$voltmd           DATA
 0002:0001646c 000002dcH .rdata$zzzdbg           DATA
 0002:00016748 00000008H .rtc$IAA                DATA
 0002:00016750 00000008H .rtc$IZZ                DATA
 0002:00016758 00000008H .rtc$TAA                DATA
 0002:00016760 00000008H .rtc$TZZ                DATA
 0002:00016768 0000bc58H .xdata                  DATA
 0002:000223c0 00000000H .xdata$x                DATA
 0002:000223c0 00000100H _RDATA                  DATA
 0002:000224c0 000022b8H .edata                  DATA
 0002:00024778 00000014H .idata$2                DATA
 0002:0002478c 00000014H .idata$3                DATA
 0002:000247a0 00000370H .idata$4                DATA
 0002:00024b10 000007e8H .idata$6                DATA
 0003:00000000 000043b0H .data                   DATA
 0003:000043b0 00000000H .data$r                 DATA
 0003:000043b0 00000000H .data$rs                DATA
 0003:000043b0 00001758H .bss                    DATA
 0004:00000000 00009ff0H .pdata                  DATA
 0005:00000000 00000060H .rsrc$01                DATA
 0005:00000060 00000450H .rsrc$02                DATA

  Address         Publics by Value              Rva+Base               Lib:Object

 0000:00000000       __arm64x_redirection_metadata 0000000000000000     <absolute>
 0000:00000000       __guard_iat_table          0000000000000000     <absolute>
 0000:00000000       ___safe_se_handler_table   0000000000000000     <absolute>
 0000:00000000       __guard_iat_count          0000000000000000     <absolute>
 0000:00000000       __guard_longjmp_count      0000000000000000     <absolute>
 0000:00000000       __dynamic_value_reloc_table 0000000000000000     <absolute>
 0000:00000000       __guard_longjmp_table      0000000000000000     <absolute>
 0000:00000000       __x64_code_ranges_to_entry_points 0000000000000000     <absolute>
 0000:00000000       __hybrid_auxiliary_iat     0000000000000000     <absolute>
 0000:00000000       __hybrid_auxiliary_iat_copy 0000000000000000     <absolute>
 0000:00000000       __x64_code_ranges_to_entry_points_count 0000000000000000     <absolute>
 0000:00000000       __guard_fids_count         0000000000000000     <absolute>
 0000:00000000       __arm64x_extra_rfe_table   0000000000000000     <absolute>
 0000:00000000       __AbsoluteZero             0000000000000000     <absolute>
 0000:00000000       __hybrid_code_map          0000000000000000     <absolute>
 0000:00000000       __guard_check_icall_a64n_fptr 0000000000000000     <absolute>
 0000:00000000       __arm64x_extra_rfe_table_size 0000000000000000     <absolute>
 0000:00000000       ___safe_se_handler_count   0000000000000000     <absolute>
 0000:00000000       __guard_fids_table         0000000000000000     <absolute>
 0000:00000000       __guard_eh_cont_count      0000000000000000     <absolute>
 0000:00000000       __arm64x_redirection_metadata_count 0000000000000000     <absolute>
 0000:00000000       __enclave_config           0000000000000000     <absolute>
 0000:00000000       __guard_eh_cont_table      0000000000000000     <absolute>
 0000:00000000       __arm64x_native_entrypoint 0000000000000000     <absolute>
 0000:00000000       __hybrid_code_map_count    0000000000000000     <absolute>
 0000:00000100       __guard_flags              0000000000000100     <absolute>
 0000:00000000       __ImageBase                0000000180000000     <linker-defined>
 0001:00000000       sqlite3_status64           0000000180001000 f   sqlite.obj
 0001:000000e0       sqlite3_status             00000001800010e0 f   sqlite.obj
 0001:000002a0       sqlite3_db_status          00000001800012a0 f   sqlite.obj
 0001:000049a0       sqlite3_vfs_find           00000001800059a0 f   sqlite.obj
 0001:00004a60       sqlite3_vfs_register       0000000180005a60 f   sqlite.obj
 0001:00004b40       sqlite3_vfs_unregister     0000000180005b40 f   sqlite.obj
 0001:00004cc0       sqlite3_release_memory     0000000180005cc0 f   sqlite.obj
 0001:00004cc0       sqlite3_memory_alarm       0000000180005cc0 f   sqlite.obj
 0001:00004cc0       sqlite3_global_recover     0000000180005cc0 f   sqlite.obj
 0001:00004cd0       sqlite3_thread_cleanup     0000000180005cd0 f   sqlite.obj
 0001:00004cd0       _guard_check_icall_nop     0000000180005cd0 f   LIBCMT:guard_support.obj
 0001:00004d80       sqlite3_mutex_alloc        0000000180005d80 f   sqlite.obj
 0001:00004dc0       sqlite3_mutex_free         0000000180005dc0 f   sqlite.obj
 0001:00004dd0       sqlite3_mutex_enter        0000000180005dd0 f   sqlite.obj
 0001:00004de0       sqlite3_mutex_try          0000000180005de0 f   sqlite.obj
 0001:00004df0       sqlite3_mutex_leave        0000000180005df0 f   sqlite.obj
 0001:00005040       sqlite3_soft_heap_limit64  0000000180006040 f   sqlite.obj
 0001:00005120       sqlite3_soft_heap_limit    0000000180006120 f   sqlite.obj
 0001:00005130       sqlite3_hard_heap_limit64  0000000180006130 f   sqlite.obj
 0001:000051c0       sqlite3_memory_used        00000001800061c0 f   sqlite.obj
 0001:00005210       sqlite3_memory_highwater   0000000180006210 f   sqlite.obj
 0001:00005430       sqlite3_malloc             0000000180006430 f   sqlite.obj
 0001:00005460       sqlite3_malloc64           0000000180006460 f   sqlite.obj
 0001:00005490       sqlite3_msize              0000000180006490 f   sqlite.obj
 0001:000054b0       sqlite3_free               00000001800064b0 f   sqlite.obj
 0001:00005930       sqlite3_realloc            0000000180006930 f   sqlite.obj
 0001:00005980       sqlite3_realloc64          0000000180006980 f   sqlite.obj
 0001:000061d0       sqlite3_str_vappendf       00000001800071d0 f   sqlite.obj
 0001:000080e0       sqlite3_str_appendchar     00000001800090e0 f   sqlite.obj
 0001:00008190       sqlite3_str_append         0000000180009190 f   sqlite.obj
 0001:000081c0       sqlite3_str_appendall      00000001800091c0 f   sqlite.obj
 0001:00008440       sqlite3_str_finish         0000000180009440 f   sqlite.obj
 0001:00008520       sqlite3_str_errcode        0000000180009520 f   sqlite.obj
 0001:00008530       sqlite3_str_length         0000000180009530 f   sqlite.obj
 0001:00008540       sqlite3_str_value          0000000180009540 f   sqlite.obj
 0001:00008560       sqlite3_str_reset          0000000180009560 f   sqlite.obj
 0001:000085a0       sqlite3_str_new            00000001800095a0 f   sqlite.obj
 0001:00008700       sqlite3_vmprintf           0000000180009700 f   sqlite.obj
 0001:000087d0       sqlite3_mprintf            00000001800097d0 f   sqlite.obj
 0001:00008810       sqlite3_vsnprintf          0000000180009810 f   sqlite.obj
 0001:00008860       sqlite3_snprintf           0000000180009860 f   sqlite.obj
 0001:000088c0       sqlite3_log                00000001800098c0 f   sqlite.obj
 0001:00008990       sqlite3_str_appendf        0000000180009990 f   sqlite.obj
 0001:00008d90       sqlite3_randomness         0000000180009d90 f   sqlite.obj
 0001:00009ba0       sqlite3_stricmp            000000018000aba0 f   sqlite.obj
 0001:00009c30       sqlite3_strnicmp           000000018000ac30 f   sqlite.obj
 0001:0000c300       sqlite3_win32_write_debug  000000018000d300 f   sqlite.obj
 0001:0000c3b0       sqlite3_win32_sleep        000000018000d3b0 f   sqlite.obj
 0001:0000c3c0       _get_startup_argv_mode     000000018000d3c0 f   LIBCMT:argv_mode.obj
 0001:0000c3c0       sqlite3_win32_is_nt        000000018000d3c0 f   sqlite.obj
 0001:0000c3c0       DllMain                    000000018000d3c0 f   LIBCMT:dll_dllmain_stub.obj
 0001:0000c3c0       sqlite3_threadsafe         000000018000d3c0 f   sqlite.obj
 0001:0000c7c0       sqlite3_win32_utf8_to_unicode 000000018000d7c0 f   sqlite.obj
 0001:0000c7f0       sqlite3_win32_unicode_to_utf8 000000018000d7f0 f   sqlite.obj
 0001:0000c820       sqlite3_win32_mbcs_to_utf8 000000018000d820 f   sqlite.obj
 0001:0000c850       sqlite3_win32_mbcs_to_utf8_v2 000000018000d850 f   sqlite.obj
 0001:0000c890       sqlite3_win32_utf8_to_mbcs 000000018000d890 f   sqlite.obj
 0001:0000c8c0       sqlite3_win32_utf8_to_mbcs_v2 000000018000d8c0 f   sqlite.obj
 0001:0000c900       sqlite3_win32_set_directory8 000000018000d900 f   sqlite.obj
 0001:0000ca40       sqlite3_win32_set_directory16 000000018000da40 f   sqlite.obj
 0001:0000cb20       sqlite3_win32_set_directory 000000018000db20 f   sqlite.obj
 0001:00010960       sqlite3_os_init            0000000180011960 f   sqlite.obj
 0001:00010ca0       sqlite3_os_end             0000000180011ca0 f   sqlite.obj
 0001:00011900       sqlite3_serialize          0000000180012900 f   sqlite.obj
 0001:000124b0       sqlite3_deserialize        00000001800134b0 f   sqlite.obj
 0001:00014860       sqlite3_backup_pagecount   0000000180015860 f   sqlite.obj
 0001:00019580       sqlite3_database_file_object 000000018001a580 f   sqlite.obj
 0001:0001f930       sqlite3_enable_shared_cache 0000000180020930 f   sqlite.obj
 0001:0002f050       sqlite3_backup_init        0000000180030050 f   sqlite.obj
 0001:0002f3a0       sqlite3_backup_step        00000001800303a0 f   sqlite.obj
 0001:0002fb20       sqlite3_backup_finish      0000000180030b20 f   sqlite.obj
 0001:0002fca0       sqlite3_backup_remaining   0000000180030ca0 f   sqlite.obj
 0001:00030720       sqlite3_value_int64        0000000180031720 f   sqlite.obj
 0001:00030720       sqlite3_value_int          0000000180031720 f   sqlite.obj
 0001:000307b0       sqlite3_value_double       00000001800317b0 f   sqlite.obj
 0001:000386c0       sqlite3_expired            00000001800396c0 f   sqlite.obj
 0001:000387a0       sqlite3_finalize           00000001800397a0 f   sqlite.obj
 0001:00038880       sqlite3_reset              0000000180039880 f   sqlite.obj
 0001:00038940       sqlite3_clear_bindings     0000000180039940 f   sqlite.obj
 0001:00038a10       sqlite3_value_blob         0000000180039a10 f   sqlite.obj
 0001:00038a90       sqlite3_value_bytes        0000000180039a90 f   sqlite.obj
 0001:00038ad0       sqlite3_value_bytes16      0000000180039ad0 f   sqlite.obj
 0001:00038b10       sqlite3_value_subtype      0000000180039b10 f   sqlite.obj
 0001:00038b30       sqlite3_value_pointer      0000000180039b30 f   sqlite.obj
 0001:00038b80       sqlite3_value_text         0000000180039b80 f   sqlite.obj
 0001:00038bc0       sqlite3_value_text16le     0000000180039bc0 f   sqlite.obj
 0001:00038bc0       sqlite3_value_text16       0000000180039bc0 f   sqlite.obj
 0001:00038c00       sqlite3_value_text16be     0000000180039c00 f   sqlite.obj
 0001:00038c40       sqlite3_value_type         0000000180039c40 f   sqlite.obj
 0001:00038c60       sqlite3_value_encoding     0000000180039c60 f   sqlite.obj
 0001:00038c70       sqlite3_value_nochange     0000000180039c70 f   sqlite.obj
 0001:00038c90       sqlite3_value_frombind     0000000180039c90 f   sqlite.obj
 0001:00038ca0       sqlite3_value_dup          0000000180039ca0 f   sqlite.obj
 0001:00038e80       sqlite3_value_free         0000000180039e80 f   sqlite.obj
 0001:00039050       sqlite3_result_blob        000000018003a050 f   sqlite.obj
 0001:00039070       sqlite3_result_blob64      000000018003a070 f   sqlite.obj
 0001:000390e0       sqlite3_result_double      000000018003a0e0 f   sqlite.obj
 0001:000390f0       sqlite3_result_error       000000018003a0f0 f   sqlite.obj
 0001:00039120       sqlite3_result_error16     000000018003a120 f   sqlite.obj
 0001:00039150       sqlite3_result_int         000000018003a150 f   sqlite.obj
 0001:00039180       sqlite3_result_int64       000000018003a180 f   sqlite.obj
 0001:000391b0       sqlite3_result_null        000000018003a1b0 f   sqlite.obj
 0001:000391d0       sqlite3_result_pointer     000000018003a1d0 f   sqlite.obj
 0001:00039270       sqlite3_result_subtype     000000018003a270 f   sqlite.obj
 0001:00039280       sqlite3_result_text        000000018003a280 f   sqlite.obj
 0001:000392a0       sqlite3_result_text64      000000018003a2a0 f   sqlite.obj
 0001:00039330       sqlite3_result_text16      000000018003a330 f   sqlite.obj
 0001:00039330       sqlite3_result_text16le    000000018003a330 f   sqlite.obj
 0001:00039350       sqlite3_result_text16be    000000018003a350 f   sqlite.obj
 0001:00039370       sqlite3_result_value       000000018003a370 f   sqlite.obj
 0001:00039400       sqlite3_result_zeroblob    000000018003a400 f   sqlite.obj
 0001:00039410       sqlite3_result_zeroblob64  000000018003a410 f   sqlite.obj
 0001:000394b0       sqlite3_result_error_code  000000018003a4b0 f   sqlite.obj
 0001:00039550       sqlite3_result_error_toobig 000000018003a550 f   sqlite.obj
 0001:00039590       sqlite3_result_error_nomem 000000018003a590 f   sqlite.obj
 0001:00039ae0       sqlite3_step               000000018003aae0 f   sqlite.obj
 0001:0003a070       sqlite3_user_data          000000018003b070 f   sqlite.obj
 0001:0003a080       sqlite3_context_db_handle  000000018003b080 f   sqlite.obj
 0001:0003a090       sqlite3_vtab_nochange      000000018003b090 f   sqlite.obj
 0001:0003a330       sqlite3_vtab_in_first      000000018003b330 f   sqlite.obj
 0001:0003a340       sqlite3_vtab_in_next       000000018003b340 f   sqlite.obj
 0001:0003a430       sqlite3_aggregate_context  000000018003b430 f   sqlite.obj
 0001:0003a450       sqlite3_get_auxdata        000000018003b450 f   sqlite.obj
 0001:0003a490       sqlite3_set_auxdata        000000018003b490 f   sqlite.obj
 0001:0003a580       sqlite3_aggregate_count    000000018003b580 f   sqlite.obj
 0001:0003a590       sqlite3_column_count       000000018003b590 f   sqlite.obj
 0001:0003a5a0       sqlite3_data_count         000000018003b5a0 f   sqlite.obj
 0001:0003a5c0       sqlite3_column_blob        000000018003b5c0 f   sqlite.obj
 0001:0003a680       sqlite3_column_bytes       000000018003b680 f   sqlite.obj
 0001:0003a770       sqlite3_column_bytes16     000000018003b770 f   sqlite.obj
 0001:0003a870       sqlite3_column_double      000000018003b870 f   sqlite.obj
 0001:0003a960       sqlite3_column_int         000000018003b960 f   sqlite.obj
 0001:0003aa80       sqlite3_column_int64       000000018003ba80 f   sqlite.obj
 0001:0003aba0       sqlite3_column_text        000000018003bba0 f   sqlite.obj
 0001:0003ac90       sqlite3_column_value       000000018003bc90 f   sqlite.obj
 0001:0003ad60       sqlite3_column_text16      000000018003bd60 f   sqlite.obj
 0001:0003ae50       sqlite3_column_type        000000018003be50 f   sqlite.obj
 0001:0003b0d0       sqlite3_column_name        000000018003c0d0 f   sqlite.obj
 0001:0003b0e0       sqlite3_column_name16      000000018003c0e0 f   sqlite.obj
 0001:0003b0f0       sqlite3_column_decltype    000000018003c0f0 f   sqlite.obj
 0001:0003b100       sqlite3_column_decltype16  000000018003c100 f   sqlite.obj
 0001:0003b3e0       sqlite3_bind_blob          000000018003c3e0 f   sqlite.obj
 0001:0003b4b0       sqlite3_bind_blob64        000000018003c4b0 f   sqlite.obj
 0001:0003b580       sqlite3_bind_double        000000018003c580 f   sqlite.obj
 0001:0003b5f0       sqlite3_bind_int           000000018003c5f0 f   sqlite.obj
 0001:0003b600       sqlite3_bind_int64         000000018003c600 f   sqlite.obj
 0001:0003b690       sqlite3_bind_null          000000018003c690 f   sqlite.obj
 0001:0003b6d0       sqlite3_bind_pointer       000000018003c6d0 f   sqlite.obj
 0001:0003b7a0       sqlite3_bind_text          000000018003c7a0 f   sqlite.obj
 0001:0003b7c0       sqlite3_bind_text64        000000018003c7c0 f   sqlite.obj
 0001:0003b7f0       sqlite3_bind_text16        000000018003c7f0 f   sqlite.obj
 0001:0003b820       sqlite3_bind_value         000000018003c820 f   sqlite.obj
 0001:0003b930       sqlite3_bind_zeroblob      000000018003c930 f   sqlite.obj
 0001:0003b9d0       sqlite3_bind_zeroblob64    000000018003c9d0 f   sqlite.obj
 0001:0003ba60       sqlite3_bind_parameter_count 000000018003ca60 f   sqlite.obj
 0001:0003ba70       sqlite3_bind_parameter_name 000000018003ca70 f   sqlite.obj
 0001:0003bab0       sqlite3_bind_parameter_index 000000018003cab0 f   sqlite.obj
 0001:0003bc00       sqlite3_transfer_bindings  000000018003cc00 f   sqlite.obj
 0001:0003bc50       sqlite3_db_handle          000000018003cc50 f   sqlite.obj
 0001:0003bc60       sqlite3_stmt_readonly      000000018003cc60 f   sqlite.obj
 0001:0003bc80       sqlite3_stmt_isexplain     000000018003cc80 f   sqlite.obj
 0001:0003bca0       sqlite3_stmt_explain       000000018003cca0 f   sqlite.obj
 0001:0003bde0       sqlite3_stmt_busy          000000018003cde0 f   sqlite.obj
 0001:0003be00       sqlite3_next_stmt          000000018003ce00 f   sqlite.obj
 0001:0003be50       sqlite3_stmt_status        000000018003ce50 f   sqlite.obj
 0001:0003bf00       sqlite3_sql                000000018003cf00 f   sqlite.obj
 0001:0003bf10       sqlite3_expanded_sql       000000018003cf10 f   sqlite.obj
 0001:0003c800       sqlite3_value_numeric_type 000000018003d800 f   sqlite.obj
 0001:00043f10       sqlite3_blob_open          0000000180044f10 f   sqlite.obj
 0001:00044830       sqlite3_blob_close         0000000180045830 f   sqlite.obj
 0001:00044a30       sqlite3_blob_read          0000000180045a30 f   sqlite.obj
 0001:00044a50       sqlite3_blob_write         0000000180045a50 f   sqlite.obj
 0001:00044a70       sqlite3_blob_bytes         0000000180045a70 f   sqlite.obj
 0001:00044a90       sqlite3_blob_reopen        0000000180045a90 f   sqlite.obj
 0001:00061a00       sqlite3_set_authorizer     0000000180062a00 f   sqlite.obj
 0001:000716a0       sqlite3_strglob            00000001800726a0 f   sqlite.obj
 0001:000716d0       sqlite3_strlike            00000001800726d0 f   sqlite.obj
 0001:0007faa0       sqlite3_exec               0000000180080aa0 f   sqlite.obj
 0001:00080b00       sqlite3_load_extension     0000000180081b00 f   sqlite.obj
 0001:00080b80       sqlite3_enable_load_extension 0000000180081b80 f   sqlite.obj
 0001:00080be0       sqlite3_auto_extension     0000000180081be0 f   sqlite.obj
 0001:00080cd0       sqlite3_cancel_auto_extension 0000000180081cd0 f   sqlite.obj
 0001:00080d70       sqlite3_reset_auto_extension 0000000180081d70 f   sqlite.obj
 0001:000884f0       sqlite3_prepare            00000001800894f0 f   sqlite.obj
 0001:00088520       sqlite3_prepare_v2         0000000180089520 f   sqlite.obj
 0001:00088550       sqlite3_prepare_v3         0000000180089550 f   sqlite.obj
 0001:00088770       sqlite3_prepare16          0000000180089770 f   sqlite.obj
 0001:00088790       sqlite3_prepare16_v2       0000000180089790 f   sqlite.obj
 0001:000887c0       sqlite3_prepare16_v3       00000001800897c0 f   sqlite.obj
 0001:0009a170       sqlite3_get_table          000000018009b170 f   sqlite.obj
 0001:0009a430       sqlite3_free_table         000000018009b430 f   sqlite.obj
 0001:000a3c10       sqlite3_create_module      00000001800a4c10 f   sqlite.obj
 0001:000a3ca0       sqlite3_create_module_v2   00000001800a4ca0 f   sqlite.obj
 0001:000a3d40       sqlite3_drop_modules       00000001800a4d40 f   sqlite.obj
 0001:000a4f30       sqlite3_declare_vtab       00000001800a5f30 f   sqlite.obj
 0001:000a5c60       sqlite3_vtab_on_conflict   00000001800a6c60 f   sqlite.obj
 0001:000a5c80       sqlite3_vtab_config        00000001800a6c80 f   sqlite.obj
 0001:000b5450       sqlite3_vtab_collation     00000001800b6450 f   sqlite.obj
 0001:000b54b0       sqlite3_vtab_in            00000001800b64b0 f   sqlite.obj
 0001:000b54f0       sqlite3_vtab_rhs_value     00000001800b64f0 f   sqlite.obj
 0001:000b55e0       sqlite3_vtab_distinct      00000001800b65e0 f   sqlite.obj
 0001:000c5dc0       sqlite3_keyword_name       00000001800c6dc0 f   sqlite.obj
 0001:000c5e00       sqlite3_keyword_count      00000001800c6e00 f   sqlite.obj
 0001:000c5e10       sqlite3_keyword_check      00000001800c6e10 f   sqlite.obj
 0001:000c6c50       sqlite3_complete           00000001800c7c50 f   sqlite.obj
 0001:000c71d0       sqlite3_complete16         00000001800c81d0 f   sqlite.obj
 0001:000c73c0       sqlite3_libversion         00000001800c83c0 f   sqlite.obj
 0001:000c73d0       sqlite3_libversion_number  00000001800c83d0 f   sqlite.obj
 0001:000c73e0       sqlite3_initialize         00000001800c83e0 f   sqlite.obj
 0001:000c7980       sqlite3_shutdown           00000001800c8980 f   sqlite.obj
 0001:000c7a30       sqlite3_config             00000001800c8a30 f   sqlite.obj
 0001:000c81a0       sqlite3_db_mutex           00000001800c91a0 f   sqlite.obj
 0001:000c81b0       sqlite3_db_release_memory  00000001800c91b0 f   sqlite.obj
 0001:000c8260       sqlite3_db_cacheflush      00000001800c9260 f   sqlite.obj
 0001:000c8370       sqlite3_db_config          00000001800c9370 f   sqlite.obj
 0001:000c8620       sqlite3_last_insert_rowid  00000001800c9620 f   sqlite.obj
 0001:000c8630       sqlite3_set_last_insert_rowid 00000001800c9630 f   sqlite.obj
 0001:000c8670       sqlite3_changes64          00000001800c9670 f   sqlite.obj
 0001:000c8680       sqlite3_changes            00000001800c9680 f   sqlite.obj
 0001:000c8690       sqlite3_total_changes64    00000001800c9690 f   sqlite.obj
 0001:000c86a0       sqlite3_total_changes      00000001800c96a0 f   sqlite.obj
 0001:000c8a90       sqlite3_txn_state          00000001800c9a90 f   sqlite.obj
 0001:000c8b40       sqlite3_close              00000001800c9b40 f   sqlite.obj
 0001:000c8b50       sqlite3_close_v2           00000001800c9b50 f   sqlite.obj
 0001:000c95b0       sqlite3_errstr             00000001800ca5b0 f   sqlite.obj
 0001:000c9680       sqlite3_busy_handler       00000001800ca680 f   sqlite.obj
 0001:000c96f0       sqlite3_progress_handler   00000001800ca6f0 f   sqlite.obj
 0001:000c9770       sqlite3_busy_timeout       00000001800ca770 f   sqlite.obj
 0001:000c9820       sqlite3_interrupt          00000001800ca820 f   sqlite.obj
 0001:000c9830       sqlite3_is_interrupted     00000001800ca830 f   sqlite.obj
 0001:000c9d30       sqlite3_create_function    00000001800cad30 f   sqlite.obj
 0001:000c9d80       sqlite3_create_function_v2 00000001800cad80 f   sqlite.obj
 0001:000c9de0       sqlite3_create_window_function 00000001800cade0 f   sqlite.obj
 0001:000c9e50       sqlite3_create_function16  00000001800cae50 f   sqlite.obj
 0001:000ca010       sqlite3_overload_function  00000001800cb010 f   sqlite.obj
 0001:000ca100       sqlite3_trace              00000001800cb100 f   sqlite.obj
 0001:000ca180       sqlite3_trace_v2           00000001800cb180 f   sqlite.obj
 0001:000ca200       sqlite3_profile            00000001800cb200 f   sqlite.obj
 0001:000ca280       sqlite3_commit_hook        00000001800cb280 f   sqlite.obj
 0001:000ca2f0       sqlite3_update_hook        00000001800cb2f0 f   sqlite.obj
 0001:000ca360       sqlite3_rollback_hook      00000001800cb360 f   sqlite.obj
 0001:000ca3d0       sqlite3_autovacuum_pages   00000001800cb3d0 f   sqlite.obj
 0001:000ca4b0       sqlite3_wal_autocheckpoint 00000001800cb4b0 f   sqlite.obj
 0001:000ca540       sqlite3_wal_hook           00000001800cb540 f   sqlite.obj
 0001:000ca5b0       sqlite3_wal_checkpoint_v2  00000001800cb5b0 f   sqlite.obj
 0001:000ca710       sqlite3_wal_checkpoint     00000001800cb710 f   sqlite.obj
 0001:000ca900       sqlite3_errmsg             00000001800cb900 f   sqlite.obj
 0001:000caa20       sqlite3_error_offset       00000001800cba20 f   sqlite.obj
 0001:000caaa0       sqlite3_errmsg16           00000001800cbaa0 f   sqlite.obj
 0001:000cac20       sqlite3_errcode            00000001800cbc20 f   sqlite.obj
 0001:000caca0       sqlite3_extended_errcode   00000001800cbca0 f   sqlite.obj
 0001:000cad20       sqlite3_system_errno       00000001800cbd20 f   sqlite.obj
 0001:000caf50       sqlite3_limit              00000001800cbf50 f   sqlite.obj
 0001:000cbfe0       sqlite3_open               00000001800ccfe0 f   sqlite.obj
 0001:000cbff0       sqlite3_open_v2            00000001800ccff0 f   sqlite.obj
 0001:000cc000       sqlite3_open16             00000001800cd000 f   sqlite.obj
 0001:000cc1f0       sqlite3_create_collation   00000001800cd1f0 f   sqlite.obj
 0001:000cc220       sqlite3_create_collation_v2 00000001800cd220 f   sqlite.obj
 0001:000cc2c0       sqlite3_create_collation16 00000001800cd2c0 f   sqlite.obj
 0001:000cc380       sqlite3_collation_needed   00000001800cd380 f   sqlite.obj
 0001:000cc3f0       sqlite3_collation_needed16 00000001800cd3f0 f   sqlite.obj
 0001:000cc460       sqlite3_get_clientdata     00000001800cd460 f   sqlite.obj
 0001:000cc500       sqlite3_set_clientdata     00000001800cd500 f   sqlite.obj
 0001:000cc6c0       sqlite3_get_autocommit     00000001800cd6c0 f   sqlite.obj
 0001:000cc7c0       sqlite3_table_column_metadata 00000001800cd7c0 f   sqlite.obj
 0001:000ccc40       sqlite3_sleep              00000001800cdc40 f   sqlite.obj
 0001:000cccf0       sqlite3_extended_result_codes 00000001800cdcf0 f   sqlite.obj
 0001:000ccd40       sqlite3_file_control       00000001800cdd40 f   sqlite.obj
 0001:000ccf20       sqlite3_test_control       00000001800cdf20 f   sqlite.obj
 0001:000cd490       sqlite3_create_filename    00000001800ce490 f   sqlite.obj
 0001:000cd630       sqlite3_free_filename      00000001800ce630 f   sqlite.obj
 0001:000cd6e0       sqlite3_uri_parameter      00000001800ce6e0 f   sqlite.obj
 0001:000cd7c0       sqlite3_uri_key            00000001800ce7c0 f   sqlite.obj
 0001:000cd890       sqlite3_uri_boolean        00000001800ce890 f   sqlite.obj
 0001:000cd8e0       sqlite3_uri_int64          00000001800ce8e0 f   sqlite.obj
 0001:000cd920       sqlite3_filename_database  00000001800ce920 f   sqlite.obj
 0001:000cd950       sqlite3_filename_journal   00000001800ce950 f   sqlite.obj
 0001:000cd9f0       sqlite3_filename_wal       00000001800ce9f0 f   sqlite.obj
 0001:000cdaa0       sqlite3_db_name            00000001800ceaa0 f   sqlite.obj
 0001:000cdac0       sqlite3_db_filename        00000001800ceac0 f   sqlite.obj
 0001:000cdb30       sqlite3_db_readonly        00000001800ceb30 f   sqlite.obj
 0001:000cdb80       sqlite3_compileoption_used 00000001800ceb80 f   sqlite.obj
 0001:000cdd00       sqlite3_compileoption_get  00000001800ced00 f   sqlite.obj
 0001:000d86f0       sqlite3_sourceid           00000001800d96f0 f   sqlite.obj
 0001:000d8700       Wrapper_InitializeCriticalSectionEx 00000001800d9700 f   vc_crt_fix_impl.obj
 0001:000d87d0       Wrapper_CompareStringEx    00000001800d97d0 f   vc_crt_fix_impl.obj
 0001:000d8880       Wrapper_LCMapStringEx      00000001800d9880 f   vc_crt_fix_impl.obj
 0001:000d8930       Wrapper_SleepConditionVariableSRW 00000001800d9930 f   vc_crt_fix_impl.obj
 0001:000d89f0       Wrapper_WakeAllConditionVariable 00000001800d99f0 f   vc_crt_fix_impl.obj
 0001:000d8a80       Wrapper_AcquireSRWLockExclusive 00000001800d9a80 f   vc_crt_fix_impl.obj
 0001:000d8b00       Wrapper_ReleaseSRWLockExclusive 00000001800d9b00 f   vc_crt_fix_impl.obj
 0001:000d8b90       __security_check_cookie    00000001800d9b90 f   LIBCMT:amdsecgs.obj
 0001:000d8bb0       __raise_securityfailure    00000001800d9bb0 f   LIBCMT:gs_report.obj
 0001:000d8be4       __report_gsfailure         00000001800d9be4 f   LIBCMT:gs_report.obj
 0001:000d8cb8       __report_rangecheckfailure 00000001800d9cb8 f   LIBCMT:gs_report.obj
 0001:000d8ccc       __report_securityfailure   00000001800d9ccc f   LIBCMT:gs_report.obj
 0001:000d916c       _DllMainCRTStartup         00000001800da16c f   LIBCMT:dll_dllmain.obj
 0001:000d91ac       __security_init_cookie     00000001800da1ac f   LIBCMT:gs_support.obj
 0001:000d9258       ?__scrt_initialize_type_info@@YAXXZ 00000001800da258 f   LIBCMT:tncleanup.obj
 0001:000d9268       ?__scrt_uninitialize_type_info@@YAXXZ 00000001800da268 f   LIBCMT:tncleanup.obj
 0001:000d9274       __local_stdio_printf_options 00000001800da274 f i LIBCMT:default_local_stdio_options.obj
 0001:000d927c       __local_stdio_scanf_options 00000001800da27c f i LIBCMT:default_local_stdio_options.obj
 0001:000d9284       __scrt_initialize_default_local_stdio_options 00000001800da284 f   LIBCMT:default_local_stdio_options.obj
 0001:000d92a0       __scrt_acquire_startup_lock 00000001800da2a0 f   LIBCMT:utility.obj
 0001:000d92dc       __scrt_dllmain_after_initialize_c 00000001800da2dc f   LIBCMT:utility.obj
 0001:000d9310       __scrt_dllmain_before_initialize_c 00000001800da310 f   LIBCMT:utility.obj
 0001:000d9328       __scrt_dllmain_crt_thread_attach 00000001800da328 f   LIBCMT:utility.obj
 0001:000d9350       __scrt_dllmain_crt_thread_detach 00000001800da350 f   LIBCMT:utility.obj
 0001:000d9368       __scrt_dllmain_exception_filter 00000001800da368 f   LIBCMT:utility.obj
 0001:000d93c8       __scrt_dllmain_uninitialize_c 00000001800da3c8 f   LIBCMT:utility.obj
 0001:000d93f8       __scrt_dllmain_uninitialize_critical 00000001800da3f8 f   LIBCMT:utility.obj
 0001:000d940c       __scrt_initialize_crt      00000001800da40c f   LIBCMT:utility.obj
 0001:000d9458       __scrt_initialize_onexit_tables 00000001800da458 f   LIBCMT:utility.obj
 0001:000d94e4       __scrt_is_nonwritable_in_current_image 00000001800da4e4 f   LIBCMT:utility.obj
 0001:000d957c       __scrt_release_startup_lock 00000001800da57c f   LIBCMT:utility.obj
 0001:000d95a0       __scrt_uninitialize_crt    00000001800da5a0 f   LIBCMT:utility.obj
 0001:000d95cc       __scrt_get_dyn_tls_init_callback 00000001800da5cc f   LIBCMT:dyn_tls_init.obj
 0001:000d95d4       __crt_debugger_hook        00000001800da5d4 f   LIBCMT:utility_desktop.obj
 0001:000d95dc       __scrt_fastfail            00000001800da5dc f   LIBCMT:utility_desktop.obj
 0001:000d9728       _RTC_Initialize            00000001800da728 f   LIBCMT:initsect.obj
 0001:000d9764       _RTC_Terminate             00000001800da764 f   LIBCMT:initsect.obj
 0001:000d97a0       __isa_available_init       00000001800da7a0 f   LIBCMT:cpu_disp.obj
 0001:000d9944       __scrt_is_ucrt_dll_in_use  00000001800da944 f   LIBCMT:ucrt_detection.obj
 0001:000d9950       AreFileApisANSI            00000001800da950 f   kernel32:KERNEL32.dll
 0001:000d9956       ReadFile                   00000001800da956 f   kernel32:KERNEL32.dll
 0001:000d995c       HeapCreate                 00000001800da95c f   kernel32:KERNEL32.dll
 0001:000d9962       HeapFree                   00000001800da962 f   kernel32:KERNEL32.dll
 0001:000d9968       GetFullPathNameW           00000001800da968 f   kernel32:KERNEL32.dll
 0001:000d996e       WriteFile                  00000001800da96e f   kernel32:KERNEL32.dll
 0001:000d9974       GetDiskFreeSpaceW          00000001800da974 f   kernel32:KERNEL32.dll
 0001:000d997a       LockFile                   00000001800da97a f   kernel32:KERNEL32.dll
 0001:000d9980       SetFilePointer             00000001800da980 f   kernel32:KERNEL32.dll
 0001:000d9986       SetEndOfFile               00000001800da986 f   kernel32:KERNEL32.dll
 0001:000d998c       UnlockFileEx               00000001800da98c f   kernel32:KERNEL32.dll
 0001:000d9992       GetTempPathW               00000001800da992 f   kernel32:KERNEL32.dll
 0001:000d9998       CreateMutexW               00000001800da998 f   kernel32:KERNEL32.dll
 0001:000d999e       WaitForSingleObject        00000001800da99e f   kernel32:KERNEL32.dll
 0001:000d99a4       CreateFileW                00000001800da9a4 f   kernel32:KERNEL32.dll
 0001:000d99aa       GetFileAttributesW         00000001800da9aa f   kernel32:KERNEL32.dll
 0001:000d99b0       UnmapViewOfFile            00000001800da9b0 f   kernel32:KERNEL32.dll
 0001:000d99b6       HeapValidate               00000001800da9b6 f   kernel32:KERNEL32.dll
 0001:000d99bc       HeapSize                   00000001800da9bc f   kernel32:KERNEL32.dll
 0001:000d99c2       MultiByteToWideChar        00000001800da9c2 f   kernel32:KERNEL32.dll
 0001:000d99c8       Sleep                      00000001800da9c8 f   kernel32:KERNEL32.dll
 0001:000d99ce       FormatMessageW             00000001800da9ce f   kernel32:KERNEL32.dll
 0001:000d99d4       GetLastError               00000001800da9d4 f   kernel32:KERNEL32.dll
 0001:000d99da       GetFileAttributesExW       00000001800da9da f   kernel32:KERNEL32.dll
 0001:000d99e0       OutputDebugStringW         00000001800da9e0 f   kernel32:KERNEL32.dll
 0001:000d99e6       FlushViewOfFile            00000001800da9e6 f   kernel32:KERNEL32.dll
 0001:000d99ec       WaitForSingleObjectEx      00000001800da9ec f   kernel32:KERNEL32.dll
 0001:000d99f2       DeleteFileW                00000001800da9f2 f   kernel32:KERNEL32.dll
 0001:000d99f8       HeapReAlloc                00000001800da9f8 f   kernel32:KERNEL32.dll
 0001:000d99fe       CloseHandle                00000001800da9fe f   kernel32:KERNEL32.dll
 0001:000d9a04       GetSystemInfo              00000001800daa04 f   kernel32:KERNEL32.dll
 0001:000d9a0a       LoadLibraryW               00000001800daa0a f   kernel32:KERNEL32.dll
 0001:000d9a10       HeapAlloc                  00000001800daa10 f   kernel32:KERNEL32.dll
 0001:000d9a16       HeapCompact                00000001800daa16 f   kernel32:KERNEL32.dll
 0001:000d9a1c       HeapDestroy                00000001800daa1c f   kernel32:KERNEL32.dll
 0001:000d9a22       UnlockFile                 00000001800daa22 f   kernel32:KERNEL32.dll
 0001:000d9a28       GetProcAddress             00000001800daa28 f   kernel32:KERNEL32.dll
 0001:000d9a2e       LocalFree                  00000001800daa2e f   kernel32:KERNEL32.dll
 0001:000d9a34       LockFileEx                 00000001800daa34 f   kernel32:KERNEL32.dll
 0001:000d9a3a       GetFileSize                00000001800daa3a f   kernel32:KERNEL32.dll
 0001:000d9a40       GetCurrentProcessId        00000001800daa40 f   kernel32:KERNEL32.dll
 0001:000d9a46       GetProcessHeap             00000001800daa46 f   kernel32:KERNEL32.dll
 0001:000d9a4c       SystemTimeToFileTime       00000001800daa4c f   kernel32:KERNEL32.dll
 0001:000d9a52       FreeLibrary                00000001800daa52 f   kernel32:KERNEL32.dll
 0001:000d9a58       WideCharToMultiByte        00000001800daa58 f   kernel32:KERNEL32.dll
 0001:000d9a5e       GetSystemTimeAsFileTime    00000001800daa5e f   kernel32:KERNEL32.dll
 0001:000d9a64       GetSystemTime              00000001800daa64 f   kernel32:KERNEL32.dll
 0001:000d9a6a       CreateFileMappingW         00000001800daa6a f   kernel32:KERNEL32.dll
 0001:000d9a70       MapViewOfFile              00000001800daa70 f   kernel32:KERNEL32.dll
 0001:000d9a76       QueryPerformanceCounter    00000001800daa76 f   kernel32:KERNEL32.dll
 0001:000d9a7c       GetTickCount               00000001800daa7c f   kernel32:KERNEL32.dll
 0001:000d9a82       FlushFileBuffers           00000001800daa82 f   kernel32:KERNEL32.dll
 0001:000d9a88       __C_specific_handler       00000001800daa88 f   libvcruntime:riscchandler.obj
 0001:000d9c94       strchr                     00000001800dac94 f   libvcruntime:strchr.obj
 0001:000d9d14       strrchr                    00000001800dad14 f   libvcruntime:strrchr.obj
 0001:000d9e40       __std_type_info_destroy_list 00000001800dae40 f   libvcruntime:std_type_info.obj
 0001:000d9e6c       __vcrt_initialize          00000001800dae6c f   libvcruntime:initialization.obj
 0001:000d9e94       __vcrt_thread_attach       00000001800dae94 f   libvcruntime:initialization.obj
 0001:000d9ea8       __vcrt_thread_detach       00000001800daea8 f   libvcruntime:initialization.obj
 0001:000d9ebc       __vcrt_uninitialize        00000001800daebc f   libvcruntime:initialization.obj
 0001:000d9ed8       __vcrt_uninitialize_critical 00000001800daed8 f   libvcruntime:initialization.obj
 0001:000d9ee8       __DestructExceptionObject  00000001800daee8 f   libvcruntime:ehhelpers.obj
 0001:000d9f58       ?_CallMemberFunction0@@YAXQEAX0@Z 00000001800daf58 f i libvcruntime:ehhelpers.obj
 0001:000d9f70       memset_repmovs             00000001800daf70 f   libvcruntime:memset.obj
 0001:000d9f90       memset                     00000001800daf90 f   libvcruntime:memset.obj
 0001:000da130       _NLG_Notify                00000001800db130 f   libvcruntime:notify.obj
 0001:000da150       __NLG_Dispatch2            00000001800db150 f   libvcruntime:notify.obj
 0001:000da160       __NLG_Return2              00000001800db160 f   libvcruntime:notify.obj
 0001:000da164       __except_validate_context_record 00000001800db164 f   libvcruntime:jbcxrval.obj
 0001:000da19c       __vcrt_freefls             00000001800db19c f   libvcruntime:per_thread_data.obj
 0001:000da1bc       __vcrt_freeptd             00000001800db1bc f   libvcruntime:per_thread_data.obj
 0001:000da20c       __vcrt_getptd              00000001800db20c f   libvcruntime:per_thread_data.obj
 0001:000da228       __vcrt_getptd_noexit       00000001800db228 f   libvcruntime:per_thread_data.obj
 0001:000da2e8       __vcrt_initialize_ptd      00000001800db2e8 f   libvcruntime:per_thread_data.obj
 0001:000da330       __vcrt_uninitialize_ptd    00000001800db330 f   libvcruntime:per_thread_data.obj
 0001:000da354       __vcrt_initialize_locks    00000001800db354 f   libvcruntime:locks.obj
 0001:000da388       __vcrt_uninitialize_locks  00000001800db388 f   libvcruntime:locks.obj
 0001:000da510       __vcrt_FlsAlloc            00000001800db510 f   libvcruntime:winapi_downlevel.obj
 0001:000da558       __vcrt_FlsFree             00000001800db558 f   libvcruntime:winapi_downlevel.obj
 0001:000da5a0       __vcrt_FlsGetValue         00000001800db5a0 f   libvcruntime:winapi_downlevel.obj
 0001:000da5e8       __vcrt_FlsSetValue         00000001800db5e8 f   libvcruntime:winapi_downlevel.obj
 0001:000da63c       __vcrt_InitializeCriticalSectionEx 00000001800db63c f   libvcruntime:winapi_downlevel.obj
 0001:000da6b0       _CallSettingFrame          00000001800db6b0 f   libvcruntime:handlers.obj
 0001:000da700       _CallSettingFrame_LookupContinuationIndex 00000001800db700 f   libvcruntime:handlers.obj
 0001:000da730       _CallSettingFrame_NotifyContinuationAddr 00000001800db730 f   libvcruntime:handlers.obj
 0001:000da760       _CallSettingFrameEncoded   00000001800db760 f   libvcruntime:handlers.obj
 0001:000da7c0       memcpy_repmovs             00000001800db7c0 f   libvcruntime:memcpy.obj
 0001:000da7e0       memcpy                     00000001800db7e0 f   libvcruntime:memcpy.obj
 0001:000da7e0       memmove                    00000001800db7e0 f   libvcruntime:memcpy.obj
 0001:000daf84       _beginthreadex             00000001800dbf84 f   libucrt:thread.obj
 0001:000db058       _endthreadex               00000001800dc058 f   libucrt:thread.obj
 0001:000db35c       _localtime64_s             00000001800dc35c f   libucrt:localtime.obj
 0001:000db364       realloc                    00000001800dc364 f   libucrt:realloc.obj
 0001:000db410       strcspn                    00000001800dc410 f   libucrt:strcspn.obj
 0001:000db7d4       _msize                     00000001800dc7d4 f   libucrt:msize.obj
 0001:000db7dc       _msize_base                00000001800dc7dc f   libucrt:msize.obj
 0001:000db830       strncmp                    00000001800dc830 f   libucrt:strncmp.obj
 0001:000db8b0       free                       00000001800dc8b0 f   libucrt:free.obj
 0001:000db990       strspn                     00000001800dc990 f   libucrt:strspn.obj
 0001:000dbd54       malloc                     00000001800dcd54 f   libucrt:malloc.obj
 0001:000dbd5c       _initterm                  00000001800dcd5c f   libucrt:initterm.obj
 0001:000dbdc0       _initterm_e                00000001800dcdc0 f   libucrt:initterm.obj
 0001:000dbe00       _seh_filter_dll            00000001800dce00 f   libucrt:exception_filter.obj
 0001:000dbe14       _seh_filter_exe            00000001800dce14 f   libucrt:exception_filter.obj
 0001:000dc204       __acrt_initialize_thread_local_exit_callback 00000001800dd204 f   libucrt:exit.obj
 0001:000dc20c       _cexit                     00000001800dd20c f   libucrt:exit.obj
 0001:000dc21c       _exit                      00000001800dd21c f   libucrt:exit.obj
 0001:000dc228       _is_c_termination_complete 00000001800dd228 f   libucrt:exit.obj
 0001:000dc3f4       __acrt_allocate_buffer_for_argv 00000001800dd3f4 f   libucrt:argv_parsing.obj
 0001:000dc454       _configure_narrow_argv     00000001800dd454 f   libucrt:argv_parsing.obj
 0001:000dc8a0       __dcrt_get_or_create_narrow_environment_nolock 00000001800dd8a0 f   libucrt:environment_initialization.obj
 0001:000dc8dc       __dcrt_uninitialize_environments_nolock 00000001800dd8dc f   libucrt:environment_initialization.obj
 0001:000dc914       _initialize_narrow_environment 00000001800dd914 f   libucrt:environment_initialization.obj
 0001:000dca70       _execute_onexit_table      00000001800dda70 f   libucrt:onexit.obj
 0001:000dcaac       _initialize_onexit_table   00000001800ddaac f   libucrt:onexit.obj
 0001:000dcb0c       __acrt_uninitialize_command_line 00000001800ddb0c f   libucrt:argv_data.obj
 0001:000dcc04       __acrt_initialize          00000001800ddc04 f   libucrt:initialization.obj
 0001:000dcc18       __acrt_thread_attach       00000001800ddc18 f   libucrt:initialization.obj
 0001:000dcc2c       __acrt_thread_detach       00000001800ddc2c f   libucrt:initialization.obj
 0001:000dcc3c       __acrt_uninitialize        00000001800ddc3c f   libucrt:initialization.obj
 0001:000dcc74       __acrt_uninitialize_critical 00000001800ddc74 f   libucrt:initialization.obj
 0001:000dcc84       terminate                  00000001800ddc84 f   libucrt:terminate.obj
 0001:000dcca4       abort                      00000001800ddca4 f   libucrt:abort.obj
 0001:000dccfc       strcpy_s                   00000001800ddcfc f   libucrt:strcpy_s.obj
 0001:000dcd5c       calloc                     00000001800ddd5c f   libucrt:calloc.obj
 0001:000dcd64       ??0_LocaleUpdate@@QEAA@QEAU__crt_locale_pointers@@@Z 00000001800ddd64 f i libucrt:output.obj
 0001:000dce00       ??$parse_integer@KV?$c_string_character_source@D@__crt_strtox@@@__crt_strtox@@YAKQEAU__crt_locale_pointers@@V?$c_string_character_source@D@0@H_N@Z 00000001800dde00 f i libucrt:atox.obj
 0001:000dd108       _ischartype_l              00000001800de108 f i libucrt:atox.obj
 0001:000dd180       atol                       00000001800de180 f   libucrt:atox.obj
 0001:000dd1ac       wcsncmp                    00000001800de1ac f   libucrt:wcsncmp.obj
 0001:000dd1d8       __acrt_call_reportfault    00000001800de1d8 f   libucrt:invalid_parameter.obj
 0001:000dd334       __acrt_initialize_invalid_parameter_handler 00000001800de334 f   libucrt:invalid_parameter.obj
 0001:000dd33c       _invalid_parameter         00000001800de33c f   libucrt:invalid_parameter.obj
 0001:000dd3ec       _invalid_parameter_noinfo  00000001800de3ec f   libucrt:invalid_parameter.obj
 0001:000dd40c       _invoke_watson             00000001800de40c f   libucrt:invalid_parameter.obj
 0001:000dd454       __acrt_errno_from_os_error 00000001800de454 f   libucrt:errno.obj
 0001:000dd49c       __acrt_errno_map_os_error  00000001800de49c f   libucrt:errno.obj
 0001:000dd4ec       __doserrno                 00000001800de4ec f   libucrt:errno.obj
 0001:000dd50c       _errno                     00000001800de50c f   libucrt:errno.obj
 0001:000dd52c       _calloc_base               00000001800de52c f   libucrt:calloc_base.obj
 0001:000dd5a4       _free_base                 00000001800de5a4 f   libucrt:free_base.obj
 0001:000dd95c       __acrt_freeptd             00000001800de95c f   libucrt:per_thread_data.obj
 0001:000dd9a0       __acrt_getptd              00000001800de9a0 f   libucrt:per_thread_data.obj
 0001:000dda74       __acrt_getptd_head         00000001800dea74 f   libucrt:per_thread_data.obj
 0001:000ddb1c       __acrt_getptd_noexit       00000001800deb1c f   libucrt:per_thread_data.obj
 0001:000ddbe8       __acrt_initialize_ptd      00000001800debe8 f   libucrt:per_thread_data.obj
 0001:000ddc24       __acrt_uninitialize_ptd    00000001800dec24 f   libucrt:per_thread_data.obj
 0001:000dde20       __acrt_AppPolicyGetProcessTerminationMethodInternal 00000001800dee20 f   libucrt:winapi_thunks.obj
 0001:000dde70       __acrt_AppPolicyGetThreadInitializationTypeInternal 00000001800dee70 f   libucrt:winapi_thunks.obj
 0001:000ddec0       __acrt_AreFileApisANSI     00000001800deec0 f   libucrt:winapi_thunks.obj
 0001:000ddefc       __acrt_CompareStringEx     00000001800deefc f   libucrt:winapi_thunks.obj
 0001:000ddfd8       __acrt_FlsAlloc            00000001800defd8 f   libucrt:winapi_thunks.obj
 0001:000de020       __acrt_FlsFree             00000001800df020 f   libucrt:winapi_thunks.obj
 0001:000de068       __acrt_FlsGetValue         00000001800df068 f   libucrt:winapi_thunks.obj
 0001:000de0b0       __acrt_FlsSetValue         00000001800df0b0 f   libucrt:winapi_thunks.obj
 0001:000de104       __acrt_InitializeCriticalSectionEx 00000001800df104 f   libucrt:winapi_thunks.obj
 0001:000de168       __acrt_LCMapStringEx       00000001800df168 f   libucrt:winapi_thunks.obj
 0001:000de244       __acrt_LocaleNameToLCID    00000001800df244 f   libucrt:winapi_thunks.obj
 0001:000de294       __acrt_RoInitialize        00000001800df294 f   libucrt:winapi_thunks.obj
 0001:000de2d4       __acrt_RoUninitialize      00000001800df2d4 f   libucrt:winapi_thunks.obj
 0001:000de308       __acrt_initialize_winapi_thunks 00000001800df308 f   libucrt:winapi_thunks.obj
 0001:000de33c       __acrt_uninitialize_winapi_thunks 00000001800df33c f   libucrt:winapi_thunks.obj
 0001:000de380       __acrt_get_begin_thread_init_policy 00000001800df380 f   libucrt:win_policies.obj
 0001:000de3d4       __acrt_get_process_end_policy 00000001800df3d4 f   libucrt:win_policies.obj
 0001:000de410       __acrt_initialize_timeset  00000001800df410 f   libucrt:timeset.obj
 0001:000de454       __daylight                 00000001800df454 f   libucrt:timeset.obj
 0001:000de45c       __dstbias                  00000001800df45c f   libucrt:timeset.obj
 0001:000de464       __timezone                 00000001800df464 f   libucrt:timeset.obj
 0001:000de46c       __tzname                   00000001800df46c f   libucrt:timeset.obj
 0001:000de474       _get_daylight              00000001800df474 f   libucrt:timeset.obj
 0001:000de4a4       _get_dstbias               00000001800df4a4 f   libucrt:timeset.obj
 0001:000de4d4       _get_timezone              00000001800df4d4 f   libucrt:timeset.obj
 0001:000de504       ??$__crt_time_is_leap_year@H@@YA_NH@Z 00000001800df504 f i libucrt:gmtime.obj
 0001:000de7e8       _gmtime64_s                00000001800df7e8 f   libucrt:gmtime.obj
 0001:000df194       __tzset                    00000001800e0194 f   libucrt:tzset.obj
 0001:000df1d4       _isindst                   00000001800e01d4 f   libucrt:tzset.obj
 0001:000df204       _realloc_base              00000001800e0204 f   libucrt:realloc_base.obj
 0001:000df280       __acrt_initialize_heap     00000001800e0280 f   libucrt:heap_handle.obj
 0001:000df29c       __acrt_uninitialize_heap   00000001800e029c f   libucrt:heap_handle.obj
 0001:000df2a8       _malloc_base               00000001800e02a8 f   libucrt:malloc_base.obj
 0001:000df308       __acrt_initialize_locks    00000001800e0308 f   libucrt:locks.obj
 0001:000df350       __acrt_lock                00000001800e0350 f   libucrt:locks.obj
 0001:000df36c       __acrt_uninitialize_locks  00000001800e036c f   libucrt:locks.obj
 0001:000df3a4       __acrt_unlock              00000001800e03a4 f   libucrt:locks.obj
 0001:000df3d4       ??$__acrt_mbs_to_wcs_cp@U__crt_win32_buffer_internal_dynamic_resizing@@@@YAHQEBDAEAV?$__crt_win32_buffer@_WU__crt_win32_buffer_internal_dynamic_resizing@@@@I@Z 00000001800e03d4 f i libucrt:argv_wildcards.obj
 0001:000df54c       ??$__acrt_wcs_to_mbs_cp@U__crt_win32_buffer_internal_dynamic_resizing@@@@YAHQEB_WAEAV?$__crt_win32_buffer@DU__crt_win32_buffer_internal_dynamic_resizing@@@@I@Z 00000001800e054c f i libucrt:argv_wildcards.obj
 0001:000dfd7c       __acrt_expand_narrow_argv_wildcards 00000001800e0d7c f   libucrt:argv_wildcards.obj
 0001:000dfd84       ??$__acrt_wcs_to_mbs_cp@U__crt_win32_buffer_no_resizing@@@@YAHQEB_WAEAV?$__crt_win32_buffer@DU__crt_win32_buffer_no_resizing@@@@I@Z 00000001800e0d84 f i libucrt:getmodulefilenamea.obj
 0001:000dfe98       __acrt_GetModuleFileNameA  00000001800e0e98 f   libucrt:getmodulefilenamea.obj
 0001:000e06e4       __acrt_initialize_multibyte 00000001800e16e4 f   libucrt:mbctype.obj
 0001:000e0744       __acrt_update_thread_multibyte_data 00000001800e1744 f   libucrt:mbctype.obj
 0001:000e0760       _setmbcp_nolock            00000001800e1760 f   libucrt:mbctype.obj
 0001:000e0a94       _ismbblead                 00000001800e1a94 f   libucrt:ismbbyte.obj
 0001:000e0aa8       __acrt_initialize_command_line 00000001800e1aa8 f   libucrt:argv_data.obj
 0001:000e0ad0       __acrt_MultiByteToWideChar 00000001800e1ad0 f   libucrt:multibytetowidechar.obj
 0001:000e0b2c       __acrt_WideCharToMultiByte 00000001800e1b2c f   libucrt:widechartomultibyte.obj
 0001:000e0bc4       __dcrt_get_narrow_environment_from_os 00000001800e1bc4 f   libucrt:get_environment_from_os.obj
 0001:000e10d0       __dcrt_set_variable_in_narrow_environment_nolock 00000001800e20d0 f   libucrt:setenv.obj
 0001:000e10d8       _recalloc_base             00000001800e20d8 f   libucrt:recalloc.obj
 0001:000e136c       __acrt_initialize_lowio    00000001800e236c f   libucrt:ioinit.obj
 0001:000e13a8       __acrt_uninitialize_lowio  00000001800e23a8 f   libucrt:ioinit.obj
 0001:000e13e8       __acrt_execute_initializers 00000001800e23e8 f   libucrt:shared_initialization.obj
 0001:000e1468       __acrt_execute_uninitializers 00000001800e2468 f   libucrt:shared_initialization.obj
 0001:000e14a4       __acrt_initialize_new_handler 00000001800e24a4 f   libucrt:new_handler.obj
 0001:000e14ac       _callnewh                  00000001800e24ac f   libucrt:new_handler.obj
 0001:000e14dc       _query_new_handler         00000001800e24dc f   libucrt:new_handler.obj
 0001:000e1558       __acrt_get_sigabrt_handler 00000001800e2558 f   libucrt:signal.obj
 0001:000e1588       __acrt_initialize_signal_handlers 00000001800e2588 f   libucrt:signal.obj
 0001:000e15a8       raise                      00000001800e25a8 f   libucrt:signal.obj
 0001:000e1814       __acrt_has_user_matherr    00000001800e2814 f   libucrt:matherr.obj
 0001:000e1834       __acrt_initialize_user_matherr 00000001800e2834 f   libucrt:matherr.obj
 0001:000e183c       __acrt_invoke_user_matherr 00000001800e283c f   libucrt:matherr.obj
 0001:000e1a48       __acrt_stdio_flush_nolock  00000001800e2a48 f   libucrt:fflush.obj
 0001:000e1ac4       _fflush_nolock             00000001800e2ac4 f   libucrt:fflush.obj
 0001:000e1b10       _flushall                  00000001800e2b10 f   libucrt:fflush.obj
 0001:000e1b18       __acrt_initialize_stdio    00000001800e2b18 f   libucrt:_file.obj
 0001:000e1c38       __acrt_uninitialize_stdio  00000001800e2c38 f   libucrt:_file.obj
 0001:000e1c94       _lock_file                 00000001800e2c94 f   libucrt:_file.obj
 0001:000e1ca0       _unlock_file               00000001800e2ca0 f   libucrt:_file.obj
 0001:000e1cac       _mbtowc_l                  00000001800e2cac f   libucrt:mbtowc.obj
 0001:000e1e2c       mbtowc                     00000001800e2e2c f   libucrt:mbtowc.obj
 0001:000e1e34       __acrt_update_locale_info  00000001800e2e34 f   libucrt:locale_update.obj
 0001:000e1e68       __acrt_update_multibyte_info 00000001800e2e68 f   libucrt:locale_update.obj
 0001:000e1e9c       _fileno                    00000001800e2e9c f   libucrt:fileno.obj
 0001:000e1f34       __acrt_set_locale_changed  00000001800e2f34 f   libucrt:wsetlocale.obj
 0001:000e1f40       __acrt_uninitialize_locale 00000001800e2f40 f   libucrt:wsetlocale.obj
 0001:000e1f70       __pctype_func              00000001800e2f70 f   libucrt:ctype.obj
 0001:000e1fa0       _isctype_l                 00000001800e2fa0 f   libucrt:isctype.obj
 0001:000e20a8       _query_new_mode            00000001800e30a8 f   libucrt:new_mode.obj
 0001:000e20b0       __acrt_add_locale_ref      00000001800e30b0 f   libucrt:locale_refcounting.obj
 0001:000e213c       __acrt_free_locale         00000001800e313c f   libucrt:locale_refcounting.obj
 0001:000e22b4       __acrt_locale_add_lc_time_reference 00000001800e32b4 f   libucrt:locale_refcounting.obj
 0001:000e22dc       __acrt_locale_free_lc_time_if_unreferenced 00000001800e32dc f   libucrt:locale_refcounting.obj
 0001:000e2314       __acrt_locale_release_lc_time_reference 00000001800e3314 f   libucrt:locale_refcounting.obj
 0001:000e233c       __acrt_release_locale_ref  00000001800e333c f   libucrt:locale_refcounting.obj
 0001:000e23e4       __acrt_update_thread_locale_data 00000001800e33e4 f   libucrt:locale_refcounting.obj
 0001:000e2450       _updatetlocinfoEx_nolock   00000001800e3450 f   libucrt:locale_refcounting.obj
 0001:000e24b8       __acrt_DownlevelLocaleNameToLCID 00000001800e34b8 f   libucrt:lcidtoname_downlevel.obj
 0001:000e26ec       getenv_s                   00000001800e36ec f   libucrt:getenv.obj
 0001:000e26f4       strncpy_s                  00000001800e36f4 f   libucrt:strncpy_s.obj
 0001:000e27c8       ___lc_codepage_func        00000001800e37c8 f   libucrt:initctype.obj
 0001:000e2800       qsort                      00000001800e3800 f   libucrt:qsort.obj
 0001:000e2c50       strpbrk                    00000001800e3c50 f   libucrt:strpbrk.obj
 0001:000e3030       _mbsdec                    00000001800e4030 f   libucrt:mbsdec.obj
 0001:000e3038       _mbsdec_l                  00000001800e4038 f   libucrt:mbsdec.obj
 0001:000e30cc       __acrt_GetStringTypeA      00000001800e40cc f   libucrt:getstringtypea.obj
 0001:000e3574       __acrt_LCMapStringA        00000001800e4574 f   libucrt:lcmapstringa.obj
 0001:000e3624       _strnicoll                 00000001800e4624 f   libucrt:strnicol.obj
 0001:000e363c       _strnicoll_l               00000001800e463c f   libucrt:strnicol.obj
 0001:000e373c       __acrt_SetEnvironmentVariableA 00000001800e473c f   libucrt:setenvironmentvariablea.obj
 0001:000e38d4       __acrt_lowio_create_handle_array 00000001800e48d4 f   libucrt:osfinfo.obj
 0001:000e397c       __acrt_lowio_destroy_handle_array 00000001800e497c f   libucrt:osfinfo.obj
 0001:000e39cc       __acrt_lowio_ensure_fh_exists 00000001800e49cc f   libucrt:osfinfo.obj
 0001:000e3a74       __acrt_lowio_lock_fh       00000001800e4a74 f   libucrt:osfinfo.obj
 0001:000e3a9c       __acrt_lowio_unlock_fh     00000001800e4a9c f   libucrt:osfinfo.obj
 0001:000e3ac4       _free_osfhnd               00000001800e4ac4 f   libucrt:osfinfo.obj
 0001:000e3b80       _get_osfhandle             00000001800e4b80 f   libucrt:osfinfo.obj
 0001:000e3c84       _commit                    00000001800e4c84 f   libucrt:commit.obj
 0001:000e4578       _write                     00000001800e5578 f   libucrt:write.obj
 0001:000e4664       _write_nolock              00000001800e5664 f   libucrt:write.obj
 0001:000e4940       _fcloseall                 00000001800e5940 f   libucrt:closeall.obj
 0001:000e49f4       __acrt_stdio_free_buffer_nolock 00000001800e59f4 f   libucrt:_freebuf.obj
 0001:000e4a34       _isatty                    00000001800e5a34 f   libucrt:isatty.obj
 0001:000e4a94       _isleadbyte_l              00000001800e5a94 f i libucrt:_wctype.obj
 0001:000e4ae0       ?__mbrtowc_utf8@__crt_mbstring@@YA_KPEA_WPEBD_KPEAU_Mbstatet@@@Z 00000001800e5ae0 f   libucrt:mbrtowc.obj
 0001:000e4b1c       ?__mbsrtowcs_utf8@__crt_mbstring@@YA_KPEA_WPEAPEBD_KPEAU_Mbstatet@@@Z 00000001800e5b1c f   libucrt:mbrtowc.obj
 0001:000e4c94       __acrt_locale_free_monetary 00000001800e5c94 f   libucrt:initmon.obj
 0001:000e4da0       __acrt_locale_free_numeric 00000001800e5da0 f   libucrt:initnum.obj
 0001:000e4e64       __acrt_locale_free_time    00000001800e5e64 f   libucrt:inittime.obj
 0001:000e4f6c       __ascii_wcsnicmp           00000001800e5f6c f   libucrt:wcsnicmp.obj
 0001:000e4fb8       __strncnt                  00000001800e5fb8 f   libucrt:strncnt.obj
 0001:000e4fd0       __ascii_strnicmp           00000001800e5fd0 f   libucrt:strnicmp.obj
 0001:000e501c       _strnicmp                  00000001800e601c f   libucrt:strnicmp.obj
 0001:000e506c       _strnicmp_l                00000001800e606c f   libucrt:strnicmp.obj
 0001:000e547c       __acrt_CompareStringA      00000001800e647c f   libucrt:comparestringa.obj
 0001:000e5508       _query_app_type            00000001800e6508 f   libucrt:report_runtime_error.obj
 0001:000e55ac       _lseeki64_nolock           00000001800e65ac f   libucrt:lseek.obj
 0001:000e55b4       _putwch_nolock             00000001800e65b4 f   libucrt:putwch.obj
 0001:000e55f0       _fclose_nolock             00000001800e65f0 f   libucrt:fclose.obj
 0001:000e5674       fclose                     00000001800e6674 f   libucrt:fclose.obj
 0001:000e56d8       ?__mbrtoc32_utf8@__crt_mbstring@@YA_KPEA_UPEBD_KPEAU_Mbstatet@@@Z 00000001800e66d8 f   libucrt:mbrtoc32.obj
 0001:000e58c0       log10                      00000001800e68c0 f   libucrt:log10.obj
 0001:000e5e6c       __dcrt_lowio_ensure_console_output_initialized 00000001800e6e6c f   libucrt:initcon.obj
 0001:000e5ec0       __dcrt_terminate_console_output 00000001800e6ec0 f   libucrt:initcon.obj
 0001:000e5edc       __dcrt_write_console       00000001800e6edc f   libucrt:initcon.obj
 0001:000e6010       _close                     00000001800e7010 f   libucrt:close.obj
 0001:000e60b4       _close_nolock              00000001800e70b4 f   libucrt:close.obj
 0001:000e6174       ?__acrt_stdio_free_stream@@YAXV__crt_stdio_stream@@@Z 00000001800e7174 f   libucrt:stream.obj
 0001:000e62b4       _handle_error              00000001800e72b4 f   libucrt:libm_error.obj
 0001:000e63e0       __acrt_initialize_fma3     00000001800e73e0 f   libucrt:fma3_available.obj
 0001:000e6450       _log10_special             00000001800e7450 f   libucrt:log_special.obj
 0001:000e6520       _get_fpsr                  00000001800e7520 f   libucrt:fpsr.obj
 0001:000e6530       _set_fpsr                  00000001800e7530 f   libucrt:fpsr.obj
 0001:000e653a       _fclrf                     00000001800e753a f   libucrt:fpsr.obj
 0001:000e654e       _frnd                      00000001800e754e f   libucrt:fpsr.obj
 0001:000e6570       _raise_exc                 00000001800e7570 f   libucrt:fpexcept.obj
 0001:000e6598       _raise_exc_ex              00000001800e7598 f   libucrt:fpexcept.obj
 0001:000e68a8       _set_errno_from_matherr    00000001800e78a8 f   libucrt:fpexcept.obj
 0001:000e68d8       _clrfp                     00000001800e78d8 f   libucrt:fpctrl.obj
 0001:000e68f8       _ctrlfp                    00000001800e78f8 f   libucrt:fpctrl.obj
 0001:000e6974       _set_statfp                00000001800e7974 f   libucrt:fpctrl.obj
 0001:000e6994       _statfp                    00000001800e7994 f   libucrt:fpctrl.obj
 0001:000e69b0       _FindPESection             00000001800e79b0 f   LIBCMT:pesect.obj
 0001:000e6a00       _IsNonwritableInCurrentImage 00000001800e7a00 f   LIBCMT:pesect.obj
 0001:000e6a50       _ValidateImageBase         00000001800e7a50 f   LIBCMT:pesect.obj
 0001:000e6a80       __GSHandlerCheck           00000001800e7a80 f   LIBCMT:gshandler.obj
 0001:000e6aa0       __GSHandlerCheckCommon     00000001800e7aa0 f   LIBCMT:gshandler.obj
 0001:000e6afc       __GSHandlerCheck_SEH       00000001800e7afc f   LIBCMT:gshandlerseh.obj
 0001:000e6ba0       _alloca_probe              00000001800e7ba0 f   LIBCMT:chkstk.obj
 0001:000e6ba0       __chkstk                   00000001800e7ba0 f   LIBCMT:chkstk.obj
 0001:000e6c00       memcmp                     00000001800e7c00 f   libvcruntime:memcmp.obj
 0001:000e6ce0       memchr                     00000001800e7ce0 f   libvcruntime:memchr.obj
 0001:000e6d60       strcmp                     00000001800e7d60 f   libucrt:strcmp.obj
 0001:000e6de0       _guard_dispatch_icall_nop  00000001800e7de0 f   LIBCMT:guard_dispatch.obj
 0001:000e6e00       _guard_xfg_dispatch_icall_nop 00000001800e7e00 f   LIBCMT:guard_xfg_dispatch.obj
 0002:00000000       __imp_AreFileApisANSI      00000001800e9000     kernel32:KERNEL32.dll
 0002:00000008       __imp_ReadFile             00000001800e9008     kernel32:KERNEL32.dll
 0002:00000010       __imp_TryEnterCriticalSection 00000001800e9010     kernel32:KERNEL32.dll
 0002:00000018       __imp_HeapCreate           00000001800e9018     kernel32:KERNEL32.dll
 0002:00000020       __imp_HeapFree             00000001800e9020     kernel32:KERNEL32.dll
 0002:00000028       __imp_EnterCriticalSection 00000001800e9028     kernel32:KERNEL32.dll
 0002:00000030       __imp_GetFullPathNameW     00000001800e9030     kernel32:KERNEL32.dll
 0002:00000038       __imp_WriteFile            00000001800e9038     kernel32:KERNEL32.dll
 0002:00000040       __imp_GetDiskFreeSpaceW    00000001800e9040     kernel32:KERNEL32.dll
 0002:00000048       __imp_LockFile             00000001800e9048     kernel32:KERNEL32.dll
 0002:00000050       __imp_LeaveCriticalSection 00000001800e9050     kernel32:KERNEL32.dll
 0002:00000058       __imp_InitializeCriticalSection 00000001800e9058     kernel32:KERNEL32.dll
 0002:00000060       __imp_SetFilePointer       00000001800e9060     kernel32:KERNEL32.dll
 0002:00000068       __imp_SetEndOfFile         00000001800e9068     kernel32:KERNEL32.dll
 0002:00000070       __imp_UnlockFileEx         00000001800e9070     kernel32:KERNEL32.dll
 0002:00000078       __imp_GetTempPathW         00000001800e9078     kernel32:KERNEL32.dll
 0002:00000080       __imp_CreateMutexW         00000001800e9080     kernel32:KERNEL32.dll
 0002:00000088       __imp_WaitForSingleObject  00000001800e9088     kernel32:KERNEL32.dll
 0002:00000090       __imp_CreateFileW          00000001800e9090     kernel32:KERNEL32.dll
 0002:00000098       __imp_GetFileAttributesW   00000001800e9098     kernel32:KERNEL32.dll
 0002:000000a0       __imp_GetCurrentThreadId   00000001800e90a0     kernel32:KERNEL32.dll
 0002:000000a8       __imp_UnmapViewOfFile      00000001800e90a8     kernel32:KERNEL32.dll
 0002:000000b0       __imp_HeapValidate         00000001800e90b0     kernel32:KERNEL32.dll
 0002:000000b8       __imp_HeapSize             00000001800e90b8     kernel32:KERNEL32.dll
 0002:000000c0       __imp_MultiByteToWideChar  00000001800e90c0     kernel32:KERNEL32.dll
 0002:000000c8       __imp_Sleep                00000001800e90c8     kernel32:KERNEL32.dll
 0002:000000d0       __imp_FormatMessageW       00000001800e90d0     kernel32:KERNEL32.dll
 0002:000000d8       __imp_GetLastError         00000001800e90d8     kernel32:KERNEL32.dll
 0002:000000e0       __imp_GetFileAttributesExW 00000001800e90e0     kernel32:KERNEL32.dll
 0002:000000e8       __imp_OutputDebugStringW   00000001800e90e8     kernel32:KERNEL32.dll
 0002:000000f0       __imp_FlushViewOfFile      00000001800e90f0     kernel32:KERNEL32.dll
 0002:000000f8       __imp_WaitForSingleObjectEx 00000001800e90f8     kernel32:KERNEL32.dll
 0002:00000100       __imp_DeleteFileW          00000001800e9100     kernel32:KERNEL32.dll
 0002:00000108       __imp_HeapReAlloc          00000001800e9108     kernel32:KERNEL32.dll
 0002:00000110       __imp_CloseHandle          00000001800e9110     kernel32:KERNEL32.dll
 0002:00000118       __imp_RaiseException       00000001800e9118     kernel32:KERNEL32.dll
 0002:00000120       __imp_GetSystemInfo        00000001800e9120     kernel32:KERNEL32.dll
 0002:00000128       __imp_LoadLibraryW         00000001800e9128     kernel32:KERNEL32.dll
 0002:00000130       __imp_HeapAlloc            00000001800e9130     kernel32:KERNEL32.dll
 0002:00000138       __imp_HeapCompact          00000001800e9138     kernel32:KERNEL32.dll
 0002:00000140       __imp_HeapDestroy          00000001800e9140     kernel32:KERNEL32.dll
 0002:00000148       __imp_UnlockFile           00000001800e9148     kernel32:KERNEL32.dll
 0002:00000150       __imp_GetProcAddress       00000001800e9150     kernel32:KERNEL32.dll
 0002:00000158       __imp_LocalFree            00000001800e9158     kernel32:KERNEL32.dll
 0002:00000160       __imp_LockFileEx           00000001800e9160     kernel32:KERNEL32.dll
 0002:00000168       __imp_GetFileSize          00000001800e9168     kernel32:KERNEL32.dll
 0002:00000170       __imp_DeleteCriticalSection 00000001800e9170     kernel32:KERNEL32.dll
 0002:00000178       __imp_GetCurrentProcessId  00000001800e9178     kernel32:KERNEL32.dll
 0002:00000180       __imp_GetProcessHeap       00000001800e9180     kernel32:KERNEL32.dll
 0002:00000188       __imp_SystemTimeToFileTime 00000001800e9188     kernel32:KERNEL32.dll
 0002:00000190       __imp_FreeLibrary          00000001800e9190     kernel32:KERNEL32.dll
 0002:00000198       __imp_WideCharToMultiByte  00000001800e9198     kernel32:KERNEL32.dll
 0002:000001a0       __imp_GetSystemTimeAsFileTime 00000001800e91a0     kernel32:KERNEL32.dll
 0002:000001a8       __imp_GetSystemTime        00000001800e91a8     kernel32:KERNEL32.dll
 0002:000001b0       __imp_CreateFileMappingW   00000001800e91b0     kernel32:KERNEL32.dll
 0002:000001b8       __imp_MapViewOfFile        00000001800e91b8     kernel32:KERNEL32.dll
 0002:000001c0       __imp_QueryPerformanceCounter 00000001800e91c0     kernel32:KERNEL32.dll
 0002:000001c8       __imp_GetTickCount         00000001800e91c8     kernel32:KERNEL32.dll
 0002:000001d0       __imp_FlushFileBuffers     00000001800e91d0     kernel32:KERNEL32.dll
 0002:000001d8       __imp_CompareStringW       00000001800e91d8     kernel32:KERNEL32.dll
 0002:000001e0       __imp_SetLastError         00000001800e91e0     kernel32:KERNEL32.dll
 0002:000001e8       __imp_GetModuleFileNameW   00000001800e91e8     kernel32:KERNEL32.dll
 0002:000001f0       __imp_LCMapStringW         00000001800e91f0     kernel32:KERNEL32.dll
 0002:000001f8       __imp_GetModuleHandleW     00000001800e91f8     kernel32:KERNEL32.dll
 0002:00000200       __imp_RtlCaptureContext    00000001800e9200     kernel32:KERNEL32.dll
 0002:00000208       __imp_RtlLookupFunctionEntry 00000001800e9208     kernel32:KERNEL32.dll
 0002:00000210       __imp_RtlVirtualUnwind     00000001800e9210     kernel32:KERNEL32.dll
 0002:00000218       __imp_UnhandledExceptionFilter 00000001800e9218     kernel32:KERNEL32.dll
 0002:00000220       __imp_SetUnhandledExceptionFilter 00000001800e9220     kernel32:KERNEL32.dll
 0002:00000228       __imp_GetCurrentProcess    00000001800e9228     kernel32:KERNEL32.dll
 0002:00000230       __imp_TerminateProcess     00000001800e9230     kernel32:KERNEL32.dll
 0002:00000238       __imp_IsProcessorFeaturePresent 00000001800e9238     kernel32:KERNEL32.dll
 0002:00000240       __imp_InitializeSListHead  00000001800e9240     kernel32:KERNEL32.dll
 0002:00000248       __imp_IsDebuggerPresent    00000001800e9248     kernel32:KERNEL32.dll
 0002:00000250       __imp_GetStartupInfoW      00000001800e9250     kernel32:KERNEL32.dll
 0002:00000258       __imp_WriteConsoleW        00000001800e9258     kernel32:KERNEL32.dll
 0002:00000260       __imp_RtlUnwindEx          00000001800e9260     kernel32:KERNEL32.dll
 0002:00000268       __imp_InterlockedFlushSList 00000001800e9268     kernel32:KERNEL32.dll
 0002:00000270       __imp_InitializeCriticalSectionAndSpinCount 00000001800e9270     kernel32:KERNEL32.dll
 0002:00000278       __imp_TlsAlloc             00000001800e9278     kernel32:KERNEL32.dll
 0002:00000280       __imp_TlsGetValue          00000001800e9280     kernel32:KERNEL32.dll
 0002:00000288       __imp_TlsSetValue          00000001800e9288     kernel32:KERNEL32.dll
 0002:00000290       __imp_TlsFree              00000001800e9290     kernel32:KERNEL32.dll
 0002:00000298       __imp_LoadLibraryExW       00000001800e9298     kernel32:KERNEL32.dll
 0002:000002a0       __imp_CreateThread         00000001800e92a0     kernel32:KERNEL32.dll
 0002:000002a8       __imp_ExitThread           00000001800e92a8     kernel32:KERNEL32.dll
 0002:000002b0       __imp_FreeLibraryAndExitThread 00000001800e92b0     kernel32:KERNEL32.dll
 0002:000002b8       __imp_GetModuleHandleExW   00000001800e92b8     kernel32:KERNEL32.dll
 0002:000002c0       __imp_ExitProcess          00000001800e92c0     kernel32:KERNEL32.dll
 0002:000002c8       __imp_GetTimeZoneInformation 00000001800e92c8     kernel32:KERNEL32.dll
 0002:000002d0       __imp_FindClose            00000001800e92d0     kernel32:KERNEL32.dll
 0002:000002d8       __imp_FindFirstFileExW     00000001800e92d8     kernel32:KERNEL32.dll
 0002:000002e0       __imp_FindNextFileW        00000001800e92e0     kernel32:KERNEL32.dll
 0002:000002e8       __imp_IsValidCodePage      00000001800e92e8     kernel32:KERNEL32.dll
 0002:000002f0       __imp_GetACP               00000001800e92f0     kernel32:KERNEL32.dll
 0002:000002f8       __imp_GetOEMCP             00000001800e92f8     kernel32:KERNEL32.dll
 0002:00000300       __imp_GetCPInfo            00000001800e9300     kernel32:KERNEL32.dll
 0002:00000308       __imp_GetCommandLineA      00000001800e9308     kernel32:KERNEL32.dll
 0002:00000310       __imp_GetCommandLineW      00000001800e9310     kernel32:KERNEL32.dll
 0002:00000318       __imp_GetEnvironmentStringsW 00000001800e9318     kernel32:KERNEL32.dll
 0002:00000320       __imp_FreeEnvironmentStringsW 00000001800e9320     kernel32:KERNEL32.dll
 0002:00000328       __imp_SetEnvironmentVariableW 00000001800e9328     kernel32:KERNEL32.dll
 0002:00000330       __imp_GetStdHandle         00000001800e9330     kernel32:KERNEL32.dll
 0002:00000338       __imp_GetFileType          00000001800e9338     kernel32:KERNEL32.dll
 0002:00000340       __imp_GetStringTypeW       00000001800e9340     kernel32:KERNEL32.dll
 0002:00000348       __imp_SetStdHandle         00000001800e9348     kernel32:KERNEL32.dll
 0002:00000350       __imp_GetConsoleCP         00000001800e9350     kernel32:KERNEL32.dll
 0002:00000358       __imp_GetConsoleMode       00000001800e9358     kernel32:KERNEL32.dll
 0002:00000360       __imp_SetFilePointerEx     00000001800e9360     kernel32:KERNEL32.dll
 0002:00000368       \177KERNEL32_NULL_THUNK_DATA 00000001800e9368     kernel32:KERNEL32.dll
 0002:00000370       __guard_check_icall_fptr   00000001800e9370     LIBCMT:guard_support.obj
 0002:00000378       __guard_xfg_check_icall_fptr 00000001800e9378     LIBCMT:guard_support.obj
 0002:00000380       __guard_dispatch_icall_fptr 00000001800e9380     LIBCMT:guard_support.obj
 0002:00000388       __guard_xfg_dispatch_icall_fptr 00000001800e9388     LIBCMT:guard_support.obj
 0002:00000390       __guard_xfg_table_dispatch_icall_fptr 00000001800e9390     LIBCMT:guard_support.obj
 0002:00000398       __xc_a                     00000001800e9398     LIBCMT:initializers.obj
 0002:000003a0       __xc_z                     00000001800e93a0     LIBCMT:initializers.obj
 0002:000003a8       __xi_a                     00000001800e93a8     LIBCMT:initializers.obj
 0002:000003b0       __acrt_timeset_initializer 00000001800e93b0     libucrt:timeset_initializer.obj
 0002:000003b8       __acrt_multibyte_initializer 00000001800e93b8     libucrt:multibyte_initializer.obj
 0002:000003c0       __acrt_stdio_initializer   00000001800e93c0     libucrt:stdio_initializer.obj
 0002:000003c8       __acrt_tran_fma3_initializer 00000001800e93c8     libucrt:fma3_initializer.obj
 0002:000003d0       __xi_z                     00000001800e93d0     LIBCMT:initializers.obj
 0002:000003d8       __xp_a                     00000001800e93d8     LIBCMT:initializers.obj
 0002:000003e0       __acrt_locale_terminator   00000001800e93e0     libucrt:locale_initializer.obj
 0002:000003e8       __dcrt_console_output_terminator 00000001800e93e8     libucrt:console_output_initializer.obj
 0002:000003f0       __acrt_stdio_terminator    00000001800e93f0     libucrt:stdio_initializer.obj
 0002:000003f8       __xp_z                     00000001800e93f8     LIBCMT:initializers.obj
 0002:00000400       __xt_a                     00000001800e9400     LIBCMT:initializers.obj
 0002:00000408       __xt_z                     00000001800e9408     LIBCMT:initializers.obj
 0002:00000410       __imp_InitializeCriticalSectionEx 00000001800e9410     vc_crt_fix.obj
 0002:00000418       __imp_CompareStringEx      00000001800e9418     vc_crt_fix.obj
 0002:00000420       __imp_LCMapStringEx        00000001800e9420     vc_crt_fix.obj
 0002:00000428       __imp_AcquireSRWLockExclusive 00000001800e9428     vc_crt_fix.obj
 0002:00000430       __imp_ReleaseSRWLockExclusive 00000001800e9430     vc_crt_fix.obj
 0002:00000438       __imp_SleepConditionVariableSRW 00000001800e9438     vc_crt_fix.obj
 0002:00000440       __imp_WakeAllConditionVariable 00000001800e9440     vc_crt_fix.obj
 0002:00000458       _pRawDllMain               00000001800e9458     LIBCMT:dll_dllmain.obj
 0002:00000458       _pDefaultRawDllMain        00000001800e9458     LIBCMT:dll_dllmain.obj
 0002:00000460       _pDestructExceptionObject  00000001800e9460     libvcruntime:ehhelpers.obj
 0002:00000b70       ??_C@_08EHJDFFNH@__based?$CI@ 00000001800e9b70     libvcruntime:undname.obj
 0002:00000b80       ??_C@_07KOLFKCDI@__cdecl@  00000001800e9b80     libvcruntime:undname.obj
 0002:00000b88       ??_C@_08GHMPAG@__pascal@   00000001800e9b88     libvcruntime:undname.obj
 0002:00000b98       ??_C@_09IFJBGAPI@__stdcall@ 00000001800e9b98     libvcruntime:undname.obj
 0002:00000ba8       ??_C@_0L@NPHFGOKO@__thiscall@ 00000001800e9ba8     libvcruntime:undname.obj
 0002:00000bb8       ??_C@_0L@JMKHOMEK@__fastcall@ 00000001800e9bb8     libvcruntime:undname.obj
 0002:00000bc8       ??_C@_0N@BCKKPABJ@__vectorcall@ 00000001800e9bc8     libvcruntime:undname.obj
 0002:00000bd8       ??_C@_09HIJEGCPM@__clrcall@ 00000001800e9bd8     libvcruntime:undname.obj
 0002:00000be4       ??_C@_06GHPCKEAG@__eabi@   00000001800e9be4     libvcruntime:undname.obj
 0002:00000bf0       ??_C@_09IOPIDJLG@__swift_1@ 00000001800e9bf0     libvcruntime:undname.obj
 0002:00000c00       ??_C@_09KFNFGKHF@__swift_2@ 00000001800e9c00     libvcruntime:undname.obj
 0002:00000c10       ??_C@_07JOMMBBKO@__ptr64@  00000001800e9c10     libvcruntime:undname.obj
 0002:00000c18       ??_C@_0L@PILCLIHE@__restrict@ 00000001800e9c18     libvcruntime:undname.obj
 0002:00000c28       ??_C@_0M@GFIIJFMG@__unaligned@ 00000001800e9c28     libvcruntime:undname.obj
 0002:00000c38       ??_C@_09DHDLOLLB@restrict?$CI@ 00000001800e9c38     libvcruntime:undname.obj
 0002:00000c44       ??_C@_04NIHEBCM@?5new@     00000001800e9c44     libvcruntime:undname.obj
 0002:00000c50       ??_C@_07FPCDHGMM@?5delete@ 00000001800e9c50     libvcruntime:undname.obj
 0002:00000c58       ??_C@_01NEMOKFLO@?$DN@     00000001800e9c58     libvcruntime:undname.obj
 0002:00000c5c       ??_C@_02GPIOPFAK@?$DO?$DO@ 00000001800e9c5c     libvcruntime:undname.obj
 0002:00000c60       ??_C@_02FODMEDOG@?$DM?$DM@ 00000001800e9c60     libvcruntime:undname.obj
 0002:00000c64       ??_C@_01DCLJPIOD@?$CB@     00000001800e9c64     libvcruntime:undname.obj
 0002:00000c68       ??_C@_02EGOFBIJA@?$DN?$DN@ 00000001800e9c68     libvcruntime:undname.obj
 0002:00000c6c       ??_C@_02FDNJECIE@?$CB?$DN@ 00000001800e9c6c     libvcruntime:undname.obj
 0002:00000c70       ??_C@_08LHJFAFGD@operator@ 00000001800e9c70     libvcruntime:undname.obj
 0002:00000c7c       ??_C@_02ECNGHCIF@?$CL?$CL@ 00000001800e9c7c     libvcruntime:undname.obj
 0002:00000c80       ??_C@_02BAABKJLB@?9?9@     00000001800e9c80     libvcruntime:undname.obj
 0002:00000c84       ??_C@_01MIFGBAGJ@?$CL@     00000001800e9c84     libvcruntime:undname.obj
 0002:00000c88       ??_C@_01HNPIGOCE@?$CG@     00000001800e9c88     libvcruntime:undname.obj
 0002:00000c8c       ??_C@_03MNHNFDLC@?9?$DO?$CK@ 00000001800e9c8c     libvcruntime:undname.obj
 0002:00000c90       ??_C@_01KMDKNFGN@?1@       00000001800e9c90     libvcruntime:undname.obj
 0002:00000c94       ??_C@_02EHCHHCKH@?$DM?$DN@ 00000001800e9c94     libvcruntime:undname.obj
 0002:00000c98       ??_C@_02EEKDKGMJ@?$DO?$DN@ 00000001800e9c98     libvcruntime:undname.obj
 0002:00000c9c       ??_C@_02HCKGKOFO@?$CI?$CJ@ 00000001800e9c9c     libvcruntime:undname.obj
 0002:00000ca0       ??_C@_01PJKLJHI@?$HO@      00000001800e9ca0     libvcruntime:undname.obj
 0002:00000ca4       ??_C@_01JKBOJNNK@?$FO@     00000001800e9ca4     libvcruntime:undname.obj
 0002:00000ca8       ??_C@_01DNKMNLPK@?$HM@     00000001800e9ca8     libvcruntime:undname.obj
 0002:00000cac       ??_C@_02PPKAJPJL@?$CG?$CG@ 00000001800e9cac     libvcruntime:undname.obj
 0002:00000cb0       ??_C@_02NONPIBCD@?$HM?$HM@ 00000001800e9cb0     libvcruntime:undname.obj
 0002:00000cb4       ??_C@_02FPIMKNGF@?$CK?$DN@ 00000001800e9cb4     libvcruntime:undname.obj
 0002:00000cb8       ??_C@_02FOEOMHFC@?$CL?$DN@ 00000001800e9cb8     libvcruntime:undname.obj
 0002:00000cbc       ??_C@_02FKMDLLOA@?9?$DN@   00000001800e9cbc     libvcruntime:undname.obj
 0002:00000cc0       ??_C@_02FJEHGPIO@?1?$DN@   00000001800e9cc0     libvcruntime:undname.obj
 0002:00000cc4       ??_C@_02FENAOKFI@?$CF?$DN@ 00000001800e9cc4     libvcruntime:undname.obj
 0002:00000cc8       ??_C@_03IKFCCPFF@?$DO?$DO?$DN@ 00000001800e9cc8     libvcruntime:undname.obj
 0002:00000ccc       ??_C@_03CDNPDDLA@?$DM?$DM?$DN@ 00000001800e9ccc     libvcruntime:undname.obj
 0002:00000cd0       ??_C@_02FGJGFEAB@?$CG?$DN@ 00000001800e9cd0     libvcruntime:undname.obj
 0002:00000cd4       ??_C@_02DHLNPPGH@?$HM?$DN@ 00000001800e9cd4     libvcruntime:undname.obj
 0002:00000cd8       ??_C@_02MHEGNOJ@?$FO?$DN@  00000001800e9cd8     libvcruntime:undname.obj
 0002:00000ce0       ??_C@_09IFPLHPGF@?$GAvftable?8@ 00000001800e9ce0     libvcruntime:undname.obj
 0002:00000cf0       ??_C@_09BLBHBJP@?$GAvbtable?8@ 00000001800e9cf0     libvcruntime:undname.obj
 0002:00000d00       ??_C@_07FEEIOKP@?$GAvcall?8@ 00000001800e9d00     libvcruntime:undname.obj
 0002:00000d08       ??_C@_08LLFFHHDJ@?$GAtypeof?8@ 00000001800e9d08     libvcruntime:undname.obj
 0002:00000d18       ??_C@_0BF@KDPPACIK@?$GAlocal?5static?5guard?8@ 00000001800e9d18     libvcruntime:undname.obj
 0002:00000d30       ??_C@_08OBABFOLI@?$GAstring?8@ 00000001800e9d30     libvcruntime:undname.obj
 0002:00000d40       ??_C@_0BD@JDLKDPAB@?$GAvbase?5destructor?8@ 00000001800e9d40     libvcruntime:undname.obj
 0002:00000d58       ??_C@_0BN@DEGPLNFK@?$GAvector?5deleting?5destructor?8@ 00000001800e9d58     libvcruntime:undname.obj
 0002:00000d78       ??_C@_0BO@OBMKPJIG@?$GAdefault?5constructor?5closure?8@ 00000001800e9d78     libvcruntime:undname.obj
 0002:00000d98       ??_C@_0BN@IMDCHIKM@?$GAscalar?5deleting?5destructor?8@ 00000001800e9d98     libvcruntime:undname.obj
 0002:00000db8       ??_C@_0BO@PFGOCPJJ@?$GAvector?5constructor?5iterator?8@ 00000001800e9db8     libvcruntime:undname.obj
 0002:00000dd8       ??_C@_0BN@LFPFMEDL@?$GAvector?5destructor?5iterator?8@ 00000001800e9dd8     libvcruntime:undname.obj
 0002:00000df8       ??_C@_0CE@IKBNEHA@?$GAvector?5vbase?5constructor?5itera@ 00000001800e9df8     libvcruntime:undname.obj
 0002:00000e20       ??_C@_0BL@NILFHHPC@?$GAvirtual?5displacement?5map?8@ 00000001800e9e20     libvcruntime:undname.obj
 0002:00000e40       ??_C@_0CB@JONCMFFK@?$GAeh?5vector?5constructor?5iterator@ 00000001800e9e40     libvcruntime:undname.obj
 0002:00000e68       ??_C@_0CA@GCEOPDGL@?$GAeh?5vector?5destructor?5iterator?8@ 00000001800e9e68     libvcruntime:undname.obj
 0002:00000e88       ??_C@_0CH@OOJPLCPH@?$GAeh?5vector?5vbase?5constructor?5it@ 00000001800e9e88     libvcruntime:undname.obj
 0002:00000eb0       ??_C@_0BL@LLKPOHJI@?$GAcopy?5constructor?5closure?8@ 00000001800e9eb0     libvcruntime:undname.obj
 0002:00000ed0       ??_C@_0BA@KBCDOMBN@?$GAudt?5returning?8@ 00000001800e9ed0     libvcruntime:undname.obj
 0002:00000ee0       ??_C@_03KLGMFNMG@?$GAEH@   00000001800e9ee0     libvcruntime:undname.obj
 0002:00000ee4       ??_C@_05KHLCHHI@?$GARTTI@  00000001800e9ee4     libvcruntime:undname.obj
 0002:00000ef0       ??_C@_0BA@KKLDJDLB@?$GAlocal?5vftable?8@ 00000001800e9ef0     libvcruntime:undname.obj
 0002:00000f00       ??_C@_0CE@IIHCMGGL@?$GAlocal?5vftable?5constructor?5clos@ 00000001800e9f00     libvcruntime:undname.obj
 0002:00000f24       ??_C@_06FHBGPFGH@?5new?$FL?$FN@ 00000001800e9f24     libvcruntime:undname.obj
 0002:00000f30       ??_C@_09LBNFPBCA@?5delete?$FL?$FN@ 00000001800e9f30     libvcruntime:undname.obj
 0002:00000f40       ??_C@_0P@HJKNJFNN@?$GAomni?5callsig?8@ 00000001800e9f40     libvcruntime:undname.obj
 0002:00000f50       ??_C@_0BL@CNOONJFP@?$GAplacement?5delete?5closure?8@ 00000001800e9f50     libvcruntime:undname.obj
 0002:00000f70       ??_C@_0BN@CKNJLHMB@?$GAplacement?5delete?$FL?$FN?5closure?8@ 00000001800e9f70     libvcruntime:undname.obj
 0002:00000f90       ??_C@_0CG@CFDHKGGD@?$GAmanaged?5vector?5constructor?5ite@ 00000001800e9f90     libvcruntime:undname.obj
 0002:00000fb8       ??_C@_0CF@IMGKMJNO@?$GAmanaged?5vector?5destructor?5iter@ 00000001800e9fb8     libvcruntime:undname.obj
 0002:00000fe0       ??_C@_0CG@HLDDJMAG@?$GAeh?5vector?5copy?5constructor?5ite@ 00000001800e9fe0     libvcruntime:undname.obj
 0002:00001008       ??_C@_0CM@FCBBDIGB@?$GAeh?5vector?5vbase?5copy?5construct@ 00000001800ea008     libvcruntime:undname.obj
 0002:00001038       ??_C@_0BL@CLIPGLGB@?$GAdynamic?5initializer?5for?5?8@ 00000001800ea038     libvcruntime:undname.obj
 0002:00001058       ??_C@_0CB@PDBIFEP@?$GAdynamic?5atexit?5destructor?5for?5@ 00000001800ea058     libvcruntime:undname.obj
 0002:00001080       ??_C@_0CD@CGAJBKEJ@?$GAvector?5copy?5constructor?5iterat@ 00000001800ea080     libvcruntime:undname.obj
 0002:000010a8       ??_C@_0CJ@GJELGAMM@?$GAvector?5vbase?5copy?5constructor?5@ 00000001800ea0a8     libvcruntime:undname.obj
 0002:000010d8       ??_C@_0CL@FGIJHLCE@?$GAmanaged?5vector?5copy?5constructo@ 00000001800ea0d8     libvcruntime:undname.obj
 0002:00001108       ??_C@_0BM@PMGGMLDN@?$GAlocal?5static?5thread?5guard?8@ 00000001800ea108     libvcruntime:undname.obj
 0002:00001128       ??_C@_0N@BDNMDMOL@operator?5?$CC?$CC?5@ 00000001800ea128     libvcruntime:undname.obj
 0002:00001138       ??_C@_0BC@GGEBGALA@operator?5co_await@ 00000001800ea138     libvcruntime:undname.obj
 0002:00001150       ??_C@_0M@GAAIMMOH@operator?$DM?$DN?$DO@ 00000001800ea150     libvcruntime:undname.obj
 0002:00001160       ??_C@_0BC@DAFEJGAK@?5Type?5Descriptor?8@ 00000001800ea160     libvcruntime:undname.obj
 0002:00001178       ??_C@_0BM@LDKODKLH@?5Base?5Class?5Descriptor?5at?5?$CI@ 00000001800ea178     libvcruntime:undname.obj
 0002:00001198       ??_C@_0BD@LGICGFMM@?5Base?5Class?5Array?8@ 00000001800ea198     libvcruntime:undname.obj
 0002:000011b0       ??_C@_0BN@MECKDCOJ@?5Class?5Hierarchy?5Descriptor?8@ 00000001800ea1b0     libvcruntime:undname.obj
 0002:000011d0       ??_C@_0BK@CFCOFLF@?5Complete?5Object?5Locator?8@ 00000001800ea1d0     libvcruntime:undname.obj
 0002:000011f0       ??_C@_0BG@JNJLAMPM@?$GAanonymous?5namespace?8@ 00000001800ea1f0     libvcruntime:undname.obj
 0002:00001220       ??_C@_1DM@KHCHBNEB@?$AAa?$AAp?$AAi?$AA?9?$AAm?$AAs?$AA?9?$AAw?$AAi?$AAn?$AA?9?$AAc?$AAo?$AAr?$AAe@ 00000001800ea220     libvcruntime:winapi_downlevel.obj
 0002:00001260       ??_C@_1DK@LPPGFMPP@?$AAa?$AAp?$AAi?$AA?9?$AAm?$AAs?$AA?9?$AAw?$AAi?$AAn?$AA?9?$AAc?$AAo?$AAr?$AAe@ 00000001800ea260     libvcruntime:winapi_downlevel.obj
 0002:000012a0       ??_C@_1BC@GDMECMAK@?$AAk?$AAe?$AAr?$AAn?$AAe?$AAl?$AA3?$AA2@ 00000001800ea2a0     libvcruntime:winapi_downlevel.obj
 0002:000012b8       ??_C@_1BA@PFFKHIOG@?$AAa?$AAp?$AAi?$AA?9?$AAm?$AAs?$AA?9@ 00000001800ea2b8     libvcruntime:winapi_downlevel.obj
 0002:000012d0       ??_C@_08KNHFBNJ@FlsAlloc@  00000001800ea2d0     libvcruntime:winapi_downlevel.obj
 0002:000012e8       ??_C@_07PEJMOBNF@FlsFree@  00000001800ea2e8     libvcruntime:winapi_downlevel.obj
 0002:000012f8       ??_C@_0M@GDNOONDI@FlsGetValue@ 00000001800ea2f8     libvcruntime:winapi_downlevel.obj
 0002:00001310       ??_C@_0M@JCPCPOEF@FlsSetValue@ 00000001800ea310     libvcruntime:winapi_downlevel.obj
 0002:00001328       ??_C@_0BM@HCFOFFN@InitializeCriticalSectionEx@ 00000001800ea328     libvcruntime:winapi_downlevel.obj
 0002:00001350       __acrt_exception_action_table 00000001800ea350     libucrt:exception_filter.obj
 0002:00001410       __acrt_signal_action_table_count 00000001800ea410     libucrt:exception_filter.obj
 0002:00001418       __acrt_signal_action_first_fpe_index 00000001800ea418     libucrt:exception_filter.obj
 0002:00001420       __acrt_signal_action_fpe_count 00000001800ea420     libucrt:exception_filter.obj
 0002:00001428       ??_C@_1BI@BGOHAHKC@?$AAm?$AAs?$AAc?$AAo?$AAr?$AAe?$AAe?$AA?4?$AAd?$AAl?$AAl@ 00000001800ea428     libucrt:exit.obj
 0002:00001440       ??_C@_0P@MIGLKIOC@CorExitProcess@ 00000001800ea440     libucrt:exit.obj
 0002:00001760       ??_C@_1EA@JGEFHKEI@?$AAa?$AAp?$AAi?$AA?9?$AAm?$AAs?$AA?9?$AAw?$AAi?$AAn?$AA?9?$AAc?$AAo?$AAr?$AAe@ 00000001800ea760     libucrt:winapi_thunks.obj
 0002:000017a0       ??_C@_1DI@IJCEHOCB@?$AAa?$AAp?$AAi?$AA?9?$AAm?$AAs?$AA?9?$AAw?$AAi?$AAn?$AA?9?$AAc?$AAo?$AAr?$AAe@ 00000001800ea7a0     libucrt:winapi_thunks.obj
 0002:000017e0       ??_C@_1EI@MPIAOHOC@?$AAa?$AAp?$AAi?$AA?9?$AAm?$AAs?$AA?9?$AAw?$AAi?$AAn?$AA?9?$AAc?$AAo?$AAr?$AAe@ 00000001800ea7e0     libucrt:winapi_thunks.obj
 0002:00001830       ??_C@_1FK@FPHCKFIE@?$AAa?$AAp?$AAi?$AA?9?$AAm?$AAs?$AA?9?$AAw?$AAi?$AAn?$AA?9?$AAc?$AAo?$AAr?$AAe@ 00000001800ea830     libucrt:winapi_thunks.obj
 0002:00001890       ??_C@_1EM@DILCGIIO@?$AAa?$AAp?$AAi?$AA?9?$AAm?$AAs?$AA?9?$AAw?$AAi?$AAn?$AA?9?$AAc?$AAo?$AAr?$AAe@ 00000001800ea890     libucrt:winapi_thunks.obj
 0002:000018e0       ??_C@_1DM@LNCGDDPN@?$AAa?$AAp?$AAi?$AA?9?$AAm?$AAs?$AA?9?$AAw?$AAi?$AAn?$AA?9?$AAc?$AAo?$AAr?$AAe@ 00000001800ea8e0     libucrt:winapi_thunks.obj
 0002:00001920       ??_C@_1DO@FPAPJEMD@?$AAa?$AAp?$AAi?$AA?9?$AAm?$AAs?$AA?9?$AAw?$AAi?$AAn?$AA?9?$AAc?$AAo?$AAr?$AAe@ 00000001800ea920     libucrt:winapi_thunks.obj
 0002:00001960       ??_C@_1DK@NDHNAHIO@?$AAa?$AAp?$AAi?$AA?9?$AAm?$AAs?$AA?9?$AAw?$AAi?$AAn?$AA?9?$AAc?$AAo?$AAr?$AAe@ 00000001800ea960     libucrt:winapi_thunks.obj
 0002:000019a0       ??_C@_1DM@KGHDGBCM@?$AAa?$AAp?$AAi?$AA?9?$AAm?$AAs?$AA?9?$AAw?$AAi?$AAn?$AA?9?$AAc?$AAo?$AAr?$AAe@ 00000001800ea9a0     libucrt:winapi_thunks.obj
 0002:000019e0       ??_C@_1EO@IJIOEFOH@?$AAa?$AAp?$AAi?$AA?9?$AAm?$AAs?$AA?9?$AAw?$AAi?$AAn?$AA?9?$AAr?$AAt?$AAc?$AAo@ 00000001800ea9e0     libucrt:winapi_thunks.obj
 0002:00001a30       ??_C@_1FG@HHGEKANL@?$AAa?$AAp?$AAi?$AA?9?$AAm?$AAs?$AA?9?$AAw?$AAi?$AAn?$AA?9?$AAs?$AAe?$AAc?$AAu@ 00000001800eaa30     libucrt:winapi_thunks.obj
 0002:00001a90       ??_C@_1EG@DBIOJECG@?$AAe?$AAx?$AAt?$AA?9?$AAm?$AAs?$AA?9?$AAw?$AAi?$AAn?$AA?9?$AAn?$AAt?$AAu?$AAs@ 00000001800eaa90     libucrt:winapi_thunks.obj
 0002:00001ae0       ??_C@_1EO@FIHMJCLF@?$AAe?$AAx?$AAt?$AA?9?$AAm?$AAs?$AA?9?$AAw?$AAi?$AAn?$AA?9?$AAn?$AAt?$AAu?$AAs@ 00000001800eaae0     libucrt:winapi_thunks.obj
 0002:00001b30       ??_C@_1BC@DNHGCMLG@?$AAa?$AAd?$AAv?$AAa?$AAp?$AAi?$AA3?$AA2@ 00000001800eab30     libucrt:winapi_thunks.obj
 0002:00001b48       ??_C@_1M@OAIMIKLP@?$AAn?$AAt?$AAd?$AAl?$AAl@ 00000001800eab48     libucrt:winapi_thunks.obj
 0002:00001b60       ??_C@_1EG@DPGNFKGC@?$AAa?$AAp?$AAi?$AA?9?$AAm?$AAs?$AA?9?$AAw?$AAi?$AAn?$AA?9?$AAa?$AAp?$AAp?$AAm@ 00000001800eab60     libucrt:winapi_thunks.obj
 0002:00001ba8       ??_C@_1O@BCCLBEOE@?$AAu?$AAs?$AAe?$AAr?$AA3?$AA2@ 00000001800eaba8     libucrt:winapi_thunks.obj
 0002:00001bb8       ??_C@_1BA@IAIFMGEF@?$AAe?$AAx?$AAt?$AA?9?$AAm?$AAs?$AA?9@ 00000001800eabb8     libucrt:winapi_thunks.obj
 0002:00001bd8       ??_C@_0BA@IHGNDAEB@CompareStringEx@ 00000001800eabd8     libucrt:winapi_thunks.obj
 0002:00001c18       ??_C@_0O@KKBNKAPF@LCMapStringEx@ 00000001800eac18     libucrt:winapi_thunks.obj
 0002:00001c30       ??_C@_0BB@HBDEELFH@LocaleNameToLCID@ 00000001800eac30     libucrt:winapi_thunks.obj
 0002:00001c48       ??_C@_0N@PPOMPGGK@RoInitialize@ 00000001800eac48     libucrt:winapi_thunks.obj
 0002:00001c60       ??_C@_0P@LLFHBIJD@RoUninitialize@ 00000001800eac60     libucrt:winapi_thunks.obj
 0002:00001c78       ??_C@_0CF@OJOFEIGO@AppPolicyGetProcessTerminationM@ 00000001800eac78     libucrt:winapi_thunks.obj
 0002:00001ca8       ??_C@_0CF@NNDFDCOC@AppPolicyGetThreadInitializatio@ 00000001800eaca8     libucrt:winapi_thunks.obj
 0002:00001cd0       ??_C@_02CLFPBFFP@TZ@       00000001800eacd0     libucrt:tzset.obj
 0002:00001cf8       ??_C@_1M@HPNHIDJI@?$AAj?$AAa?$AA?9?$AAJ?$AAP@ 00000001800eacf8     libucrt:mbctype.obj
 0002:00001d08       ??_C@_1M@BIBDDEMK@?$AAz?$AAh?$AA?9?$AAC?$AAN@ 00000001800ead08     libucrt:mbctype.obj
 0002:00001d18       ??_C@_1M@JLOOOEGK@?$AAk?$AAo?$AA?9?$AAK?$AAR@ 00000001800ead18     libucrt:mbctype.obj
 0002:00001d28       ??_C@_1M@CLNBBOPM@?$AAz?$AAh?$AA?9?$AAT?$AAW@ 00000001800ead28     libucrt:mbctype.obj
 0002:00001d40       __lc_time_c                00000001800ead40     libucrt:nlsdata.obj
 0002:00002000       ??_C@_03KOEHGMDN@Sun@      00000001800eb000     libucrt:nlsdata.obj
 0002:00002004       ??_C@_03PDAGKDH@Mon@       00000001800eb004     libucrt:nlsdata.obj
 0002:00002008       ??_C@_03NAGEINEP@Tue@      00000001800eb008     libucrt:nlsdata.obj
 0002:0000200c       ??_C@_03MHOMLAJA@Wed@      00000001800eb00c     libucrt:nlsdata.obj
 0002:00002010       ??_C@_03IOFIKPDN@Thu@      00000001800eb010     libucrt:nlsdata.obj
 0002:00002014       ??_C@_03IDIOELNC@Fri@      00000001800eb014     libucrt:nlsdata.obj
 0002:00002018       ??_C@_03FEFJNEK@Sat@       00000001800eb018     libucrt:nlsdata.obj
 0002:0000201c       ??_C@_06OOPIFAJ@Sunday@    00000001800eb01c     libucrt:nlsdata.obj
 0002:00002024       ??_C@_06JLEDEDGH@Monday@   00000001800eb024     libucrt:nlsdata.obj
 0002:00002030       ??_C@_07BAAGCFCM@Tuesday@  00000001800eb030     libucrt:nlsdata.obj
 0002:00002038       ??_C@_09DLIGFAKA@Wednesday@ 00000001800eb038     libucrt:nlsdata.obj
 0002:00002048       ??_C@_08HACCIKIA@Thursday@ 00000001800eb048     libucrt:nlsdata.obj
 0002:00002054       ??_C@_06JECMNKMI@Friday@   00000001800eb054     libucrt:nlsdata.obj
 0002:00002060       ??_C@_08INBOOONO@Saturday@ 00000001800eb060     libucrt:nlsdata.obj
 0002:0000206c       ??_C@_03JIHJHPIE@Jan@      00000001800eb06c     libucrt:nlsdata.obj
 0002:00002070       ??_C@_03HJBDCHOM@Feb@      00000001800eb070     libucrt:nlsdata.obj
 0002:00002074       ??_C@_03ODNJBKGA@Mar@      00000001800eb074     libucrt:nlsdata.obj
 0002:00002078       ??_C@_03LEOLGMJP@Apr@      00000001800eb078     libucrt:nlsdata.obj
 0002:0000207c       ??_C@_03CNMDKL@May@        00000001800eb07c     libucrt:nlsdata.obj
 0002:00002080       ??_C@_03IDFGHECI@Jun@      00000001800eb080     libucrt:nlsdata.obj
 0002:00002084       ??_C@_03LBGABGKK@Jul@      00000001800eb084     libucrt:nlsdata.obj
 0002:00002088       ??_C@_03IFJFEIGA@Aug@      00000001800eb088     libucrt:nlsdata.obj
 0002:0000208c       ??_C@_03GGCAPAJC@Sep@      00000001800eb08c     libucrt:nlsdata.obj
 0002:00002090       ??_C@_03BMAOKBAD@Oct@      00000001800eb090     libucrt:nlsdata.obj
 0002:00002094       ??_C@_03JPJOFNIA@Nov@      00000001800eb094     libucrt:nlsdata.obj
 0002:00002098       ??_C@_03MKABNOCG@Dec@      00000001800eb098     libucrt:nlsdata.obj
 0002:000020a0       ??_C@_07CGJPFGJA@January@  00000001800eb0a0     libucrt:nlsdata.obj
 0002:000020a8       ??_C@_08GNJGEPFN@February@ 00000001800eb0a8     libucrt:nlsdata.obj
 0002:000020b4       ??_C@_05HPCKOFNC@March@    00000001800eb0b4     libucrt:nlsdata.obj
 0002:000020bc       ??_C@_05DMJDNLEJ@April@    00000001800eb0bc     libucrt:nlsdata.obj
 0002:000020c4       ??_C@_04CNLMGBGM@June@     00000001800eb0c4     libucrt:nlsdata.obj
 0002:000020cc       ??_C@_04MIEPOIFP@July@     00000001800eb0cc     libucrt:nlsdata.obj
 0002:000020d4       ??_C@_06LBBHFDDG@August@   00000001800eb0d4     libucrt:nlsdata.obj
 0002:000020e0       ??_C@_09BHHEALKD@September@ 00000001800eb0e0     libucrt:nlsdata.obj
 0002:000020f0       ??_C@_07JJNFCEND@October@  00000001800eb0f0     libucrt:nlsdata.obj
 0002:000020f8       ??_C@_08HCHEGEOA@November@ 00000001800eb0f8     libucrt:nlsdata.obj
 0002:00002108       ??_C@_08EDHMEBNP@December@ 00000001800eb108     libucrt:nlsdata.obj
 0002:00002118       ??_C@_08BPBNCDIB@MM?1dd?1yy@ 00000001800eb118     libucrt:nlsdata.obj
 0002:00002128       ??_C@_0BE@CKGJFCPC@dddd?0?5MMMM?5dd?0?5yyyy@ 00000001800eb128     libucrt:nlsdata.obj
 0002:00002140       ??_C@_08JCCMCCIL@HH?3mm?3ss@ 00000001800eb140     libucrt:nlsdata.obj
 0002:00002150       ??_C@_17MBGCMIPB@?$AAS?$AAu?$AAn@ 00000001800eb150     libucrt:nlsdata.obj
 0002:00002158       ??_C@_17KBOMKBF@?$AAM?$AAo?$AAn@ 00000001800eb158     libucrt:nlsdata.obj
 0002:00002160       ??_C@_17BMKGEGOJ@?$AAT?$AAu?$AAe@ 00000001800eb160     libucrt:nlsdata.obj
 0002:00002168       ??_C@_17CJEDCEPE@?$AAW?$AAe?$AAd@ 00000001800eb168     libucrt:nlsdata.obj
 0002:00002170       ??_C@_17PDPHAADD@?$AAT?$AAh?$AAu@ 00000001800eb170     libucrt:nlsdata.obj
 0002:00002178       ??_C@_17HFOLPPLP@?$AAF?$AAr?$AAi@ 00000001800eb178     libucrt:nlsdata.obj
 0002:00002180       ??_C@_17GGIBDPIH@?$AAS?$AAa?$AAt@ 00000001800eb180     libucrt:nlsdata.obj
 0002:00002188       ??_C@_1O@IHNHDHPB@?$AAS?$AAu?$AAn?$AAd?$AAa?$AAy@ 00000001800eb188     libucrt:nlsdata.obj
 0002:00002198       ??_C@_1O@MMNBFLIA@?$AAM?$AAo?$AAn?$AAd?$AAa?$AAy@ 00000001800eb198     libucrt:nlsdata.obj
 0002:000021a8       ??_C@_1BA@ENFBFFEK@?$AAT?$AAu?$AAe?$AAs?$AAd?$AAa?$AAy@ 00000001800eb1a8     libucrt:nlsdata.obj
 0002:000021b8       ??_C@_1BE@EBOGMDOH@?$AAW?$AAe?$AAd?$AAn?$AAe?$AAs?$AAd?$AAa?$AAy@ 00000001800eb1b8     libucrt:nlsdata.obj
 0002:000021d0       ??_C@_1BC@HHMNLIHE@?$AAT?$AAh?$AAu?$AAr?$AAs?$AAd?$AAa?$AAy@ 00000001800eb1d0     libucrt:nlsdata.obj
 0002:000021e8       ??_C@_1O@PDICJHAG@?$AAF?$AAr?$AAi?$AAd?$AAa?$AAy@ 00000001800eb1e8     libucrt:nlsdata.obj
 0002:000021f8       ??_C@_1BC@ENMNNPAJ@?$AAS?$AAa?$AAt?$AAu?$AAr?$AAd?$AAa?$AAy@ 00000001800eb1f8     libucrt:nlsdata.obj
 0002:00002210       ??_C@_17DKNBKCHM@?$AAJ?$AAa?$AAn@ 00000001800eb210     libucrt:nlsdata.obj
 0002:00002218       ??_C@_17LMDJEKJN@?$AAF?$AAe?$AAb@ 00000001800eb218     libucrt:nlsdata.obj
 0002:00002220       ??_C@_17CKNLEDEC@?$AAM?$AAa?$AAr@ 00000001800eb220     libucrt:nlsdata.obj
 0002:00002228       ??_C@_17LFPOIHDD@?$AAA?$AAp?$AAr@ 00000001800eb228     libucrt:nlsdata.obj
 0002:00002230       ??_C@_17PNNKMEED@?$AAM?$AAa?$AAy@ 00000001800eb230     libucrt:nlsdata.obj
 0002:00002238       ??_C@_17KCJGOCPB@?$AAJ?$AAu?$AAn@ 00000001800eb238     libucrt:nlsdata.obj
 0002:00002240       ??_C@_17IJPCKHK@?$AAJ?$AAu?$AAl@ 00000001800eb240     libucrt:nlsdata.obj
 0002:00002248       ??_C@_17ICPELBCN@?$AAA?$AAu?$AAg@ 00000001800eb248     libucrt:nlsdata.obj
 0002:00002250       ??_C@_17HCHCOKMG@?$AAS?$AAe?$AAp@ 00000001800eb250     libucrt:nlsdata.obj
 0002:00002258       ??_C@_17FNLKOI@?$AAO?$AAc?$AAt@ 00000001800eb258     libucrt:nlsdata.obj
 0002:00002260       ??_C@_17BBDMLCIG@?$AAN?$AAo?$AAv@ 00000001800eb260     libucrt:nlsdata.obj
 0002:00002268       ??_C@_17EGKACKIF@?$AAD?$AAe?$AAc@ 00000001800eb268     libucrt:nlsdata.obj
 0002:00002270       ??_C@_1BA@EFMEIEBA@?$AAJ?$AAa?$AAn?$AAu?$AAa?$AAr?$AAy@ 00000001800eb270     libucrt:nlsdata.obj
 0002:00002280       ??_C@_1BC@JGDDFFAM@?$AAF?$AAe?$AAb?$AAr?$AAu?$AAa?$AAr?$AAy@ 00000001800eb280     libucrt:nlsdata.obj
 0002:00002298       ??_C@_1M@IKEENEDF@?$AAM?$AAa?$AAr?$AAc?$AAh@ 00000001800eb298     libucrt:nlsdata.obj
 0002:000022a8       ??_C@_1M@GJNLMHFD@?$AAA?$AAp?$AAr?$AAi?$AAl@ 00000001800eb2a8     libucrt:nlsdata.obj
 0002:000022b8       ??_C@_19EPFLPGAP@?$AAJ?$AAu?$AAn?$AAe@ 00000001800eb2b8     libucrt:nlsdata.obj
 0002:000022c8       ??_C@_19BIFMLPCD@?$AAJ?$AAu?$AAl?$AAy@ 00000001800eb2c8     libucrt:nlsdata.obj
 0002:000022d8       ??_C@_1O@PAHLKOAC@?$AAA?$AAu?$AAg?$AAu?$AAs?$AAt@ 00000001800eb2d8     libucrt:nlsdata.obj
 0002:000022e8       ??_C@_1BE@DKAAMBJL@?$AAS?$AAe?$AAp?$AAt?$AAe?$AAm?$AAb?$AAe?$AAr@ 00000001800eb2e8     libucrt:nlsdata.obj
 0002:00002300       ??_C@_1BA@EPANDLNG@?$AAO?$AAc?$AAt?$AAo?$AAb?$AAe?$AAr@ 00000001800eb300     libucrt:nlsdata.obj
 0002:00002310       ??_C@_1BC@BGLIFPF@?$AAN?$AAo?$AAv?$AAe?$AAm?$AAb?$AAe?$AAr@ 00000001800eb310     libucrt:nlsdata.obj
 0002:00002328       ??_C@_1BC@FEMKIFH@?$AAD?$AAe?$AAc?$AAe?$AAm?$AAb?$AAe?$AAr@ 00000001800eb328     libucrt:nlsdata.obj
 0002:0000233c       ??_C@_15ODEHAHHF@?$AAA?$AAM@ 00000001800eb33c     libucrt:nlsdata.obj
 0002:00002344       ??_C@_15CLMNNGEL@?$AAP?$AAM@ 00000001800eb344     libucrt:nlsdata.obj
 0002:00002350       ??_C@_1BC@IEBCMHCM@?$AAM?$AAM?$AA?1?$AAd?$AAd?$AA?1?$AAy?$AAy@ 00000001800eb350     libucrt:nlsdata.obj
 0002:00002368       ??_C@_1CI@KNAKOEBC@?$AAd?$AAd?$AAd?$AAd?$AA?0?$AA?5?$AAM?$AAM?$AAM?$AAM?$AA?5?$AAd?$AAd?$AA?0?$AA?5@ 00000001800eb368     libucrt:nlsdata.obj
 0002:00002390       ??_C@_1BC@GDGBMEMK@?$AAH?$AAH?$AA?3?$AAm?$AAm?$AA?3?$AAs?$AAs@ 00000001800eb390     libucrt:nlsdata.obj
 0002:000023a8       ??_C@_1M@BMHNFIME@?$AAe?$AAn?$AA?9?$AAU?$AAS@ 00000001800eb3a8     libucrt:nlsdata.obj
 0002:000023c0       __newctype                 00000001800eb3c0     libucrt:ctype.obj
 0002:000026c0       __newclmap                 00000001800eb6c0     libucrt:ctype.obj
 0002:00002840       __newcumap                 00000001800eb840     libucrt:ctype.obj
 0002:00003800       ??_C@_15EMKDOKLE@?$AAa?$AAr@ 00000001800ec800     libucrt:lcidtoname_downlevel.obj
 0002:00003808       ??_C@_15KNPADPLH@?$AAb?$AAg@ 00000001800ec808     libucrt:lcidtoname_downlevel.obj
 0002:00003810       ??_C@_15EDMHLDMO@?$AAc?$AAa@ 00000001800ec810     libucrt:lcidtoname_downlevel.obj
 0002:00003818       ??_C@_1O@BPEAJADD@?$AAz?$AAh?$AA?9?$AAC?$AAH?$AAS@ 00000001800ec818     libucrt:lcidtoname_downlevel.obj
 0002:00003828       ??_C@_15LJNHCMNK@?$AAc?$AAs@ 00000001800ec828     libucrt:lcidtoname_downlevel.obj
 0002:00003830       ??_C@_15FOMCIDHG@?$AAd?$AAa@ 00000001800ec830     libucrt:lcidtoname_downlevel.obj
 0002:00003838       ??_C@_15NBKABECB@?$AAd?$AAe@ 00000001800ec838     libucrt:lcidtoname_downlevel.obj
 0002:00003840       ??_C@_15GHPEIIAO@?$AAe?$AAl@ 00000001800ec840     libucrt:lcidtoname_downlevel.obj
 0002:00003848       ??_C@_15MNPNEAIF@?$AAe?$AAn@ 00000001800ec848     libucrt:lcidtoname_downlevel.obj
 0002:00003850       ??_C@_15GPIOMPMH@?$AAe?$AAs@ 00000001800ec850     libucrt:lcidtoname_downlevel.obj
 0002:00003858       ??_C@_15NGLOAKJC@?$AAf?$AAi@ 00000001800ec858     libucrt:lcidtoname_downlevel.obj
 0002:00003860       ??_C@_15FBKGNKAM@?$AAf?$AAr@ 00000001800ec860     libucrt:lcidtoname_downlevel.obj
 0002:00003868       ??_C@_15KGGCNEFK@?$AAh?$AAe@ 00000001800ec868     libucrt:lcidtoname_downlevel.obj
 0002:00003870       ??_C@_15PGHLIDMF@?$AAh?$AAu@ 00000001800ec870     libucrt:lcidtoname_downlevel.obj
 0002:00003878       ??_C@_15BIEMAPLM@?$AAi?$AAs@ 00000001800ec878     libucrt:lcidtoname_downlevel.obj
 0002:00003880       ??_C@_15IFJLDHAF@?$AAi?$AAt@ 00000001800ec880     libucrt:lcidtoname_downlevel.obj
 0002:00003888       ??_C@_15GEMIOCAG@?$AAj?$AAa@ 00000001800ec888     libucrt:lcidtoname_downlevel.obj
 0002:00003890       ??_C@_15EPELEGJA@?$AAk?$AAo@ 00000001800ec890     libucrt:lcidtoname_downlevel.obj
 0002:00003898       ??_C@_15NDDHIMN@?$AAn?$AAl@ 00000001800ec898     libucrt:lcidtoname_downlevel.obj
 0002:000038a0       ??_C@_15BPIGNHCD@?$AAn?$AAo@ 00000001800ec8a0     libucrt:lcidtoname_downlevel.obj
 0002:000038a8       ??_C@_15DEOPBLCG@?$AAp?$AAl@ 00000001800ec8a8     libucrt:lcidtoname_downlevel.obj
 0002:000038b0       ??_C@_15KBECGEFG@?$AAp?$AAt@ 00000001800ec8b0     libucrt:lcidtoname_downlevel.obj
 0002:000038b8       ??_C@_15GLJCBFMD@?$AAr?$AAo@ 00000001800ec8b8     libucrt:lcidtoname_downlevel.obj
 0002:000038c0       ??_C@_15FEDGKCDI@?$AAr?$AAu@ 00000001800ec8c0     libucrt:lcidtoname_downlevel.obj
 0002:000038c8       ??_C@_15GLKMLLHM@?$AAh?$AAr@ 00000001800ec8c8     libucrt:lcidtoname_downlevel.obj
 0002:000038d0       ??_C@_15CPKMFBDB@?$AAs?$AAk@ 00000001800ec8d0     libucrt:lcidtoname_downlevel.obj
 0002:000038d8       ??_C@_15BAAIOGMK@?$AAs?$AAq@ 00000001800ec8d8     libucrt:lcidtoname_downlevel.obj
 0002:000038e0       ??_C@_15INNPNOHD@?$AAs?$AAv@ 00000001800ec8e0     libucrt:lcidtoname_downlevel.obj
 0002:000038e8       ??_C@_15CABMMOGH@?$AAt?$AAh@ 00000001800ec8e8     libucrt:lcidtoname_downlevel.obj
 0002:000038f0       ??_C@_15BPLIHJJM@?$AAt?$AAr@ 00000001800ec8f0     libucrt:lcidtoname_downlevel.obj
 0002:000038f8       ??_C@_15NEOEKKDJ@?$AAu?$AAr@ 00000001800ec8f8     libucrt:lcidtoname_downlevel.obj
 0002:00003900       ??_C@_15NFICGAJK@?$AAi?$AAd@ 00000001800ec900     libucrt:lcidtoname_downlevel.obj
 0002:00003908       ??_C@_15PJPFLCCM@?$AAu?$AAk@ 00000001800ec908     libucrt:lcidtoname_downlevel.obj
 0002:00003910       ??_C@_15HPJPHDM@?$AAb?$AAe@ 00000001800ec910     libucrt:lcidtoname_downlevel.obj
 0002:00003918       ??_C@_15LCHLGJII@?$AAs?$AAl@ 00000001800ec918     libucrt:lcidtoname_downlevel.obj
 0002:00003920       ??_C@_15PCFJPHHO@?$AAe?$AAt@ 00000001800ec920     libucrt:lcidtoname_downlevel.obj
 0002:00003928       ??_C@_15HPFPGODN@?$AAl?$AAv@ 00000001800ec928     libucrt:lcidtoname_downlevel.obj
 0002:00003930       ??_C@_15NFFGKGLG@?$AAl?$AAt@ 00000001800ec930     libucrt:lcidtoname_downlevel.obj
 0002:00003938       ??_C@_15BDAKCCHN@?$AAf?$AAa@ 00000001800ec938     libucrt:lcidtoname_downlevel.obj
 0002:00003940       ??_C@_15NFGIAIAJ@?$AAv?$AAi@ 00000001800ec940     libucrt:lcidtoname_downlevel.obj
 0002:00003948       ??_C@_15LMKNDMHN@?$AAh?$AAy@ 00000001800ec948     libucrt:lcidtoname_downlevel.obj
 0002:00003950       ??_C@_15IJBHMCFL@?$AAa?$AAz@ 00000001800ec950     libucrt:lcidtoname_downlevel.obj
 0002:00003958       ??_C@_15EKOFJABL@?$AAe?$AAu@ 00000001800ec958     libucrt:lcidtoname_downlevel.obj
 0002:00003960       ??_C@_15BGHADCNK@?$AAm?$AAk@ 00000001800ec960     libucrt:lcidtoname_downlevel.obj
 0002:00003968       ??_C@_15JDNICKHM@?$AAa?$AAf@ 00000001800ec968     libucrt:lcidtoname_downlevel.obj
 0002:00003970       ??_C@_15KPJEDBKD@?$AAk?$AAa@ 00000001800ec970     libucrt:lcidtoname_downlevel.obj
 0002:00003978       ??_C@_15PDNFFFEO@?$AAf?$AAo@ 00000001800ec978     libucrt:lcidtoname_downlevel.obj
 0002:00003980       ??_C@_15OMLEGLOC@?$AAh?$AAi@ 00000001800ec980     libucrt:lcidtoname_downlevel.obj
 0002:00003988       ??_C@_15IDNNENKK@?$AAm?$AAs@ 00000001800ec988     libucrt:lcidtoname_downlevel.obj
 0002:00003990       ??_C@_15MACJNBMH@?$AAk?$AAk@ 00000001800ec990     libucrt:lcidtoname_downlevel.obj
 0002:00003998       ??_C@_15DKDJEOND@?$AAk?$AAy@ 00000001800ec998     libucrt:lcidtoname_downlevel.obj
 0002:000039a0       ??_C@_15DFGDLJBG@?$AAs?$AAw@ 00000001800ec9a0     libucrt:lcidtoname_downlevel.obj
 0002:000039a8       ??_C@_15BBFAICNG@?$AAu?$AAz@ 00000001800ec9a8     libucrt:lcidtoname_downlevel.obj
 0002:000039b0       ??_C@_15DKNDCGEA@?$AAt?$AAt@ 00000001800ec9b0     libucrt:lcidtoname_downlevel.obj
 0002:000039b8       ??_C@_15MGIFMDPL@?$AAp?$AAa@ 00000001800ec9b8     libucrt:lcidtoname_downlevel.obj
 0002:000039c0       ??_C@_15HCNDBBA@?$AAg?$AAu@ 00000001800ec9c0     libucrt:lcidtoname_downlevel.obj
 0002:000039c8       ??_C@_15FNBEIBON@?$AAt?$AAa@ 00000001800ec9c8     libucrt:lcidtoname_downlevel.obj
 0002:000039d0       ??_C@_15NCHGBGLK@?$AAt?$AAe@ 00000001800ec9d0     libucrt:lcidtoname_downlevel.obj
 0002:000039d8       ??_C@_15PHPHCBPF@?$AAk?$AAn@ 00000001800ec9d8     libucrt:lcidtoname_downlevel.obj
 0002:000039e0       ??_C@_15DLGBCKMP@?$AAm?$AAr@ 00000001800ec9e0     libucrt:lcidtoname_downlevel.obj
 0002:000039e8       ??_C@_15EABBLBFF@?$AAs?$AAa@ 00000001800ec9e8     libucrt:lcidtoname_downlevel.obj
 0002:000039f0       ??_C@_15CBKOMCOI@?$AAm?$AAn@ 00000001800ec9f0     libucrt:lcidtoname_downlevel.obj
 0002:000039f8       ??_C@_15CKDMCJAF@?$AAg?$AAl@ 00000001800ec9f8     libucrt:lcidtoname_downlevel.obj
 0002:00003a00       ??_C@_17CNJFBPG@?$AAk?$AAo?$AAk@ 00000001800eca00     libucrt:lcidtoname_downlevel.obj
 0002:00003a08       ??_C@_17FFBJICPL@?$AAs?$AAy?$AAr@ 00000001800eca08     libucrt:lcidtoname_downlevel.obj
 0002:00003a10       ??_C@_17KPNDCPAF@?$AAd?$AAi?$AAv@ 00000001800eca10     libucrt:lcidtoname_downlevel.obj
 0002:00003a18       ??_C@_11LOCGONAA@@         00000001800eca18     libucrt:lcidtoname_downlevel.obj
 0002:00003a20       ??_C@_1M@OKAHONE@?$AAa?$AAr?$AA?9?$AAS?$AAA@ 00000001800eca20     libucrt:lcidtoname_downlevel.obj
 0002:00003a30       ??_C@_1M@FFFIGIGK@?$AAb?$AAg?$AA?9?$AAB?$AAG@ 00000001800eca30     libucrt:lcidtoname_downlevel.obj
 0002:00003a40       ??_C@_1M@BJNKEDC@?$AAc?$AAa?$AA?9?$AAE?$AAS@ 00000001800eca40     libucrt:lcidtoname_downlevel.obj
 0002:00003a50       ??_C@_1M@IJJHFJHA@?$AAc?$AAs?$AA?9?$AAC?$AAZ@ 00000001800eca50     libucrt:lcidtoname_downlevel.obj
 0002:00003a60       ??_C@_1M@CLPEOBGI@?$AAd?$AAa?$AA?9?$AAD?$AAK@ 00000001800eca60     libucrt:lcidtoname_downlevel.obj
 0002:00003a70       ??_C@_1M@MCMADGCB@?$AAd?$AAe?$AA?9?$AAD?$AAE@ 00000001800eca70     libucrt:lcidtoname_downlevel.obj
 0002:00003a80       ??_C@_1M@OOCKEMAM@?$AAe?$AAl?$AA?9?$AAG?$AAR@ 00000001800eca80     libucrt:lcidtoname_downlevel.obj
 0002:00003a90       ??_C@_1M@DDNJFGID@?$AAf?$AAi?$AA?9?$AAF?$AAI@ 00000001800eca90     libucrt:lcidtoname_downlevel.obj
 0002:00003aa0       ??_C@_1M@GLIPPMAC@?$AAf?$AAr?$AA?9?$AAF?$AAR@ 00000001800ecaa0     libucrt:lcidtoname_downlevel.obj
 0002:00003ab0       ??_C@_1M@GFMCHPE@?$AAh?$AAe?$AA?9?$AAI?$AAL@ 00000001800ecab0     libucrt:lcidtoname_downlevel.obj
 0002:00003ac0       ??_C@_1M@MHLPGNKM@?$AAh?$AAu?$AA?9?$AAH?$AAU@ 00000001800ecac0     libucrt:lcidtoname_downlevel.obj
 0002:00003ad0       ??_C@_1M@LPDDNNPN@?$AAi?$AAs?$AA?9?$AAI?$AAS@ 00000001800ecad0     libucrt:lcidtoname_downlevel.obj
 0002:00003ae0       ??_C@_1M@MADIPODN@?$AAi?$AAt?$AA?9?$AAI?$AAT@ 00000001800ecae0     libucrt:lcidtoname_downlevel.obj
 0002:00003af0       ??_C@_1M@IHBJJGG@?$AAn?$AAl?$AA?9?$AAN?$AAL@ 00000001800ecaf0     libucrt:lcidtoname_downlevel.obj
 0002:00003b00       ??_C@_1M@EANAGDL@?$AAn?$AAb?$AA?9?$AAN?$AAO@ 00000001800ecb00     libucrt:lcidtoname_downlevel.obj
 0002:00003b10       ??_C@_1M@NEIEMEGP@?$AAp?$AAl?$AA?9?$AAP?$AAL@ 00000001800ecb10     libucrt:lcidtoname_downlevel.obj
 0002:00003b20       ??_C@_1M@BOCFIGEP@?$AAp?$AAt?$AA?9?$AAB?$AAR@ 00000001800ecb20     libucrt:lcidtoname_downlevel.obj
 0002:00003b30       ??_C@_1M@IMPFOPBG@?$AAr?$AAo?$AA?9?$AAR?$AAO@ 00000001800ecb30     libucrt:lcidtoname_downlevel.obj
 0002:00003b40       ??_C@_1M@IDNNEJMM@?$AAr?$AAu?$AA?9?$AAR?$AAU@ 00000001800ecb40     libucrt:lcidtoname_downlevel.obj
 0002:00003b50       ??_C@_1M@LILEEOGM@?$AAh?$AAr?$AA?9?$AAH?$AAR@ 00000001800ecb50     libucrt:lcidtoname_downlevel.obj
 0002:00003b60       ??_C@_1M@FKIFEHPB@?$AAs?$AAk?$AA?9?$AAS?$AAK@ 00000001800ecb60     libucrt:lcidtoname_downlevel.obj
 0002:00003b70       ??_C@_1M@LJMAMNPJ@?$AAs?$AAq?$AA?9?$AAA?$AAL@ 00000001800ecb70     libucrt:lcidtoname_downlevel.obj
 0002:00003b80       ??_C@_1M@GIAKDKJK@?$AAs?$AAv?$AA?9?$AAS?$AAE@ 00000001800ecb80     libucrt:lcidtoname_downlevel.obj
 0002:00003b90       ??_C@_1M@MKJKIKCL@?$AAt?$AAh?$AA?9?$AAT?$AAH@ 00000001800ecb90     libucrt:lcidtoname_downlevel.obj
 0002:00003ba0       ??_C@_1M@MFLCCMPB@?$AAt?$AAr?$AA?9?$AAT?$AAR@ 00000001800ecba0     libucrt:lcidtoname_downlevel.obj
 0002:00003bb0       ??_C@_1M@OIJHDKJN@?$AAu?$AAr?$AA?9?$AAP?$AAK@ 00000001800ecbb0     libucrt:lcidtoname_downlevel.obj
 0002:00003bc0       ??_C@_1M@LHIPCIEK@?$AAi?$AAd?$AA?9?$AAI?$AAD@ 00000001800ecbc0     libucrt:lcidtoname_downlevel.obj
 0002:00003bd0       ??_C@_1M@MFMOBGI@?$AAu?$AAk?$AA?9?$AAU?$AAA@ 00000001800ecbd0     libucrt:lcidtoname_downlevel.obj
 0002:00003be0       ??_C@_1M@OBGLJIPL@?$AAb?$AAe?$AA?9?$AAB?$AAY@ 00000001800ecbe0     libucrt:lcidtoname_downlevel.obj
 0002:00003bf0       ??_C@_1M@BCFAJEAD@?$AAs?$AAl?$AA?9?$AAS?$AAI@ 00000001800ecbf0     libucrt:lcidtoname_downlevel.obj
 0002:00003c00       ??_C@_1M@FKFFEDDN@?$AAe?$AAt?$AA?9?$AAE?$AAE@ 00000001800ecc00     libucrt:lcidtoname_downlevel.obj
 0002:00003c10       ??_C@_1M@KGKKAACI@?$AAl?$AAv?$AA?9?$AAL?$AAV@ 00000001800ecc10     libucrt:lcidtoname_downlevel.obj
 0002:00003c20       ??_C@_1M@IFGBIJO@?$AAl?$AAt?$AA?9?$AAL?$AAT@ 00000001800ecc20     libucrt:lcidtoname_downlevel.obj
 0002:00003c30       ??_C@_1M@FGEAHEDM@?$AAf?$AAa?$AA?9?$AAI?$AAR@ 00000001800ecc30     libucrt:lcidtoname_downlevel.obj
 0002:00003c40       ??_C@_1M@KBMAIBFN@?$AAv?$AAi?$AA?9?$AAV?$AAN@ 00000001800ecc40     libucrt:lcidtoname_downlevel.obj
 0002:00003c50       ??_C@_1M@GPCBKDJK@?$AAh?$AAy?$AA?9?$AAA?$AAM@ 00000001800ecc50     libucrt:lcidtoname_downlevel.obj
 0002:00003c60       ??_C@_1BG@BECMDDJB@?$AAa?$AAz?$AA?9?$AAA?$AAZ?$AA?9?$AAL?$AAa?$AAt?$AAn@ 00000001800ecc60     libucrt:lcidtoname_downlevel.obj
 0002:00003c78       ??_C@_1M@MAOFCAEA@?$AAe?$AAu?$AA?9?$AAE?$AAS@ 00000001800ecc78     libucrt:lcidtoname_downlevel.obj
 0002:00003c88       ??_C@_1M@IGHABKPI@?$AAm?$AAk?$AA?9?$AAM?$AAK@ 00000001800ecc88     libucrt:lcidtoname_downlevel.obj
 0002:00003c98       ??_C@_1M@IAIGNEJG@?$AAt?$AAn?$AA?9?$AAZ?$AAA@ 00000001800ecc98     libucrt:lcidtoname_downlevel.obj
 0002:00003ca8       ??_C@_1M@IIJCOJFA@?$AAx?$AAh?$AA?9?$AAZ?$AAA@ 00000001800ecca8     libucrt:lcidtoname_downlevel.obj
 0002:00003cb8       ??_C@_1M@LGPJHNJH@?$AAz?$AAu?$AA?9?$AAZ?$AAA@ 00000001800eccb8     libucrt:lcidtoname_downlevel.obj
 0002:00003cc8       ??_C@_1M@HOKAOIO@?$AAa?$AAf?$AA?9?$AAZ?$AAA@ 00000001800eccc8     libucrt:lcidtoname_downlevel.obj
 0002:00003cd8       ??_C@_1M@DPCLHLIE@?$AAk?$AAa?$AA?9?$AAG?$AAE@ 00000001800eccd8     libucrt:lcidtoname_downlevel.obj
 0002:00003ce8       ??_C@_1M@BLKMHJBI@?$AAf?$AAo?$AA?9?$AAF?$AAO@ 00000001800ecce8     libucrt:lcidtoname_downlevel.obj
 0002:00003cf8       ??_C@_1M@LGGJAPPB@?$AAh?$AAi?$AA?9?$AAI?$AAN@ 00000001800eccf8     libucrt:lcidtoname_downlevel.obj
 0002:00003d08       ??_C@_1M@FIKPIHFE@?$AAm?$AAt?$AA?9?$AAM?$AAT@ 00000001800ecd08     libucrt:lcidtoname_downlevel.obj
 0002:00003d18       ??_C@_1M@HEGGPBFA@?$AAs?$AAe?$AA?9?$AAN?$AAO@ 00000001800ecd18     libucrt:lcidtoname_downlevel.obj
 0002:00003d28       ??_C@_1M@EIBJEEPA@?$AAm?$AAs?$AA?9?$AAM?$AAY@ 00000001800ecd28     libucrt:lcidtoname_downlevel.obj
 0002:00003d38       ??_C@_1M@FHLBGMPP@?$AAk?$AAk?$AA?9?$AAK?$AAZ@ 00000001800ecd38     libucrt:lcidtoname_downlevel.obj
 0002:00003d48       ??_C@_1M@NGJJLCGI@?$AAk?$AAy?$AA?9?$AAK?$AAG@ 00000001800ecd48     libucrt:lcidtoname_downlevel.obj
 0002:00003d58       ??_C@_1M@GIENNBFC@?$AAs?$AAw?$AA?9?$AAK?$AAE@ 00000001800ecd58     libucrt:lcidtoname_downlevel.obj
 0002:00003d68       ??_C@_1BG@NDGMJIMJ@?$AAu?$AAz?$AA?9?$AAU?$AAZ?$AA?9?$AAL?$AAa?$AAt?$AAn@ 00000001800ecd68     libucrt:lcidtoname_downlevel.obj
 0002:00003d80       ??_C@_1M@IDCCIHBC@?$AAt?$AAt?$AA?9?$AAR?$AAU@ 00000001800ecd80     libucrt:lcidtoname_downlevel.obj
 0002:00003d90       ??_C@_1M@LOICPMOJ@?$AAb?$AAn?$AA?9?$AAI?$AAN@ 00000001800ecd90     libucrt:lcidtoname_downlevel.obj
 0002:00003da0       ??_C@_1M@KPKKNEAH@?$AAp?$AAa?$AA?9?$AAI?$AAN@ 00000001800ecda0     libucrt:lcidtoname_downlevel.obj
 0002:00003db0       ??_C@_1M@PJGPPBOG@?$AAg?$AAu?$AA?9?$AAI?$AAN@ 00000001800ecdb0     libucrt:lcidtoname_downlevel.obj
 0002:00003dc0       ??_C@_1M@KMKMOPHI@?$AAt?$AAa?$AA?9?$AAI?$AAN@ 00000001800ecdc0     libucrt:lcidtoname_downlevel.obj
 0002:00003dd0       ??_C@_1M@KFEHEPAC@?$AAt?$AAe?$AA?9?$AAI?$AAN@ 00000001800ecdd0     libucrt:lcidtoname_downlevel.obj
 0002:00003de0       ??_C@_1M@CDCLMGHI@?$AAk?$AAn?$AA?9?$AAI?$AAN@ 00000001800ecde0     libucrt:lcidtoname_downlevel.obj
 0002:00003df0       ??_C@_1M@MIODLDKF@?$AAm?$AAl?$AA?9?$AAI?$AAN@ 00000001800ecdf0     libucrt:lcidtoname_downlevel.obj
 0002:00003e00       ??_C@_1M@PBIEACPO@?$AAm?$AAr?$AA?9?$AAI?$AAN@ 00000001800ece00     libucrt:lcidtoname_downlevel.obj
 0002:00003e10       ??_C@_1M@NIDEAGPH@?$AAs?$AAa?$AA?9?$AAI?$AAN@ 00000001800ece10     libucrt:lcidtoname_downlevel.obj
 0002:00003e20       ??_C@_1M@FHIHCBIO@?$AAm?$AAn?$AA?9?$AAM?$AAN@ 00000001800ece20     libucrt:lcidtoname_downlevel.obj
 0002:00003e30       ??_C@_1M@JAIJPENP@?$AAc?$AAy?$AA?9?$AAG?$AAB@ 00000001800ece30     libucrt:lcidtoname_downlevel.obj
 0002:00003e40       ??_C@_1M@PHGFBEPN@?$AAg?$AAl?$AA?9?$AAE?$AAS@ 00000001800ece40     libucrt:lcidtoname_downlevel.obj
 0002:00003e50       ??_C@_1O@KPIPDNCP@?$AAk?$AAo?$AAk?$AA?9?$AAI?$AAN@ 00000001800ece50     libucrt:lcidtoname_downlevel.obj
 0002:00003e60       ??_C@_1O@KNHJLDJA@?$AAs?$AAy?$AAr?$AA?9?$AAS?$AAY@ 00000001800ece60     libucrt:lcidtoname_downlevel.obj
 0002:00003e70       ??_C@_1O@MKEKBLAH@?$AAd?$AAi?$AAv?$AA?9?$AAM?$AAV@ 00000001800ece70     libucrt:lcidtoname_downlevel.obj
 0002:00003e80       ??_C@_1O@OHDCKDDF@?$AAq?$AAu?$AAz?$AA?9?$AAB?$AAO@ 00000001800ece80     libucrt:lcidtoname_downlevel.obj
 0002:00003e90       ??_C@_1M@LEPJNLFD@?$AAn?$AAs?$AA?9?$AAZ?$AAA@ 00000001800ece90     libucrt:lcidtoname_downlevel.obj
 0002:00003ea0       ??_C@_1M@OMLEIIJB@?$AAm?$AAi?$AA?9?$AAN?$AAZ@ 00000001800ecea0     libucrt:lcidtoname_downlevel.obj
 0002:00003eb0       ??_C@_1M@PMPEAILG@?$AAa?$AAr?$AA?9?$AAI?$AAQ@ 00000001800eceb0     libucrt:lcidtoname_downlevel.obj
 0002:00003ec0       ??_C@_1M@CNKPNOEE@?$AAd?$AAe?$AA?9?$AAC?$AAH@ 00000001800ecec0     libucrt:lcidtoname_downlevel.obj
 0002:00003ed0       ??_C@_1M@LKMGMLKO@?$AAe?$AAn?$AA?9?$AAG?$AAB@ 00000001800eced0     libucrt:lcidtoname_downlevel.obj
 0002:00003ee0       ??_C@_1M@PGKJFFGL@?$AAe?$AAs?$AA?9?$AAM?$AAX@ 00000001800ecee0     libucrt:lcidtoname_downlevel.obj
 0002:00003ef0       ??_C@_1M@DNNANBDC@?$AAf?$AAr?$AA?9?$AAB?$AAE@ 00000001800ecef0     libucrt:lcidtoname_downlevel.obj
 0002:00003f00       ??_C@_1M@HLGMDFHM@?$AAi?$AAt?$AA?9?$AAC?$AAH@ 00000001800ecf00     libucrt:lcidtoname_downlevel.obj
 0002:00003f10       ??_C@_1M@CLLBGJH@?$AAn?$AAl?$AA?9?$AAB?$AAE@ 00000001800ecf10     libucrt:lcidtoname_downlevel.obj
 0002:00003f20       ??_C@_1M@BODBOGLF@?$AAn?$AAn?$AA?9?$AAN?$AAO@ 00000001800ecf20     libucrt:lcidtoname_downlevel.obj
 0002:00003f30       ??_C@_1M@HFFAHKAD@?$AAp?$AAt?$AA?9?$AAP?$AAT@ 00000001800ecf30     libucrt:lcidtoname_downlevel.obj
 0002:00003f40       ??_C@_1BG@LNOAKHIE@?$AAs?$AAr?$AA?9?$AAS?$AAP?$AA?9?$AAL?$AAa?$AAt?$AAn@ 00000001800ecf40     libucrt:lcidtoname_downlevel.obj
 0002:00003f58       ??_C@_1M@HBMHBGAK@?$AAs?$AAv?$AA?9?$AAF?$AAI@ 00000001800ecf58     libucrt:lcidtoname_downlevel.obj
 0002:00003f68       ??_C@_1BG@DGCJGJBE@?$AAa?$AAz?$AA?9?$AAA?$AAZ?$AA?9?$AAC?$AAy?$AAr?$AAl@ 00000001800ecf68     libucrt:lcidtoname_downlevel.obj
 0002:00003f80       ??_C@_1M@KEJDAAHB@?$AAs?$AAe?$AA?9?$AAS?$AAE@ 00000001800ecf80     libucrt:lcidtoname_downlevel.obj
 0002:00003f90       ??_C@_1M@HEIBJJAD@?$AAm?$AAs?$AA?9?$AAB?$AAN@ 00000001800ecf90     libucrt:lcidtoname_downlevel.obj
 0002:00003fa0       ??_C@_1BG@PBGJMCEM@?$AAu?$AAz?$AA?9?$AAU?$AAZ?$AA?9?$AAC?$AAy?$AAr?$AAl@ 00000001800ecfa0     libucrt:lcidtoname_downlevel.obj
 0002:00003fb8       ??_C@_1O@LAOBCMDF@?$AAq?$AAu?$AAz?$AA?9?$AAE?$AAC@ 00000001800ecfb8     libucrt:lcidtoname_downlevel.obj
 0002:00003fc8       ??_C@_1M@POEEMAIO@?$AAa?$AAr?$AA?9?$AAE?$AAG@ 00000001800ecfc8     libucrt:lcidtoname_downlevel.obj
 0002:00003fd8       ??_C@_1M@EFAKDEDL@?$AAz?$AAh?$AA?9?$AAH?$AAK@ 00000001800ecfd8     libucrt:lcidtoname_downlevel.obj
 0002:00003fe8       ??_C@_1M@HKKIJHGI@?$AAd?$AAe?$AA?9?$AAA?$AAT@ 00000001800ecfe8     libucrt:lcidtoname_downlevel.obj
 0002:00003ff8       ??_C@_1M@KBFBEHJF@?$AAe?$AAn?$AA?9?$AAA?$AAU@ 00000001800ecff8     libucrt:lcidtoname_downlevel.obj
 0002:00004008       ??_C@_1M@MNPLFAAH@?$AAe?$AAs?$AA?9?$AAE?$AAS@ 00000001800ed008     libucrt:lcidtoname_downlevel.obj
 0002:00004018       ??_C@_1M@HJOOJFMA@?$AAf?$AAr?$AA?9?$AAC?$AAA@ 00000001800ed018     libucrt:lcidtoname_downlevel.obj
 0002:00004028       ??_C@_1BG@JPOFPNAB@?$AAs?$AAr?$AA?9?$AAS?$AAP?$AA?9?$AAC?$AAy?$AAr?$AAl@ 00000001800ed028     libucrt:lcidtoname_downlevel.obj
 0002:00004040       ??_C@_1M@LNFOCMOB@?$AAs?$AAe?$AA?9?$AAF?$AAI@ 00000001800ed040     libucrt:lcidtoname_downlevel.obj
 0002:00004050       ??_C@_1O@MGJBOAMB@?$AAq?$AAu?$AAz?$AA?9?$AAP?$AAE@ 00000001800ed050     libucrt:lcidtoname_downlevel.obj
 0002:00004060       ??_C@_1M@GJINLBOK@?$AAa?$AAr?$AA?9?$AAL?$AAY@ 00000001800ed060     libucrt:lcidtoname_downlevel.obj
 0002:00004070       ??_C@_1M@GGMNHJNL@?$AAz?$AAh?$AA?9?$AAS?$AAG@ 00000001800ed070     libucrt:lcidtoname_downlevel.obj
 0002:00004080       ??_C@_1M@HOIKODND@?$AAd?$AAe?$AA?9?$AAL?$AAU@ 00000001800ed080     libucrt:lcidtoname_downlevel.obj
 0002:00004090       ??_C@_1M@DDOCCGFG@?$AAe?$AAn?$AA?9?$AAC?$AAA@ 00000001800ed090     libucrt:lcidtoname_downlevel.obj
 0002:000040a0       ??_C@_1M@BNOEMJLF@?$AAe?$AAs?$AA?9?$AAG?$AAT@ 00000001800ed0a0     libucrt:lcidtoname_downlevel.obj
 0002:000040b0       ??_C@_1M@EOGNKEK@?$AAf?$AAr?$AA?9?$AAC?$AAH@ 00000001800ed0b0     libucrt:lcidtoname_downlevel.obj
 0002:000040c0       ??_C@_1M@FLIDJFHL@?$AAh?$AAr?$AA?9?$AAB?$AAA@ 00000001800ed0c0     libucrt:lcidtoname_downlevel.obj
 0002:000040d0       ??_C@_1O@FMCELNAJ@?$AAs?$AAm?$AAj?$AA?9?$AAN?$AAO@ 00000001800ed0d0     libucrt:lcidtoname_downlevel.obj
 0002:000040e0       ??_C@_1M@JHGLJMGJ@?$AAa?$AAr?$AA?9?$AAD?$AAZ@ 00000001800ed0e0     libucrt:lcidtoname_downlevel.obj
 0002:000040f0       ??_C@_1M@JKKFDCNP@?$AAz?$AAh?$AA?9?$AAM?$AAO@ 00000001800ed0f0     libucrt:lcidtoname_downlevel.obj
 0002:00004100       ??_C@_1M@GEEFALPE@?$AAd?$AAe?$AA?9?$AAL?$AAI@ 00000001800ed100     libucrt:lcidtoname_downlevel.obj
 0002:00004110       ??_C@_1M@IGEOFBG@?$AAe?$AAn?$AA?9?$AAN?$AAZ@ 00000001800ed110     libucrt:lcidtoname_downlevel.obj
 0002:00004120       ??_C@_1M@KDBONEHP@?$AAe?$AAs?$AA?9?$AAC?$AAR@ 00000001800ed120     libucrt:lcidtoname_downlevel.obj
 0002:00004130       ??_C@_1M@FHMDOHNN@?$AAf?$AAr?$AA?9?$AAL?$AAU@ 00000001800ed130     libucrt:lcidtoname_downlevel.obj
 0002:00004140       ??_C@_1BG@NFKKMAFG@?$AAb?$AAs?$AA?9?$AAB?$AAA?$AA?9?$AAL?$AAa?$AAt?$AAn@ 00000001800ed140     libucrt:lcidtoname_downlevel.obj
 0002:00004158       ??_C@_1O@IMNBEMCI@?$AAs?$AAm?$AAj?$AA?9?$AAS?$AAE@ 00000001800ed158     libucrt:lcidtoname_downlevel.obj
 0002:00004168       ??_C@_1M@DHHMBNDP@?$AAa?$AAr?$AA?9?$AAM?$AAA@ 00000001800ed168     libucrt:lcidtoname_downlevel.obj
 0002:00004178       ??_C@_1M@BNBLJCGH@?$AAe?$AAn?$AA?9?$AAI?$AAE@ 00000001800ed178     libucrt:lcidtoname_downlevel.obj
 0002:00004188       ??_C@_1M@GEPAFMDL@?$AAe?$AAs?$AA?9?$AAP?$AAA@ 00000001800ed188     libucrt:lcidtoname_downlevel.obj
 0002:00004198       ??_C@_1M@OJONDMDL@?$AAf?$AAr?$AA?9?$AAM?$AAC@ 00000001800ed198     libucrt:lcidtoname_downlevel.obj
 0002:000041a8       ??_C@_1BG@OBCNFJB@?$AAs?$AAr?$AA?9?$AAB?$AAA?$AA?9?$AAL?$AAa?$AAt?$AAn@ 00000001800ed1a8     libucrt:lcidtoname_downlevel.obj
 0002:000041c0       ??_C@_1O@KEMEEGPO@?$AAs?$AAm?$AAa?$AA?9?$AAN?$AAO@ 00000001800ed1c0     libucrt:lcidtoname_downlevel.obj
 0002:000041d0       ??_C@_1M@ELMGFODK@?$AAa?$AAr?$AA?9?$AAT?$AAN@ 00000001800ed1d0     libucrt:lcidtoname_downlevel.obj
 0002:000041e0       ??_C@_1M@BHDLHFAF@?$AAe?$AAn?$AA?9?$AAZ?$AAA@ 00000001800ed1e0     libucrt:lcidtoname_downlevel.obj
 0002:000041f0       ??_C@_1M@BMGIGLIF@?$AAe?$AAs?$AA?9?$AAD?$AAO@ 00000001800ed1f0     libucrt:lcidtoname_downlevel.obj
 0002:00004200       ??_C@_1BG@CMBHIPBE@?$AAs?$AAr?$AA?9?$AAB?$AAA?$AA?9?$AAC?$AAy?$AAr?$AAl@ 00000001800ed200     libucrt:lcidtoname_downlevel.obj
 0002:00004218       ??_C@_1O@HEDBLHNP@?$AAs?$AAm?$AAa?$AA?9?$AAS?$AAE@ 00000001800ed218     libucrt:lcidtoname_downlevel.obj
 0002:00004228       ??_C@_1M@DAGCADIM@?$AAa?$AAr?$AA?9?$AAO?$AAM@ 00000001800ed228     libucrt:lcidtoname_downlevel.obj
 0002:00004238       ??_C@_1M@FODLMICG@?$AAe?$AAn?$AA?9?$AAJ?$AAM@ 00000001800ed238     libucrt:lcidtoname_downlevel.obj
 0002:00004248       ??_C@_1M@DNMLCIHB@?$AAe?$AAs?$AA?9?$AAV?$AAE@ 00000001800ed248     libucrt:lcidtoname_downlevel.obj
 0002:00004258       ??_C@_1O@EOKHMKJK@?$AAs?$AAm?$AAs?$AA?9?$AAF?$AAI@ 00000001800ed258     libucrt:lcidtoname_downlevel.obj
 0002:00004268       ??_C@_1M@CAFJMKOF@?$AAa?$AAr?$AA?9?$AAY?$AAE@ 00000001800ed268     libucrt:lcidtoname_downlevel.obj
 0002:00004278       ??_C@_1M@CBFHIJLI@?$AAe?$AAn?$AA?9?$AAC?$AAB@ 00000001800ed278     libucrt:lcidtoname_downlevel.obj
 0002:00004288       ??_C@_1M@BGNFLDN@?$AAe?$AAs?$AA?9?$AAC?$AAO@ 00000001800ed288     libucrt:lcidtoname_downlevel.obj
 0002:00004298       ??_C@_1O@JMPHMAMC@?$AAs?$AAm?$AAn?$AA?9?$AAF?$AAI@ 00000001800ed298     libucrt:lcidtoname_downlevel.obj
 0002:000042a8       ??_C@_1M@JLANABKE@?$AAa?$AAr?$AA?9?$AAS?$AAY@ 00000001800ed2a8     libucrt:lcidtoname_downlevel.obj
 0002:000042b8       ??_C@_1M@HPKGCFGN@?$AAe?$AAn?$AA?9?$AAB?$AAZ@ 00000001800ed2b8     libucrt:lcidtoname_downlevel.obj
 0002:000042c8       ??_C@_1M@OLJCMLGM@?$AAe?$AAs?$AA?9?$AAP?$AAE@ 00000001800ed2c8     libucrt:lcidtoname_downlevel.obj
 0002:000042d8       ??_C@_1M@MKKGFKLE@?$AAa?$AAr?$AA?9?$AAJ?$AAO@ 00000001800ed2d8     libucrt:lcidtoname_downlevel.obj
 0002:000042e8       ??_C@_1M@EKPGLDNI@?$AAe?$AAn?$AA?9?$AAT?$AAT@ 00000001800ed2e8     libucrt:lcidtoname_downlevel.obj
 0002:000042f8       ??_C@_1M@OONGHFHE@?$AAe?$AAs?$AA?9?$AAA?$AAR@ 00000001800ed2f8     libucrt:lcidtoname_downlevel.obj
 0002:00004308       ??_C@_1M@OOJFGBHE@?$AAa?$AAr?$AA?9?$AAL?$AAB@ 00000001800ed308     libucrt:lcidtoname_downlevel.obj
 0002:00004318       ??_C@_1M@GCEJHNEG@?$AAe?$AAn?$AA?9?$AAZ?$AAW@ 00000001800ed318     libucrt:lcidtoname_downlevel.obj
 0002:00004328       ??_C@_1M@JNOCAHJI@?$AAe?$AAs?$AA?9?$AAE?$AAC@ 00000001800ed328     libucrt:lcidtoname_downlevel.obj
 0002:00004338       ??_C@_1M@JEFHPGGB@?$AAa?$AAr?$AA?9?$AAK?$AAW@ 00000001800ed338     libucrt:lcidtoname_downlevel.obj
 0002:00004348       ??_C@_1M@MLKIBJOJ@?$AAe?$AAn?$AA?9?$AAP?$AAH@ 00000001800ed348     libucrt:lcidtoname_downlevel.obj
 0002:00004358       ??_C@_1M@BDNIPEND@?$AAe?$AAs?$AA?9?$AAC?$AAL@ 00000001800ed358     libucrt:lcidtoname_downlevel.obj
 0002:00004368       ??_C@_1M@MPNMEKBD@?$AAa?$AAr?$AA?9?$AAA?$AAE@ 00000001800ed368     libucrt:lcidtoname_downlevel.obj
 0002:00004378       ??_C@_1M@KBJALCPI@?$AAe?$AAs?$AA?9?$AAU?$AAY@ 00000001800ed378     libucrt:lcidtoname_downlevel.obj
 0002:00004388       ??_C@_1M@LLCCOAGA@?$AAa?$AAr?$AA?9?$AAB?$AAH@ 00000001800ed388     libucrt:lcidtoname_downlevel.obj
 0002:00004398       ??_C@_1M@PBFNCDEL@?$AAe?$AAs?$AA?9?$AAP?$AAY@ 00000001800ed398     libucrt:lcidtoname_downlevel.obj
 0002:000043a8       ??_C@_1M@EDGINPNP@?$AAa?$AAr?$AA?9?$AAQ?$AAA@ 00000001800ed3a8     libucrt:lcidtoname_downlevel.obj
 0002:000043b8       ??_C@_1M@MKDBIIJI@?$AAe?$AAs?$AA?9?$AAB?$AAO@ 00000001800ed3b8     libucrt:lcidtoname_downlevel.obj
 0002:000043c8       ??_C@_1M@CPKKEBLD@?$AAe?$AAs?$AA?9?$AAS?$AAV@ 00000001800ed3c8     libucrt:lcidtoname_downlevel.obj
 0002:000043d8       ??_C@_1M@NDBGMMJL@?$AAe?$AAs?$AA?9?$AAH?$AAN@ 00000001800ed3d8     libucrt:lcidtoname_downlevel.obj
 0002:000043e8       ??_C@_1M@JIJIBHDP@?$AAe?$AAs?$AA?9?$AAN?$AAI@ 00000001800ed3e8     libucrt:lcidtoname_downlevel.obj
 0002:000043f8       ??_C@_1M@CGFMKEEK@?$AAe?$AAs?$AA?9?$AAP?$AAR@ 00000001800ed3f8     libucrt:lcidtoname_downlevel.obj
 0002:00004408       ??_C@_1O@ICJHKIIK@?$AAz?$AAh?$AA?9?$AAC?$AAH?$AAT@ 00000001800ed408     libucrt:lcidtoname_downlevel.obj
 0002:00004418       ??_C@_15CLNEJCE@?$AAs?$AAr@ 00000001800ed418     libucrt:lcidtoname_downlevel.obj
 0002:00005260       ??_C@_1M@KAHEKEIG@?$AAa?$AAf?$AA?9?$AAz?$AAa@ 00000001800ee260     libucrt:lcidtoname_downlevel.obj
 0002:00005270       ??_C@_1M@GIECOABL@?$AAa?$AAr?$AA?9?$AAa?$AAe@ 00000001800ee270     libucrt:lcidtoname_downlevel.obj
 0002:00005280       ??_C@_1M@BMLMEKGI@?$AAa?$AAr?$AA?9?$AAb?$AAh@ 00000001800ee280     libucrt:lcidtoname_downlevel.obj
 0002:00005290       ??_C@_1M@DAPFDGGB@?$AAa?$AAr?$AA?9?$AAd?$AAz@ 00000001800ee290     libucrt:lcidtoname_downlevel.obj
 0002:000052a0       ??_C@_1M@FJNKGKIG@?$AAa?$AAr?$AA?9?$AAe?$AAg@ 00000001800ee2a0     libucrt:lcidtoname_downlevel.obj
 0002:000052b0       ??_C@_1M@FLGKKCLO@?$AAa?$AAr?$AA?9?$AAi?$AAq@ 00000001800ee2b0     libucrt:lcidtoname_downlevel.obj
 0002:000052c0       ??_C@_1M@GNDIPALM@?$AAa?$AAr?$AA?9?$AAj?$AAo@ 00000001800ee2c0     libucrt:lcidtoname_downlevel.obj
 0002:000052d0       ??_C@_1M@DDMJFMGJ@?$AAa?$AAr?$AA?9?$AAk?$AAw@ 00000001800ee2d0     libucrt:lcidtoname_downlevel.obj
 0002:000052e0       ??_C@_1M@EJALMLHM@?$AAa?$AAr?$AA?9?$AAl?$AAb@ 00000001800ee2e0     libucrt:lcidtoname_downlevel.obj
 0002:000052f0       ??_C@_1M@MOBDBLOC@?$AAa?$AAr?$AA?9?$AAl?$AAy@ 00000001800ee2f0     libucrt:lcidtoname_downlevel.obj
 0002:00005300       ??_C@_1M@JAOCLHDH@?$AAa?$AAr?$AA?9?$AAm?$AAa@ 00000001800ee300     libucrt:lcidtoname_downlevel.obj
 0002:00005310       ??_C@_1M@JHPMKJIE@?$AAa?$AAr?$AA?9?$AAo?$AAm@ 00000001800ee310     libucrt:lcidtoname_downlevel.obj
 0002:00005320       ??_C@_1M@OEPGHFNH@?$AAa?$AAr?$AA?9?$AAq?$AAa@ 00000001800ee320     libucrt:lcidtoname_downlevel.obj
 0002:00005330       ??_C@_1M@KJDONENM@?$AAa?$AAr?$AA?9?$AAs?$AAa@ 00000001800ee330     libucrt:lcidtoname_downlevel.obj
 0002:00005340       ??_C@_1M@DMJDKLKM@?$AAa?$AAr?$AA?9?$AAs?$AAy@ 00000001800ee340     libucrt:lcidtoname_downlevel.obj
 0002:00005350       ??_C@_1M@OMFIPEDC@?$AAa?$AAr?$AA?9?$AAt?$AAn@ 00000001800ee350     libucrt:lcidtoname_downlevel.obj
 0002:00005360       ??_C@_1M@IHMHGAON@?$AAa?$AAr?$AA?9?$AAy?$AAe@ 00000001800ee360     libucrt:lcidtoname_downlevel.obj
 0002:00005370       ??_C@_1BG@KDCPGJGB@?$AAa?$AAz?$AA?9?$AAa?$AAz?$AA?9?$AAc?$AAy?$AAr?$AAl@ 00000001800ee370     libucrt:lcidtoname_downlevel.obj
 0002:00005388       ??_C@_1BG@IBCKDDOE@?$AAa?$AAz?$AA?9?$AAa?$AAz?$AA?9?$AAl?$AAa?$AAt?$AAn@ 00000001800ee388     libucrt:lcidtoname_downlevel.obj
 0002:000053a0       ??_C@_1M@EGPFDCPD@?$AAb?$AAe?$AA?9?$AAb?$AAy@ 00000001800ee3a0     libucrt:lcidtoname_downlevel.obj
 0002:000053b0       ??_C@_1M@PCMGMCGC@?$AAb?$AAg?$AA?9?$AAb?$AAg@ 00000001800ee3b0     libucrt:lcidtoname_downlevel.obj
 0002:000053c0       ??_C@_1M@BJBMFGOB@?$AAb?$AAn?$AA?9?$AAi?$AAn@ 00000001800ee3c0     libucrt:lcidtoname_downlevel.obj
 0002:000053d0       ??_C@_1BG@EAKMMACD@?$AAb?$AAs?$AA?9?$AAb?$AAa?$AA?9?$AAl?$AAa?$AAt?$AAn@ 00000001800ee3d0     libucrt:lcidtoname_downlevel.obj
 0002:000053e8       ??_C@_1M@KGADAODK@?$AAc?$AAa?$AA?9?$AAe?$AAs@ 00000001800ee3e8     libucrt:lcidtoname_downlevel.obj
 0002:000053f8       ??_C@_1M@COAJPDHI@?$AAc?$AAs?$AA?9?$AAc?$AAz@ 00000001800ee3f8     libucrt:lcidtoname_downlevel.obj
 0002:00005408       ??_C@_1M@DHBHFONH@?$AAc?$AAy?$AA?9?$AAg?$AAb@ 00000001800ee408     libucrt:lcidtoname_downlevel.obj
 0002:00005418       ??_C@_1M@IMGKELGA@?$AAd?$AAa?$AA?9?$AAd?$AAk@ 00000001800ee418     libucrt:lcidtoname_downlevel.obj
 0002:00005428       ??_C@_1M@NNDGDNGA@?$AAd?$AAe?$AA?9?$AAa?$AAt@ 00000001800ee428     libucrt:lcidtoname_downlevel.obj
 0002:00005438       ??_C@_1M@IKDBHEEM@?$AAd?$AAe?$AA?9?$AAc?$AAh@ 00000001800ee438     libucrt:lcidtoname_downlevel.obj
 0002:00005448       ??_C@_1M@GFFOJMCJ@?$AAd?$AAe?$AA?9?$AAd?$AAe@ 00000001800ee448     libucrt:lcidtoname_downlevel.obj
 0002:00005458       ??_C@_1M@MDNLKBPM@?$AAd?$AAe?$AA?9?$AAl?$AAi@ 00000001800ee458     libucrt:lcidtoname_downlevel.obj
 0002:00005468       ??_C@_1M@NJBEEJNL@?$AAd?$AAe?$AA?9?$AAl?$AAu@ 00000001800ee468     libucrt:lcidtoname_downlevel.obj
 0002:00005478       ??_C@_1O@GNNELBAP@?$AAd?$AAi?$AAv?$AA?9?$AAm?$AAv@ 00000001800ee478     libucrt:lcidtoname_downlevel.obj
 0002:00005488       ??_C@_1M@EJLEOGAE@?$AAe?$AAl?$AA?9?$AAg?$AAr@ 00000001800ee488     libucrt:lcidtoname_downlevel.obj
 0002:00005498       ??_C@_1M@GMPONJN@?$AAe?$AAn?$AA?9?$AAa?$AAu@ 00000001800ee498     libucrt:lcidtoname_downlevel.obj
 0002:000054a8       ??_C@_1M@NIDIIPGF@?$AAe?$AAn?$AA?9?$AAb?$AAz@ 00000001800ee4a8     libucrt:lcidtoname_downlevel.obj
 0002:000054b8       ??_C@_1M@JEHMIMFO@?$AAe?$AAn?$AA?9?$AAc?$AAa@ 00000001800ee4b8     libucrt:lcidtoname_downlevel.obj
 0002:000054c8       ??_C@_1M@IGMJCDLA@?$AAe?$AAn?$AA?9?$AAc?$AAb@ 00000001800ee4c8     libucrt:lcidtoname_downlevel.obj
 0002:000054d8       ??_C@_1M@BNFIGBKG@?$AAe?$AAn?$AA?9?$AAg?$AAb@ 00000001800ee4d8     libucrt:lcidtoname_downlevel.obj
 0002:000054e8       ??_C@_1M@LKIFDIGP@?$AAe?$AAn?$AA?9?$AAi?$AAe@ 00000001800ee4e8     libucrt:lcidtoname_downlevel.obj
 0002:000054f8       ??_C@_1M@PJKFGCCO@?$AAe?$AAn?$AA?9?$AAj?$AAm@ 00000001800ee4f8     libucrt:lcidtoname_downlevel.obj
 0002:00005508       ??_C@_1M@KPPKEPBO@?$AAe?$AAn?$AA?9?$AAn?$AAz@ 00000001800ee508     libucrt:lcidtoname_downlevel.obj
 0002:00005518       ??_C@_1M@GMDGLDOB@?$AAe?$AAn?$AA?9?$AAp?$AAh@ 00000001800ee518     libucrt:lcidtoname_downlevel.obj
 0002:00005528       ??_C@_1M@ONGIBJNA@?$AAe?$AAn?$AA?9?$AAt?$AAt@ 00000001800ee528     libucrt:lcidtoname_downlevel.obj
 0002:00005538       ??_C@_1M@LLODPCMM@?$AAe?$AAn?$AA?9?$AAu?$AAs@ 00000001800ee538     libucrt:lcidtoname_downlevel.obj
 0002:00005548       ??_C@_1M@LAKFNPAN@?$AAe?$AAn?$AA?9?$AAz?$AAa@ 00000001800ee548     libucrt:lcidtoname_downlevel.obj
 0002:00005558       ??_C@_1M@MFNHNHEO@?$AAe?$AAn?$AA?9?$AAz?$AAw@ 00000001800ee558     libucrt:lcidtoname_downlevel.obj
 0002:00005568       ??_C@_1M@EJEINPHM@?$AAe?$AAs?$AA?9?$AAa?$AAr@ 00000001800ee568     libucrt:lcidtoname_downlevel.obj
 0002:00005578       ??_C@_1M@GNKPCCJA@?$AAe?$AAs?$AA?9?$AAb?$AAo@ 00000001800ee578     libucrt:lcidtoname_downlevel.obj
 0002:00005588       ??_C@_1M@LEEGFONL@?$AAe?$AAs?$AA?9?$AAc?$AAl@ 00000001800ee588     libucrt:lcidtoname_downlevel.obj
 0002:00005598       ??_C@_1M@KGPDPBDF@?$AAe?$AAs?$AA?9?$AAc?$AAo@ 00000001800ee598     libucrt:lcidtoname_downlevel.obj
 0002:000055a8       ??_C@_1M@EIAHOHH@?$AAe?$AAs?$AA?9?$AAc?$AAr@ 00000001800ee5a8     libucrt:lcidtoname_downlevel.obj
 0002:000055b8       ??_C@_1M@LLPGMBIN@?$AAe?$AAs?$AA?9?$AAd?$AAo@ 00000001800ee5b8     libucrt:lcidtoname_downlevel.obj
 0002:000055c8       ??_C@_1M@DKHMKNJA@?$AAe?$AAs?$AA?9?$AAe?$AAc@ 00000001800ee5c8     libucrt:lcidtoname_downlevel.obj
 0002:000055d8       ??_C@_1M@GKGFPKAP@?$AAe?$AAs?$AA?9?$AAe?$AAs@ 00000001800ee5d8     libucrt:lcidtoname_downlevel.obj
 0002:000055e8       ??_C@_1M@LKHKGDLN@?$AAe?$AAs?$AA?9?$AAg?$AAt@ 00000001800ee5e8     libucrt:lcidtoname_downlevel.obj
 0002:000055f8       ??_C@_1M@HEIIGGJD@?$AAe?$AAs?$AA?9?$AAh?$AAn@ 00000001800ee5f8     libucrt:lcidtoname_downlevel.obj
 0002:00005608       ??_C@_1M@FBDHPPGD@?$AAe?$AAs?$AA?9?$AAm?$AAx@ 00000001800ee608     libucrt:lcidtoname_downlevel.obj
 0002:00005618       ??_C@_1M@DPAGLNDH@?$AAe?$AAs?$AA?9?$AAn?$AAi@ 00000001800ee618     libucrt:lcidtoname_downlevel.obj
 0002:00005628       ??_C@_1M@MDGOPGDD@?$AAe?$AAs?$AA?9?$AAp?$AAa@ 00000001800ee628     libucrt:lcidtoname_downlevel.obj
 0002:00005638       ??_C@_1M@EMAMGBGE@?$AAe?$AAs?$AA?9?$AAp?$AAe@ 00000001800ee638     libucrt:lcidtoname_downlevel.obj
 0002:00005648       ??_C@_1M@IBMCAOEC@?$AAe?$AAs?$AA?9?$AAp?$AAr@ 00000001800ee648     libucrt:lcidtoname_downlevel.obj
 0002:00005658       ??_C@_1M@FGMDIJED@?$AAe?$AAs?$AA?9?$AAp?$AAy@ 00000001800ee658     libucrt:lcidtoname_downlevel.obj
 0002:00005668       ??_C@_1M@IIDEOLLL@?$AAe?$AAs?$AA?9?$AAs?$AAv@ 00000001800ee668     libucrt:lcidtoname_downlevel.obj
 0002:00005678       ??_C@_1M@GAOBIPA@?$AAe?$AAs?$AA?9?$AAu?$AAy@ 00000001800ee678     libucrt:lcidtoname_downlevel.obj
 0002:00005688       ??_C@_1M@JKFFICHJ@?$AAe?$AAs?$AA?9?$AAv?$AAe@ 00000001800ee688     libucrt:lcidtoname_downlevel.obj
 0002:00005698       ??_C@_1M@PNMLOJDF@?$AAe?$AAt?$AA?9?$AAe?$AAe@ 00000001800ee698     libucrt:lcidtoname_downlevel.obj
 0002:000056a8       ??_C@_1M@GHHLIKEI@?$AAe?$AAu?$AA?9?$AAe?$AAs@ 00000001800ee6a8     libucrt:lcidtoname_downlevel.obj
 0002:000056b8       ??_C@_1M@PBNONODE@?$AAf?$AAa?$AA?9?$AAi?$AAr@ 00000001800ee6b8     libucrt:lcidtoname_downlevel.obj
 0002:000056c8       ??_C@_1M@JEEHPMIL@?$AAf?$AAi?$AA?9?$AAf?$AAi@ 00000001800ee6c8     libucrt:lcidtoname_downlevel.obj
 0002:000056d8       ??_C@_1M@LMDCNDBA@?$AAf?$AAo?$AA?9?$AAf?$AAo@ 00000001800ee6d8     libucrt:lcidtoname_downlevel.obj
 0002:000056e8       ??_C@_1M@JKEOHLDK@?$AAf?$AAr?$AA?9?$AAb?$AAe@ 00000001800ee6e8     libucrt:lcidtoname_downlevel.obj
 0002:000056f8       ??_C@_1M@NOHADPMI@?$AAf?$AAr?$AA?9?$AAc?$AAa@ 00000001800ee6f8     libucrt:lcidtoname_downlevel.obj
 0002:00005708       ??_C@_1M@KDHIHAEC@?$AAf?$AAr?$AA?9?$AAc?$AAh@ 00000001800ee708     libucrt:lcidtoname_downlevel.obj
 0002:00005718       ??_C@_1M@MMBBFGAK@?$AAf?$AAr?$AA?9?$AAf?$AAr@ 00000001800ee718     libucrt:lcidtoname_downlevel.obj
 0002:00005728       ??_C@_1M@PAFNENNF@?$AAf?$AAr?$AA?9?$AAl?$AAu@ 00000001800ee728     libucrt:lcidtoname_downlevel.obj
 0002:00005738       ??_C@_1M@EOHDJGDD@?$AAf?$AAr?$AA?9?$AAm?$AAc@ 00000001800ee738     libucrt:lcidtoname_downlevel.obj
 0002:00005748       ??_C@_1M@FAPLLOPF@?$AAg?$AAl?$AA?9?$AAe?$AAs@ 00000001800ee748     libucrt:lcidtoname_downlevel.obj
 0002:00005758       ??_C@_1M@FOPBFLOO@?$AAg?$AAu?$AA?9?$AAi?$AAn@ 00000001800ee758     libucrt:lcidtoname_downlevel.obj
 0002:00005768       ??_C@_1M@KBMCINPM@?$AAh?$AAe?$AA?9?$AAi?$AAl@ 00000001800ee768     libucrt:lcidtoname_downlevel.obj
 0002:00005778       ??_C@_1M@BBPHKFPJ@?$AAh?$AAi?$AA?9?$AAi?$AAn@ 00000001800ee778     libucrt:lcidtoname_downlevel.obj
 0002:00005788       ??_C@_1M@PMBNDPHD@?$AAh?$AAr?$AA?9?$AAb?$AAa@ 00000001800ee788     libucrt:lcidtoname_downlevel.obj
 0002:00005798       ??_C@_1M@BPCKOEGE@?$AAh?$AAr?$AA?9?$AAh?$AAr@ 00000001800ee798     libucrt:lcidtoname_downlevel.obj
 0002:000057a8       ??_C@_1M@GACBMHKE@?$AAh?$AAu?$AA?9?$AAh?$AAu@ 00000001800ee7a8     libucrt:lcidtoname_downlevel.obj
 0002:000057b8       ??_C@_1M@MILPAJJC@?$AAh?$AAy?$AA?9?$AAa?$AAm@ 00000001800ee7b8     libucrt:lcidtoname_downlevel.obj
 0002:000057c8       ??_C@_1M@BABBICEC@?$AAi?$AAd?$AA?9?$AAi?$AAd@ 00000001800ee7c8     libucrt:lcidtoname_downlevel.obj
 0002:000057d8       ??_C@_1M@BIKNHHPF@?$AAi?$AAs?$AA?9?$AAi?$AAs@ 00000001800ee7d8     libucrt:lcidtoname_downlevel.obj
 0002:000057e8       ??_C@_1M@NMPCJPHE@?$AAi?$AAt?$AA?9?$AAc?$AAh@ 00000001800ee7e8     libucrt:lcidtoname_downlevel.obj
 0002:000057f8       ??_C@_1M@GHKGFEDF@?$AAi?$AAt?$AA?9?$AAi?$AAt@ 00000001800ee7f8     libucrt:lcidtoname_downlevel.obj
 0002:00005808       ??_C@_1M@NIEJCJJA@?$AAj?$AAa?$AA?9?$AAj?$AAp@ 00000001800ee808     libucrt:lcidtoname_downlevel.obj
 0002:00005818       ??_C@_1M@JILFNBIM@?$AAk?$AAa?$AA?9?$AAg?$AAe@ 00000001800ee818     libucrt:lcidtoname_downlevel.obj
 0002:00005828       ??_C@_1M@PACPMGPH@?$AAk?$AAk?$AA?9?$AAk?$AAz@ 00000001800ee828     libucrt:lcidtoname_downlevel.obj
 0002:00005838       ??_C@_1M@IELFGMHA@?$AAk?$AAn?$AA?9?$AAi?$AAn@ 00000001800ee838     libucrt:lcidtoname_downlevel.obj
 0002:00005848       ??_C@_1O@IBBJHCH@?$AAk?$AAo?$AAk?$AA?9?$AAi?$AAn@ 00000001800ee848     libucrt:lcidtoname_downlevel.obj
 0002:00005858       ??_C@_1M@DMHAEOGC@?$AAk?$AAo?$AA?9?$AAk?$AAr@ 00000001800ee858     libucrt:lcidtoname_downlevel.obj
 0002:00005868       ??_C@_1M@HBAHBIGA@?$AAk?$AAy?$AA?9?$AAk?$AAg@ 00000001800ee868     libucrt:lcidtoname_downlevel.obj
 0002:00005878       ??_C@_1M@KPMILCJG@?$AAl?$AAt?$AA?9?$AAl?$AAt@ 00000001800ee878     libucrt:lcidtoname_downlevel.obj
 0002:00005888       ??_C@_1M@BDEKKCA@?$AAl?$AAv?$AA?9?$AAl?$AAv@ 00000001800ee888     libucrt:lcidtoname_downlevel.obj
 0002:00005898       ??_C@_1M@ELCKCCJJ@?$AAm?$AAi?$AA?9?$AAn?$AAz@ 00000001800ee898     libucrt:lcidtoname_downlevel.obj
 0002:000058a8       ??_C@_1M@CBOOLAPA@?$AAm?$AAk?$AA?9?$AAm?$AAk@ 00000001800ee8a8     libucrt:lcidtoname_downlevel.obj
 0002:000058b8       ??_C@_1M@GPHNBJKN@?$AAm?$AAl?$AA?9?$AAi?$AAn@ 00000001800ee8b8     libucrt:lcidtoname_downlevel.obj
 0002:000058c8       ??_C@_1M@PABJILIG@?$AAm?$AAn?$AA?9?$AAm?$AAn@ 00000001800ee8c8     libucrt:lcidtoname_downlevel.obj
 0002:000058d8       ??_C@_1M@FGBKKIPG@?$AAm?$AAr?$AA?9?$AAi?$AAn@ 00000001800ee8d8     libucrt:lcidtoname_downlevel.obj
 0002:000058e8       ??_C@_1M@NDBPDDAL@?$AAm?$AAs?$AA?9?$AAb?$AAn@ 00000001800ee8e8     libucrt:lcidtoname_downlevel.obj
 0002:000058f8       ??_C@_1M@OPIHOOPI@?$AAm?$AAs?$AA?9?$AAm?$AAy@ 00000001800ee8f8     libucrt:lcidtoname_downlevel.obj
 0002:00005908       ??_C@_1M@PPDBCNFM@?$AAm?$AAt?$AA?9?$AAm?$AAt@ 00000001800ee908     libucrt:lcidtoname_downlevel.obj
 0002:00005918       ??_C@_1M@KDJDKMDD@?$AAn?$AAb?$AA?9?$AAn?$AAo@ 00000001800ee918     libucrt:lcidtoname_downlevel.obj
 0002:00005928       ??_C@_1M@KFCFLMJP@?$AAn?$AAl?$AA?9?$AAb?$AAe@ 00000001800ee928     libucrt:lcidtoname_downlevel.obj
 0002:00005938       ??_C@_1M@KPOPDDGO@?$AAn?$AAl?$AA?9?$AAn?$AAl@ 00000001800ee938     libucrt:lcidtoname_downlevel.obj
 0002:00005948       ??_C@_1M@LJKPEMLN@?$AAn?$AAn?$AA?9?$AAn?$AAo@ 00000001800ee948     libucrt:lcidtoname_downlevel.obj
 0002:00005958       ??_C@_1M@BDGHHBFL@?$AAn?$AAs?$AA?9?$AAz?$AAa@ 00000001800ee958     libucrt:lcidtoname_downlevel.obj
 0002:00005968       ??_C@_1M@IDEHOAP@?$AAp?$AAa?$AA?9?$AAi?$AAn@ 00000001800ee968     libucrt:lcidtoname_downlevel.obj
 0002:00005978       ??_C@_1M@HDBKGOGH@?$AAp?$AAl?$AA?9?$AAp?$AAl@ 00000001800ee978     libucrt:lcidtoname_downlevel.obj
 0002:00005988       ??_C@_1M@LJLLCMEH@?$AAp?$AAt?$AA?9?$AAb?$AAr@ 00000001800ee988     libucrt:lcidtoname_downlevel.obj
 0002:00005998       ??_C@_1M@NCMONAAL@?$AAp?$AAt?$AA?9?$AAp?$AAt@ 00000001800ee998     libucrt:lcidtoname_downlevel.obj
 0002:000059a8       ??_C@_1O@EAKMAJDN@?$AAq?$AAu?$AAz?$AA?9?$AAb?$AAo@ 00000001800ee9a8     libucrt:lcidtoname_downlevel.obj
 0002:000059b8       ??_C@_1O@BHHPIGDN@?$AAq?$AAu?$AAz?$AA?9?$AAe?$AAc@ 00000001800ee9b8     libucrt:lcidtoname_downlevel.obj
 0002:000059c8       ??_C@_1O@GBAPEKMJ@?$AAq?$AAu?$AAz?$AA?9?$AAp?$AAe@ 00000001800ee9c8     libucrt:lcidtoname_downlevel.obj
 0002:000059d8       ??_C@_1M@CLGLEFBO@?$AAr?$AAo?$AA?9?$AAr?$AAo@ 00000001800ee9d8     libucrt:lcidtoname_downlevel.obj
 0002:000059e8       ??_C@_1M@CEEDODME@?$AAr?$AAu?$AA?9?$AAr?$AAu@ 00000001800ee9e8     libucrt:lcidtoname_downlevel.obj
 0002:000059f8       ??_C@_1M@HPKKKMPP@?$AAs?$AAa?$AA?9?$AAi?$AAn@ 00000001800ee9f8     libucrt:lcidtoname_downlevel.obj
 0002:00005a08       ??_C@_1M@BKMAIGOJ@?$AAs?$AAe?$AA?9?$AAf?$AAi@ 00000001800eea08     libucrt:lcidtoname_downlevel.obj
 0002:00005a18       ??_C@_1M@NDPIFLFI@?$AAs?$AAe?$AA?9?$AAn?$AAo@ 00000001800eea18     libucrt:lcidtoname_downlevel.obj
 0002:00005a28       ??_C@_1M@DANKKHJ@?$AAs?$AAe?$AA?9?$AAs?$AAe@ 00000001800eea28     libucrt:lcidtoname_downlevel.obj
 0002:00005a38       ??_C@_1M@PNBLONPJ@?$AAs?$AAk?$AA?9?$AAs?$AAk@ 00000001800eea38     libucrt:lcidtoname_downlevel.obj
 0002:00005a48       ??_C@_1M@LFMODOAL@?$AAs?$AAl?$AA?9?$AAs?$AAi@ 00000001800eea48     libucrt:lcidtoname_downlevel.obj
 0002:00005a58       ??_C@_1O@DFKOMPG@?$AAs?$AAm?$AAa?$AA?9?$AAn?$AAo@ 00000001800eea58     libucrt:lcidtoname_downlevel.obj
 0002:00005a68       ??_C@_1O@NDKPBNNH@?$AAs?$AAm?$AAa?$AA?9?$AAs?$AAe@ 00000001800eea68     libucrt:lcidtoname_downlevel.obj
 0002:00005a78       ??_C@_1O@PLLKBHAB@?$AAs?$AAm?$AAj?$AA?9?$AAn?$AAo@ 00000001800eea78     libucrt:lcidtoname_downlevel.obj
 0002:00005a88       ??_C@_1O@CLEPOGCA@?$AAs?$AAm?$AAj?$AA?9?$AAs?$AAe@ 00000001800eea88     libucrt:lcidtoname_downlevel.obj
 0002:00005a98       ??_C@_1O@DLGJGKMK@?$AAs?$AAm?$AAn?$AA?9?$AAf?$AAi@ 00000001800eea98     libucrt:lcidtoname_downlevel.obj
 0002:00005aa8       ??_C@_1O@OJDJGAJC@?$AAs?$AAm?$AAs?$AA?9?$AAf?$AAi@ 00000001800eeaa8     libucrt:lcidtoname_downlevel.obj
 0002:00005ab8       ??_C@_1M@BOFOGHPB@?$AAs?$AAq?$AA?9?$AAa?$AAl@ 00000001800eeab8     libucrt:lcidtoname_downlevel.obj
 0002:00005ac8       ??_C@_1BG@LJBBIPGB@?$AAs?$AAr?$AA?9?$AAb?$AAa?$AA?9?$AAc?$AAy?$AAr?$AAl@ 00000001800eeac8     libucrt:lcidtoname_downlevel.obj
 0002:00005ae0       ??_C@_1BG@JLBENFOE@?$AAs?$AAr?$AA?9?$AAb?$AAa?$AA?9?$AAl?$AAa?$AAt?$AAn@ 00000001800eeae0     libucrt:lcidtoname_downlevel.obj
 0002:00005af8       ??_C@_1BG@KODPNHE@?$AAs?$AAr?$AA?9?$AAs?$AAp?$AA?9?$AAc?$AAy?$AAr?$AAl@ 00000001800eeaf8     libucrt:lcidtoname_downlevel.obj
 0002:00005b10       ??_C@_1BG@CIOGKHPB@?$AAs?$AAr?$AA?9?$AAs?$AAp?$AA?9?$AAl?$AAa?$AAt?$AAn@ 00000001800eeb10     libucrt:lcidtoname_downlevel.obj
 0002:00005b28       ??_C@_1M@NGFJLMAC@?$AAs?$AAv?$AA?9?$AAf?$AAi@ 00000001800eeb28     libucrt:lcidtoname_downlevel.obj
 0002:00005b38       ??_C@_1M@MPJEJAJC@?$AAs?$AAv?$AA?9?$AAs?$AAe@ 00000001800eeb38     libucrt:lcidtoname_downlevel.obj
 0002:00005b48       ??_C@_1M@MPNDHLFK@?$AAs?$AAw?$AA?9?$AAk?$AAe@ 00000001800eeb48     libucrt:lcidtoname_downlevel.obj
 0002:00005b58       ??_C@_1O@KOHBJJI@?$AAs?$AAy?$AAr?$AA?9?$AAs?$AAy@ 00000001800eeb58     libucrt:lcidtoname_downlevel.obj
 0002:00005b68       ??_C@_1M@LDCEFHA@?$AAt?$AAa?$AA?9?$AAi?$AAn@ 00000001800eeb68     libucrt:lcidtoname_downlevel.obj
 0002:00005b78       ??_C@_1M@CNJOFAK@?$AAt?$AAe?$AA?9?$AAi?$AAn@ 00000001800eeb78     libucrt:lcidtoname_downlevel.obj
 0002:00005b88       ??_C@_1M@GNAECACD@?$AAt?$AAh?$AA?9?$AAt?$AAh@ 00000001800eeb88     libucrt:lcidtoname_downlevel.obj
 0002:00005b98       ??_C@_1M@CHBIHOJO@?$AAt?$AAn?$AA?9?$AAz?$AAa@ 00000001800eeb98     libucrt:lcidtoname_downlevel.obj
 0002:00005ba8       ??_C@_1M@GCCMIGPJ@?$AAt?$AAr?$AA?9?$AAt?$AAr@ 00000001800eeba8     libucrt:lcidtoname_downlevel.obj
 0002:00005bb8       ??_C@_1M@CELMCNBK@?$AAt?$AAt?$AA?9?$AAr?$AAu@ 00000001800eebb8     libucrt:lcidtoname_downlevel.obj
 0002:00005bc8       ??_C@_1M@KLMCELGA@?$AAu?$AAk?$AA?9?$AAu?$AAa@ 00000001800eebc8     libucrt:lcidtoname_downlevel.obj
 0002:00005bd8       ??_C@_1M@EPAJJAJF@?$AAu?$AAr?$AA?9?$AAp?$AAk@ 00000001800eebd8     libucrt:lcidtoname_downlevel.obj
 0002:00005be8       ??_C@_1BG@GEGPMCDJ@?$AAu?$AAz?$AA?9?$AAu?$AAz?$AA?9?$AAc?$AAy?$AAr?$AAl@ 00000001800eebe8     libucrt:lcidtoname_downlevel.obj
 0002:00005c00       ??_C@_1BG@EGGKJILM@?$AAu?$AAz?$AA?9?$AAu?$AAz?$AA?9?$AAl?$AAa?$AAt?$AAn@ 00000001800eec00     libucrt:lcidtoname_downlevel.obj
 0002:00005c18       ??_C@_1M@GFOCLFF@?$AAv?$AAi?$AA?9?$AAv?$AAn@ 00000001800eec18     libucrt:lcidtoname_downlevel.obj
 0002:00005c28       ??_C@_1M@CPAMEDFI@?$AAx?$AAh?$AA?9?$AAz?$AAa@ 00000001800eec28     libucrt:lcidtoname_downlevel.obj
 0002:00005c38       ??_C@_1O@EBKIFIGN@?$AAz?$AAh?$AA?9?$AAc?$AAh?$AAs@ 00000001800eec38     libucrt:lcidtoname_downlevel.obj
 0002:00005c48       ??_C@_1O@NMHPGANE@?$AAz?$AAh?$AA?9?$AAc?$AAh?$AAt@ 00000001800eec48     libucrt:lcidtoname_downlevel.obj
 0002:00005c58       ??_C@_1M@LPINJOMC@?$AAz?$AAh?$AA?9?$AAc?$AAn@ 00000001800eec58     libucrt:lcidtoname_downlevel.obj
 0002:00005c68       ??_C@_1M@OCJEJODD@?$AAz?$AAh?$AA?9?$AAh?$AAk@ 00000001800eec68     libucrt:lcidtoname_downlevel.obj
 0002:00005c78       ??_C@_1M@DNDLJINH@?$AAz?$AAh?$AA?9?$AAm?$AAo@ 00000001800eec78     libucrt:lcidtoname_downlevel.obj
 0002:00005c88       ??_C@_1M@MBFDNDND@?$AAz?$AAh?$AA?9?$AAs?$AAg@ 00000001800eec88     libucrt:lcidtoname_downlevel.obj
 0002:00005c98       ??_C@_1M@IMEPLEPE@?$AAz?$AAh?$AA?9?$AAt?$AAw@ 00000001800eec98     libucrt:lcidtoname_downlevel.obj
 0002:00005ca8       ??_C@_1M@BBGHNHJP@?$AAz?$AAu?$AA?9?$AAz?$AAa@ 00000001800eeca8     libucrt:lcidtoname_downlevel.obj
 0002:00005cb8       _days                      00000001800eecb8     libucrt:days.obj
 0002:00005cf0       _lpdays                    00000001800eecf0     libucrt:days.obj
 0002:00005f80       ??_C@_1BA@BALFACEM@?$AAC?$AAO?$AAN?$AAO?$AAU?$AAT?$AA$@ 00000001800eef80     libucrt:initcon.obj
 0002:00005f90       __log10_256_lead           00000001800eef90     libucrt:log10_256_lead_tail_table.obj
 0002:000067a0       __log10_256_tail           00000001800ef7a0     libucrt:log10_256_lead_tail_table.obj
 0002:00006fb0       __log_F_inv_qword          00000001800effb0     libucrt:log_f_inv_qword_table.obj
 0002:000077c0       ??_C@_05HGHHAHAP@log10@    00000001800f07c0     libucrt:log_special.obj
 0002:000077e0       ??_C@_0BE@JKBPKJNB@ATOMIC_INTRINSICS?$DN0@ 00000001800f07e0     sqlite.obj
 0002:000077f8       ??_C@_0BD@PKEOFOGL@COMPILER?$DNmsvc?91929@ 00000001800f07f8     sqlite.obj
 0002:00007810       ??_C@_0BD@CLNDJJPD@DEFAULT_AUTOVACUUM@ 00000001800f0810     sqlite.obj
 0002:00007828       ??_C@_0BJ@MCNANOIK@DEFAULT_CACHE_SIZE?$DN?92000@ 00000001800f0828     sqlite.obj
 0002:00007848       ??_C@_0BG@FIOPBEAM@DEFAULT_FILE_FORMAT?$DN4@ 00000001800f0848     sqlite.obj
 0002:00007860       ??_C@_0BO@ECLEOMF@DEFAULT_JOURNAL_SIZE_LIMIT?$DN?91@ 00000001800f0860     sqlite.obj
 0002:00007880       ??_C@_0BE@OMAGNGBD@DEFAULT_MEMSTATUS?$DN0@ 00000001800f0880     sqlite.obj
 0002:00007898       ??_C@_0BE@JADFPEHL@DEFAULT_MMAP_SIZE?$DN0@ 00000001800f0898     sqlite.obj
 0002:000078b0       ??_C@_0BH@HPANEPOP@DEFAULT_PAGE_SIZE?$DN4096@ 00000001800f08b0     sqlite.obj
 0002:000078c8       ??_C@_0BJ@JMDFBHMC@DEFAULT_PCACHE_INITSZ?$DN20@ 00000001800f08c8     sqlite.obj
 0002:000078e8       ??_C@_0BL@BMOHFKCH@DEFAULT_RECURSIVE_TRIGGERS@ 00000001800f08e8     sqlite.obj
 0002:00007908       ??_C@_0BJ@OJNNOKFC@DEFAULT_SECTOR_SIZE?$DN4096@ 00000001800f0908     sqlite.obj
 0002:00007928       ??_C@_0BG@INHCMECL@DEFAULT_SYNCHRONOUS?$DN2@ 00000001800f0928     sqlite.obj
 0002:00007940       ??_C@_0CA@FANPLNAL@DEFAULT_WAL_AUTOCHECKPOINT?$DN1000@ 00000001800f0940     sqlite.obj
 0002:00007960       ??_C@_0BK@IJAJEONG@DEFAULT_WAL_SYNCHRONOUS?$DN1@ 00000001800f0960     sqlite.obj
 0002:00007980       ??_C@_0BJ@ECDGLDOH@DEFAULT_WORKER_THREADS?$DN0@ 00000001800f0980     sqlite.obj
 0002:000079a0       ??_C@_0BF@FEJKAPOG@DIRECT_OVERFLOW_READ@ 00000001800f09a0     sqlite.obj
 0002:000079b8       ??_C@_0BH@EACOEAKC@MALLOC_SOFT_LIMIT?$DN1024@ 00000001800f09b8     sqlite.obj
 0002:000079d0       ??_C@_0BA@LNNBPBFC@MAX_ATTACHED?$DN10@ 00000001800f09d0     sqlite.obj
 0002:000079e0       ??_C@_0BA@NHJPBAC@MAX_COLUMN?$DN2000@ 00000001800f09e0     sqlite.obj
 0002:000079f0       ??_C@_0BI@IDJKCOBE@MAX_COMPOUND_SELECT?$DN500@ 00000001800f09f0     sqlite.obj
 0002:00007a08       ??_C@_0BL@DHEPBLDG@MAX_DEFAULT_PAGE_SIZE?$DN8192@ 00000001800f0a08     sqlite.obj
 0002:00007a28       ??_C@_0BE@BGPNODEI@MAX_EXPR_DEPTH?$DN1000@ 00000001800f0a28     sqlite.obj
 0002:00007a40       ??_C@_0BF@DMPDKAIG@MAX_FUNCTION_ARG?$DN127@ 00000001800f0a40     sqlite.obj
 0002:00007a58       ??_C@_0BG@HOLJJPGE@MAX_LENGTH?$DN1000000000@ 00000001800f0a58     sqlite.obj
 0002:00007a70       ??_C@_0BO@HGKABEPL@MAX_LIKE_PATTERN_LENGTH?$DN50000@ 00000001800f0a70     sqlite.obj
 0002:00007a90       ??_C@_0BJ@BBPPGDND@MAX_MMAP_SIZE?$DN0x7fff0000@ 00000001800f0a90     sqlite.obj
 0002:00007ab0       ??_C@_0BK@GCMMPAAN@MAX_PAGE_COUNT?$DN0xfffffffe@ 00000001800f0ab0     sqlite.obj
 0002:00007ad0       ??_C@_0BE@IIIDHEEB@MAX_PAGE_SIZE?$DN65536@ 00000001800f0ad0     sqlite.obj
 0002:00007ae8       ??_C@_0BK@EFCIHIAE@MAX_SQL_LENGTH?$DN1000000000@ 00000001800f0ae8     sqlite.obj
 0002:00007b08       ??_C@_0BH@GCDOPHOP@MAX_TRIGGER_DEPTH?$DN1000@ 00000001800f0b08     sqlite.obj
 0002:00007b20       ??_C@_0BK@HDIEIDKJ@MAX_VARIABLE_NUMBER?$DN32766@ 00000001800f0b20     sqlite.obj
 0002:00007b40       ??_C@_0BG@KFDPIAP@MAX_VDBE_OP?$DN250000000@ 00000001800f0b40     sqlite.obj
 0002:00007b58       ??_C@_0BF@KBKDADDJ@MAX_WORKER_THREADS?$DN8@ 00000001800f0b58     sqlite.obj
 0002:00007b70       ??_C@_09EPLCFCGB@MUTEX_W32@ 00000001800f0b70     sqlite.obj
 0002:00007b80       ??_C@_0O@KOHAPDOF@SYSTEM_MALLOC@ 00000001800f0b80     sqlite.obj
 0002:00007b90       ??_C@_0N@GOJBLMJA@TEMP_STORE?$DN1@ 00000001800f0b90     sqlite.obj
 0002:00007ba0       ??_C@_0N@HEAGAILC@THREADSAFE?$DN1@ 00000001800f0ba0     sqlite.obj
 0002:00007bb0       ??_C@_03OMGOFJGM@ANY@      00000001800f0bb0     sqlite.obj
 0002:00007bb4       ??_C@_04HDKFADDE@BLOB@     00000001800f0bb4     sqlite.obj
 0002:00007bbc       ??_C@_03JMHEAPMO@INT@      00000001800f0bbc     sqlite.obj
 0002:00007bc0       ??_C@_07EHCIHKNF@INTEGER@  00000001800f0bc0     sqlite.obj
 0002:00007bc8       ??_C@_04PKFANLLI@REAL@     00000001800f0bc8     sqlite.obj
 0002:00007bd0       ??_C@_04OEPMCOLO@TEXT@     00000001800f0bd0     sqlite.obj
 0002:00007bd8       ??_C@_07DNDIJFOK@20b?320e@ 00000001800f0bd8     sqlite.obj
 0002:00007be0       ??_C@_07PGGEEGEP@20c?320e@ 00000001800f0be0     sqlite.obj
 0002:00007be8       ??_C@_03LIHIGKLL@20e@      00000001800f0be8     sqlite.obj
 0002:00007bf0       ??_C@_0M@FJDHLCLG@40f?921a?921d@ 00000001800f0bf0     sqlite.obj
 0002:00007bfc       ??_C@_03CGLHMDPP@now@      00000001800f0bfc     sqlite.obj
 0002:00007c00       ??_C@_06HOEIGMLF@subsec@   00000001800f0c00     sqlite.obj
 0002:00007c08       ??_C@_09FCEHHOFA@subsecond@ 00000001800f0c08     sqlite.obj
 0002:00007c18       ??_C@_0BH@HEILFFIJ@local?5time?5unavailable@ 00000001800f0c18     sqlite.obj
 0002:00007c30       ??_C@_04HAPDLBFF@auto@     00000001800f0c30     sqlite.obj
 0002:00007c38       ??_C@_09BPOICPEH@julianday@ 00000001800f0c38     sqlite.obj
 0002:00007c48       ??_C@_09EKBOCLDN@localtime@ 00000001800f0c48     sqlite.obj
 0002:00007c58       ??_C@_09KNIMKLBK@unixepoch@ 00000001800f0c58     sqlite.obj
 0002:00007c64       ??_C@_03JPHCIIKF@utc@      00000001800f0c64     sqlite.obj
 0002:00007c68       ??_C@_08IPAOEBNP@weekday?5@ 00000001800f0c68     sqlite.obj
 0002:00007c78       ??_C@_09CABLEOFK@start?5of?5@ 00000001800f0c78     sqlite.obj
 0002:00007c84       ??_C@_05MEBAADFH@month@    00000001800f0c84     sqlite.obj
 0002:00007c8c       ??_C@_04JFPLDHAO@year@     00000001800f0c8c     sqlite.obj
 0002:00007c94       ??_C@_03NNBHCDBP@day@      00000001800f0c94     sqlite.obj
 0002:00007c98       ??_C@_03LGDOGGKE@40f@      00000001800f0c98     sqlite.obj
 0002:00007c9c       ??_C@_03OICABMB@50f@       00000001800f0c9c     sqlite.obj
 0002:00007ca0       ??_C@_0M@POICNDDF@40f?920a?920d@ 00000001800f0ca0     sqlite.obj
 0002:00007cb0       ??_C@_0M@GFCHJPFK@50f?920a?920d@ 00000001800f0cb0     sqlite.obj
 0002:00007cbc       ??_C@_04OGKJMPGK@?$CF02d@  00000001800f0cbc     sqlite.obj
 0002:00007cc4       ??_C@_03GPCJOALC@?$CF2d@   00000001800f0cc4     sqlite.obj
 0002:00007cc8       ??_C@_06IAGKDDNE@?$CF06?43f@ 00000001800f0cc8     sqlite.obj
 0002:00007cd0       ??_C@_0P@MCDGMPHH@?$CF04d?9?$CF02d?9?$CF02d@ 00000001800f0cd0     sqlite.obj
 0002:00007ce0       ??_C@_04OHGLKFFN@?$CF03d@  00000001800f0ce0     sqlite.obj
 0002:00007ce8       ??_C@_05CFGAKADK@?$CF?416g@ 00000001800f0ce8     sqlite.obj
 0002:00007cf0       ??_C@_02CJNFDJBF@PM@       00000001800f0cf0     sqlite.obj
 0002:00007cf4       ??_C@_02IEBMFLFH@pm@       00000001800f0cf4     sqlite.obj
 0002:00007cf8       ??_C@_02DEDBPAFC@AM@       00000001800f0cf8     sqlite.obj
 0002:00007cfc       ??_C@_02JJPIJCBA@am@       00000001800f0cfc     sqlite.obj
 0002:00007d00       ??_C@_09FJLEEAHK@?$CF02d?3?$CF02d@ 00000001800f0d00     sqlite.obj
 0002:00007d0c       ??_C@_04GFJLOHHD@?$CF?43f@ 00000001800f0d0c     sqlite.obj
 0002:00007d14       ??_C@_04BFAHMMK@?$CFlld@   00000001800f0d14     sqlite.obj
 0002:00007d20       ??_C@_0P@PLMNPDMB@?$CF02d?3?$CF02d?3?$CF02d@ 00000001800f0d20     sqlite.obj
 0002:00007d30       ??_C@_04OCCELDNI@?$CF04d@  00000001800f0d30     sqlite.obj
 0002:00007d38       ??_C@_0CC@LLLEELKD@?$CFc?$CF04d?9?$CF02d?9?$CF02d?5?$CF02d?3?$CF02d?3?$CF06?4@ 00000001800f0d38     sqlite.obj
 0002:00007d5c       ??_C@_04JNIHBGGH@date@     00000001800f0d5c     sqlite.obj
 0002:00007d64       ??_C@_04CLCEDBPF@time@     00000001800f0d64     sqlite.obj
 0002:00007d70       ??_C@_08FGNPMIBK@datetime@ 00000001800f0d70     sqlite.obj
 0002:00007d80       ??_C@_08EPGBJPHJ@strftime@ 00000001800f0d80     sqlite.obj
 0002:00007d90       ??_C@_08JMCEGDGD@timediff@ 00000001800f0d90     sqlite.obj
 0002:00007da0       ??_C@_0N@IPDKEGPB@current_time@ 00000001800f0da0     sqlite.obj
 0002:00007db0       ??_C@_0BC@DDICBCEN@current_timestamp@ 00000001800f0db0     sqlite.obj
 0002:00007dc8       ??_C@_0N@DJJJGBGD@current_date@ 00000001800f0dc8     sqlite.obj
 0002:00007dd8       ??_C@_0CG@DAAPKCCM@failed?5to?5allocate?5?$CFu?5bytes?5of?5@ 00000001800f0dd8     sqlite.obj
 0002:00007e00       ??_C@_0CE@BFFKOBMD@failed?5memory?5resize?5?$CFu?5to?5?$CFu?5b@ 00000001800f0e00     sqlite.obj
 0002:00007e28       ??_C@_0O@BNNCBLEN@out?5of?5memory@ 00000001800f0e28     sqlite.obj
 0002:00007e38       ??_C@_01FGNFDNOH@?$CF@     00000001800f0e38     sqlite.obj
 0002:00007e3c       ??_C@_04MLLLIHIP@null@     00000001800f0e3c     sqlite.obj
 0002:00007e44       ??_C@_03ICJPMMHB@NaN@      00000001800f0e44     sqlite.obj
 0002:00007e48       ??_C@_04JHHONOOL@?9Inf@    00000001800f0e48     sqlite.obj
 0002:00007e4d       ??_C@_00CNPNBAHC@@         00000001800f0e4d     sqlite.obj
 0002:00007e50       ??_C@_04HIBGFPH@NULL@      00000001800f0e50     sqlite.obj
 0002:00007e58       ??_C@_06LHGEHABH@?$CINULL?$CJ@ 00000001800f0e58     sqlite.obj
 0002:00007e60       ??_C@_01LFCBOECM@?4@       00000001800f0e60     sqlite.obj
 0002:00007e68       ??_C@_09BEGIILHF@?$CIjoin?9?$CFu?$CJ@ 00000001800f0e68     sqlite.obj
 0002:00007e78       ??_C@_0O@LHLJPDIA@?$CIsubquery?9?$CFu?$CJ@ 00000001800f0e78     sqlite.obj
 0002:00007e90       ??_C@_0BD@FKIFACO@922337203685477580@ 00000001800f0e90     sqlite.obj
 0002:00007ea8       ??_C@_0BA@ILNNDBLE@?$CL?9?5?6?70123456789@ 00000001800f0ea8     sqlite.obj
 0002:00007eb8       ??_C@_01GBGANLPD@0@        00000001800f0eb8     sqlite.obj
 0002:00007ec0       ??_C@_0CN@EOKIBNLJ@API?5call?5with?5?$CFs?5database?5conne@ 00000001800f0ec0     sqlite.obj
 0002:00007ef0       ??_C@_08NFNJDBOK@unopened@ 00000001800f0ef0     sqlite.obj
 0002:00007f00       ??_C@_07MALOAKCI@invalid@  00000001800f0f00     sqlite.obj
 0002:00007f08       ??_C@_09OJILMLHM@Savepoint@ 00000001800f0f08     sqlite.obj
 0002:00007f18       ??_C@_0L@BPKAOEDK@AutoCommit@ 00000001800f0f18     sqlite.obj
 0002:00007f28       ??_C@_0M@MEGKBOMN@Transaction@ 00000001800f0f28     sqlite.obj
 0002:00007f38       ??_C@_0L@IHLHABNJ@Checkpoint@ 00000001800f0f38     sqlite.obj
 0002:00007f48       ??_C@_0M@FAIDBMDK@JournalMode@ 00000001800f0f48     sqlite.obj
 0002:00007f54       ??_C@_06OBCEMCJB@Vacuum@   00000001800f0f54     sqlite.obj
 0002:00007f60       ??_C@_07OKDOHLDO@VFilter@  00000001800f0f60     sqlite.obj
 0002:00007f68       ??_C@_07NHABAPID@VUpdate@  00000001800f0f68     sqlite.obj
 0002:00007f70       ??_C@_04LLJCPOLH@Init@     00000001800f0f70     sqlite.obj
 0002:00007f78       ??_C@_04BNGNMAK@Goto@      00000001800f0f78     sqlite.obj
 0002:00007f80       ??_C@_05DLHJCIPI@Gosub@    00000001800f0f80     sqlite.obj
 0002:00007f88       ??_C@_0O@OADCGMIE@InitCoroutine@ 00000001800f0f88     sqlite.obj
 0002:00007f98       ??_C@_05LNDKIJIJ@Yield@    00000001800f0f98     sqlite.obj
 0002:00007fa0       ??_C@_09LLJOBHN@MustBeInt@ 00000001800f0fa0     sqlite.obj
 0002:00007fac       ??_C@_04BIEPDJCB@Jump@     00000001800f0fac     sqlite.obj
 0002:00007fb4       ??_C@_04GKJMKNNB@Once@     00000001800f0fb4     sqlite.obj
 0002:00007fbc       ??_C@_02EMFCFMID@If@       00000001800f0fbc     sqlite.obj
 0002:00007fc0       ??_C@_05DALJIPE@IfNot@     00000001800f0fc0     sqlite.obj
 0002:00007fc8       ??_C@_06KJGJBOOL@IsType@   00000001800f0fc8     sqlite.obj
 0002:00007fd0       ??_C@_03KNKIDPAC@Not@      00000001800f0fd0     sqlite.obj
 0002:00007fd8       ??_C@_09LCOBJNPG@IfNullRow@ 00000001800f0fd8     sqlite.obj
 0002:00007fe4       ??_C@_06DCDFCJIJ@SeekLT@   00000001800f0fe4     sqlite.obj
 0002:00007fec       ??_C@_06GBOMAKJJ@SeekLE@   00000001800f0fec     sqlite.obj
 0002:00007ff4       ??_C@_06GNLJOFHI@SeekGE@   00000001800f0ff4     sqlite.obj
 0002:00007ffc       ??_C@_06DOGAMGGI@SeekGT@   00000001800f0ffc     sqlite.obj
 0002:00008008       ??_C@_09IEAHMACP@IfNotOpen@ 00000001800f1008     sqlite.obj
 0002:00008018       ??_C@_08NHGIEHPF@IfNoHope@ 00000001800f1018     sqlite.obj
 0002:00008028       ??_C@_0L@MAHEJOGD@NoConflict@ 00000001800f1028     sqlite.obj
 0002:00008038       ??_C@_08MDBAGECB@NotFound@ 00000001800f1038     sqlite.obj
 0002:00008044       ??_C@_05JDGHEPJG@Found@    00000001800f1044     sqlite.obj
 0002:00008050       ??_C@_09KDEDFHKA@SeekRowid@ 00000001800f1050     sqlite.obj
 0002:00008060       ??_C@_09HMMGFEAA@NotExists@ 00000001800f1060     sqlite.obj
 0002:0000806c       ??_C@_04DKKAEHDH@Last@     00000001800f106c     sqlite.obj
 0002:00008078       ??_C@_09NNOEIGHK@IfSmaller@ 00000001800f1078     sqlite.obj
 0002:00008088       ??_C@_0L@DMDDEDPI@SorterSort@ 00000001800f1088     sqlite.obj
 0002:00008094       ??_C@_04DJANFKGA@Sort@     00000001800f1094     sqlite.obj
 0002:0000809c       ??_C@_06MAOEIKCJ@Rewind@   00000001800f109c     sqlite.obj
 0002:000080a8       ??_C@_0L@MGGJHFHJ@SorterNext@ 00000001800f10a8     sqlite.obj
 0002:000080b4       ??_C@_04PHIBHIIF@Prev@     00000001800f10b4     sqlite.obj
 0002:000080bc       ??_C@_04MDFHGMOB@Next@     00000001800f10bc     sqlite.obj
 0002:000080c4       ??_C@_05FANNJDOC@IdxLE@    00000001800f10c4     sqlite.obj
 0002:000080cc       ??_C@_05PFBFPBD@IdxGT@     00000001800f10cc     sqlite.obj
 0002:000080d4       ??_C@_05DAELAPC@IdxLT@     00000001800f10d4     sqlite.obj
 0002:000080dc       ??_C@_02GGHBPHGE@Or@       00000001800f10dc     sqlite.obj
 0002:000080e0       ??_C@_03LOMLFHDC@And@      00000001800f10e0     sqlite.obj
 0002:000080e4       ??_C@_05FMIIHMAD@IdxGE@    00000001800f10e4     sqlite.obj
 0002:000080f0       ??_C@_0L@JELPJHIJ@RowSetRead@ 00000001800f10f0     sqlite.obj
 0002:00008100       ??_C@_0L@EOJPAHGG@RowSetTest@ 00000001800f1100     sqlite.obj
 0002:00008110       ??_C@_07DOMMNIGK@Program@  00000001800f1110     sqlite.obj
 0002:00008118       ??_C@_08PNIKOKNB@FkIfZero@ 00000001800f1118     sqlite.obj
 0002:00008124       ??_C@_06NBBMPCN@IsNull@    00000001800f1124     sqlite.obj
 0002:00008130       ??_C@_07HICACDPL@NotNull@  00000001800f1130     sqlite.obj
 0002:00008138       ??_C@_02GCDABJMF@Ne@       00000001800f1138     sqlite.obj
 0002:0000813c       ??_C@_02EAMLCBHB@Eq@       00000001800f113c     sqlite.obj
 0002:00008140       ??_C@_02DODIABFK@Gt@       00000001800f1140     sqlite.obj
 0002:00008144       ??_C@_02GBLEMNKL@Le@       00000001800f1144     sqlite.obj
 0002:00008148       ??_C@_02DCGNOOLL@Lt@       00000001800f1148     sqlite.obj
 0002:0000814c       ??_C@_02GNOBCCEK@Ge@       00000001800f114c     sqlite.obj
 0002:00008150       ??_C@_06PJGJCPMM@ElseEq@   00000001800f1150     sqlite.obj
 0002:00008158       ??_C@_05PMIMCOJP@IfPos@    00000001800f1158     sqlite.obj
 0002:00008160       ??_C@_09ELLCPLME@IfNotZero@ 00000001800f1160     sqlite.obj
 0002:00008170       ??_C@_0N@IDMANBEA@DecrJumpZero@ 00000001800f1170     sqlite.obj
 0002:00008180       ??_C@_0L@POHPJECG@IncrVacuum@ 00000001800f1180     sqlite.obj
 0002:0000818c       ??_C@_05GOGANBLF@VNext@    00000001800f118c     sqlite.obj
 0002:00008194       ??_C@_06IBDJIBGI@Filter@   00000001800f1194     sqlite.obj
 0002:000081a0       ??_C@_08CLBBEJDB@PureFunc@ 00000001800f11a0     sqlite.obj
 0002:000081b0       ??_C@_08PHKOHANG@Function@ 00000001800f11b0     sqlite.obj
 0002:000081bc       ??_C@_06HCFIKKEA@Return@   00000001800f11bc     sqlite.obj
 0002:000081c8       ??_C@_0N@FPMLICGC@EndCoroutine@ 00000001800f11c8     sqlite.obj
 0002:000081d8       ??_C@_0L@GIACEIKJ@HaltIfNull@ 00000001800f11d8     sqlite.obj
 0002:000081e4       ??_C@_04NIFKAFLK@Halt@     00000001800f11e4     sqlite.obj
 0002:000081f0       ??_C@_07EDADKEAH@Integer@  00000001800f11f0     sqlite.obj
 0002:000081f8       ??_C@_05DPPJJBMK@Int64@    00000001800f11f8     sqlite.obj
 0002:00008200       ??_C@_06ENNEIMBA@String@   00000001800f1200     sqlite.obj
 0002:00008208       ??_C@_0M@LMPLBFDN@BeginSubrtn@ 00000001800f1208     sqlite.obj
 0002:00008214       ??_C@_04KHKKIIL@Null@      00000001800f1214     sqlite.obj
 0002:00008220       ??_C@_08BAJALCJE@SoftNull@ 00000001800f1220     sqlite.obj
 0002:0000822c       ??_C@_04HOFOMOEI@Blob@     00000001800f122c     sqlite.obj
 0002:00008238       ??_C@_08DMMJCAML@Variable@ 00000001800f1238     sqlite.obj
 0002:00008244       ??_C@_04LCANPIEP@Move@     00000001800f1244     sqlite.obj
 0002:0000824c       ??_C@_04OPMHGHMB@Copy@     00000001800f124c     sqlite.obj
 0002:00008254       ??_C@_05BCDNELCG@SCopy@    00000001800f1254     sqlite.obj
 0002:00008260       ??_C@_07DBCPOOBM@IntCopy@  00000001800f1260     sqlite.obj
 0002:00008268       ??_C@_07BMHAHHIJ@FkCheck@  00000001800f1268     sqlite.obj
 0002:00008270       ??_C@_09BKHKEBMD@ResultRow@ 00000001800f1270     sqlite.obj
 0002:00008280       ??_C@_07MCEFGNMJ@CollSeq@  00000001800f1280     sqlite.obj
 0002:00008288       ??_C@_06JHIJIKD@AddImm@    00000001800f1288     sqlite.obj
 0002:00008290       ??_C@_0N@KGPEGHPK@RealAffinity@ 00000001800f1290     sqlite.obj
 0002:000082a0       ??_C@_04LIPANAOG@Cast@     00000001800f12a0     sqlite.obj
 0002:000082a8       ??_C@_0M@LPEOJDB@Permutation@ 00000001800f12a8     sqlite.obj
 0002:000082b8       ??_C@_07MBOMJGGF@Compare@  00000001800f12b8     sqlite.obj
 0002:000082c0       ??_C@_06HIKDFLAB@IsTrue@   00000001800f12c0     sqlite.obj
 0002:000082c8       ??_C@_0L@CJDHFEPA@ZeroOrNull@ 00000001800f12c8     sqlite.obj
 0002:000082d4       ??_C@_06GEMKPBPA@Offset@   00000001800f12d4     sqlite.obj
 0002:000082dc       ??_C@_06FFIACGFC@Column@   00000001800f12dc     sqlite.obj
 0002:000082e8       ??_C@_09GFLKLCIN@TypeCheck@ 00000001800f12e8     sqlite.obj
 0002:000082f8       ??_C@_08MMCPABPC@Affinity@ 00000001800f12f8     sqlite.obj
 0002:00008308       ??_C@_0L@PGPMFKDB@MakeRecord@ 00000001800f1308     sqlite.obj
 0002:00008314       ??_C@_05IJGIMMHE@Count@    00000001800f1314     sqlite.obj
 0002:00008320       ??_C@_0L@LIFFPDNM@ReadCookie@ 00000001800f1320     sqlite.obj
 0002:00008330       ??_C@_09FEDANMPL@SetCookie@ 00000001800f1330     sqlite.obj
 0002:00008340       ??_C@_09GCNMLHFL@ReopenIdx@ 00000001800f1340     sqlite.obj
 0002:0000834c       ??_C@_06PCNOCLJN@BitAnd@   00000001800f134c     sqlite.obj
 0002:00008354       ??_C@_05BKBNAGEF@BitOr@    00000001800f1354     sqlite.obj
 0002:00008360       ??_C@_09IIGOLNPP@ShiftLeft@ 00000001800f1360     sqlite.obj
 0002:00008370       ??_C@_0L@DHHFIOFJ@ShiftRight@ 00000001800f1370     sqlite.obj
 0002:0000837c       ??_C@_03LDFMNCOE@Add@      00000001800f137c     sqlite.obj
 0002:00008380       ??_C@_08DLEJPBEP@Subtract@ 00000001800f1380     sqlite.obj
 0002:00008390       ??_C@_08EOBDLMOI@Multiply@ 00000001800f1390     sqlite.obj
 0002:0000839c       ??_C@_06JKMEHOIB@Divide@   00000001800f139c     sqlite.obj
 0002:000083a8       ??_C@_09DPOHBCHJ@Remainder@ 00000001800f13a8     sqlite.obj
 0002:000083b4       ??_C@_06ODAFHOMO@Concat@   00000001800f13b4     sqlite.obj
 0002:000083c0       ??_C@_08FJFCCPFB@OpenRead@ 00000001800f13c0     sqlite.obj
 0002:000083d0       ??_C@_09FPCAPNBB@OpenWrite@ 00000001800f13d0     sqlite.obj
 0002:000083dc       ??_C@_06OBLNEDKN@BitNot@   00000001800f13dc     sqlite.obj
 0002:000083e8       ??_C@_07JBEAGLBO@OpenDup@  00000001800f13e8     sqlite.obj
 0002:000083f0       ??_C@_0O@LLCBFLCA@OpenAutoindex@ 00000001800f13f0     sqlite.obj
 0002:00008400       ??_C@_07KGFHIBD@String8@   00000001800f1400     sqlite.obj
 0002:00008408       ??_C@_0O@MHKNMBPC@OpenEphemeral@ 00000001800f1408     sqlite.obj
 0002:00008418       ??_C@_0L@DIBNDBJM@SorterOpen@ 00000001800f1418     sqlite.obj
 0002:00008428       ??_C@_0N@DGILIAAH@SequenceTest@ 00000001800f1428     sqlite.obj
 0002:00008438       ??_C@_0L@PKPPHKBP@OpenPseudo@ 00000001800f1438     sqlite.obj
 0002:00008444       ??_C@_05LGELBCGM@Close@    00000001800f1444     sqlite.obj
 0002:00008450       ??_C@_0M@KKDBEJBG@ColumnsUsed@ 00000001800f1450     sqlite.obj
 0002:00008460       ??_C@_08JFNEKOCO@SeekScan@ 00000001800f1460     sqlite.obj
 0002:00008470       ??_C@_07HMNEFDML@SeekHit@  00000001800f1470     sqlite.obj
 0002:00008478       ??_C@_08DOCONEG@Sequence@  00000001800f1478     sqlite.obj
 0002:00008488       ??_C@_08FEDJPMPH@NewRowid@ 00000001800f1488     sqlite.obj
 0002:00008494       ??_C@_06CPFCODOD@Insert@   00000001800f1494     sqlite.obj
 0002:000084a0       ??_C@_07HNCJOGBP@RowCell@  00000001800f14a0     sqlite.obj
 0002:000084a8       ??_C@_06JBKGCNBB@Delete@   00000001800f14a8     sqlite.obj
 0002:000084b0       ??_C@_0L@NDDNCBN@ResetCount@ 00000001800f14b0     sqlite.obj
 0002:000084c0       ??_C@_0O@GIINMLJL@SorterCompare@ 00000001800f14c0     sqlite.obj
 0002:000084d0       ??_C@_0L@DNBEOFPP@SorterData@ 00000001800f14d0     sqlite.obj
 0002:000084e0       ??_C@_07OHPACBNN@RowData@  00000001800f14e0     sqlite.obj
 0002:000084e8       ??_C@_05KEGGNBBF@Rowid@    00000001800f14e8     sqlite.obj
 0002:000084f0       ??_C@_07HJJPPOKN@NullRow@  00000001800f14f0     sqlite.obj
 0002:000084f8       ??_C@_07MBDDIPMC@SeekEnd@  00000001800f14f8     sqlite.obj
 0002:00008500       ??_C@_09ENCBCCAM@IdxInsert@ 00000001800f1500     sqlite.obj
 0002:00008510       ??_C@_0N@PCKBEOAP@SorterInsert@ 00000001800f1510     sqlite.obj
 0002:00008520       ??_C@_09PDNFOMPO@IdxDelete@ 00000001800f1520     sqlite.obj
 0002:00008530       ??_C@_0N@HDHEJACK@DeferredSeek@ 00000001800f1530     sqlite.obj
 0002:00008540       ??_C@_08KLKOBEJ@IdxRowid@  00000001800f1540     sqlite.obj
 0002:00008550       ??_C@_0L@FOALBNKP@FinishSeek@ 00000001800f1550     sqlite.obj
 0002:00008560       ??_C@_07BDCAJABG@Destroy@  00000001800f1560     sqlite.obj
 0002:00008568       ??_C@_05MDNHABIA@Clear@    00000001800f1568     sqlite.obj
 0002:00008570       ??_C@_0M@IJLMHKBN@ResetSorter@ 00000001800f1570     sqlite.obj
 0002:00008580       ??_C@_0M@DBLJACAP@CreateBtree@ 00000001800f1580     sqlite.obj
 0002:00008590       ??_C@_07EKAJKOOI@SqlExec@  00000001800f1590     sqlite.obj
 0002:00008598       ??_C@_0M@IPJMJJPI@ParseSchema@ 00000001800f1598     sqlite.obj
 0002:000085a8       ??_C@_0N@FEAPPFEN@LoadAnalysis@ 00000001800f15a8     sqlite.obj
 0002:000085b8       ??_C@_09ELPHDPAO@DropTable@ 00000001800f15b8     sqlite.obj
 0002:000085c8       ??_C@_09KDDJLBNF@DropIndex@ 00000001800f15c8     sqlite.obj
 0002:000085d4       ??_C@_04PHKLBGME@Real@     00000001800f15d4     sqlite.obj
 0002:000085e0       ??_C@_0M@JKNINGPB@DropTrigger@ 00000001800f15e0     sqlite.obj
 0002:000085f0       ??_C@_0M@KCIGPGBI@IntegrityCk@ 00000001800f15f0     sqlite.obj
 0002:00008600       ??_C@_09KPGKMOML@RowSetAdd@ 00000001800f1600     sqlite.obj
 0002:0000860c       ??_C@_05LOJBNELM@Param@    00000001800f160c     sqlite.obj
 0002:00008618       ??_C@_09EBKOHGDP@FkCounter@ 00000001800f1618     sqlite.obj
 0002:00008624       ??_C@_06LJFJMLCE@MemMax@   00000001800f1624     sqlite.obj
 0002:00008630       ??_C@_0M@MCOGCAAC@OffsetLimit@ 00000001800f1630     sqlite.obj
 0002:00008640       ??_C@_0L@GGHOKCDL@AggInverse@ 00000001800f1640     sqlite.obj
 0002:00008650       ??_C@_07NOMHFNIB@AggStep@  00000001800f1650     sqlite.obj
 0002:00008658       ??_C@_08FMDMHDFJ@AggStep1@ 00000001800f1658     sqlite.obj
 0002:00008668       ??_C@_08BOFOPCJ@AggValue@  00000001800f1668     sqlite.obj
 0002:00008678       ??_C@_08FCKHNOBN@AggFinal@ 00000001800f1678     sqlite.obj
 0002:00008684       ??_C@_06GDNCIOGJ@Expire@   00000001800f1684     sqlite.obj
 0002:00008690       ??_C@_0L@DOPCAHMP@CursorLock@ 00000001800f1690     sqlite.obj
 0002:000086a0       ??_C@_0N@CKLGKNPL@CursorUnlock@ 00000001800f16a0     sqlite.obj
 0002:000086b0       ??_C@_09FDKNKOOK@TableLock@ 00000001800f16b0     sqlite.obj
 0002:000086bc       ??_C@_06CLFNNGGK@VBegin@   00000001800f16bc     sqlite.obj
 0002:000086c8       ??_C@_07KDKHCOMM@VCreate@  00000001800f16c8     sqlite.obj
 0002:000086d0       ??_C@_08JBEDGDCN@VDestroy@ 00000001800f16d0     sqlite.obj
 0002:000086dc       ??_C@_05JABEJFFA@VOpen@    00000001800f16dc     sqlite.obj
 0002:000086e4       ??_C@_06MCHIHIGG@VCheck@   00000001800f16e4     sqlite.obj
 0002:000086f0       ??_C@_07BOLDFGMG@VInitIn@  00000001800f16f0     sqlite.obj
 0002:000086f8       ??_C@_07DOIHNMAE@VColumn@  00000001800f16f8     sqlite.obj
 0002:00008700       ??_C@_07BIPKCCHL@VRename@  00000001800f1700     sqlite.obj
 0002:00008708       ??_C@_09CNCANJNI@Pagecount@ 00000001800f1708     sqlite.obj
 0002:00008718       ??_C@_08PCPIJAPH@MaxPgcnt@ 00000001800f1718     sqlite.obj
 0002:00008728       ??_C@_0L@LIIHMFAD@ClrSubtype@ 00000001800f1728     sqlite.obj
 0002:00008738       ??_C@_0L@IHFBOEMB@GetSubtype@ 00000001800f1738     sqlite.obj
 0002:00008748       ??_C@_0L@JJHOFDII@SetSubtype@ 00000001800f1748     sqlite.obj
 0002:00008758       ??_C@_09FGLOEJBM@FilterAdd@ 00000001800f1758     sqlite.obj
 0002:00008764       ??_C@_05ILLBNNOP@Trace@    00000001800f1764     sqlite.obj
 0002:00008770       ??_C@_0L@CLJLGDBO@CursorHint@ 00000001800f1770     sqlite.obj
 0002:00008780       ??_C@_0L@FFDJMKCM@ReleaseReg@ 00000001800f1780     sqlite.obj
 0002:0000878c       ??_C@_04NBOPPMHE@Noop@     00000001800f178c     sqlite.obj
 0002:00008798       ??_C@_07EMCFMDDO@Explain@  00000001800f1798     sqlite.obj
 0002:000087a0       ??_C@_09JBCNKCCE@Abortable@ 00000001800f17a0     sqlite.obj
 0002:000087b0       ??_C@_0BA@FHFNEAED@AreFileApisANSI@ 00000001800f17b0     sqlite.obj
 0002:000087c0       ??_C@_0L@CDADJILC@CharLowerW@ 00000001800f17c0     sqlite.obj
 0002:000087d0       ??_C@_0L@JBOFCNPB@CharUpperW@ 00000001800f17d0     sqlite.obj
 0002:000087e0       ??_C@_0M@JHJNLFGC@CloseHandle@ 00000001800f17e0     sqlite.obj
 0002:000087f0       ??_C@_0M@HDHGNCCA@CreateFileA@ 00000001800f17f0     sqlite.obj
 0002:00008800       ??_C@_0M@GPOOGHPH@CreateFileW@ 00000001800f1800     sqlite.obj
 0002:00008810       ??_C@_0BD@GJENCGJD@CreateFileMappingA@ 00000001800f1810     sqlite.obj
 0002:00008828       ??_C@_0BD@HFNFJDEE@CreateFileMappingW@ 00000001800f1828     sqlite.obj
 0002:00008840       ??_C@_0N@MDNOAJMP@CreateMutexW@ 00000001800f1840     sqlite.obj
 0002:00008850       ??_C@_0M@CBNKJACB@DeleteFileA@ 00000001800f1850     sqlite.obj
 0002:00008860       ??_C@_0M@DNECCFPG@DeleteFileW@ 00000001800f1860     sqlite.obj
 0002:00008870       ??_C@_0BI@EKFDIGHI@FileTimeToLocalFileTime@ 00000001800f1870     sqlite.obj
 0002:00008888       ??_C@_0BF@KPJNHALE@FileTimeToSystemTime@ 00000001800f1888     sqlite.obj
 0002:000088a0       ??_C@_0BB@MOGECGEP@FlushFileBuffers@ 00000001800f18a0     sqlite.obj
 0002:000088b8       ??_C@_0P@FKPELJOF@FormatMessageA@ 00000001800f18b8     sqlite.obj
 0002:000088c8       ??_C@_0P@EGGMAMDC@FormatMessageW@ 00000001800f18c8     sqlite.obj
 0002:000088d8       ??_C@_0M@FACAOGOA@FreeLibrary@ 00000001800f18d8     sqlite.obj
 0002:000088e8       ??_C@_0BE@BEODBHKD@GetCurrentProcessId@ 00000001800f18e8     sqlite.obj
 0002:00008900       ??_C@_0BC@CLHNLNI@GetDiskFreeSpaceA@ 00000001800f1900     sqlite.obj
 0002:00008918       ??_C@_0BC@BOCPGOAP@GetDiskFreeSpaceW@ 00000001800f1918     sqlite.obj
 0002:00008930       ??_C@_0BD@DJMMCMCB@GetFileAttributesA@ 00000001800f1930     sqlite.obj
 0002:00008948       ??_C@_0BD@CFFEJJPG@GetFileAttributesW@ 00000001800f1948     sqlite.obj
 0002:00008960       ??_C@_0BF@JODNCFOA@GetFileAttributesExW@ 00000001800f1960     sqlite.obj
 0002:00008978       ??_C@_0M@BAICHOOE@GetFileSize@ 00000001800f1978     sqlite.obj
 0002:00008988       ??_C@_0BB@HALHENPC@GetFullPathNameA@ 00000001800f1988     sqlite.obj
 0002:000089a0       ??_C@_0BB@GMCPPICF@GetFullPathNameW@ 00000001800f19a0     sqlite.obj
 0002:000089b8       ??_C@_0N@HICKNDGL@GetLastError@ 00000001800f19b8     sqlite.obj
 0002:000089c8       ??_C@_0BA@EJGIKKLP@GetProcAddressA@ 00000001800f19c8     sqlite.obj
 0002:000089d8       ??_C@_0O@HJFFHIPG@GetSystemInfo@ 00000001800f19d8     sqlite.obj
 0002:000089e8       ??_C@_0O@IKEIBEBH@GetSystemTime@ 00000001800f19e8     sqlite.obj
 0002:000089f8       ??_C@_0BI@ENMDHCMK@GetSystemTimeAsFileTime@ 00000001800f19f8     sqlite.obj
 0002:00008a10       ??_C@_0N@CMNFBGGC@GetTempPathA@ 00000001800f1a10     sqlite.obj
 0002:00008a20       ??_C@_0N@DAENKDLF@GetTempPathW@ 00000001800f1a20     sqlite.obj
 0002:00008a30       ??_C@_0N@JOMACIEF@GetTickCount@ 00000001800f1a30     sqlite.obj
 0002:00008a40       ??_C@_0O@LLCLDPIK@GetVersionExA@ 00000001800f1a40     sqlite.obj
 0002:00008a50       ??_C@_0O@KHLDIKFN@GetVersionExW@ 00000001800f1a50     sqlite.obj
 0002:00008a60       ??_C@_09JDKINLHP@HeapAlloc@ 00000001800f1a60     sqlite.obj
 0002:00008a70       ??_C@_0L@ICEGIJOB@HeapCreate@ 00000001800f1a70     sqlite.obj
 0002:00008a80       ??_C@_0M@NELNNOPP@HeapDestroy@ 00000001800f1a80     sqlite.obj
 0002:00008a90       ??_C@_08ICEHPNNG@HeapFree@ 00000001800f1a90     sqlite.obj
 0002:00008aa0       ??_C@_0M@HHKAEGMB@HeapReAlloc@ 00000001800f1aa0     sqlite.obj
 0002:00008ab0       ??_C@_08LKCFNBPH@HeapSize@ 00000001800f1ab0     sqlite.obj
 0002:00008ac0       ??_C@_0N@BKFJNCJM@HeapValidate@ 00000001800f1ac0     sqlite.obj
 0002:00008ad0       ??_C@_0M@EIEMDCNL@HeapCompact@ 00000001800f1ad0     sqlite.obj
 0002:00008ae0       ??_C@_0N@LOMLCOFC@LoadLibraryA@ 00000001800f1ae0     sqlite.obj
 0002:00008af0       ??_C@_0N@KCFDJLIF@LoadLibraryW@ 00000001800f1af0     sqlite.obj
 0002:00008b00       ??_C@_09FHKJECCN@LocalFree@ 00000001800f1b00     sqlite.obj
 0002:00008b10       ??_C@_08DICMLIHC@LockFile@ 00000001800f1b10     sqlite.obj
 0002:00008b20       ??_C@_0L@EJAEKEDD@LockFileEx@ 00000001800f1b20     sqlite.obj
 0002:00008b30       ??_C@_0O@IGIELGBD@MapViewOfFile@ 00000001800f1b30     sqlite.obj
 0002:00008b40       ??_C@_0BE@HCIKGJGE@MultiByteToWideChar@ 00000001800f1b40     sqlite.obj
 0002:00008b58       ??_C@_0BI@LFICGGHO@QueryPerformanceCounter@ 00000001800f1b58     sqlite.obj
 0002:00008b70       ??_C@_08KLCHJOKF@ReadFile@ 00000001800f1b70     sqlite.obj
 0002:00008b80       ??_C@_0N@KGGGLBCJ@SetEndOfFile@ 00000001800f1b80     sqlite.obj
 0002:00008b90       ??_C@_0P@HKHKGCLN@SetFilePointer@ 00000001800f1b90     sqlite.obj
 0002:00008ba0       ??_C@_05PFDOMJEF@Sleep@    00000001800f1ba0     sqlite.obj
 0002:00008ba8       ??_C@_0BF@HBHGIPOG@SystemTimeToFileTime@ 00000001800f1ba8     sqlite.obj
 0002:00008bc0       ??_C@_0L@PBJENKDG@UnlockFile@ 00000001800f1bc0     sqlite.obj
 0002:00008bd0       ??_C@_0N@HOKNOHPO@UnlockFileEx@ 00000001800f1bd0     sqlite.obj
 0002:00008be0       ??_C@_0BA@GLKNLELN@UnmapViewOfFile@ 00000001800f1be0     sqlite.obj
 0002:00008bf0       ??_C@_0BE@LJADKLBD@WideCharToMultiByte@ 00000001800f1bf0     sqlite.obj
 0002:00008c08       ??_C@_09NOIIIIGM@WriteFile@ 00000001800f1c08     sqlite.obj
 0002:00008c18       ??_C@_0P@DLHPPCNH@CreateEventExW@ 00000001800f1c18     sqlite.obj
 0002:00008c28       ??_C@_0BE@CLKLPNNG@WaitForSingleObject@ 00000001800f1c28     sqlite.obj
 0002:00008c40       ??_C@_0BG@IFNJHLEG@WaitForSingleObjectEx@ 00000001800f1c40     sqlite.obj
 0002:00008c58       ??_C@_0BB@GDGABGCO@SetFilePointerEx@ 00000001800f1c58     sqlite.obj
 0002:00008c70       ??_C@_0BN@NEEHBBPO@GetFileInformationByHandleEx@ 00000001800f1c70     sqlite.obj
 0002:00008c90       ??_C@_0BF@ECJCKDGL@MapViewOfFileFromApp@ 00000001800f1c90     sqlite.obj
 0002:00008ca8       ??_C@_0M@HHGEPIBF@CreateFile2@ 00000001800f1ca8     sqlite.obj
 0002:00008cb8       ??_C@_0BE@GMOAPDKA@LoadPackagedLibrary@ 00000001800f1cb8     sqlite.obj
 0002:00008cd0       ??_C@_0P@CDHHOHKP@GetTickCount64@ 00000001800f1cd0     sqlite.obj
 0002:00008ce0       ??_C@_0BE@HLKFLAJF@GetNativeSystemInfo@ 00000001800f1ce0     sqlite.obj
 0002:00008cf8       ??_C@_0BD@ILGKEMFC@OutputDebugStringA@ 00000001800f1cf8     sqlite.obj
 0002:00008d10       ??_C@_0BD@JHPCPJIF@OutputDebugStringW@ 00000001800f1d10     sqlite.obj
 0002:00008d28       ??_C@_0P@BOLOPLNF@GetProcessHeap@ 00000001800f1d28     sqlite.obj
 0002:00008d38       ??_C@_0BJ@EKFPCGJA@CreateFileMappingFromApp@ 00000001800f1d38     sqlite.obj
 0002:00008d58       ??_C@_0BL@FOMKKFPM@InterlockedCompareExchange@ 00000001800f1d58     sqlite.obj
 0002:00008d78       ??_C@_0L@IDKDBMAM@UuidCreate@ 00000001800f1d78     sqlite.obj
 0002:00008d88       ??_C@_0BF@DJFPALMK@UuidCreateSequential@ 00000001800f1d88     sqlite.obj
 0002:00008da0       ??_C@_0BA@IHGACFIJ@FlushViewOfFile@ 00000001800f1da0     sqlite.obj
 0002:00008db0       ??_C@_02DKCKIIND@?$CFs@    00000001800f1db0     sqlite.obj
 0002:00008db8       ??_C@_0BE@MJECGBL@OsError?50x?$CFlx?5?$CI?$CFlu?$CJ@ 00000001800f1db8     sqlite.obj
 0002:00008dd0       ??_C@_0BP@JDJJJHMH@os_win?4c?3?$CFd?3?5?$CI?$CFlu?$CJ?5?$CFs?$CI?$CFs?$CJ?5?9?5?$CFs@ 00000001800f1dd0     sqlite.obj
 0002:00008df0       ??_C@_0DC@FIDAINO@delayed?5?$CFdms?5for?5lock?1sharing?5c@ 00000001800f1df0     sqlite.obj
 0002:00008e28       ??_C@_0M@JAPMDKOE@winSeekFile@ 00000001800f1e28     sqlite.obj
 0002:00008e38       ??_C@_08GBGPIFFF@winClose@ 00000001800f1e38     sqlite.obj
 0002:00008e48       ??_C@_07BGDHELCN@winRead@  00000001800f1e48     sqlite.obj
 0002:00008e50       ??_C@_09GFOHNLGD@winWrite1@ 00000001800f1e50     sqlite.obj
 0002:00008e60       ??_C@_09EOMKIIKA@winWrite2@ 00000001800f1e60     sqlite.obj
 0002:00008e70       ??_C@_0N@JHOIFHJA@winTruncate1@ 00000001800f1e70     sqlite.obj
 0002:00008e80       ??_C@_0N@LMMFAEFD@winTruncate2@ 00000001800f1e80     sqlite.obj
 0002:00008e90       ??_C@_08LAPEMDHJ@winSync1@ 00000001800f1e90     sqlite.obj
 0002:00008ea0       ??_C@_08JLNJJALK@winSync2@ 00000001800f1ea0     sqlite.obj
 0002:00008eb0       ??_C@_0M@DODNMLAG@winFileSize@ 00000001800f1eb0     sqlite.obj
 0002:00008ec0       ??_C@_0BC@CHABEBCJ@winUnlockReadLock@ 00000001800f1ec0     sqlite.obj
 0002:00008ed8       ??_C@_09INENJOCI@winUnlock@ 00000001800f1ed8     sqlite.obj
 0002:00008ee8       ??_C@_0BE@BHPBKPGB@winLockSharedMemory@ 00000001800f1ee8     sqlite.obj
 0002:00008efc       ??_C@_06KEOMCCGA@?$CFs?9shm@ 00000001800f1efc     sqlite.obj
 0002:00008f08       ??_C@_0N@KAFKNICG@readonly_shm@ 00000001800f1f08     sqlite.obj
 0002:00008f18       ??_C@_0L@NHPDAEHO@winOpenShm@ 00000001800f1f18     sqlite.obj
 0002:00008f28       ??_C@_0L@JMPNPFLA@winShmMap1@ 00000001800f1f28     sqlite.obj
 0002:00008f38       ??_C@_0L@LHNAKGHD@winShmMap2@ 00000001800f1f38     sqlite.obj
 0002:00008f48       ??_C@_0L@KOMLJHDC@winShmMap3@ 00000001800f1f48     sqlite.obj
 0002:00008f58       ??_C@_0O@MBBPBMPM@winUnmapfile1@ 00000001800f1f58     sqlite.obj
 0002:00008f68       ??_C@_0O@OKDCEPDP@winUnmapfile2@ 00000001800f1f68     sqlite.obj
 0002:00008f78       ??_C@_0M@FMIFOGHC@winMapfile1@ 00000001800f1f78     sqlite.obj
 0002:00008f88       ??_C@_0M@HHKILFLB@winMapfile2@ 00000001800f1f88     sqlite.obj
 0002:00008f98       ??_C@_07NBNPOOME@etilqs_@  00000001800f1f98     sqlite.obj
 0002:00008fa0       ??_C@_0BA@KKAJEMJB@winGetTempname1@ 00000001800f1fa0     sqlite.obj
 0002:00008fb0       ??_C@_0BA@IBCEBPFC@winGetTempname2@ 00000001800f1fb0     sqlite.obj
 0002:00008fc0       ??_C@_0BA@NHHOLINE@winGetTempname4@ 00000001800f1fc0     sqlite.obj
 0002:00008fd0       ??_C@_0BA@MOGFIJJF@winGetTempname5@ 00000001800f1fd0     sqlite.obj
 0002:00008fe0       ??_C@_09JJPHINFN@exclusive@ 00000001800f1fe0     sqlite.obj
 0002:00008ff0       ??_C@_07BEGGPPOF@winOpen@  00000001800f1ff0     sqlite.obj
 0002:00008ff8       ??_C@_04JKHAIEHD@psow@     00000001800f1ff8     sqlite.obj
 0002:00009000       ??_C@_09MOHEIBIO@winDelete@ 00000001800f2000     sqlite.obj
 0002:00009010       ??_C@_09NBJCHJLH@winAccess@ 00000001800f2010     sqlite.obj
 0002:0000901c       ??_C@_06GIIGBPHC@?$CFs?$CFc?$CFs@ 00000001800f201c     sqlite.obj
 0002:00009028       ??_C@_0BB@OFJJKLCE@winFullPathname1@ 00000001800f2028     sqlite.obj
 0002:00009040       ??_C@_0BB@MOLEPIOH@winFullPathname2@ 00000001800f2040     sqlite.obj
 0002:00009054       ??_C@_05NMJMPJJB@win32@    00000001800f2054     sqlite.obj
 0002:00009060       ??_C@_0P@DDINIIBH@win32?9longpath@ 00000001800f2060     sqlite.obj
 0002:00009070       ??_C@_0L@GKDKNNFD@win32?9none@ 00000001800f2070     sqlite.obj
 0002:00009080       ??_C@_0BE@EDBNHJPM@win32?9longpath?9none@ 00000001800f2080     sqlite.obj
 0002:00009094       ??_C@_05HKNMPPOC@memdb@    00000001800f2094     sqlite.obj
 0002:000090a0       ??_C@_0P@LFDLBEMI@memdb?$CI?$CFp?0?$CFlld?$CJ@ 00000001800f20a0     sqlite.obj
 0002:000090b0       ??_C@_0BH@IJOBOENO@PRAGMA?5?$CC?$CFw?$CC?4page_count@ 00000001800f20b0     sqlite.obj
 0002:000090c8       ??_C@_0BJ@OKKONFLK@BEGIN?5IMMEDIATE?$DL?5COMMIT?$DL@ 00000001800f20c8     sqlite.obj
 0002:000090e8       ??_C@_0P@HBODJMCB@ATTACH?5x?5AS?5?$CFQ@ 00000001800f20e8     sqlite.obj
 0002:000090f8       ??_C@_0BL@FJPGAHP@recovered?5?$CFd?5pages?5from?5?$CFs@ 00000001800f20f8     sqlite.obj
 0002:00009114       ??_C@_06LDKHBALK@nolock@   00000001800f2114     sqlite.obj
 0002:00009120       ??_C@_09JFJMBHCC@immutable@ 00000001800f2120     sqlite.obj
 0002:00009130       ??_C@_0BC@GLDFLEED@PRAGMA?5table_list@ 00000001800f2130     sqlite.obj
 0002:00009148       ??_C@_0CF@EDMDCOFB@recovered?5?$CFd?5frames?5from?5WAL?5fi@ 00000001800f2148     sqlite.obj
 0002:00009170       ??_C@_0BK@NCCCKLLJ@cannot?5limit?5WAL?5size?3?5?$CFs@ 00000001800f2170     sqlite.obj
 0002:00009190       ??_C@_08CADOGOJM@?3memory?3@ 00000001800f2190     sqlite.obj
 0002:0000919c       ??_C@_01EEMJAFIK@?6@       00000001800f219c     sqlite.obj
 0002:000091a0       ??_C@_0BH@OIHMGCGC@invalid?5page?5number?5?$CFu@ 00000001800f21a0     sqlite.obj
 0002:000091b8       ??_C@_0BJ@CEHLJBCH@2nd?5reference?5to?5page?5?$CFu@ 00000001800f21b8     sqlite.obj
 0002:000091d8       ??_C@_0BN@IKPIDIJO@Failed?5to?5read?5ptrmap?5key?$DN?$CFu@ 00000001800f21d8     sqlite.obj
 0002:000091f8       ??_C@_0DG@EJNIKABE@Bad?5ptr?5map?5entry?5key?$DN?$CFu?5expect@ 00000001800f21f8     sqlite.obj
 0002:00009230       ??_C@_0BG@DPFIBLFE@failed?5to?5get?5page?5?$CFu@ 00000001800f2230     sqlite.obj
 0002:00009248       ??_C@_0CH@OOKNAFIJ@freelist?5leaf?5count?5too?5big?5on?5@ 00000001800f2248     sqlite.obj
 0002:00009270       ??_C@_04IAGNFIBA@size@     00000001800f2270     sqlite.obj
 0002:00009278       ??_C@_0BF@GMCEBHJ@overflow?5list?5length@ 00000001800f2278     sqlite.obj
 0002:00009290       ??_C@_0BK@DJLAPNLA@?$CFs?5is?5?$CFu?5but?5should?5be?5?$CFu@ 00000001800f2290     sqlite.obj
 0002:000092b0       ??_C@_0BC@IMOOKMBL@Tree?5?$CFu?5page?5?$CFu?3?5@ 00000001800f22b0     sqlite.obj
 0002:000092c8       ??_C@_0CG@ILLDAEJM@unable?5to?5get?5the?5page?4?5error?5c@ 00000001800f22c8     sqlite.obj
 0002:000092f0       ??_C@_0CG@FFKEALPN@btreeInitPage?$CI?$CJ?5returns?5error?5c@ 00000001800f22f0     sqlite.obj
 0002:00009318       ??_C@_0BG@NBOMOFLA@free?5space?5corruption@ 00000001800f2318     sqlite.obj
 0002:00009330       ??_C@_0BK@PDOEHFGM@Tree?5?$CFu?5page?5?$CFu?5cell?5?$CFu?3?5@ 00000001800f2330     sqlite.obj
 0002:00009350       ??_C@_0BO@BFHPICDE@Tree?5?$CFu?5page?5?$CFu?5right?5child?3?5@ 00000001800f2350     sqlite.obj
 0002:00009370       ??_C@_0BO@EIJHNFOA@Offset?5?$CFu?5out?5of?5range?5?$CFu?4?4?$CFu@ 00000001800f2370     sqlite.obj
 0002:00009390       ??_C@_0BI@EFAGLMLE@Extends?5off?5end?5of?5page@ 00000001800f2390     sqlite.obj
 0002:000093a8       ??_C@_0BI@CKMEGBED@Rowid?5?$CFlld?5out?5of?5order@ 00000001800f23a8     sqlite.obj
 0002:000093c0       ??_C@_0BJ@FLOCKNJL@Child?5page?5depth?5differs@ 00000001800f23c0     sqlite.obj
 0002:000093e0       ??_C@_0CF@CILLMM@Multiple?5uses?5for?5byte?5?$CFu?5of?5pa@ 00000001800f23e0     sqlite.obj
 0002:00009408       ??_C@_0DE@OFKCILJI@Fragmentation?5of?5?$CFu?5bytes?5repor@ 00000001800f2408     sqlite.obj
 0002:00009440       ??_C@_0L@FDHMDDBN@Freelist?3?5@ 00000001800f2440     sqlite.obj
 0002:00009450       ??_C@_0CN@DFOBODNN@max?5rootpage?5?$CI?$CFu?$CJ?5disagrees?5wit@ 00000001800f2450     sqlite.obj
 0002:00009480       ??_C@_0DH@BEHBIBPC@incremental_vacuum?5enabled?5with@ 00000001800f2480     sqlite.obj
 0002:000094b8       ??_C@_0BE@KKMCBPDJ@Page?5?$CFu?3?5never?5used@ 00000001800f24b8     sqlite.obj
 0002:000094d0       ??_C@_0CA@FJLILADG@Page?5?$CFu?3?5pointer?5map?5referenced@ 00000001800f24d0     sqlite.obj
 0002:000094f0       ??_C@_0BE@OKPJBBEB@unknown?5database?5?$CFs@ 00000001800f24f0     sqlite.obj
 0002:00009508       ??_C@_0BP@CNIPEHFB@destination?5database?5is?5in?5use@ 00000001800f2508     sqlite.obj
 0002:00009528       ??_C@_0CI@IHDDPHMP@source?5and?5destination?5must?5be?5@ 00000001800f2528     sqlite.obj
 0002:00009550       ??_C@_06NJMDEJD@?$CF?$CB?415g@ 00000001800f2550     sqlite.obj
 0002:00009558       ??_C@_01JOAMLHOP@?9@       00000001800f2558     sqlite.obj
 0002:0000955c       ??_C@_04HDOCAJNK@?$CFs?$CFs@ 00000001800f255c     sqlite.obj
 0002:00009564       ??_C@_04INKOODMH@k?$CI?$CFd@ 00000001800f2564     sqlite.obj
 0002:0000956c       ??_C@_06FJHKNKMG@BINARY@   00000001800f256c     sqlite.obj
 0002:00009574       ??_C@_01HMGJMAIH@B@        00000001800f2574     sqlite.obj
 0002:00009578       ??_C@_02HBLNIPAL@N?4@      00000001800f2578     sqlite.obj
 0002:00009580       ??_C@_07GOAIDPOD@?0?$CFs?$CFs?$CFs@ 00000001800f2580     sqlite.obj
 0002:00009588       ??_C@_01PKGAHCOL@?$CJ@     00000001800f2588     sqlite.obj
 0002:0000958c       ??_C@_01OGPIMHDM@?$DP@     00000001800f258c     sqlite.obj
 0002:00009590       ??_C@_01KJLJFBPL@8@        00000001800f2590     sqlite.obj
 0002:00009594       ??_C@_04IEFCPBEN@16LE@     00000001800f2594     sqlite.obj
 0002:0000959c       ??_C@_04IOMMNMEH@16BE@     00000001800f259c     sqlite.obj
 0002:000095a8       ??_C@_08NOPDEDN@?$CF?418s?9?$CFs@ 00000001800f25a8     sqlite.obj
 0002:000095b4       ??_C@_06BPGFIOAL@?$CFs?$CI?$CFd?$CJ@ 00000001800f25b4     sqlite.obj
 0002:000095bc       ??_C@_02DPKJAMEF@?$CFd@    00000001800f25bc     sqlite.obj
 0002:000095c0       ??_C@_06OLGPAEJH@?$CIblob?$CJ@ 00000001800f25c0     sqlite.obj
 0002:000095c8       ??_C@_07EGLAFBFD@vtab?3?$CFp@ 00000001800f25c8     sqlite.obj
 0002:000095d0       ??_C@_04HFKBPJMD@?$CFc?$CFu@ 00000001800f25d0     sqlite.obj
 0002:000095d8       ??_C@_01LBDDMOBJ@?$FN@     00000001800f25d8     sqlite.obj
 0002:000095e0       ??_C@_07MHLKLKDM@program@  00000001800f25e0     sqlite.obj
 0002:000095e8       ??_C@_0M@LHIDDDGM@?$CF?44c?$CFs?$CF?416c@ 00000001800f25e8     sqlite.obj
 0002:000095f8       ??_C@_0O@IDFCBAPA@MJ?5delete?3?5?$CFs@ 00000001800f25f8     sqlite.obj
 0002:00009608       ??_C@_0P@EKBGDFBG@MJ?5collide?3?5?$CFs@ 00000001800f2608     sqlite.obj
 0002:00009618       ??_C@_0N@FLHACMNC@?9mj?$CF06X9?$CF02X@ 00000001800f2618     sqlite.obj
 0002:00009628       ??_C@_0BO@PMDGIFIC@FOREIGN?5KEY?5constraint?5failed@ 00000001800f2628     sqlite.obj
 0002:00009648       ??_C@_0BD@PLLAKGPC@a?5CHECK?5constraint@ 00000001800f2648     sqlite.obj
 0002:00009660       ??_C@_0BD@GDLONJJO@a?5generated?5column@ 00000001800f2660     sqlite.obj
 0002:00009678       ??_C@_08EMHFPIHM@an?5index@ 00000001800f2678     sqlite.obj
 0002:00009688       ??_C@_0CE@IJCGJAPB@non?9deterministic?5use?5of?5?$CFs?$CI?$CJ?5i@ 00000001800f2688     sqlite.obj
 0002:000096b0       ??_C@_0CN@JCKHFJMJ@API?5called?5with?5finalized?5prepa@ 00000001800f26b0     sqlite.obj
 0002:000096e0       ??_C@_0CI@DGDEMKDJ@API?5called?5with?5NULL?5prepared?5s@ 00000001800f26e0     sqlite.obj
 0002:00009708       ??_C@_0BH@BEFJIDGM@string?5or?5blob?5too?5big@ 00000001800f2708     sqlite.obj
 0002:00009720       ??_C@_04HLBMEOMD@addr@     00000001800f2720     sqlite.obj
 0002:00009728       ??_C@_06POMMAHJK@opcode@   00000001800f2728     sqlite.obj
 0002:00009730       ??_C@_02JCBCEJAP@p1@       00000001800f2730     sqlite.obj
 0002:00009734       ??_C@_02LJDPBKMM@p2@       00000001800f2734     sqlite.obj
 0002:00009738       ??_C@_02KACECLIN@p3@       00000001800f2738     sqlite.obj
 0002:0000973c       ??_C@_02OPGFLNEK@p4@       00000001800f273c     sqlite.obj
 0002:00009740       ??_C@_02PGHOIMAL@p5@       00000001800f2740     sqlite.obj
 0002:00009748       ??_C@_07GJGNEJFD@comment@  00000001800f2748     sqlite.obj
 0002:00009750       ??_C@_02EGCJHIOB@id@       00000001800f2750     sqlite.obj
 0002:00009754       ??_C@_06MLKDMCBD@parent@   00000001800f2754     sqlite.obj
 0002:00009760       ??_C@_07LFMECGGB@notused@  00000001800f2760     sqlite.obj
 0002:00009768       ??_C@_06EENFNEPD@detail@   00000001800f2768     sqlite.obj
 0002:00009770       ??_C@_0CI@NKIMDBDG@bind?5on?5a?5busy?5prepared?5stateme@ 00000001800f2770     sqlite.obj
 0002:00009798       ??_C@_03CJPCKGBB@?9?9?5@   00000001800f2798     sqlite.obj
 0002:0000979c       ??_C@_06BGANNCL@?8?$CF?4?$CKq?8@ 00000001800f279c     sqlite.obj
 0002:000097a8       ??_C@_0N@OGKFEFFN@zeroblob?$CI?$CFd?$CJ@ 00000001800f27a8     sqlite.obj
 0002:000097b8       ??_C@_02IAJJKNGA@x?8@      00000001800f27b8     sqlite.obj
 0002:000097bc       ??_C@_04NOJCDH@?$CF02x@    00000001800f27bc     sqlite.obj
 0002:000097c4       ??_C@_01GEODFPGF@?8@       00000001800f27c4     sqlite.obj
 0002:000097c8       ??_C@_08BBHBEGAC@NOT?5NULL@ 00000001800f27c8     sqlite.obj
 0002:000097d4       ??_C@_06OHAHIIGJ@UNIQUE@   00000001800f27d4     sqlite.obj
 0002:000097dc       ??_C@_05GCOJDIEO@CHECK@    00000001800f27dc     sqlite.obj
 0002:000097e8       ??_C@_0M@CFPAHGLH@FOREIGN?5KEY@ 00000001800f27e8     sqlite.obj
 0002:000097f8       ??_C@_0BF@PPLEKELH@?$CFs?5constraint?5failed@ 00000001800f27f8     sqlite.obj
 0002:00009810       ??_C@_06CEJILJDK@?$CFz?3?5?$CFs@ 00000001800f2810     sqlite.obj
 0002:00009818       ??_C@_0BI@CKCEIKAL@abort?5at?5?$CFd?5in?5?$FL?$CFs?$FN?3?5?$CFs@ 00000001800f2818     sqlite.obj
 0002:00009830       ??_C@_0CJ@GONEJNOC@cannot?5store?5?$CFs?5value?5in?5?$CFs?5col@ 00000001800f2830     sqlite.obj
 0002:00009860       ??_C@_0DD@EHMCJFDN@cannot?5open?5savepoint?5?9?5SQL?5sta@ 00000001800f2860     sqlite.obj
 0002:00009898       ??_C@_0BG@NADCOEGF@no?5such?5savepoint?3?5?$CFs@ 00000001800f2898     sqlite.obj
 0002:000098b0       ??_C@_0DG@JCGPCDM@cannot?5release?5savepoint?5?9?5SQL?5@ 00000001800f28b0     sqlite.obj
 0002:000098e8       ??_C@_0DH@EPKPHENF@cannot?5commit?5transaction?5?9?5SQL@ 00000001800f28e8     sqlite.obj
 0002:00009920       ??_C@_0DA@CKKHGBEC@cannot?5start?5a?5transaction?5with@ 00000001800f2920     sqlite.obj
 0002:00009950       ??_C@_0CL@DIEDEFLK@cannot?5rollback?5?9?5no?5transactio@ 00000001800f2950     sqlite.obj
 0002:00009980       ??_C@_0CJ@LALCBGBP@cannot?5commit?5?9?5no?5transaction?5@ 00000001800f2980     sqlite.obj
 0002:000099b0       ??_C@_0BM@FKBOKANJ@database?5schema?5has?5changed@ 00000001800f29b0     sqlite.obj
 0002:000099d0       ??_C@_0BB@JLHLAHON@index?5corruption@ 00000001800f29d0     sqlite.obj
 0002:000099e8       ??_C@_0O@JMEKHCEB@sqlite_master@ 00000001800f29e8     sqlite.obj
 0002:000099f8       ??_C@_0CL@DDDFOMHB@SELECT?$CKFROM?$CC?$CFw?$CC?4?$CFs?5WHERE?5?$CFs?5ORD@ 00000001800f29f8     sqlite.obj
 0002:00009a28       ??_C@_0CF@DBNDEPJP@too?5many?5levels?5of?5trigger?5recu@ 00000001800f2a28     sqlite.obj
 0002:00009a50       ??_C@_04MHJLCKAK@into@     00000001800f2a50     sqlite.obj
 0002:00009a58       ??_C@_06JIMOCJPC@out?5of@  00000001800f2a58     sqlite.obj
 0002:00009a60       ??_C@_0DE@KIPNAMAA@cannot?5change?5?$CFs?5wal?5mode?5from?5@ 00000001800f2a60     sqlite.obj
 0002:00009a98       ??_C@_0BN@JOIFECGM@database?5table?5is?5locked?3?5?$CFs@ 00000001800f2a98     sqlite.obj
 0002:00009ab8       ??_C@_09EEIDEHMK@ValueList@ 00000001800f2ab8     sqlite.obj
 0002:00009ac4       ??_C@_05FGPIKCAB@?9?9?5?$CFs@ 00000001800f2ac4     sqlite.obj
 0002:00009ad0       ??_C@_0CA@JGFGBIFL@statement?5aborts?5at?5?$CFd?3?5?$FL?$CFs?$FN?5?$CFs@ 00000001800f2ad0     sqlite.obj
 0002:00009af0       ??_C@_04DGGKDJMA@real@     00000001800f2af0     sqlite.obj
 0002:00009af8       ??_C@_07LKHFMGFB@integer@  00000001800f2af8     sqlite.obj
 0002:00009b00       ??_C@_0BN@OFFACDFM@cannot?5open?5value?5of?5type?5?$CFs@ 00000001800f2b00     sqlite.obj
 0002:00009b20       ??_C@_0BE@PGLAJEIK@no?5such?5rowid?3?5?$CFlld@ 00000001800f2b20     sqlite.obj
 0002:00009b38       ??_C@_0BO@BCBGJJEM@cannot?5open?5virtual?5table?3?5?$CFs@ 00000001800f2b38     sqlite.obj
 0002:00009b58       ??_C@_0CE@OCACOFEC@cannot?5open?5table?5without?5rowid@ 00000001800f2b58     sqlite.obj
 0002:00009b80       ??_C@_0BF@LEHNPEDD@cannot?5open?5view?3?5?$CFs@ 00000001800f2b80     sqlite.obj
 0002:00009b98       ??_C@_0BF@IFOHJMAC@no?5such?5column?3?5?$CC?$CFs?$CC@ 00000001800f2b98     sqlite.obj
 0002:00009bb0       ??_C@_0M@EKGNDAGL@foreign?5key@ 00000001800f2bb0     sqlite.obj
 0002:00009bc0       ??_C@_07KNEBDGNE@indexed@  00000001800f2bc0     sqlite.obj
 0002:00009bc8       ??_C@_0CC@PCDMPIAA@cannot?5open?5?$CFs?5column?5for?5writi@ 00000001800f2bc8     sqlite.obj
 0002:00009bf0       ??_C@_07IOGLMIPM@sqlite_@  00000001800f2bf0     sqlite.obj
 0002:00009bf8       ??_C@_0BD@OLGFAFA@sqlite_temp_master@ 00000001800f2bf8     sqlite.obj
 0002:00009c10       ??_C@_0BD@OEPGJAIL@sqlite_temp_schema@ 00000001800f2c10     sqlite.obj
 0002:00009c28       ??_C@_0O@HGAKLCJK@sqlite_schema@ 00000001800f2c28     sqlite.obj
 0002:00009c38       ??_C@_04GHJNJNPO@main@     00000001800f2c38     sqlite.obj
 0002:00009c40       ??_C@_01NBENCBCI@?$CK@     00000001800f2c40     sqlite.obj
 0002:00009c44       ??_C@_03CLCAEGCJ@new@      00000001800f2c44     sqlite.obj
 0002:00009c48       ??_C@_03PNKCFLFB@old@      00000001800f2c48     sqlite.obj
 0002:00009c50       ??_C@_08HPCEJEEF@excluded@ 00000001800f2c50     sqlite.obj
 0002:00009c60       ??_C@_0BP@LIGNHLP@misuse?5of?5aliased?5aggregate?5?$CFs@ 00000001800f2c60     sqlite.obj
 0002:00009c80       ??_C@_0CF@EPIHDDG@misuse?5of?5aliased?5window?5functi@ 00000001800f2c80     sqlite.obj
 0002:00009ca8       ??_C@_0BC@ECPMLDEB@row?5value?5misused@ 00000001800f2ca8     sqlite.obj
 0002:00009cc0       ??_C@_0CD@LIGHPJAA@double?9quoted?5string?5literal?3?5?$CC@ 00000001800f2cc0     sqlite.obj
 0002:00009ce8       ??_C@_08FNGHHBID@coalesce@ 00000001800f2ce8     sqlite.obj
 0002:00009cf8       ??_C@_0P@OOEELNMH@no?5such?5column@ 00000001800f2cf8     sqlite.obj
 0002:00009d08       ??_C@_0BG@CPPEOILG@ambiguous?5column?5name@ 00000001800f2d08     sqlite.obj
 0002:00009d20       ??_C@_0N@GOMHGJCA@?$CFs?3?5?$CFs?4?$CFs?4?$CFs@ 00000001800f2d20     sqlite.obj
 0002:00009d30       ??_C@_09DEPFKOIN@?$CFs?3?5?$CFs?4?$CFs@ 00000001800f2d30     sqlite.obj
 0002:00009d3c       ??_C@_06DJHOIPC@?$CFs?3?5?$CFs@ 00000001800f2d3c     sqlite.obj
 0002:00009d48       ??_C@_0BM@FHGIFHJI@partial?5index?5WHERE?5clauses@ 00000001800f2d48     sqlite.obj
 0002:00009d68       ??_C@_0BC@OGGBHAGM@index?5expressions@ 00000001800f2d68     sqlite.obj
 0002:00009d80       ??_C@_0BC@FDHDOACM@CHECK?5constraints@ 00000001800f2d80     sqlite.obj
 0002:00009d98       ??_C@_0BC@BHOPMDCA@generated?5columns@ 00000001800f2d98     sqlite.obj
 0002:00009db0       ??_C@_0BE@FFEBFOFH@?$CFs?5prohibited?5in?5?$CFs@ 00000001800f2db0     sqlite.obj
 0002:00009dc8       ??_C@_0BB@MKMPFLCK@the?5?$CC?4?$CC?5operator@ 00000001800f2dc8     sqlite.obj
 0002:00009de0       ??_C@_0EA@IFFEFLJN@second?5argument?5to?5?$CF?$CDT?$CI?$CJ?5must?5b@ 00000001800f2de0     sqlite.obj
 0002:00009e20       ??_C@_0CE@EEPJHCFD@not?5authorized?5to?5use?5function?3@ 00000001800f2e20     sqlite.obj
 0002:00009e48       ??_C@_0BM@KJBKFFPA@non?9deterministic?5functions@ 00000001800f2e48     sqlite.obj
 0002:00009e68       ??_C@_0CL@NHNPAIPL@?$CF?$CDT?$CI?$CJ?5may?5not?5be?5used?5as?5a?5wind@ 00000001800f2e68     sqlite.obj
 0002:00009e94       ??_C@_06NFBEFKOC@window@   00000001800f2e94     sqlite.obj
 0002:00009ea0       ??_C@_09EIIGLG@aggregate@  00000001800f2ea0     sqlite.obj
 0002:00009eb0       ??_C@_0BM@PKJFBPEM@misuse?5of?5?$CFs?5function?5?$CF?$CDT?$CI?$CJ@ 00000001800f2eb0     sqlite.obj
 0002:00009ed0       ??_C@_0BG@OODGCBME@no?5such?5function?3?5?$CF?$CDT@ 00000001800f2ed0     sqlite.obj
 0002:00009ee8       ??_C@_0CM@MKEGIKLM@wrong?5number?5of?5arguments?5to?5fu@ 00000001800f2ee8     sqlite.obj
 0002:00009f18       ??_C@_0DA@FHIBMNNK@FILTER?5may?5not?5be?5used?5with?5non@ 00000001800f2f18     sqlite.obj
 0002:00009f48       ??_C@_0L@JIOMEFKM@subqueries@ 00000001800f2f48     sqlite.obj
 0002:00009f58       ??_C@_0L@HHPOFMCB@parameters@ 00000001800f2f58     sqlite.obj
 0002:00009f68       ??_C@_0DI@IJOLPLNO@?$CFr?5?$CFs?5BY?5term?5out?5of?5range?5?9?5sh@ 00000001800f2f68     sqlite.obj
 0002:00009fa0       ??_C@_0CC@GEJJPDIE@too?5many?5terms?5in?5ORDER?5BY?5clau@ 00000001800f2fa0     sqlite.obj
 0002:00009fc4       ??_C@_05BIEKMFNJ@ORDER@    00000001800f2fc4     sqlite.obj
 0002:00009fd0       ??_C@_0DN@KHANHMIL@?$CFr?5ORDER?5BY?5term?5does?5not?5match@ 00000001800f2fd0     sqlite.obj
 0002:0000a010       ??_C@_0BP@OLNMGBH@too?5many?5terms?5in?5?$CFs?5BY?5clause@ 00000001800f3010     sqlite.obj
 0002:0000a030       ??_C@_0CH@IMLLPJEJ@HAVING?5clause?5on?5a?5non?9aggregat@ 00000001800f3030     sqlite.obj
 0002:0000a058       ??_C@_05NAIABEH@GROUP@     00000001800f3058     sqlite.obj
 0002:0000a060       ??_C@_0DL@LDIIFJFH@aggregate?5functions?5are?5not?5all@ 00000001800f3060     sqlite.obj
 0002:0000a0a0       ??_C@_0DA@HPOBBFJP@Expression?5tree?5is?5too?5large?5?$CIm@ 00000001800f30a0     sqlite.obj
 0002:0000a0d0       ??_C@_01LKDEMHDF@s@        00000001800f30d0     sqlite.obj
 0002:0000a0d8       ??_C@_0CM@PJKOOBP@IN?$CI?4?4?4?$CJ?5element?5has?5?$CFd?5term?$CFs?5?9@ 00000001800f30d8     sqlite.obj
 0002:0000a108       ??_C@_0CC@BHLMPGNH@too?5many?5arguments?5on?5function?5@ 00000001800f3108     sqlite.obj
 0002:0000a130       ??_C@_0DC@HOFCOJLA@ORDER?5BY?5may?5not?5be?5used?5with?5n@ 00000001800f3130     sqlite.obj
 0002:0000a168       ??_C@_0BE@MNHGHLLA@unsafe?5use?5of?5?$CF?$CDT?$CI?$CJ@ 00000001800f3168     sqlite.obj
 0002:0000a180       ??_C@_0CL@MAPAMFMM@variable?5number?5must?5be?5between@ 00000001800f3180     sqlite.obj
 0002:0000a1b0       ??_C@_0BH@KLMBLGJH@too?5many?5SQL?5variables@ 00000001800f31b0     sqlite.obj
 0002:0000a1c8       ??_C@_0BO@INDAFOLJ@?$CFd?5columns?5assigned?5?$CFd?5values@ 00000001800f31c8     sqlite.obj
 0002:0000a1e8       ??_C@_0BH@HJGFDJPB@too?5many?5columns?5in?5?$CFs@ 00000001800f31e8     sqlite.obj
 0002:0000a200       ??_C@_04LOAJBDKD@true@     00000001800f3200     sqlite.obj
 0002:0000a208       ??_C@_05LAPONLG@false@     00000001800f3208     sqlite.obj
 0002:0000a210       ??_C@_07HKAAOBDA@_ROWID_@  00000001800f3210     sqlite.obj
 0002:0000a218       ??_C@_05GIFMDDGN@ROWID@    00000001800f3218     sqlite.obj
 0002:0000a220       ??_C@_03PGJCFEMG@OID@      00000001800f3220     sqlite.obj
 0002:0000a228       ??_C@_0CP@GOINPJN@USING?5ROWID?5SEARCH?5ON?5TABLE?5?$CFs?5@ 00000001800f3228     sqlite.obj
 0002:0000a258       ??_C@_0BP@PMIGPOKJ@USING?5INDEX?5?$CFs?5FOR?5IN?9OPERATOR@ 00000001800f3258     sqlite.obj
 0002:0000a278       ??_C@_0CM@BAEGMMEI@sub?9select?5returns?5?$CFd?5columns?5?9@ 00000001800f3278     sqlite.obj
 0002:0000a2a8       ??_C@_0BH@PHFKCNGN@REUSE?5LIST?5SUBQUERY?5?$CFd@ 00000001800f32a8     sqlite.obj
 0002:0000a2c0       ??_C@_0M@MCLOEEML@CORRELATED?5@ 00000001800f32c0     sqlite.obj
 0002:0000a2d0       ??_C@_0BD@GKIOKNDD@?$CFsLIST?5SUBQUERY?5?$CFd@ 00000001800f32d0     sqlite.obj
 0002:0000a2e8       ??_C@_0BC@KGIJOKPP@REUSE?5SUBQUERY?5?$CFd@ 00000001800f32e8     sqlite.obj
 0002:0000a300       ??_C@_0BF@GBDEEALJ@?$CFsSCALAR?5SUBQUERY?5?$CFd@ 00000001800f3300     sqlite.obj
 0002:0000a318       ??_C@_01HIHLOKLC@1@        00000001800f3318     sqlite.obj
 0002:0000a31c       ??_C@_02MDDDDAID@0x@       00000001800f331c     sqlite.obj
 0002:0000a320       ??_C@_0BL@CFOJMCCO@hex?5literal?5too?5big?3?5?$CFs?$CF?$CDT@ 00000001800f3320     sqlite.obj
 0002:0000a340       ??_C@_0BO@EEFMAEK@generated?5column?5loop?5on?5?$CC?$CFs?$CC@ 00000001800f3340     sqlite.obj
 0002:0000a360       ??_C@_04LPJPOBEM@blob@     00000001800f3360     sqlite.obj
 0002:0000a368       ??_C@_04CIMGMMMG@text@     00000001800f3368     sqlite.obj
 0002:0000a370       ??_C@_07MMLECJPG@numeric@  00000001800f3370     sqlite.obj
 0002:0000a378       ??_C@_07IEEKFLN@flexnum@   00000001800f3378     sqlite.obj
 0002:0000a380       ??_C@_04CGFJFPFD@none@     00000001800f3380     sqlite.obj
 0002:0000a388       ??_C@_0BL@BJLNDJBL@misuse?5of?5aggregate?3?5?$CF?$CDT?$CI?$CJ@ 00000001800f3388     sqlite.obj
 0002:0000a3a8       ??_C@_0BI@BFCJNBKA@unknown?5function?3?5?$CF?$CDT?$CI?$CJ@ 00000001800f33a8     sqlite.obj
 0002:0000a3c0       ??_C@_0DC@JGGJAPOJ@RAISE?$CI?$CJ?5may?5only?5be?5used?5within@ 00000001800f33c0     sqlite.obj
 0002:0000a3f8       ??_C@_0BM@IAHFHDLE@table?5?$CFs?5may?5not?5be?5altered@ 00000001800f33f8     sqlite.obj
 0002:0000a420       ??_C@_0KP@FOJPJAKJ@SELECT?51?5FROM?5?$CC?$CFw?$CC?4sqlite_maste@ 00000001800f3420     sqlite.obj
 0002:0000a4d0       ??_C@_0KO@LJIPLAOJ@SELECT?51?5FROM?5temp?4sqlite_maste@ 00000001800f34d0     sqlite.obj
 0002:0000a580       ??_C@_0JD@IOJOACB@UPDATE?5?$CC?$CFw?$CC?4sqlite_master?5SET?5s@ 00000001800f3580     sqlite.obj
 0002:0000a620       ??_C@_0JH@BDNFLMPI@UPDATE?5temp?4sqlite_master?5SET?5s@ 00000001800f3620     sqlite.obj
 0002:0000a6b8       ??_C@_0DL@DAEIJKNC@there?5is?5already?5another?5table?5@ 00000001800f36b8     sqlite.obj
 0002:0000a6f4       ??_C@_05LCLENNFI@table@    00000001800f36f4     sqlite.obj
 0002:0000a700       ??_C@_0BL@FIDIAKLG@view?5?$CFs?5may?5not?5be?5altered@ 00000001800f3700     sqlite.obj
 0002:0000a720       ??_C@_0LI@HODNOGLF@UPDATE?5?$CC?$CFw?$CC?4sqlite_master?5SET?5s@ 00000001800f3720     sqlite.obj
 0002:0000a7e0       ??_C@_0BDB@JBGILJH@UPDATE?5?$CFQ?4sqlite_master?5SET?5tbl@ 00000001800f37e0     sqlite.obj
 0002:0000a918       ??_C@_0BA@KDDGKFDH@sqlite_sequence@ 00000001800f3918     sqlite.obj
 0002:0000a928       ??_C@_0DK@NPMGFNPC@UPDATE?5?$CC?$CFw?$CC?4sqlite_sequence?5set@ 00000001800f3928     sqlite.obj
 0002:0000a970       ??_C@_0BAJ@CMLKMDHC@UPDATE?5sqlite_temp_schema?5SET?5s@ 00000001800f3970     sqlite.obj
 0002:0000aa80       ??_C@_0N@GEEENFDO@after?5rename@ 00000001800f3a80     sqlite.obj
 0002:0000aa90       ??_C@_0CG@PJIJKGB@SELECT?5raise?$CIABORT?0?$CFQ?$CJ?5FROM?5?$CC?$CFw@ 00000001800f3a90     sqlite.obj
 0002:0000aab8       ??_C@_0CA@KEHKHMLG@Cannot?5add?5a?5PRIMARY?5KEY?5column@ 00000001800f3ab8     sqlite.obj
 0002:0000aad8       ??_C@_0BL@NAFLCLKF@Cannot?5add?5a?5UNIQUE?5column@ 00000001800f3ad8     sqlite.obj
 0002:0000aaf8       ??_C@_0DL@KNFPANHI@Cannot?5add?5a?5REFERENCES?5column?5@ 00000001800f3af8     sqlite.obj
 0002:0000ab38       ??_C@_0DF@JACFJFPO@Cannot?5add?5a?5NOT?5NULL?5column?5wi@ 00000001800f3b38     sqlite.obj
 0002:0000ab70       ??_C@_0CO@DPKGGDEF@Cannot?5add?5a?5column?5with?5non?9co@ 00000001800f3b70     sqlite.obj
 0002:0000aba0       ??_C@_0BL@FMCCKAAP@cannot?5add?5a?5STORED?5column@ 00000001800f3ba0     sqlite.obj
 0002:0000abc0       ??_C@_0JC@PJOLIPJB@UPDATE?5?$CC?$CFw?$CC?4sqlite_master?5SET?5s@ 00000001800f3bc0     sqlite.obj
 0002:0000ac60       ??_C@_0BGB@PLHFPAAE@SELECT?5CASE?5WHEN?5quick_check?5GL@ 00000001800f3c60     sqlite.obj
 0002:0000adc8       ??_C@_0CC@HCCMFAJP@virtual?5tables?5may?5not?5be?5alter@ 00000001800f3dc8     sqlite.obj
 0002:0000adf0       ??_C@_0BO@IKHDEECD@Cannot?5add?5a?5column?5to?5a?5view@ 00000001800f3df0     sqlite.obj
 0002:0000ae10       ??_C@_0BD@PKLNNDD@sqlite_altertab_?$CFs@ 00000001800f3e10     sqlite.obj
 0002:0000ae24       ??_C@_04CHADEDPO@view@     00000001800f3e24     sqlite.obj
 0002:0000ae30       ??_C@_0O@NMANEEDA@virtual?5table@ 00000001800f3e30     sqlite.obj
 0002:0000ae40       ??_C@_0BB@BPMENMLM@drop?5column?5from@ 00000001800f3e40     sqlite.obj
 0002:0000ae58       ??_C@_0BC@BBKIIJ@rename?5columns?5of@ 00000001800f3e58     sqlite.obj
 0002:0000ae70       ??_C@_0BC@LBEHOGBM@cannot?5?$CFs?5?$CFs?5?$CC?$CFs?$CC@ 00000001800f3e70     sqlite.obj
 0002:0000ae88       ??_C@_0BF@LIOFMMGH@no?5such?5column?3?5?$CC?$CFT?$CC@ 00000001800f3e88     sqlite.obj
 0002:0000aea0       ??_C@_0LG@GJJFPGHL@UPDATE?5?$CC?$CFw?$CC?4sqlite_master?5SET?5s@ 00000001800f3ea0     sqlite.obj
 0002:0000af60       ??_C@_0ID@MFLFABCK@UPDATE?5temp?4sqlite_master?5SET?5s@ 00000001800f3f60     sqlite.obj
 0002:0000afe4       ??_C@_01CLKCMJKC@?5@       00000001800f3fe4     sqlite.obj
 0002:0000afe8       ??_C@_0BH@KOBCJMGG@error?5in?5?$CFs?5?$CFs?$CFs?$CFs?3?5?$CFs@ 00000001800f3fe8     sqlite.obj
 0002:0000b000       ??_C@_07BEDJAEFM@CREATE?5@ 00000001800f4000     sqlite.obj
 0002:0000b008       ??_C@_05FFNNHEBM@?$CC?$CFw?$CC?5@ 00000001800f4008     sqlite.obj
 0002:0000b010       ??_C@_04HJNJGOGP@?$CFQ?$CFs@ 00000001800f4010     sqlite.obj
 0002:0000b018       ??_C@_06KNPMEBF@?$CF?4?$CKs?$CFs@ 00000001800f4018     sqlite.obj
 0002:0000b020       ??_C@_0M@DPPBPFJP@PRIMARY?5KEY@ 00000001800f4020     sqlite.obj
 0002:0000b030       ??_C@_0BM@JPJBDNON@cannot?5drop?5?$CFs?5column?3?5?$CC?$CFs?$CC@ 00000001800f4030     sqlite.obj
 0002:0000b050       ??_C@_0DA@GEBPKINE@cannot?5drop?5column?5?$CC?$CFs?$CC?3?5no?5oth@ 00000001800f4050     sqlite.obj
 0002:0000b080       ??_C@_0HJ@BLIFIKFP@UPDATE?5?$CC?$CFw?$CC?4sqlite_master?5SET?5s@ 00000001800f4080     sqlite.obj
 0002:0000b100       ??_C@_0BC@NKLAOLJK@after?5drop?5column@ 00000001800f4100     sqlite.obj
 0002:0000b118       ??_C@_0BF@FDBEBLAN@sqlite_rename_column@ 00000001800f4118     sqlite.obj
 0002:0000b130       ??_C@_0BE@JHJAJICL@sqlite_rename_table@ 00000001800f4130     sqlite.obj
 0002:0000b148       ??_C@_0BD@GPAEPAJF@sqlite_rename_test@ 00000001800f4148     sqlite.obj
 0002:0000b160       ??_C@_0BD@FJMLMNCH@sqlite_drop_column@ 00000001800f4160     sqlite.obj
 0002:0000b178       ??_C@_0BH@PPBGAKOG@sqlite_rename_quotefix@ 00000001800f4178     sqlite.obj
 0002:0000b190       ??_C@_0N@EIGEIEIJ@sqlite_stat1@ 00000001800f4190     sqlite.obj
 0002:0000b1a0       ??_C@_0N@BCOBMINH@tbl?0idx?0stat@ 00000001800f41a0     sqlite.obj
 0002:0000b1b0       ??_C@_0N@DFBDHAMM@sqlite_stat4@ 00000001800f41b0     sqlite.obj
 0002:0000b1c0       ??_C@_0N@HKFCOGAL@sqlite_stat3@ 00000001800f41c0     sqlite.obj
 0002:0000b1d0       ??_C@_0BH@NPNIHFHO@CREATE?5TABLE?5?$CFQ?4?$CFs?$CI?$CFs?$CJ@ 00000001800f41d0     sqlite.obj
 0002:0000b1e8       ??_C@_0BO@HNIAJBGG@DELETE?5FROM?5?$CFQ?4?$CFs?5WHERE?5?$CFs?$DN?$CFQ@ 00000001800f41e8     sqlite.obj
 0002:0000b208       ??_C@_09BGHEAMKF@stat_init@ 00000001800f4208     sqlite.obj
 0002:0000b218       ??_C@_09LFKFCDD@stat_push@ 00000001800f4218     sqlite.obj
 0002:0000b224       ??_C@_04FCIJFPNK@?$CFllu@  00000001800f4224     sqlite.obj
 0002:0000b22c       ??_C@_05CCMFAMFC@?5?$CFllu@ 00000001800f422c     sqlite.obj
 0002:0000b238       ??_C@_08FMENKBDE@stat_get@ 00000001800f4238     sqlite.obj
 0002:0000b248       ??_C@_09LABAHMNM@sqlite?2_?$CF@ 00000001800f4248     sqlite.obj
 0002:0000b254       ??_C@_03FOPHMEHM@BBB@      00000001800f4254     sqlite.obj
 0002:0000b258       ??_C@_03DAKNAIGI@idx@      00000001800f4258     sqlite.obj
 0002:0000b25c       ??_C@_03LIPNCMMN@tbl@      00000001800f425c     sqlite.obj
 0002:0000b260       ??_C@_0L@DBBDLBKM@unordered?$CK@ 00000001800f4260     sqlite.obj
 0002:0000b270       ??_C@_09OAJLDBEA@sz?$DN?$FL0?99?$FN?$CK@ 00000001800f4270     sqlite.obj
 0002:0000b280       ??_C@_0M@JLHNGGLH@noskipscan?$CK@ 00000001800f4280     sqlite.obj
 0002:0000b290       ??_C@_0CJ@CJKDHBGL@SELECT?5tbl?0idx?0stat?5FROM?5?$CFQ?4sql@ 00000001800f4290     sqlite.obj
 0002:0000b2bc       ??_C@_02FKFMBPAF@x?$AA@    00000001800f42bc     sqlite.obj
 0002:0000b2c0       ??_C@_0CF@FLFLBLIN@too?5many?5attached?5databases?5?9?5m@ 00000001800f42c0     sqlite.obj
 0002:0000b2e8       ??_C@_0BO@FOBANNIG@database?5?$CFs?5is?5already?5in?5use@ 00000001800f42e8     sqlite.obj
 0002:0000b308       ??_C@_0BN@IAAPNCPC@database?5is?5already?5attached@ 00000001800f4308     sqlite.obj
 0002:0000b330       ??_C@_0EE@MLIDCBJA@attached?5databases?5must?5use?5the@ 00000001800f4330     sqlite.obj
 0002:0000b378       ??_C@_0BM@JECJFHOP@unable?5to?5open?5database?3?5?$CFs@ 00000001800f4378     sqlite.obj
 0002:0000b398       ??_C@_0BF@PJFCJDG@no?5such?5database?3?5?$CFs@ 00000001800f4398     sqlite.obj
 0002:0000b3b0       ??_C@_0BK@KGABJE@cannot?5detach?5database?5?$CFs@ 00000001800f43b0     sqlite.obj
 0002:0000b3d0       ??_C@_0BG@HKAEEBEM@database?5?$CFs?5is?5locked@ 00000001800f43d0     sqlite.obj
 0002:0000b3e8       ??_C@_0O@PDAEIIFA@sqlite_detach@ 00000001800f43e8     sqlite.obj
 0002:0000b3f8       ??_C@_0O@GJLGHGMJ@sqlite_attach@ 00000001800f43f8     sqlite.obj
 0002:0000b408       ??_C@_0BI@NDHFOPCH@?$CFs?5cannot?5use?5variables@ 00000001800f4408     sqlite.obj
 0002:0000b420       ??_C@_0CO@IGOBCPDP@?$CFs?5?$CFT?5cannot?5reference?5objects?5@ 00000001800f4420     sqlite.obj
 0002:0000b450       ??_C@_0BH@KNHNEHPN@authorizer?5malfunction@ 00000001800f4450     sqlite.obj
 0002:0000b468       ??_C@_05NNFHCGPF@?$CFs?4?$CFs@ 00000001800f4468     sqlite.obj
 0002:0000b470       ??_C@_05MJFJNLM@?$CFs?4?$CFz@ 00000001800f4470     sqlite.obj
 0002:0000b478       ??_C@_0BL@EPLLLCGN@access?5to?5?$CFz?5is?5prohibited@ 00000001800f4478     sqlite.obj
 0002:0000b498       ??_C@_0P@PEBGBLCC@not?5authorized@ 00000001800f4498     sqlite.obj
 0002:0000b4a8       ??_C@_07BILKMIPE@pragma_@  00000001800f44a8     sqlite.obj
 0002:0000b4b0       ??_C@_0N@IAMBEAMM@no?5such?5view@ 00000001800f44b0     sqlite.obj
 0002:0000b4c0       ??_C@_0O@HKMEEONL@no?5such?5table@ 00000001800f44c0     sqlite.obj
 0002:0000b4d0       ??_C@_0BB@GODMDNII@corrupt?5database@ 00000001800f44d0     sqlite.obj
 0002:0000b4e8       ??_C@_0BE@DADMKDCE@unknown?5database?5?$CFT@ 00000001800f44e8     sqlite.obj
 0002:0000b500       ??_C@_0CK@DHAAGEMP@object?5name?5reserved?5for?5intern@ 00000001800f4500     sqlite.obj
 0002:0000b530       ??_C@_0CJ@GGBIBJLH@temporary?5table?5name?5must?5be?5un@ 00000001800f4530     sqlite.obj
 0002:0000b560       ??_C@_0BF@CKEKDFGI@?$CFs?5?$CFT?5already?5exists@ 00000001800f4560     sqlite.obj
 0002:0000b578       ??_C@_0CD@FJHICPML@there?5is?5already?5an?5index?5named@ 00000001800f4578     sqlite.obj
 0002:0000b5a0       ??_C@_0CC@DFMPCPBO@cannot?5use?5RETURNING?5in?5a?5trigg@ 00000001800f45a0     sqlite.obj
 0002:0000b5c8       ??_C@_0BE@HHJOIABC@sqlite_returning_?$CFp@ 00000001800f45c8     sqlite.obj
 0002:0000b5e0       ??_C@_0BH@KPDMNKOM@too?5many?5columns?5on?5?$CFs@ 00000001800f45e0     sqlite.obj
 0002:0000b5f8       ??_C@_06KHDOHNKC@always@   00000001800f45f8     sqlite.obj
 0002:0000b600       ??_C@_09GMDNPPDE@generated@ 00000001800f4600     sqlite.obj
 0002:0000b610       ??_C@_0BK@CJJKBEHE@duplicate?5column?5name?3?5?$CFs@ 00000001800f4610     sqlite.obj
 0002:0000b630       ??_C@_0CN@MLPCOIJO@default?5value?5of?5column?5?$FL?$CFs?$FN?5is@ 00000001800f4630     sqlite.obj
 0002:0000b660       ??_C@_0CJ@EKHFMFFL@cannot?5use?5DEFAULT?5on?5a?5generat@ 00000001800f4660     sqlite.obj
 0002:0000b690       ??_C@_0DE@OMCGLNFP@generated?5columns?5cannot?5be?5par@ 00000001800f4690     sqlite.obj
 0002:0000b6c8       ??_C@_0CJ@LEOOFHMA@table?5?$CC?$CFs?$CC?5has?5more?5than?5one?5pr@ 00000001800f46c8     sqlite.obj
 0002:0000b6f8       ??_C@_0DI@IAIBDBA@AUTOINCREMENT?5is?5only?5allowed?5o@ 00000001800f46f8     sqlite.obj
 0002:0000b730       ??_C@_0CL@EINHHAAL@virtual?5tables?5cannot?5use?5compu@ 00000001800f4730     sqlite.obj
 0002:0000b760       ??_C@_07HIMIIOGA@virtual@  00000001800f4760     sqlite.obj
 0002:0000b768       ??_C@_06LKHJIKAD@stored@   00000001800f4768     sqlite.obj
 0002:0000b770       ??_C@_0BP@KJLLKAJE@error?5in?5generated?5column?5?$CC?$CFs?$CC@ 00000001800f4770     sqlite.obj
 0002:0000b790       ??_C@_01IHBHIGKO@?0@       00000001800f4790     sqlite.obj
 0002:0000b794       ??_C@_03BMMPKCMF@?6?5?5@   00000001800f4794     sqlite.obj
 0002:0000b798       ??_C@_04PPJIEIMB@?0?6?5?5@ 00000001800f4798     sqlite.obj
 0002:0000b7a0       ??_C@_02EJGPDMNA@?6?$CJ@   00000001800f47a0     sqlite.obj
 0002:0000b7a8       ??_C@_0O@BLHKEBID@CREATE?5TABLE?5@ 00000001800f47a8     sqlite.obj
 0002:0000b7b8       ??_C@_05JELAHNDG@?5TEXT@   00000001800f47b8     sqlite.obj
 0002:0000b7c0       ??_C@_04KMHHNFPL@?5NUM@    00000001800f47c0     sqlite.obj
 0002:0000b7c8       ??_C@_04LKNDAIML@?5INT@    00000001800f47c8     sqlite.obj
 0002:0000b7d0       ??_C@_05IKBMIIDA@?5REAL@   00000001800f47d0     sqlite.obj
 0002:0000b7d8       ??_C@_0CB@HCAMDPML@unknown?5datatype?5for?5?$CFs?4?$CFs?3?5?$CC?$CFs@ 00000001800f47d8     sqlite.obj
 0002:0000b800       ??_C@_0BL@PAGABJHM@missing?5datatype?5for?5?$CFs?4?$CFs@ 00000001800f4800     sqlite.obj
 0002:0000b820       ??_C@_0DC@FOEHBEGD@AUTOINCREMENT?5not?5allowed?5on?5WI@ 00000001800f4820     sqlite.obj
 0002:0000b858       ??_C@_0CA@OMALJPLC@PRIMARY?5KEY?5missing?5on?5table?5?$CFs@ 00000001800f4858     sqlite.obj
 0002:0000b878       ??_C@_0CM@PLEDODKN@must?5have?5at?5least?5one?5non?9gene@ 00000001800f4878     sqlite.obj
 0002:0000b8a4       ??_C@_05HJCCDKBG@TABLE@    00000001800f48a4     sqlite.obj
 0002:0000b8ac       ??_C@_04OLDJKBIG@VIEW@     00000001800f48ac     sqlite.obj
 0002:0000b8b8       ??_C@_0P@BPBAOJCC@CREATE?5?$CFs?5?$CF?4?$CKs@ 00000001800f48b8     sqlite.obj
 0002:0000b8d0       ??_C@_0GC@DHOKJPG@UPDATE?5?$CFQ?4sqlite_master?5SET?5typ@ 00000001800f48d0     sqlite.obj
 0002:0000b938       ??_C@_0CK@BLJIJAMD@CREATE?5TABLE?5?$CFQ?4sqlite_sequence@ 00000001800f4938     sqlite.obj
 0002:0000b968       ??_C@_0CC@CBOBIFGC@tbl_name?$DN?8?$CFq?8?5AND?5type?$CB?$DN?8trigge@ 00000001800f4968     sqlite.obj
 0002:0000b990       ??_C@_0BF@HPOCBKKC@SELECT?$CKFROM?$CC?$CFw?$CC?4?$CC?$CFw?$CC@ 00000001800f4990     sqlite.obj
 0002:0000b9a8       ??_C@_0CA@INGEHDGK@PRAGMA?5?$CC?$CFw?$CC?4integrity_check?$CI?$CFQ?$CJ@ 00000001800f49a8     sqlite.obj
 0002:0000b9c8       ??_C@_0CE@HIMMFEMD@parameters?5are?5not?5allowed?5in?5v@ 00000001800f49c8     sqlite.obj
 0002:0000b9f0       ??_C@_0BO@BLAOKNKN@view?5?$CFs?5is?5circularly?5defined@ 00000001800f49f0     sqlite.obj
 0002:0000ba10       ??_C@_0P@FEEJDLDF@corrupt?5schema@ 00000001800f4a10     sqlite.obj
 0002:0000ba20       ??_C@_0ED@JAPOOFKE@UPDATE?5?$CFQ?4sqlite_master?5SET?5roo@ 00000001800f4a20     sqlite.obj
 0002:0000ba68       ??_C@_0O@IOJCPKAP@sqlite_stat?$CFd@ 00000001800f4a68     sqlite.obj
 0002:0000ba78       ??_C@_0CN@DKDOKGOO@DELETE?5FROM?5?$CFQ?4sqlite_sequence?5@ 00000001800f4a78     sqlite.obj
 0002:0000bab0       ??_C@_0ED@FEOFBLGL@DELETE?5FROM?5?$CFQ?4sqlite_master?5WH@ 00000001800f4ab0     sqlite.obj
 0002:0000baf4       ??_C@_04GBLELIND@stat@     00000001800f4af4     sqlite.obj
 0002:0000bb00       ??_C@_0BM@JEGMLIGC@table?5?$CFs?5may?5not?5be?5dropped@ 00000001800f4b00     sqlite.obj
 0002:0000bb20       ??_C@_0CC@HNNEDPB@use?5DROP?5TABLE?5to?5delete?5table?5@ 00000001800f4b20     sqlite.obj
 0002:0000bb48       ??_C@_0CA@FJIHAAAA@use?5DROP?5VIEW?5to?5delete?5view?5?$CFs@ 00000001800f4b48     sqlite.obj
 0002:0000bb68       ??_C@_0DP@HFDIOLMB@foreign?5key?5on?5?$CFs?5should?5refere@ 00000001800f4b68     sqlite.obj
 0002:0000bbb0       ??_C@_0FO@BDBBNOLJ@number?5of?5columns?5in?5foreign?5ke@ 00000001800f4bb0     sqlite.obj
 0002:0000bc10       ??_C@_0CO@ECJPGOGF@unknown?5column?5?$CC?$CFs?$CC?5in?5foreign?5@ 00000001800f4c10     sqlite.obj
 0002:0000bc40       ??_C@_05BDPGECIF@FIRST@    00000001800f4c40     sqlite.obj
 0002:0000bc48       ??_C@_04DHFLIKEL@LAST@     00000001800f4c48     sqlite.obj
 0002:0000bc50       ??_C@_0BM@BCAKKHDP@unsupported?5use?5of?5NULLS?5?$CFs@ 00000001800f4c50     sqlite.obj
 0002:0000bc6c       ??_C@_05FKHKFDID@index@    00000001800f4c6c     sqlite.obj
 0002:0000bc78       ??_C@_0DC@MMFBMLFB@cannot?5create?5a?5TEMP?5index?5on?5n@ 00000001800f4c78     sqlite.obj
 0002:0000bcb0       ??_C@_0BM@KIGEJLNH@table?5?$CFs?5may?5not?5be?5indexed@ 00000001800f4cb0     sqlite.obj
 0002:0000bcd0       ??_C@_0BJ@CFGNJLOC@views?5may?5not?5be?5indexed@ 00000001800f4cd0     sqlite.obj
 0002:0000bcf0       ??_C@_0CC@FKDNLIPM@virtual?5tables?5may?5not?5be?5index@ 00000001800f4cf0     sqlite.obj
 0002:0000bd18       ??_C@_0CC@CKJEJGLG@there?5is?5already?5a?5table?5named?5@ 00000001800f4d18     sqlite.obj
 0002:0000bd40       ??_C@_0BI@HPCDPJFN@index?5?$CFs?5already?5exists@ 00000001800f4d40     sqlite.obj
 0002:0000bd58       ??_C@_0BH@HCCALECK@sqlite_autoindex_?$CFs_?$CFd@ 00000001800f4d58     sqlite.obj
 0002:0000bd70       ??_C@_0DN@KANOKGBN@expressions?5prohibited?5in?5PRIMA@ 00000001800f4d70     sqlite.obj
 0002:0000bdb0       ??_C@_0CK@BPKJMBLB@conflicting?5ON?5CONFLICT?5clauses@ 00000001800f4db0     sqlite.obj
 0002:0000bde0       ??_C@_0BB@JDJPANJL@invalid?5rootpage@ 00000001800f4de0     sqlite.obj
 0002:0000bdf8       ??_C@_07OGDPOKCI@?5UNIQUE@ 00000001800f4df8     sqlite.obj
 0002:0000be00       ??_C@_0BE@NHCJMGDI@CREATE?$CFs?5INDEX?5?$CF?4?$CKs@ 00000001800f4e00     sqlite.obj
 0002:0000be18       ??_C@_0DL@IPGFOFGG@INSERT?5INTO?5?$CFQ?4sqlite_master?5VA@ 00000001800f4e18     sqlite.obj
 0002:0000be58       ??_C@_0BL@CHCJOOMG@name?$DN?8?$CFq?8?5AND?5type?$DN?8index?8@ 00000001800f4e58     sqlite.obj
 0002:0000be78       ??_C@_0BC@JBPCAJCH@no?5such?5index?3?5?$CFS@ 00000001800f4e78     sqlite.obj
 0002:0000be90       ??_C@_0EJ@MFMNFJHB@index?5associated?5with?5UNIQUE?5or@ 00000001800f4e90     sqlite.obj
 0002:0000bee0       ??_C@_0DM@GEAMMDAG@DELETE?5FROM?5?$CFQ?4sqlite_master?5WH@ 00000001800f4ee0     sqlite.obj
 0002:0000bf20       ??_C@_0CE@MBHNOAOC@too?5many?5FROM?5clause?5terms?0?5max@ 00000001800f4f20     sqlite.obj
 0002:0000bf44       ??_C@_02BFICIOJL@ON@       00000001800f4f44     sqlite.obj
 0002:0000bf48       ??_C@_05EOONBMLM@USING@    00000001800f4f48     sqlite.obj
 0002:0000bf50       ??_C@_0CE@GFPKLECD@a?5JOIN?5clause?5is?5required?5befor@ 00000001800f4f50     sqlite.obj
 0002:0000bf74       ??_C@_05ILMMJGEC@BEGIN@    00000001800f4f74     sqlite.obj
 0002:0000bf80       ??_C@_08COBEBGNM@ROLLBACK@ 00000001800f4f80     sqlite.obj
 0002:0000bf8c       ??_C@_06IBPPMFNL@COMMIT@   00000001800f4f8c     sqlite.obj
 0002:0000bf98       ??_C@_07LDDIIHCM@RELEASE@  00000001800f4f98     sqlite.obj
 0002:0000bfa0       ??_C@_0EG@GIEOJFED@unable?5to?5open?5a?5temporary?5data@ 00000001800f4fa0     sqlite.obj
 0002:0000bfe8       ??_C@_0L@FKJLCLHK@index?5?8?$CFq?8@ 00000001800f4fe8     sqlite.obj
 0002:0000bff4       ??_C@_02KEGNLNML@?0?5@     00000001800f4ff4     sqlite.obj
 0002:0000bff8       ??_C@_08IBDKHCHA@?$CFs?4rowid@ 00000001800f4ff8     sqlite.obj
 0002:0000c008       ??_C@_0CO@PMBDNHDC@unable?5to?5identify?5the?5object?5t@ 00000001800f5008     sqlite.obj
 0002:0000c038       ??_C@_0BO@HBGGJFCF@duplicate?5WITH?5table?5name?3?5?$CFs@ 00000001800f5038     sqlite.obj
 0002:0000c058       ??_C@_0BP@CGLMEPGG@no?5such?5collation?5sequence?3?5?$CFs@ 00000001800f5058     sqlite.obj
 0002:0000c078       ??_C@_0CB@KOGJGFB@unsafe?5use?5of?5virtual?5table?5?$CC?$CFs@ 00000001800f5078     sqlite.obj
 0002:0000c0a0       ??_C@_0BN@GLMOOAMK@table?5?$CFs?5may?5not?5be?5modified@ 00000001800f50a0     sqlite.obj
 0002:0000c0c0       ??_C@_0CG@CNPJIJGN@cannot?5modify?5?$CFs?5because?5it?5is?5@ 00000001800f50c0     sqlite.obj
 0002:0000c0e8       ??_C@_0N@DAGIBCDP@rows?5deleted@ 00000001800f50e8     sqlite.obj
 0002:0000c0f8       ??_C@_0BB@KBEKGHFK@integer?5overflow@ 00000001800f50f8     sqlite.obj
 0002:0000c10c       ??_C@_05KDGNBLHH@?$CF?$CB?4?$CKf@ 00000001800f510c     sqlite.obj
 0002:0000c118       ??_C@_0CB@LFIMBCA@LIKE?5or?5GLOB?5pattern?5too?5comple@ 00000001800f5118     sqlite.obj
 0002:0000c140       ??_C@_0CN@PAMOLCDH@ESCAPE?5expression?5must?5be?5a?5sin@ 00000001800f5140     sqlite.obj
 0002:0000c170       ??_C@_07HIIBKNJL@?$CF?$CB0?415g@ 00000001800f5170     sqlite.obj
 0002:0000c178       ??_C@_07FOMJKCBM@?$CF?$CB0?420e@ 00000001800f5178     sqlite.obj
 0002:0000c180       ??_C@_02JNJIMOPD@?$CFQ@    00000001800f5180     sqlite.obj
 0002:0000c184       ??_C@_05JGHLFIHG@MATCH@    00000001800f5184     sqlite.obj
 0002:0000c18c       ??_C@_04HPDJJBAE@like@     00000001800f518c     sqlite.obj
 0002:0000c198       ??_C@_0BE@KPAHECBM@implies_nonnull_row@ 00000001800f5198     sqlite.obj
 0002:0000c1b0       ??_C@_0N@MCCDHKGO@expr_compare@ 00000001800f51b0     sqlite.obj
 0002:0000c1c0       ??_C@_0BC@ONACFOCE@expr_implies_expr@ 00000001800f51c0     sqlite.obj
 0002:0000c1d8       ??_C@_08EONOIDFB@affinity@ 00000001800f51d8     sqlite.obj
 0002:0000c1e8       ??_C@_0P@BJKPICNH@load_extension@ 00000001800f51e8     sqlite.obj
 0002:0000c1f8       ??_C@_0BK@NPIMPNGH@sqlite_compileoption_used@ 00000001800f51f8     sqlite.obj
 0002:0000c218       ??_C@_0BJ@BHKPGCCL@sqlite_compileoption_get@ 00000001800f5218     sqlite.obj
 0002:0000c238       ??_C@_08FIGEBGNH@unlikely@ 00000001800f5238     sqlite.obj
 0002:0000c248       ??_C@_0L@EOIJFFJE@likelihood@ 00000001800f5248     sqlite.obj
 0002:0000c254       ??_C@_06FMFEOJBE@likely@   00000001800f5254     sqlite.obj
 0002:0000c25c       ??_C@_05GLDKFKCA@ltrim@    00000001800f525c     sqlite.obj
 0002:0000c264       ??_C@_05FCOGDJML@rtrim@    00000001800f5264     sqlite.obj
 0002:0000c26c       ??_C@_04GDOMMDLP@trim@     00000001800f526c     sqlite.obj
 0002:0000c274       ??_C@_03KLIPLJLL@min@      00000001800f5274     sqlite.obj
 0002:0000c278       ??_C@_03LJAEFNNE@max@      00000001800f5278     sqlite.obj
 0002:0000c27c       ??_C@_06NDJPCPHC@typeof@   00000001800f527c     sqlite.obj
 0002:0000c288       ??_C@_07BFHALJJD@subtype@  00000001800f5288     sqlite.obj
 0002:0000c290       ??_C@_06IJDLPEM@length@    00000001800f5290     sqlite.obj
 0002:0000c298       ??_C@_0N@LELIAKNF@octet_length@ 00000001800f5298     sqlite.obj
 0002:0000c2a8       ??_C@_05HALPBNGI@instr@    00000001800f52a8     sqlite.obj
 0002:0000c2b0       ??_C@_06OHJFMFMB@printf@   00000001800f52b0     sqlite.obj
 0002:0000c2b8       ??_C@_06DLEPGFEF@format@   00000001800f52b8     sqlite.obj
 0002:0000c2c0       ??_C@_07GAJMMAJO@unicode@  00000001800f52c0     sqlite.obj
 0002:0000c2c8       ??_C@_04ENMBGAPA@char@     00000001800f52c8     sqlite.obj
 0002:0000c2d0       ??_C@_03BCGAIFPO@abs@      00000001800f52d0     sqlite.obj
 0002:0000c2d4       ??_C@_05MIMAKCN@round@     00000001800f52d4     sqlite.obj
 0002:0000c2dc       ??_C@_05NECKJAMC@upper@    00000001800f52dc     sqlite.obj
 0002:0000c2e4       ??_C@_05IPJEPLHL@lower@    00000001800f52e4     sqlite.obj
 0002:0000c2ec       ??_C@_03IJNDAFDK@hex@      00000001800f52ec     sqlite.obj
 0002:0000c2f0       ??_C@_05GELICONL@unhex@    00000001800f52f0     sqlite.obj
 0002:0000c2f8       ??_C@_06CMLIEHFC@concat@   00000001800f52f8     sqlite.obj
 0002:0000c300       ??_C@_09NDHIFDJK@concat_ws@ 00000001800f5300     sqlite.obj
 0002:0000c30c       ??_C@_06FAHGEKJN@ifnull@   00000001800f530c     sqlite.obj
 0002:0000c314       ??_C@_06NLFCANPD@random@   00000001800f5314     sqlite.obj
 0002:0000c320       ??_C@_0L@IDMFPHDO@randomblob@ 00000001800f5320     sqlite.obj
 0002:0000c32c       ??_C@_06LLGGGFDC@nullif@   00000001800f532c     sqlite.obj
 0002:0000c338       ??_C@_0P@IPDPEBN@sqlite_version@ 00000001800f5338     sqlite.obj
 0002:0000c348       ??_C@_0BB@HPCCOLJC@sqlite_source_id@ 00000001800f5348     sqlite.obj
 0002:0000c360       ??_C@_0L@HNFKFGGK@sqlite_log@ 00000001800f5360     sqlite.obj
 0002:0000c36c       ??_C@_05JHEGFHLM@quote@    00000001800f536c     sqlite.obj
 0002:0000c378       ??_C@_0BC@EKKKCJJE@last_insert_rowid@ 00000001800f5378     sqlite.obj
 0002:0000c390       ??_C@_07HFLFHMNL@changes@  00000001800f5390     sqlite.obj
 0002:0000c398       ??_C@_0O@MLEKHAGK@total_changes@ 00000001800f5398     sqlite.obj
 0002:0000c3a8       ??_C@_07CLEHDIEJ@replace@  00000001800f53a8     sqlite.obj
 0002:0000c3b0       ??_C@_08OAGHJJOG@zeroblob@ 00000001800f53b0     sqlite.obj
 0002:0000c3bc       ??_C@_06DAHFIGOC@substr@   00000001800f53bc     sqlite.obj
 0002:0000c3c8       ??_C@_09MJALBNED@substring@ 00000001800f53c8     sqlite.obj
 0002:0000c3d4       ??_C@_03CFFIJAMA@sum@      00000001800f53d4     sqlite.obj
 0002:0000c3d8       ??_C@_05KBOMEDGA@total@    00000001800f53d8     sqlite.obj
 0002:0000c3e0       ??_C@_03CHOBFJAH@avg@      00000001800f53e0     sqlite.obj
 0002:0000c3e4       ??_C@_05IOMEMJEC@count@    00000001800f53e4     sqlite.obj
 0002:0000c3f0       ??_C@_0N@KKLIBDFO@group_concat@ 00000001800f53f0     sqlite.obj
 0002:0000c400       ??_C@_0L@INGOOPCD@string_agg@ 00000001800f5400     sqlite.obj
 0002:0000c40c       ??_C@_04HHHPGODM@glob@     00000001800f540c     sqlite.obj
 0002:0000c414       ??_C@_04HHGHLBPI@sign@     00000001800f5414     sqlite.obj
 0002:0000c41c       ??_C@_03OMDEKEOE@iif@      00000001800f541c     sqlite.obj
 0002:0000c420       ??_C@_0CN@NOKHDNFH@foreign?5key?5mismatch?5?9?5?$CC?$CFw?$CC?5ref@ 00000001800f5420     sqlite.obj
 0002:0000c450       ??_C@_0CJ@EALNCKAM@cannot?5INSERT?5into?5generated?5co@ 00000001800f5450     sqlite.obj
 0002:0000c480       ??_C@_0CA@HKGLKLIP@table?5?$CFS?5has?5no?5column?5named?5?$CFs@ 00000001800f5480     sqlite.obj
 0002:0000c4a0       ??_C@_0DE@HLHNLKJ@table?5?$CFS?5has?5?$CFd?5columns?5but?5?$CFd?5@ 00000001800f54a0     sqlite.obj
 0002:0000c4d8       ??_C@_0BJ@IABIHKKK@?$CFd?5values?5for?5?$CFd?5columns@ 00000001800f54d8     sqlite.obj
 0002:0000c4f8       ??_C@_0CO@JHGLNKML@UPSERT?5not?5implemented?5for?5virt@ 00000001800f54f8     sqlite.obj
 0002:0000c528       ??_C@_0BF@MCAPGKLP@cannot?5UPSERT?5a?5view@ 00000001800f5528     sqlite.obj
 0002:0000c540       ??_C@_0O@OMFDFDMH@rows?5inserted@ 00000001800f5540     sqlite.obj
 0002:0000c550       ??_C@_03OCHKFGFI@dll@      00000001800f5550     sqlite.obj
 0002:0000c558       ??_C@_0BH@NNAEMFED@sqlite3_extension_init@ 00000001800f5558     sqlite.obj
 0002:0000c570       ??_C@_03LPIGJBNC@lib@      00000001800f5570     sqlite.obj
 0002:0000c574       ??_C@_05PAGLDNCP@_init@    00000001800f5574     sqlite.obj
 0002:0000c580       ??_C@_0CL@IHPFGADB@no?5entry?5point?5?$FL?$CFs?$FN?5in?5shared?5l@ 00000001800f5580     sqlite.obj
 0002:0000c5b0       ??_C@_0CA@BPLHPOIJ@error?5during?5initialization?3?5?$CFs@ 00000001800f55b0     sqlite.obj
 0002:0000c5d0       ??_C@_0CF@BIOEGNCL@unable?5to?5open?5shared?5library?5?$FL@ 00000001800f55d0     sqlite.obj
 0002:0000c5f8       ??_C@_0CH@EKKEGGML@automatic?5extension?5loading?5fai@ 00000001800f55f8     sqlite.obj
 0002:0000c620       ??_C@_03NPAJGOON@seq@      00000001800f5620     sqlite.obj
 0002:0000c624       ??_C@_04HNEBHLOP@from@     00000001800f5624     sqlite.obj
 0002:0000c62c       ??_C@_02LBCDJBAJ@to@       00000001800f562c     sqlite.obj
 0002:0000c630       ??_C@_09DFBGJPOA@on_update@ 00000001800f5630     sqlite.obj
 0002:0000c640       ??_C@_09BILGEHCE@on_delete@ 00000001800f5640     sqlite.obj
 0002:0000c64c       ??_C@_05FNONLPDI@match@    00000001800f564c     sqlite.obj
 0002:0000c654       ??_C@_03LBLPCGAC@cid@      00000001800f5654     sqlite.obj
 0002:0000c658       ??_C@_04MEMAJGDJ@name@     00000001800f5658     sqlite.obj
 0002:0000c660       ??_C@_04GPMDFGEJ@type@     00000001800f5660     sqlite.obj
 0002:0000c668       ??_C@_07EAJHGOKJ@notnull@  00000001800f5668     sqlite.obj
 0002:0000c670       ??_C@_0L@KNDFGGNJ@dflt_value@ 00000001800f5670     sqlite.obj
 0002:0000c67c       ??_C@_02NCEGPMNB@pk@       00000001800f567c     sqlite.obj
 0002:0000c680       ??_C@_06JIKFICKK@hidden@   00000001800f5680     sqlite.obj
 0002:0000c688       ??_C@_06KICAKOOL@schema@   00000001800f5688     sqlite.obj
 0002:0000c690       ??_C@_04LMIPDBJF@ncol@     00000001800f5690     sqlite.obj
 0002:0000c698       ??_C@_02EMAJEDEM@wr@       00000001800f5698     sqlite.obj
 0002:0000c69c       ??_C@_06OLFOGHEN@strict@   00000001800f569c     sqlite.obj
 0002:0000c6a4       ??_C@_05OBPGIPLF@seqno@    00000001800f56a4     sqlite.obj
 0002:0000c6ac       ??_C@_04EBPADADD@desc@     00000001800f56ac     sqlite.obj
 0002:0000c6b4       ??_C@_04MIPPEMF@coll@      00000001800f56b4     sqlite.obj
 0002:0000c6bc       ??_C@_03ICHNJLJF@key@      00000001800f56bc     sqlite.obj
 0002:0000c6c0       ??_C@_07JNFPDNEP@builtin@  00000001800f56c0     sqlite.obj
 0002:0000c6c8       ??_C@_03NONKPJJM@enc@      00000001800f56c8     sqlite.obj
 0002:0000c6cc       ??_C@_04OBIMBAPG@narg@     00000001800f56cc     sqlite.obj
 0002:0000c6d4       ??_C@_05GECEPKB@flags@     00000001800f56d4     sqlite.obj
 0002:0000c6dc       ??_C@_04DILHHFEK@wdth@     00000001800f56dc     sqlite.obj
 0002:0000c6e4       ??_C@_04DLPJNNLO@hght@     00000001800f56e4     sqlite.obj
 0002:0000c6ec       ??_C@_04BHNFDFCE@flgs@     00000001800f56ec     sqlite.obj
 0002:0000c6f4       ??_C@_06ODCMFGLL@unique@   00000001800f56f4     sqlite.obj
 0002:0000c6fc       ??_C@_06NHCMNMEH@origin@   00000001800f56fc     sqlite.obj
 0002:0000c708       ??_C@_07JHIHCBKH@partial@  00000001800f5708     sqlite.obj
 0002:0000c710       ??_C@_05KDMKNECD@rowid@    00000001800f5710     sqlite.obj
 0002:0000c718       ??_C@_04IFBPKEAB@fkid@     00000001800f5718     sqlite.obj
 0002:0000c720       ??_C@_04DAMGJPCA@file@     00000001800f5720     sqlite.obj
 0002:0000c728       ??_C@_04COIEGINH@busy@     00000001800f5728     sqlite.obj
 0002:0000c730       ??_C@_03MGHMBJCF@log@      00000001800f5730     sqlite.obj
 0002:0000c738       ??_C@_0N@NLAOCFOK@checkpointed@ 00000001800f5738     sqlite.obj
 0002:0000c748       ??_C@_08PBOCEOLL@database@ 00000001800f5748     sqlite.obj
 0002:0000c754       ??_C@_06DJIHEMFI@status@   00000001800f5754     sqlite.obj
 0002:0000c760       ??_C@_0L@JIGNFOJJ@cache_size@ 00000001800f5760     sqlite.obj
 0002:0000c770       ??_C@_07DDHNKDGP@timeout@  00000001800f5770     sqlite.obj
 0002:0000c778       ??_C@_0P@NLAMEJEJ@analysis_limit@ 00000001800f5778     sqlite.obj
 0002:0000c788       ??_C@_0P@MIBGKNHF@application_id@ 00000001800f5788     sqlite.obj
 0002:0000c798       ??_C@_0M@ENMLGDH@auto_vacuum@ 00000001800f5798     sqlite.obj
 0002:0000c7a8       ??_C@_0BA@NMINPKHE@automatic_index@ 00000001800f57a8     sqlite.obj
 0002:0000c7b8       ??_C@_0N@ELBKLHHC@busy_timeout@ 00000001800f57b8     sqlite.obj
 0002:0000c7c8       ??_C@_0M@GAIOFEBI@cache_spill@ 00000001800f57c8     sqlite.obj
 0002:0000c7d8       ??_C@_0BE@LKBHCIHN@case_sensitive_like@ 00000001800f57d8     sqlite.obj
 0002:0000c7f0       ??_C@_0BA@ILJBCKLF@cell_size_check@ 00000001800f57f0     sqlite.obj
 0002:0000c800       ??_C@_0BF@IOJNJBPA@checkpoint_fullfsync@ 00000001800f5800     sqlite.obj
 0002:0000c818       ??_C@_0P@KOJNIGCH@collation_list@ 00000001800f5818     sqlite.obj
 0002:0000c828       ??_C@_0BA@CFJEIIDP@compile_options@ 00000001800f5828     sqlite.obj
 0002:0000c838       ??_C@_0O@PEBBJPHD@count_changes@ 00000001800f5838     sqlite.obj
 0002:0000c848       ??_C@_0BF@OGPCDMDP@data_store_directory@ 00000001800f5848     sqlite.obj
 0002:0000c860       ??_C@_0N@OFPBFGHH@data_version@ 00000001800f5860     sqlite.obj
 0002:0000c870       ??_C@_0O@EBMNDACF@database_list@ 00000001800f5870     sqlite.obj
 0002:0000c880       ??_C@_0BD@EMJOENCP@default_cache_size@ 00000001800f5880     sqlite.obj
 0002:0000c898       ??_C@_0BD@DIGJFFIE@defer_foreign_keys@ 00000001800f5898     sqlite.obj
 0002:0000c8b0       ??_C@_0BH@CMLDBHJP@empty_result_callbacks@ 00000001800f58b0     sqlite.obj
 0002:0000c8c8       ??_C@_08MLPGAEIK@encoding@ 00000001800f58c8     sqlite.obj
 0002:0000c8d8       ??_C@_0BC@CIFGNOOA@foreign_key_check@ 00000001800f58d8     sqlite.obj
 0002:0000c8f0       ??_C@_0BB@KJMCGNAI@foreign_key_list@ 00000001800f58f0     sqlite.obj
 0002:0000c908       ??_C@_0N@CEEMEAMB@foreign_keys@ 00000001800f5908     sqlite.obj
 0002:0000c918       ??_C@_0P@GDKICNML@freelist_count@ 00000001800f5918     sqlite.obj
 0002:0000c928       ??_C@_0BC@CBBNFKC@full_column_names@ 00000001800f5928     sqlite.obj
 0002:0000c940       ??_C@_09MLJLLBEB@fullfsync@ 00000001800f5940     sqlite.obj
 0002:0000c950       ??_C@_0O@NCCFKHLB@function_list@ 00000001800f5950     sqlite.obj
 0002:0000c960       ??_C@_0BA@OIHGKGMK@hard_heap_limit@ 00000001800f5960     sqlite.obj
 0002:0000c970       ??_C@_0BJ@KLIMENGM@ignore_check_constraints@ 00000001800f5970     sqlite.obj
 0002:0000c990       ??_C@_0BD@IEMDKFHA@incremental_vacuum@ 00000001800f5990     sqlite.obj
 0002:0000c9a8       ??_C@_0L@CKPANNIC@index_info@ 00000001800f59a8     sqlite.obj
 0002:0000c9b8       ??_C@_0L@MMBMMAEK@index_list@ 00000001800f59b8     sqlite.obj
 0002:0000c9c8       ??_C@_0M@FBDGHLPH@index_xinfo@ 00000001800f59c8     sqlite.obj
 0002:0000c9d8       ??_C@_0BA@EDNFHOBJ@integrity_check@ 00000001800f59d8     sqlite.obj
 0002:0000c9e8       ??_C@_0N@IPLFJDHP@journal_mode@ 00000001800f59e8     sqlite.obj
 0002:0000c9f8       ??_C@_0BD@MCBLCGGI@journal_size_limit@ 00000001800f59f8     sqlite.obj
 0002:0000ca10       ??_C@_0BD@JHFDOKNC@legacy_alter_table@ 00000001800f5a10     sqlite.obj
 0002:0000ca28       ??_C@_0N@NOOMDJH@locking_mode@ 00000001800f5a28     sqlite.obj
 0002:0000ca38       ??_C@_0P@FMLMLOHD@max_page_count@ 00000001800f5a38     sqlite.obj
 0002:0000ca48       ??_C@_09CBABOEGE@mmap_size@ 00000001800f5a48     sqlite.obj
 0002:0000ca58       ??_C@_0M@DHNJDALC@module_list@ 00000001800f5a58     sqlite.obj
 0002:0000ca68       ??_C@_08GHMAOHAP@optimize@ 00000001800f5a68     sqlite.obj
 0002:0000ca78       ??_C@_0L@OBBCDPFM@page_count@ 00000001800f5a78     sqlite.obj
 0002:0000ca88       ??_C@_09OGOMKHMG@page_size@ 00000001800f5a88     sqlite.obj
 0002:0000ca98       ??_C@_0M@JMPGNAFC@pragma_list@ 00000001800f5a98     sqlite.obj
 0002:0000caa8       ??_C@_0L@LILGGAHH@query_only@ 00000001800f5aa8     sqlite.obj
 0002:0000cab8       ??_C@_0M@EDPCDMIO@quick_check@ 00000001800f5ab8     sqlite.obj
 0002:0000cac8       ??_C@_0BB@KLHJNGLH@read_uncommitted@ 00000001800f5ac8     sqlite.obj
 0002:0000cae0       ??_C@_0BD@IAMNLMFM@recursive_triggers@ 00000001800f5ae0     sqlite.obj
 0002:0000caf8       ??_C@_0BK@ECMFJINF@reverse_unordered_selects@ 00000001800f5af8     sqlite.obj
 0002:0000cb18       ??_C@_0P@JGMMHBPP@schema_version@ 00000001800f5b18     sqlite.obj
 0002:0000cb28       ??_C@_0O@CPOJHNIK@secure_delete@ 00000001800f5b28     sqlite.obj
 0002:0000cb38       ??_C@_0BD@BFIEDLEP@short_column_names@ 00000001800f5b38     sqlite.obj
 0002:0000cb50       ??_C@_0O@ILHLPNHH@shrink_memory@ 00000001800f5b50     sqlite.obj
 0002:0000cb60       ??_C@_0BA@HCOALODB@soft_heap_limit@ 00000001800f5b60     sqlite.obj
 0002:0000cb70       ??_C@_0M@GKGFOGDE@synchronous@ 00000001800f5b70     sqlite.obj
 0002:0000cb80       ??_C@_0L@NEMFJAGM@table_info@ 00000001800f5b80     sqlite.obj
 0002:0000cb90       ??_C@_0L@DCCJINKE@table_list@ 00000001800f5b90     sqlite.obj
 0002:0000cba0       ??_C@_0M@BGHKIBMF@table_xinfo@ 00000001800f5ba0     sqlite.obj
 0002:0000cbb0       ??_C@_0L@JEPCDDIC@temp_store@ 00000001800f5bb0     sqlite.obj
 0002:0000cbc0       ??_C@_0BF@OPALIJKE@temp_store_directory@ 00000001800f5bc0     sqlite.obj
 0002:0000cbd8       ??_C@_07NFPADACG@threads@  00000001800f5bd8     sqlite.obj
 0002:0000cbe0       ??_C@_0P@GFANPJEB@trusted_schema@ 00000001800f5be0     sqlite.obj
 0002:0000cbf0       ??_C@_0N@MPKCHLKL@user_version@ 00000001800f5bf0     sqlite.obj
 0002:0000cc00       ??_C@_0BD@JPABJEAI@wal_autocheckpoint@ 00000001800f5c00     sqlite.obj
 0002:0000cc18       ??_C@_0P@OLFGCBDE@wal_checkpoint@ 00000001800f5c18     sqlite.obj
 0002:0000cc28       ??_C@_0BA@OHBCLCAL@writable_schema@ 00000001800f5c28     sqlite.obj
 0002:0000cc38       ??_C@_06IKLLLDHL@normal@   00000001800f5c38     sqlite.obj
 0002:0000cc40       ??_C@_04PLMLMMEO@full@     00000001800f5c40     sqlite.obj
 0002:0000cc48       ??_C@_0M@LPKHOAFP@incremental@ 00000001800f5c48     sqlite.obj
 0002:0000cc54       ??_C@_06HLKELJGF@memory@   00000001800f5c54     sqlite.obj
 0002:0000cc60       ??_C@_0DO@MAKCDDCJ@temporary?5storage?5cannot?5be?5cha@ 00000001800f5c60     sqlite.obj
 0002:0000cca0       ??_C@_08NNDOPPOM@SET?5NULL@ 00000001800f5ca0     sqlite.obj
 0002:0000ccb0       ??_C@_0M@GCMLNHF@SET?5DEFAULT@ 00000001800f5cb0     sqlite.obj
 0002:0000ccc0       ??_C@_07JDMPGCJB@CASCADE@  00000001800f5cc0     sqlite.obj
 0002:0000ccc8       ??_C@_08KJMJNHDG@RESTRICT@ 00000001800f5cc8     sqlite.obj
 0002:0000ccd8       ??_C@_09DBFINONP@NO?5ACTION@ 00000001800f5cd8     sqlite.obj
 0002:0000cce4       ??_C@_06FOBLBEIN@delete@   00000001800f5ce4     sqlite.obj
 0002:0000ccf0       ??_C@_07EMFBDGOD@persist@  00000001800f5cf0     sqlite.obj
 0002:0000ccf8       ??_C@_03MCADLMAF@off@      00000001800f5cf8     sqlite.obj
 0002:0000cd00       ??_C@_08MABILMFG@truncate@ 00000001800f5d00     sqlite.obj
 0002:0000cd0c       ??_C@_03KIAODNHK@wal@      00000001800f5d0c     sqlite.obj
 0002:0000cd10       ??_C@_04LHHHFLPP@utf8@     00000001800f5d10     sqlite.obj
 0002:0000cd18       ??_C@_07KIKBDMPA@utf16le@  00000001800f5d18     sqlite.obj
 0002:0000cd20       ??_C@_07KCDPBBPK@utf16be@  00000001800f5d20     sqlite.obj
 0002:0000cd28       ??_C@_01NOFIACDB@w@        00000001800f5d28     sqlite.obj
 0002:0000cd2c       ??_C@_01MCMALHOG@a@        00000001800f5d2c     sqlite.obj
 0002:0000cd30       ??_C@_06KECJABIJ@sissii@   00000001800f5d30     sqlite.obj
 0002:0000cd38       ??_C@_03GMLCELFL@?9?$CFT@  00000001800f5d38     sqlite.obj
 0002:0000cd3c       ??_C@_04LBNBHAJC@fast@     00000001800f5d3c     sqlite.obj
 0002:0000cd48       ??_C@_0BJ@INLPNACB@not?5a?5writable?5directory@ 00000001800f5d48     sqlite.obj
 0002:0000cd68       ??_C@_0DF@GMDBDCKL@Safety?5level?5may?5not?5be?5changed@ 00000001800f5d68     sqlite.obj
 0002:0000cda0       ??_C@_05CFMALAOA@reset@    00000001800f5da0     sqlite.obj
 0002:0000cda8       ??_C@_07BLNOBENA@issisii@  00000001800f5da8     sqlite.obj
 0002:0000cdb0       ??_C@_06OLNPHCKJ@issisi@   00000001800f5db0     sqlite.obj
 0002:0000cdb8       ??_C@_0BA@HGENJIJI@SELECT?$CKFROM?$CC?$CFw?$CC@ 00000001800f5db8     sqlite.obj
 0002:0000cdc8       ??_C@_06GIFHDKIF@shadow@   00000001800f5dc8     sqlite.obj
 0002:0000cdd0       ??_C@_06DJMAJHIP@sssiii@   00000001800f5dd0     sqlite.obj
 0002:0000cdd8       ??_C@_04MPAEKEAC@iisX@     00000001800f5dd8     sqlite.obj
 0002:0000cde0       ??_C@_04OBBBDFFP@isiX@     00000001800f5de0     sqlite.obj
 0002:0000cde8       ??_C@_01PAPGNFGE@c@        00000001800f5de8     sqlite.obj
 0002:0000cdec       ??_C@_01OMGOGALD@u@        00000001800f5dec     sqlite.obj
 0002:0000cdf0       ??_C@_05HLBCCELP@isisi@    00000001800f5df0     sqlite.obj
 0002:0000cdf8       ??_C@_03MKDAGEFG@iss@      00000001800f5df8     sqlite.obj
 0002:0000cdfc       ??_C@_02EDKKPMHH@is@       00000001800f5dfc     sqlite.obj
 0002:0000ce00       ??_C@_04OKGDLNCL@NONE@     00000001800f5e00     sqlite.obj
 0002:0000ce08       ??_C@_08ODPJLLLG@iissssss@ 00000001800f5e08     sqlite.obj
 0002:0000ce14       ??_C@_03JCFFAIGC@siX@      00000001800f5e14     sqlite.obj
 0002:0000ce18       ??_C@_0BI@FOLPKNAK@?$CK?$CK?$CK?5in?5database?5?$CFs?5?$CK?$CK?$CK?6@ 00000001800f5e18     sqlite.obj
 0002:0000ce30       ??_C@_0CE@CKKOCENH@row?5not?5in?5PRIMARY?5KEY?5order?5fo@ 00000001800f5e30     sqlite.obj
 0002:0000ce58       ??_C@_0BE@NPIDKCIA@NULL?5value?5in?5?$CFs?4?$CFs@ 00000001800f5e58     sqlite.obj
 0002:0000ce70       ??_C@_0BG@FFALAGDJ@non?9?$CFs?5value?5in?5?$CFs?4?$CFs@ 00000001800f5e70     sqlite.obj
 0002:0000ce88       ??_C@_0BH@GEHLCKMA@NUMERIC?5value?5in?5?$CFs?4?$CFs@ 00000001800f5e88     sqlite.obj
 0002:0000cea0       ??_C@_01GFHCPBMG@C@        00000001800f5ea0     sqlite.obj
 0002:0000cea8       ??_C@_0BE@KPFIMPGM@TEXT?5value?5in?5?$CFs?4?$CFs@ 00000001800f5ea8     sqlite.obj
 0002:0000cec0       ??_C@_0BO@NENBDEJP@CHECK?5constraint?5failed?5in?5?$CFs@ 00000001800f5ec0     sqlite.obj
 0002:0000cee0       ??_C@_04BNLAAGGP@row?5@    00000001800f5ee0     sqlite.obj
 0002:0000cee8       ??_C@_0BF@JGBLFHJL@?5missing?5from?5index?5@ 00000001800f5ee8     sqlite.obj
 0002:0000cf00       ??_C@_0CE@KIMGHIIE@rowid?5not?5at?5end?9of?9record?5for?5@ 00000001800f5f00     sqlite.obj
 0002:0000cf28       ??_C@_0L@GHPLKIKL@?5of?5index?5@ 00000001800f5f28     sqlite.obj
 0002:0000cf38       ??_C@_0BL@OLODCOOJ@?5values?5differ?5from?5index?5@ 00000001800f5f38     sqlite.obj
 0002:0000cf58       ??_C@_0BL@POCBBOHD@non?9unique?5entry?5in?5index?5@ 00000001800f5f58     sqlite.obj
 0002:0000cf78       ??_C@_0BN@JKHLHJNK@wrong?5?$CD?5of?5entries?5in?5index?5@ 00000001800f5f78     sqlite.obj
 0002:0000cf98       ??_C@_02MFDMBIJM@ok@       00000001800f5f98     sqlite.obj
 0002:0000cf9c       ??_C@_04OOMJJNCF@UTF8@     00000001800f5f9c     sqlite.obj
 0002:0000cfa4       ??_C@_05EGJIMALK@UTF?98@   00000001800f5fa4     sqlite.obj
 0002:0000cfb0       ??_C@_08HMPANPBC@UTF?916le@ 00000001800f5fb0     sqlite.obj
 0002:0000cfc0       ??_C@_08HGGOPCBI@UTF?916be@ 00000001800f5fc0     sqlite.obj
 0002:0000cfd0       ??_C@_07JJMGGCAM@UTF16le@  00000001800f5fd0     sqlite.obj
 0002:0000cfd8       ??_C@_07JDFIEPAG@UTF16be@  00000001800f5fd8     sqlite.obj
 0002:0000cfe0       ??_C@_06KNDPGIKI@UTF?916@  00000001800f5fe0     sqlite.obj
 0002:0000cfe8       ??_C@_05MNCHLHCA@UTF16@    00000001800f5fe8     sqlite.obj
 0002:0000cff0       ??_C@_0BJ@GJBMJNNI@unsupported?5encoding?3?5?$CFs@ 00000001800f5ff0     sqlite.obj
 0002:0000d010       ??_C@_07LDHOHMPD@restart@  00000001800f6010     sqlite.obj
 0002:0000d018       ??_C@_0BC@NAKLCPPI@ANALYZE?5?$CC?$CFw?$CC?4?$CC?$CFw?$CC@ 00000001800f6018     sqlite.obj
 0002:0000d030       ??_C@_0P@JDEMFLCF@CREATE?5TABLE?5x@ 00000001800f6030     sqlite.obj
 0002:0000d040       ??_C@_06KMJOPIAP@?$CFc?$CC?$CFs?$CC@ 00000001800f6040     sqlite.obj
 0002:0000d048       ??_C@_05HICKGKEG@?$CI?$CC?$CFs?$CC@ 00000001800f6048     sqlite.obj
 0002:0000d050       ??_C@_0M@MFJOEBHG@?0arg?5HIDDEN@ 00000001800f6050     sqlite.obj
 0002:0000d060       ??_C@_0P@KHJMGPGI@?0schema?5HIDDEN@ 00000001800f6060     sqlite.obj
 0002:0000d070       ??_C@_07NIMEDFOL@PRAGMA?5@ 00000001800f6070     sqlite.obj
 0002:0000d078       ??_C@_03CPCODCEE@?$CFQ?4@  00000001800f6078     sqlite.obj
 0002:0000d07c       ??_C@_03EBNMOIIB@?$DN?$CFQ@ 00000001800f607c     sqlite.obj
 0002:0000d080       ??_C@_06LMEAOBLB@rename@   00000001800f6080     sqlite.obj
 0002:0000d088       ??_C@_0M@NIKHEEOE@drop?5column@ 00000001800f6088     sqlite.obj
 0002:0000d098       ??_C@_0L@NNHJCOFA@add?5column@ 00000001800f6098     sqlite.obj
 0002:0000d0a8       ??_C@_0BM@BACDIPGD@error?5in?5?$CFs?5?$CFs?5after?5?$CFs?3?5?$CFs@ 00000001800f60a8     sqlite.obj
 0002:0000d0c8       ??_C@_0BP@EHGGIFII@malformed?5database?5schema?5?$CI?$CFs?$CJ@ 00000001800f60c8     sqlite.obj
 0002:0000d0e8       ??_C@_07MHAICMEC@?$CFz?5?9?5?$CFs@ 00000001800f60e8     sqlite.obj
 0002:0000d0f0       ??_C@_0N@HIOIKMCH@orphan?5index@ 00000001800f60f0     sqlite.obj
 0002:0000d100       ??_C@_0EI@PHDEEPEH@CREATE?5TABLE?5x?$CItype?5text?0name?5t@ 00000001800f6100     sqlite.obj
 0002:0000d148       ??_C@_0BI@FFDCNLCF@unsupported?5file?5format@ 00000001800f6148     sqlite.obj
 0002:0000d160       ??_C@_0CC@IOLIHPAL@SELECT?$CKFROM?$CC?$CFw?$CC?4?$CFs?5ORDER?5BY?5row@ 00000001800f6160     sqlite.obj
 0002:0000d188       ??_C@_0BO@EBFEALBC@database?5schema?5is?5locked?3?5?$CFs@ 00000001800f6188     sqlite.obj
 0002:0000d1a8       ??_C@_0BD@NDJILONF@statement?5too?5long@ 00000001800f61a8     sqlite.obj
 0002:0000d1c0       ??_C@_0BO@HFNHKLCI@unknown?5join?5type?3?5?$CFT?$CFs?$CFT?$CFs?$CFT@ 00000001800f61c0     sqlite.obj
 0002:0000d1e0       ??_C@_0DC@NBGJANJH@a?5NATURAL?5join?5may?5not?5have?5an?5@ 00000001800f61e0     sqlite.obj
 0002:0000d220       ??_C@_0EA@LFCKDDII@cannot?5join?5using?5column?5?$CFs?5?9?5c@ 00000001800f6220     sqlite.obj
 0002:0000d260       ??_C@_0CF@HCOJKNAM@ambiguous?5reference?5to?5?$CFs?5in?5US@ 00000001800f6260     sqlite.obj
 0002:0000d288       ??_C@_09CDPONBKL@UNION?5ALL@ 00000001800f6288     sqlite.obj
 0002:0000d298       ??_C@_09JBOBNLLF@INTERSECT@ 00000001800f6298     sqlite.obj
 0002:0000d2a4       ??_C@_06JFIPMMLD@EXCEPT@   00000001800f62a4     sqlite.obj
 0002:0000d2ac       ??_C@_05GJNJOPB@UNION@     00000001800f62ac     sqlite.obj
 0002:0000d2b8       ??_C@_0BH@JCGMDKCI@USE?5TEMP?5B?9TREE?5FOR?5?$CFs@ 00000001800f62b8     sqlite.obj
 0002:0000d2d0       ??_C@_0P@MHGCNJEE@RIGHT?5PART?5OF?5@ 00000001800f62d0     sqlite.obj
 0002:0000d2e0       ??_C@_0BP@PBAPEGFA@USE?5TEMP?5B?9TREE?5FOR?5?$CFsORDER?5BY@ 00000001800f62e0     sqlite.obj
 0002:0000d300       ??_C@_08OHGGEHKA@column?$CFd@ 00000001800f6300     sqlite.obj
 0002:0000d310       ??_C@_07FCMEMBCG@?$CF?4?$CKz?3?$CFu@ 00000001800f6310     sqlite.obj
 0002:0000d318       ??_C@_03IKNANCPO@NUM@      00000001800f6318     sqlite.obj
 0002:0000d320       ??_C@_0DB@IDOGBFGM@cannot?5use?5window?5functions?5in?5@ 00000001800f6320     sqlite.obj
 0002:0000d358       ??_C@_0CK@HHBJKMKL@recursive?5aggregate?5queries?5not@ 00000001800f6358     sqlite.obj
 0002:0000d384       ??_C@_05MAJHNKMG@SETUP@    00000001800f6384     sqlite.obj
 0002:0000d390       ??_C@_0P@BKJGJGJE@RECURSIVE?5STEP@ 00000001800f6390     sqlite.obj
 0002:0000d3a0       ??_C@_01CPLAODJH@S@        00000001800f63a0     sqlite.obj
 0002:0000d3a8       ??_C@_0BH@EFPFBELE@SCAN?5?$CFd?5CONSTANT?5ROW?$CFs@ 00000001800f63a8     sqlite.obj
 0002:0000d3c0       ??_C@_0P@NDEAKHNM@COMPOUND?5QUERY@ 00000001800f63c0     sqlite.obj
 0002:0000d3d0       ??_C@_0BD@PONGOMAP@LEFT?9MOST?5SUBQUERY@ 00000001800f63d0     sqlite.obj
 0002:0000d3e8       ??_C@_0BF@IPENMMAK@?$CFs?5USING?5TEMP?5B?9TREE@ 00000001800f63e8     sqlite.obj
 0002:0000d400       ??_C@_0CO@DAHFDIDO@all?5VALUES?5must?5have?5the?5same?5n@ 00000001800f6400     sqlite.obj
 0002:0000d430       ??_C@_0FC@CMDCIIHA@SELECTs?5to?5the?5left?5and?5right?5o@ 00000001800f6430     sqlite.obj
 0002:0000d488       ??_C@_0L@OLPIFJNI@MERGE?5?$CI?$CFs?$CJ@ 00000001800f6488     sqlite.obj
 0002:0000d494       ??_C@_04KCNEHMIH@LEFT@     00000001800f6494     sqlite.obj
 0002:0000d49c       ??_C@_05PMAFOJDE@RIGHT@    00000001800f649c     sqlite.obj
 0002:0000d4a8       ??_C@_0BC@EHGCNIF@no?5such?5index?3?5?$CFs@ 00000001800f64a8     sqlite.obj
 0002:0000d4c0       ??_C@_0BH@COPFJELM@?8?$CFs?8?5is?5not?5a?5function@ 00000001800f64c0     sqlite.obj
 0002:0000d4d8       ??_C@_0BE@KOGICIEK@no?5such?5index?3?5?$CC?$CFs?$CC@ 00000001800f64d8     sqlite.obj
 0002:0000d4f0       ??_C@_0CL@CKHNGNG@multiple?5references?5to?5recursiv@ 00000001800f64f0     sqlite.obj
 0002:0000d520       ??_C@_0BH@IJPFMMLM@circular?5reference?3?5?$CFs@ 00000001800f6520     sqlite.obj
 0002:0000d538       ??_C@_0CG@GEPIMHHM@table?5?$CFs?5has?5?$CFd?5values?5for?5?$CFd?5c@ 00000001800f6538     sqlite.obj
 0002:0000d560       ??_C@_0CC@BILCKNBO@multiple?5recursive?5references?3?5@ 00000001800f6560     sqlite.obj
 0002:0000d588       ??_C@_0CG@CINNECCN@recursive?5reference?5in?5a?5subque@ 00000001800f6588     sqlite.obj
 0002:0000d5b0       ??_C@_03OBEOFNKP@?$CF?$CBS@ 00000001800f65b0     sqlite.obj
 0002:0000d5b8       ??_C@_0CH@HMBFCKPN@too?5many?5references?5to?5?$CC?$CFs?$CC?3?5ma@ 00000001800f65b8     sqlite.obj
 0002:0000d5e0       ??_C@_0BP@NHFOBJAE@access?5to?5view?5?$CC?$CFs?$CC?5prohibited@ 00000001800f65e0     sqlite.obj
 0002:0000d600       ??_C@_04DNFFOPLE@?4?4?$CFs@ 00000001800f6600     sqlite.obj
 0002:0000d608       ??_C@_08PPKHIAKG@?$CFs?4?$CFs?4?$CFs@ 00000001800f6608     sqlite.obj
 0002:0000d618       ??_C@_0BC@OFCALFBN@no?5such?5table?3?5?$CFs@ 00000001800f6618     sqlite.obj
 0002:0000d630       ??_C@_0BE@EGLAAHPP@no?5tables?5specified@ 00000001800f6630     sqlite.obj
 0002:0000d648       ??_C@_0BP@JFMLENOH@too?5many?5columns?5in?5result?5set@ 00000001800f6648     sqlite.obj
 0002:0000d668       ??_C@_0DD@MKKFPBAF@DISTINCT?5aggregates?5must?5have?5e@ 00000001800f6668     sqlite.obj
 0002:0000d6a0       ??_C@_0CB@KEEMMNME@USE?5TEMP?5B?9TREE?5FOR?5?$CFs?$CIDISTINCT@ 00000001800f66a0     sqlite.obj
 0002:0000d6c8       ??_C@_0CB@DKJJIKJF@USE?5TEMP?5B?9TREE?5FOR?5?$CFs?$CIORDER?5BY@ 00000001800f66c8     sqlite.obj
 0002:0000d6f0       ??_C@_0BH@EIOOLNKK@?5USING?5COVERING?5INDEX?5@ 00000001800f66f0     sqlite.obj
 0002:0000d708       ??_C@_0M@EEDHHALD@SCAN?5?$CFs?$CFs?$CFs@ 00000001800f6708     sqlite.obj
 0002:0000d718       ??_C@_0DG@EFFNIEOD@target?5object?1alias?5may?5not?5app@ 00000001800f6718     sqlite.obj
 0002:0000d750       ??_C@_0CI@GMLFBPGG@expected?5?$CFd?5columns?5for?5?8?$CFs?8?5bu@ 00000001800f6750     sqlite.obj
 0002:0000d778       ??_C@_0P@HGOBOPCJ@CO?9ROUTINE?5?$CF?$CBS@ 00000001800f6778     sqlite.obj
 0002:0000d788       ??_C@_0BA@PNDIBPHO@MATERIALIZE?5?$CF?$CBS@ 00000001800f6788     sqlite.obj
 0002:0000d798       ??_C@_08KLFLGHKI@DISTINCT@ 00000001800f6798     sqlite.obj
 0002:0000d7a8       ??_C@_08NKEADCLG@GROUP?5BY@ 00000001800f67a8     sqlite.obj
 0002:0000d7c0       ??_C@_0EB@PHGCKHIG@sqlite3_get_table?$CI?$CJ?5called?5with@ 00000001800f67c0     sqlite.obj
 0002:0000d808       ??_C@_0CO@CGGBEMGD@temporary?5trigger?5may?5not?5have?5@ 00000001800f6808     sqlite.obj
 0002:0000d838       ??_C@_07DIDNFGDE@trigger@  00000001800f6838     sqlite.obj
 0002:0000d840       ??_C@_0CJ@KLDCMPKB@cannot?5create?5triggers?5on?5virtu@ 00000001800f6840     sqlite.obj
 0002:0000d870       ??_C@_0CI@HGILEMJ@cannot?5create?5triggers?5on?5shado@ 00000001800f6870     sqlite.obj
 0002:0000d898       ??_C@_0BK@IACDKJFA@trigger?5?$CFT?5already?5exists@ 00000001800f6898     sqlite.obj
 0002:0000d8b8       ??_C@_0CG@JAGCNIHD@cannot?5create?5trigger?5on?5system@ 00000001800f68b8     sqlite.obj
 0002:0000d8e0       ??_C@_06BIGAHLBC@BEFORE@   00000001800f68e0     sqlite.obj
 0002:0000d8e8       ??_C@_05OHDJMCHE@AFTER@    00000001800f68e8     sqlite.obj
 0002:0000d8f0       ??_C@_0CF@CNPIEMED@cannot?5create?5?$CFs?5trigger?5on?5vie@ 00000001800f68f0     sqlite.obj
 0002:0000d918       ??_C@_0CO@GJNALGCE@cannot?5create?5INSTEAD?5OF?5trigge@ 00000001800f6918     sqlite.obj
 0002:0000d948       ??_C@_0DA@MJLDEAJI@trigger?5?$CC?$CFs?$CC?5may?5not?5write?5to?5s@ 00000001800f6948     sqlite.obj
 0002:0000d980       ??_C@_0EL@GAAKBFCI@INSERT?5INTO?5?$CFQ?4sqlite_master?5VA@ 00000001800f6980     sqlite.obj
 0002:0000d9d0       ??_C@_0BN@JFPIJHCG@type?$DN?8trigger?8?5AND?5name?$DN?8?$CFq?8@ 00000001800f69d0     sqlite.obj
 0002:0000d9f0       ??_C@_0BE@ELCABEID@no?5such?5trigger?3?5?$CFS@ 00000001800f69f0     sqlite.obj
 0002:0000da08       ??_C@_0DO@FAKOIPLH@DELETE?5FROM?5?$CFQ?4sqlite_master?5WH@ 00000001800f6a08     sqlite.obj
 0002:0000da48       ??_C@_06FKDAMKFP@DELETE@   00000001800f6a48     sqlite.obj
 0002:0000da50       ??_C@_06HHJABCJL@UPDATE@   00000001800f6a50     sqlite.obj
 0002:0000da58       ??_C@_0DA@FKCCPLDO@?$CFs?5RETURNING?5is?5not?5available?5o@ 00000001800f6a58     sqlite.obj
 0002:0000da88       ??_C@_0CK@DMHFPODD@RETURNING?5may?5not?5use?5?$CCTABLE?4?$CK?$CC@ 00000001800f6a88     sqlite.obj
 0002:0000dab8       ??_C@_0O@JKBKLFDA@?9?9?5TRIGGER?5?$CFs@ 00000001800f6ab8     sqlite.obj
 0002:0000dac8       ??_C@_0CE@DCMPBJBF@cannot?5UPDATE?5generated?5column?5@ 00000001800f6ac8     sqlite.obj
 0002:0000daf0       ??_C@_0BD@IEIMFPKF@no?5such?5column?3?5?$CFs@ 00000001800f6af0     sqlite.obj
 0002:0000db08       ??_C@_0N@KMEMLEEO@rows?5updated@ 00000001800f6b08     sqlite.obj
 0002:0000db18       ??_C@_03ILKGOHHD@?$CFr?5@  00000001800f6b18     sqlite.obj
 0002:0000db20       ??_C@_0EJ@CMCKGIFP@?$CFsON?5CONFLICT?5clause?5does?5not?5m@ 00000001800f6b20     sqlite.obj
 0002:0000db6c       ??_C@_03LFCMJGKO@CRE@      00000001800f6b6c     sqlite.obj
 0002:0000db70       ??_C@_03NDDFJJAJ@INS@      00000001800f6b70     sqlite.obj
 0002:0000db78       ??_C@_0CI@CPMJIPOI@cannot?5VACUUM?5from?5within?5a?5tra@ 00000001800f6b78     sqlite.obj
 0002:0000dba0       ??_C@_0CL@HKLPPLKM@cannot?5VACUUM?5?9?5SQL?5statements?5@ 00000001800f6ba0     sqlite.obj
 0002:0000dbd0       ??_C@_0BC@HEHNFMKL@non?9text?5filename@ 00000001800f6bd0     sqlite.obj
 0002:0000dbe8       ??_C@_0BH@GHPDFIBL@ATTACH?5?$CFQ?5AS?5vacuum_db@ 00000001800f6be8     sqlite.obj
 0002:0000dc00       ??_C@_0BL@FPDOIFEH@output?5file?5already?5exists@ 00000001800f6c00     sqlite.obj
 0002:0000dc20       ??_C@_0GM@BEFOBBJL@SELECT?5sql?5FROM?5?$CC?$CFw?$CC?4sqlite_sch@ 00000001800f6c20     sqlite.obj
 0002:0000dc90       ??_C@_0DG@MJCPLDEL@SELECT?5sql?5FROM?5?$CC?$CFw?$CC?4sqlite_sch@ 00000001800f6c90     sqlite.obj
 0002:0000dcd0       ??_C@_0JH@HOEAJMOF@SELECT?8INSERT?5INTO?5vacuum_db?4?8?$HM@ 00000001800f6cd0     sqlite.obj
 0002:0000dd70       ??_C@_0IC@IPHFCBHK@INSERT?5INTO?5vacuum_db?4sqlite_sc@ 00000001800f6d70     sqlite.obj
 0002:0000ddf8       ??_C@_0BI@PDMEEOA@CREATE?5VIRTUAL?5TABLE?5?$CFT@ 00000001800f6df8     sqlite.obj
 0002:0000de10       ??_C@_0GD@JECIBFB@UPDATE?5?$CFQ?4sqlite_master?5SET?5typ@ 00000001800f6e10     sqlite.obj
 0002:0000de78       ??_C@_0BD@HGHJBHPP@name?$DN?$CFQ?5AND?5sql?$DN?$CFQ@ 00000001800f6e78     sqlite.obj
 0002:0000de90       ??_C@_0CK@JFGPKPML@vtable?5constructor?5called?5recur@ 00000001800f6e90     sqlite.obj
 0002:0000dec0       ??_C@_0BO@DEKEKMPI@vtable?5constructor?5failed?3?5?$CFs@ 00000001800f6ec0     sqlite.obj
 0002:0000dee0       ??_C@_0CO@NAIIFAKI@vtable?5constructor?5did?5not?5decl@ 00000001800f6ee0     sqlite.obj
 0002:0000df10       ??_C@_0BD@KBJCCNMM@no?5such?5module?3?5?$CFs@ 00000001800f6f10     sqlite.obj
 0002:0000df24       ??_C@_06OBEENNJP@?$DMexpr?$DO@ 00000001800f6f24     sqlite.obj
 0002:0000df2c       ??_C@_05LFNOAECD@?5AND?5@  00000001800f6f2c     sqlite.obj
 0002:0000df34       ??_C@_01ODHLEDKK@?$CI@     00000001800f6f34     sqlite.obj
 0002:0000df38       ??_C@_02GFKOMOKH@?5?$CI@   00000001800f6f38     sqlite.obj
 0002:0000df3c       ??_C@_04DNBLPLBL@?$CFs?$DN?$DP@ 00000001800f6f3c     sqlite.obj
 0002:0000df48       ??_C@_07DEPDMHNF@ANY?$CI?$CFs?$CJ@ 00000001800f6f48     sqlite.obj
 0002:0000df50       ??_C@_01PPODPGHN@?$DO@     00000001800f6f50     sqlite.obj
 0002:0000df54       ??_C@_01MNNFJEPP@?$DM@     00000001800f6f54     sqlite.obj
 0002:0000df58       ??_C@_06GBNAAIDA@SEARCH@   00000001800f6f58     sqlite.obj
 0002:0000df60       ??_C@_04NAGNMPFG@SCAN@     00000001800f6f60     sqlite.obj
 0002:0000df68       ??_C@_05KIAMHFGE@?$CFs?5?$CFS@ 00000001800f6f68     sqlite.obj
 0002:0000df70       ??_C@_0CB@HEDLDBJB@AUTOMATIC?5PARTIAL?5COVERING?5INDE@ 00000001800f6f70     sqlite.obj
 0002:0000df98       ??_C@_0BJ@OBMPNMAB@AUTOMATIC?5COVERING?5INDEX@ 00000001800f6f98     sqlite.obj
 0002:0000dfb8       ??_C@_0BC@JHKMHKPK@COVERING?5INDEX?5?$CFs@ 00000001800f6fb8     sqlite.obj
 0002:0000dfd0       ??_C@_08CKMEMBGN@INDEX?5?$CFs@ 00000001800f6fd0     sqlite.obj
 0002:0000dfe0       ??_C@_07FGCFFEFI@?5USING?5@ 00000001800f6fe0     sqlite.obj
 0002:0000dfe8       ??_C@_0BP@NDGFLEIK@?5USING?5INTEGER?5PRIMARY?5KEY?5?$CI?$CFs@ 00000001800f6fe8     sqlite.obj
 0002:0000e008       ??_C@_09ICEKKCAP@?$DO?$DP?5AND?5?$CFs@ 00000001800f7008     sqlite.obj
 0002:0000e014       ??_C@_04HCBOMNDN@?$CFc?$DP?$CJ@ 00000001800f7014     sqlite.obj
 0002:0000e020       ??_C@_0BL@NFGDLEEC@?5VIRTUAL?5TABLE?5INDEX?5?$CFd?3?$CFs@ 00000001800f7020     sqlite.obj
 0002:0000e040       ??_C@_0L@EBLIKMMD@?5LEFT?9JOIN@ 00000001800f7040     sqlite.obj
 0002:0000e050       ??_C@_0BF@IDLFEEDH@BLOOM?5FILTER?5ON?5?$CFS?5?$CI@ 00000001800f7050     sqlite.obj
 0002:0000e068       ??_C@_07ELHKJOJJ@rowid?$DN?$DP@ 00000001800f7068     sqlite.obj
 0002:0000e070       ??_C@_0P@EIHAMHJJ@MULTI?9INDEX?5OR@ 00000001800f7070     sqlite.obj
 0002:0000e080       ??_C@_08CPEHEFPL@INDEX?5?$CFd@ 00000001800f7080     sqlite.obj
 0002:0000e090       ??_C@_0O@GGCEJAGB@RIGHT?9JOIN?5?$CFs@ 00000001800f7090     sqlite.obj
 0002:0000e0a0       ??_C@_06BDGKJDBI@regexp@   00000001800f70a0     sqlite.obj
 0002:0000e0a8       ??_C@_0CJ@DOAPMDLM@ON?5clause?5references?5tables?5to?5@ 00000001800f70a8     sqlite.obj
 0002:0000e0d4       ??_C@_06FHKGKAHE@NOCASE@   00000001800f70d4     sqlite.obj
 0002:0000e0e0       ??_C@_0CE@MBDKDMPE@too?5many?5arguments?5on?5?$CFs?$CI?$CJ?5?9?5ma@ 00000001800f70e0     sqlite.obj
 0002:0000e108       ??_C@_0BK@FFCJJLEP@automatic?5index?5on?5?$CFs?$CI?$CFs?$CJ@ 00000001800f7108     sqlite.obj
 0002:0000e128       ??_C@_0L@LOLDMHK@auto?9index@ 00000001800f7128     sqlite.obj
 0002:0000e138       ??_C@_0BK@BDHGLICJ@?$CFs?4xBestIndex?5malfunction@ 00000001800f7138     sqlite.obj
 0002:0000e158       ??_C@_0CD@DPEHHDLH@abbreviated?5query?5algorithm?5sea@ 00000001800f7158     sqlite.obj
 0002:0000e180       ??_C@_0BC@CBDLPDHH@no?5query?5solution@ 00000001800f7180     sqlite.obj
 0002:0000e198       ??_C@_0BM@BLDEAGOK@at?5most?5?$CFd?5tables?5in?5a?5join@ 00000001800f7198     sqlite.obj
 0002:0000e1b8       ??_C@_0BC@HBJMCGKK@SCAN?5CONSTANT?5ROW@ 00000001800f71b8     sqlite.obj
 0002:0000e1d0       ??_C@_0DI@OBGNFFPK@second?5argument?5to?5nth_value?5mu@ 00000001800f71d0     sqlite.obj
 0002:0000e208       ??_C@_0CN@ODPKPKIM@argument?5of?5ntile?5must?5be?5a?5pos@ 00000001800f7208     sqlite.obj
 0002:0000e238       ??_C@_0BD@LKBMMDOC@no?5such?5window?3?5?$CFs@ 00000001800f7238     sqlite.obj
 0002:0000e250       ??_C@_0EH@IFDBAIHH@RANGE?5with?5offset?5PRECEDING?1FOL@ 00000001800f7250     sqlite.obj
 0002:0000e298       ??_C@_0DP@EMFIMFKB@FILTER?5clause?5may?5only?5be?5used?5@ 00000001800f7298     sqlite.obj
 0002:0000e2d8       ??_C@_0BK@BMEAFNCN@misuse?5of?5aggregate?3?5?$CFs?$CI?$CJ@ 00000001800f72d8     sqlite.obj
 0002:0000e2f8       ??_C@_0CA@HKLCFJEG@unsupported?5frame?5specification@ 00000001800f72f8     sqlite.obj
 0002:0000e318       ??_C@_0BB@LPLIGBNA@PARTITION?5clause@ 00000001800f7318     sqlite.obj
 0002:0000e330       ??_C@_0BA@PFIKPNNI@ORDER?5BY?5clause@ 00000001800f7330     sqlite.obj
 0002:0000e340       ??_C@_0BE@OGAFJJNF@frame?5specification@ 00000001800f7340     sqlite.obj
 0002:0000e358       ??_C@_0CB@HGDHFNOJ@cannot?5override?5?$CFs?5of?5window?3?5?$CF@ 00000001800f7358     sqlite.obj
 0002:0000e380       ??_C@_0CP@DCIPIMGJ@DISTINCT?5is?5not?5supported?5for?5w@ 00000001800f7380     sqlite.obj
 0002:0000e3b0       ??_C@_0DF@JHFAGMHJ@frame?5starting?5offset?5must?5be?5a@ 00000001800f73b0     sqlite.obj
 0002:0000e3e8       ??_C@_0DD@FICIJBAB@frame?5ending?5offset?5must?5be?5a?5n@ 00000001800f73e8     sqlite.obj
 0002:0000e420       ??_C@_0DE@GGCILAHP@frame?5starting?5offset?5must?5be?5a@ 00000001800f7420     sqlite.obj
 0002:0000e458       ??_C@_0DC@KEEAFBEJ@frame?5ending?5offset?5must?5be?5a?5n@ 00000001800f7458     sqlite.obj
 0002:0000e490       ??_C@_08BKIJJFKP@ORDER?5BY@ 00000001800f7490     sqlite.obj
 0002:0000e49c       ??_C@_05KLKGAAIM@LIMIT@    00000001800f749c     sqlite.obj
 0002:0000e4a8       ??_C@_0CK@PJFEEKBP@?$CFs?5clause?5should?5come?5after?5?$CFs?5@ 00000001800f74a8     sqlite.obj
 0002:0000e4d8       ??_C@_0CC@DHLFNDIF@too?5many?5terms?5in?5compound?5SELE@ 00000001800f74d8     sqlite.obj
 0002:0000e500       ??_C@_0CG@KKIPIFCN@syntax?5error?5after?5column?5name?5@ 00000001800f7500     sqlite.obj
 0002:0000e528       ??_C@_0BG@FMAEELCM@parser?5stack?5overflow@ 00000001800f7528     sqlite.obj
 0002:0000e540       ??_C@_0BL@DBADNDMB@unknown?5table?5option?3?5?$CF?4?$CKs@ 00000001800f7540     sqlite.obj
 0002:0000e560       ??_C@_08FAFAADKO@set?5list@ 00000001800f7560     sqlite.obj
 0002:0000e570       ??_C@_0BI@CBJKLAIG@near?5?$CC?$CFT?$CC?3?5syntax?5error@ 00000001800f7570     sqlite.obj
 0002:0000e590       ??_C@_0FP@BDHEAEAL@qualified?5table?5names?5are?5not?5a@ 00000001800f7590     sqlite.obj
 0002:0000e5f0       ??_C@_0FE@ONDNFGPP@the?5INDEXED?5BY?5clause?5is?5not?5al@ 00000001800f75f0     sqlite.obj
 0002:0000e650       ??_C@_0FF@IPEGLKPG@the?5NOT?5INDEXED?5clause?5is?5not?5a@ 00000001800f7650     sqlite.obj
 0002:0000e6a8       ??_C@_0BB@DFEJGGBG@incomplete?5input@ 00000001800f76a8     sqlite.obj
 0002:0000e6c0       ??_C@_0BJ@EMNEDDKJ@unrecognized?5token?3?5?$CC?$CFT?$CC@ 00000001800f76c0     sqlite.obj
 0002:0000e6e0       ??_C@_0L@DCFFOLOB@?$CFs?5in?5?$CC?$CFs?$CC@ 00000001800f76e0     sqlite.obj
 0002:0000e6ec       ??_C@_06HBNONAG@create@    00000001800f76ec     sqlite.obj
 0002:0000e6f4       ??_C@_04FGEHGIFJ@temp@     00000001800f76f4     sqlite.obj
 0002:0000e700       ??_C@_09CAHPDAG@temporary@ 00000001800f7700     sqlite.obj
 0002:0000e70c       ??_C@_03JBJLGPFL@end@      00000001800f770c     sqlite.obj
 0002:0000e710       ??_C@_07LFFDKBGI@explain@  00000001800f7710     sqlite.obj
 0002:0000e720       ??_C@_0EE@DHFGJPIC@unable?5to?5close?5due?5to?5unfinali@ 00000001800f7720     sqlite.obj
 0002:0000e768       ??_C@_0N@FKKFHCIB@not?5an?5error@ 00000001800f7768     sqlite.obj
 0002:0000e778       ??_C@_0BA@OFEMPNLC@SQL?5logic?5error@ 00000001800f7778     sqlite.obj
 0002:0000e788       ??_C@_0BJ@OFHFLJKH@access?5permission?5denied@ 00000001800f7788     sqlite.obj
 0002:0000e7a8       ??_C@_0O@LBOFKECN@query?5aborted@ 00000001800f77a8     sqlite.obj
 0002:0000e7b8       ??_C@_0BD@DAAAMHOI@database?5is?5locked@ 00000001800f77b8     sqlite.obj
 0002:0000e7d0       ??_C@_0BJ@DNPONIEG@database?5table?5is?5locked@ 00000001800f77d0     sqlite.obj
 0002:0000e7f0       ??_C@_0CF@JBLJEMGC@attempt?5to?5write?5a?5readonly?5dat@ 00000001800f77f0     sqlite.obj
 0002:0000e818       ??_C@_0M@EGEKIIMP@interrupted@ 00000001800f7818     sqlite.obj
 0002:0000e828       ??_C@_0P@FOPPKBJH@disk?5I?1O?5error@ 00000001800f7828     sqlite.obj
 0002:0000e838       ??_C@_0CB@ONDDCPGK@database?5disk?5image?5is?5malforme@ 00000001800f7838     sqlite.obj
 0002:0000e860       ??_C@_0BC@BDMDPLFD@unknown?5operation@ 00000001800f7860     sqlite.obj
 0002:0000e878       ??_C@_0BJ@GDNBBAEL@database?5or?5disk?5is?5full@ 00000001800f7878     sqlite.obj
 0002:0000e898       ??_C@_0BN@JLONMGIA@unable?5to?5open?5database?5file@ 00000001800f7898     sqlite.obj
 0002:0000e8b8       ??_C@_0BB@MCPOJJBB@locking?5protocol@ 00000001800f78b8     sqlite.obj
 0002:0000e8d0       ??_C@_0BC@IFKPGMGK@constraint?5failed@ 00000001800f78d0     sqlite.obj
 0002:0000e8e8       ??_C@_0BC@FILINGOB@datatype?5mismatch@ 00000001800f78e8     sqlite.obj
 0002:0000e900       ??_C@_0CC@NEIAIHCA@bad?5parameter?5or?5other?5API?5misu@ 00000001800f7900     sqlite.obj
 0002:0000e928       ??_C@_0BF@LMCDAPDN@authorization?5denied@ 00000001800f7928     sqlite.obj
 0002:0000e940       ??_C@_0BK@EKHAENGG@column?5index?5out?5of?5range@ 00000001800f7940     sqlite.obj
 0002:0000e960       ??_C@_0BH@ODJKAGAJ@file?5is?5not?5a?5database@ 00000001800f7960     sqlite.obj
 0002:0000e978       ??_C@_0BF@JHPLPFEO@notification?5message@ 00000001800f7978     sqlite.obj
 0002:0000e990       ??_C@_0BA@EELFFHLP@warning?5message@ 00000001800f7990     sqlite.obj
 0002:0000e9a0       ??_C@_0O@BFJCFAAK@unknown?5error@ 00000001800f79a0     sqlite.obj
 0002:0000e9b0       ??_C@_0BG@MJDEINHO@abort?5due?5to?5ROLLBACK@ 00000001800f79b0     sqlite.obj
 0002:0000e9c8       ??_C@_0BG@IPBFEGEP@another?5row?5available@ 00000001800f79c8     sqlite.obj
 0002:0000e9e0       ??_C@_0BH@EJKNDPLI@no?5more?5rows?5available@ 00000001800f79e0     sqlite.obj
 0002:0000e9f8       ??_C@_0DP@BDIELDAF@unable?5to?5delete?1modify?5user?9fu@ 00000001800f79f8     sqlite.obj
 0002:0000ea38       ??_C@_0DD@BOPMNMAO@unable?5to?5use?5function?5?$CFs?5in?5th@ 00000001800f7a38     sqlite.obj
 0002:0000ea70       ??_C@_0BF@HAJMIPDB@unknown?5database?3?5?$CFs@ 00000001800f7a70     sqlite.obj
 0002:0000ea90       ??_C@_0EE@IKACNBHK@unable?5to?5delete?1modify?5collati@ 00000001800f7a90     sqlite.obj
 0002:0000ead8       ??_C@_0BM@COJKMEBB@invalid?5uri?5authority?3?5?$CF?4?$CKs@ 00000001800f7ad8     sqlite.obj
 0002:0000eaf4       ??_C@_05BDNCCAMC@cache@    00000001800f7af4     sqlite.obj
 0002:0000eafc       ??_C@_06HBFNPGIC@shared@   00000001800f7afc     sqlite.obj
 0002:0000eb08       ??_C@_07NMPLPEPB@private@  00000001800f7b08     sqlite.obj
 0002:0000eb10       ??_C@_02LFKOONLL@ro@       00000001800f7b10     sqlite.obj
 0002:0000eb14       ??_C@_02DHLFHFOC@rw@       00000001800f7b14     sqlite.obj
 0002:0000eb18       ??_C@_03ODAOEF@rwc@        00000001800f7b18     sqlite.obj
 0002:0000eb1c       ??_C@_06EBPNOMLE@access@   00000001800f7b1c     sqlite.obj
 0002:0000eb28       ??_C@_0BE@CEDEHNFE@no?5such?5?$CFs?5mode?3?5?$CFs@ 00000001800f7b28     sqlite.obj
 0002:0000eb40       ??_C@_0BI@PGEAHBFI@?$CFs?5mode?5not?5allowed?3?5?$CFs@ 00000001800f7b40     sqlite.obj
 0002:0000eb58       ??_C@_0BA@JNKNNOBA@no?5such?5vfs?3?5?$CFs@ 00000001800f7b58     sqlite.obj
 0002:0000eb68       ??_C@_05JJHANOIF@RTRIM@    00000001800f7b68     sqlite.obj
 0002:0000eb70       ??_C@_02LOCGON@?$AA?$AA@   00000001800f7b70     sqlite.obj
 0002:0000eb78       ??_C@_0BJ@ICCNDDFO@?$CFs?5at?5line?5?$CFd?5of?5?$FL?$CF?410s?$FN@ 00000001800f7b78     sqlite.obj
 0002:0000eb98       ??_C@_0BE@FNOILMBA@database?5corruption@ 00000001800f7b98     sqlite.obj
 0002:0000ebac       ??_C@_06LKHNAGM@misuse@    00000001800f7bac     sqlite.obj
 0002:0000ebb8       ??_C@_0BB@HMGEDEGN@cannot?5open?5file@ 00000001800f7bb8     sqlite.obj
 0002:0000ebd0       ??_C@_0BM@OILBPENI@no?5such?5table?5column?3?5?$CFs?4?$CFs@ 00000001800f7bd0     sqlite.obj
 0002:0000ebf0       ??_C@_07OGLCFANK@SQLITE_@  00000001800f7bf0     sqlite.obj
 0002:0000ebf8       ??_C@_05HIFJDKLD@array@    00000001800f7bf8     sqlite.obj
 0002:0000ec00       ??_C@_06IEOJBDIK@object@   00000001800f7c00     sqlite.obj
 0002:0000ec10       ??_C@_0BB@JCEFLFJE@0123456789abcdef@ 00000001800f7c10     sqlite.obj
 0002:0000ec28       ??_C@_0BN@OLHIFNEE@JSON?5cannot?5hold?5BLOB?5values@ 00000001800f7c28     sqlite.obj
 0002:0000ec48       ??_C@_0P@HGMNNFIA@malformed?5JSON@ 00000001800f7c48     sqlite.obj
 0002:0000ec58       ??_C@_03OJHLLCGB@inf@      00000001800f7c58     sqlite.obj
 0002:0000ec60       ??_C@_07GCGIDBBP@9?40e999@ 00000001800f7c60     sqlite.obj
 0002:0000ec68       ??_C@_08CGODDKPM@infinity@ 00000001800f7c68     sqlite.obj
 0002:0000ec74       ??_C@_04GAIKACAL@QNaN@     00000001800f7c74     sqlite.obj
 0002:0000ec7c       ??_C@_04BKEKFBGL@SNaN@     00000001800f7c7c     sqlite.obj
 0002:0000ec88       ??_C@_0CL@MLCLHBFD@json_?$CFs?$CI?$CJ?5needs?5an?5odd?5number?5o@ 00000001800f7c88     sqlite.obj
 0002:0000ecb8       ??_C@_08BKBMECMI@?$CC?2?1bfnrt@ 00000001800f7cb8     sqlite.obj
 0002:0000ecc4       ??_C@_06BGEDDCAL@?99e999@  00000001800f7cc4     sqlite.obj
 0002:0000eccc       ??_C@_05JEIHBEIK@9e999@    00000001800f7ccc     sqlite.obj
 0002:0000ecd4       ??_C@_05KMOPHDFI@inity@    00000001800f7cd4     sqlite.obj
 0002:0000ecdc       ??_C@_02MCKKLHBJ@?2?$CC@   00000001800f7cdc     sqlite.obj
 0002:0000ece0       ??_C@_06KGOMBHDN@?2u0009@  00000001800f7ce0     sqlite.obj
 0002:0000ece8       ??_C@_04GDPCKJOF@?2u00@    00000001800f7ce8     sqlite.obj
 0002:0000ecf0       ??_C@_06HHCOKMHE@?2u0000@  00000001800f7cf0     sqlite.obj
 0002:0000ecf8       ??_C@_0BC@IDLAGCCH@bad?5JSON?5path?3?5?$CFQ@ 00000001800f7cf8     sqlite.obj
 0002:0000ed0c       ??_C@_01EOFPKCAF@?$EA@     00000001800f7d0c     sqlite.obj
 0002:0000ed10       ??_C@_01BJJEKLCA@?$CC@     00000001800f7d10     sqlite.obj
 0002:0000ed18       ??_C@_0DD@MNHKLOMA@json_object?$CI?$CJ?5requires?5an?5even?5@ 00000001800f7d18     sqlite.obj
 0002:0000ed50       ??_C@_0CC@DJMFCANB@json_object?$CI?$CJ?5labels?5must?5be?5TE@ 00000001800f7d50     sqlite.obj
 0002:0000ed74       ??_C@_03KCHOJKKI@set@      00000001800f7d74     sqlite.obj
 0002:0000ed78       ??_C@_06OAOPNKHP@insert@   00000001800f7d78     sqlite.obj
 0002:0000ed80       ??_C@_0DJ@EGENNKHG@FLAGS?5parameter?5to?5json_valid?$CI?$CJ@ 00000001800f7d80     sqlite.obj
 0002:0000edbc       ??_C@_02GPECMEKF@?$FL?$FN@ 00000001800f7dbc     sqlite.obj
 0002:0000edc0       ??_C@_02MCILKGOH@?$HL?$HN@ 00000001800f7dc0     sqlite.obj
 0002:0000edd0       ??_C@_0FD@FFENPNAL@CREATE?5TABLE?5x?$CIkey?0value?0type?0a@ 00000001800f7dd0     sqlite.obj
 0002:0000ee24       ??_C@_06HJNJJLFL@?$FL?$CFlld?$FN@ 00000001800f7e24     sqlite.obj
 0002:0000ee30       ??_C@_07DJBJKCNE@?4?$CC?$CF?4?$CKs?$CC@ 00000001800f7e30     sqlite.obj
 0002:0000ee38       ??_C@_05LJPKLGA@?4?$CF?4?$CKs@ 00000001800f7e38     sqlite.obj
 0002:0000ee40       ??_C@_01EPMOAMKG@$@        00000001800f7e40     sqlite.obj
 0002:0000ee44       ??_C@_04CLCAKCEI@json@     00000001800f7e44     sqlite.obj
 0002:0000ee4c       ??_C@_05CPOHOACF@jsonb@    00000001800f7e4c     sqlite.obj
 0002:0000ee58       ??_C@_0L@JODPLPHJ@json_array@ 00000001800f7e58     sqlite.obj
 0002:0000ee68       ??_C@_0M@OEPFNGLH@jsonb_array@ 00000001800f7e68     sqlite.obj
 0002:0000ee78       ??_C@_0BC@KIEPDDP@json_array_length@ 00000001800f7e78     sqlite.obj
 0002:0000ee90       ??_C@_0BE@NLHICOKF@json_error_position@ 00000001800f7e90     sqlite.obj
 0002:0000eea8       ??_C@_0N@OAGPBLJN@json_extract@ 00000001800f7ea8     sqlite.obj
 0002:0000eeb8       ??_C@_0O@IBHIECGL@jsonb_extract@ 00000001800f7eb8     sqlite.obj
 0002:0000eec8       ??_C@_02HBOOOICD@?9?$DO@   00000001800f7ec8     sqlite.obj
 0002:0000eecc       ??_C@_03ODNDIEOH@?9?$DO?$DO@ 00000001800f7ecc     sqlite.obj
 0002:0000eed0       ??_C@_0M@JLLIJHFE@json_insert@ 00000001800f7ed0     sqlite.obj
 0002:0000eee0       ??_C@_0N@OHBOLCIK@jsonb_insert@ 00000001800f7ee0     sqlite.obj
 0002:0000eef0       ??_C@_0M@PPLOFOKB@json_object@ 00000001800f7ef0     sqlite.obj
 0002:0000ef00       ??_C@_0N@IDBIHLHP@jsonb_object@ 00000001800f7f00     sqlite.obj
 0002:0000ef10       ??_C@_0L@EMDCLLH@json_patch@ 00000001800f7f10     sqlite.obj
 0002:0000ef20       ??_C@_0M@HOAJECHJ@jsonb_patch@ 00000001800f7f20     sqlite.obj
 0002:0000ef30       ??_C@_0L@HBCANCHG@json_quote@ 00000001800f7f30     sqlite.obj
 0002:0000ef40       ??_C@_0M@HABLONOI@json_remove@ 00000001800f7f40     sqlite.obj
 0002:0000ef50       ??_C@_0N@MLNMIDG@jsonb_remove@ 00000001800f7f50     sqlite.obj
 0002:0000ef60       ??_C@_0N@IHIAJGEE@json_replace@ 00000001800f7f60     sqlite.obj
 0002:0000ef70       ??_C@_0O@OGJHMPLC@jsonb_replace@ 00000001800f7f70     sqlite.obj
 0002:0000ef80       ??_C@_08HLOCMGGP@json_set@ 00000001800f7f80     sqlite.obj
 0002:0000ef90       ??_C@_09ECGGDFIP@jsonb_set@ 00000001800f7f90     sqlite.obj
 0002:0000efa0       ??_C@_09GKBKJNAG@json_type@ 00000001800f7fa0     sqlite.obj
 0002:0000efb0       ??_C@_0L@OGBFHNAA@json_valid@ 00000001800f7fb0     sqlite.obj
 0002:0000efc0       ??_C@_0BB@NBIIOEJO@json_group_array@ 00000001800f7fc0     sqlite.obj
 0002:0000efd8       ??_C@_0BC@CONOGNIC@jsonb_group_array@ 00000001800f7fd8     sqlite.obj
 0002:0000eff0       ??_C@_0BC@MBJPJOCB@json_group_object@ 00000001800f7ff0     sqlite.obj
 0002:0000f008       ??_C@_0BD@NFGBJEOH@jsonb_group_object@ 00000001800f8008     sqlite.obj
 0002:0000f020       ??_C@_09JPJDPCA@json_each@ 00000001800f8020     sqlite.obj
 0002:0000f030       ??_C@_09KHPGHLJM@json_tree@ 00000001800f8030     sqlite.obj
 0002:0000f040       ??_C@_0FF@LBPDNFJ@2024?903?912?511?306?323?5d8cd6d49b46@ 00000001800f8040     sqlite.obj
 0002:00010780       sqlite3_version            00000001800f9780     sqlite.obj
 0002:00015cc8       ??_C@_0CE@LIGPHONN@Wrapper_InitializeCriticalSecti@ 00000001800fecc8     vc_crt_fix_impl.obj
 0002:00015cf0       ??_C@_0BI@OMKKJAOO@Wrapper_CompareStringEx@ 00000001800fecf0     vc_crt_fix_impl.obj
 0002:00015d08       ??_C@_0BG@OHLPLANO@Wrapper_LCMapStringEx@ 00000001800fed08     vc_crt_fix_impl.obj
 0002:00015d20       ??_C@_0CC@PDCHIDAD@Wrapper_SleepConditionVariableS@ 00000001800fed20     vc_crt_fix_impl.obj
 0002:00015d48       ??_C@_0CB@MCGLLAP@Wrapper_WakeAllConditionVariabl@ 00000001800fed48     vc_crt_fix_impl.obj
 0002:00015d70       ??_C@_0CA@DKBCMHCP@Wrapper_AcquireSRWLockExclusive@ 00000001800fed70     vc_crt_fix_impl.obj
 0002:00015d90       ??_C@_0CA@KKENLMMH@Wrapper_ReleaseSRWLockExclusive@ 00000001800fed90     vc_crt_fix_impl.obj
 0002:00015dc8       __real@2b2bff2ee48e0530    00000001800fedc8     sqlite.obj
 0002:00015dd0       __real@2bcb5733cb32b111    00000001800fedd0     sqlite.obj
 0002:00015dd8       __real@2ee665bf1d3e6a8c    00000001800fedd8     sqlite.obj
 0002:00015de0       __real@3ddb7cdfd9d7bdbb    00000001800fede0     sqlite.obj
 0002:00015de8       __real@3f50624dd2f1a9fc    00000001800fede8     sqlite.obj
 0002:00015df0       __real@3fb999999999999a    00000001800fedf0     sqlite.obj
 0002:00015df8       __real@3fe0000000000000    00000001800fedf8     sqlite.obj
 0002:00015e00       __real@3ff0000000000000    00000001800fee00     sqlite.obj
 0002:00015e08       __real@401c000000000000    00000001800fee08     sqlite.obj
 0002:00015e10       __real@4024000000000000    00000001800fee10     sqlite.obj
 0002:00015e18       __real@403e99a027525461    00000001800fee18     sqlite.obj
 0002:00015e20       __real@4048000000000000    00000001800fee20     sqlite.obj
 0002:00015e28       __real@404dffdf3b645a1d    00000001800fee28     sqlite.obj
 0002:00015e30       __real@405e866666666666    00000001800fee30     sqlite.obj
 0002:00015e38       __real@4076d40000000000    00000001800fee38     sqlite.obj
 0002:00015e40       __real@408f400000000000    00000001800fee40     sqlite.obj
 0002:00015e48       __real@4097d20000000000    00000001800fee48     sqlite.obj
 0002:00015e50       __real@40e1d58800000000    00000001800fee50     sqlite.obj
 0002:00015e58       __real@413c7dd040000000    00000001800fee58     sqlite.obj
 0002:00015e60       __real@41547f8b20000000    00000001800fee60     sqlite.obj
 0002:00015e68       __real@416312d000000000    00000001800fee68     sqlite.obj
 0002:00015e70       __real@4194997000000000    00000001800fee70     sqlite.obj
 0002:00015e78       __real@4195fd7fe1796495    00000001800fee78     sqlite.obj
 0002:00015e80       __real@41a0000000000000    00000001800fee80     sqlite.obj
 0002:00015e88       __real@41ddcd6500000000    00000001800fee88     sqlite.obj
 0002:00015e90       __real@4202a05f20000000    00000001800fee90     sqlite.obj
 0002:00015e98       __real@424d7ffa20bf8000    00000001800fee98     sqlite.obj
 0002:00015ea0       __real@42e7f907ca644000    00000001800feea0     sqlite.obj
 0002:00015ea8       __real@42fa6401072fe000    00000001800feea8     sqlite.obj
 0002:00015eb0       __real@4330000000000000    00000001800feeb0     sqlite.obj
 0002:00015eb8       __real@4376345785d8a000    00000001800feeb8     sqlite.obj
 0002:00015ec0       __real@43a9999999999999    00000001800feec0     sqlite.obj
 0002:00015ec8       __real@43dfffffffffffff    00000001800feec8     sqlite.obj
 0002:00015ed0       __real@43e0000000000000    00000001800feed0     sqlite.obj
 0002:00015ed8       __real@43e158e460913d00    00000001800feed8     sqlite.obj
 0002:00015ee0       __real@45f2a05f1fffffff    00000001800feee0     sqlite.obj
 0002:00015ee8       __real@45f431e0fae6d721    00000001800feee8     sqlite.obj
 0002:00015ef0       __real@54b249ad2594c37d    00000001800feef0     sqlite.obj
 0002:00015ef8       __real@58a249ad2594c37c    00000001800feef8     sqlite.obj
 0002:00015f00       __real@58a3d3e2388029bb    00000001800fef00     sqlite.obj
 0002:00015f08       __real@7fefffffffffffff    00000001800fef08     sqlite.obj
 0002:00015f10       __real@7ff0000000000000    00000001800fef10     sqlite.obj
 0002:00015f18       __real@8000000000000000    00000001800fef18     sqlite.obj
 0002:00015f20       __real@a7b42a68781d46c4    00000001800fef20     sqlite.obj
 0002:00015f28       __real@ba720a5465df8d2c    00000001800fef28     sqlite.obj
 0002:00015f30       __real@bc5999999999999a    00000001800fef30     sqlite.obj
 0002:00015f38       __real@bfe0000000000000    00000001800fef38     sqlite.obj
 0002:00015f40       __real@bff0000000000000    00000001800fef40     sqlite.obj
 0002:00015f48       __real@c2488c51b4a00000    00000001800fef48     sqlite.obj
 0002:00015f50       __real@c330000000000000    00000001800fef50     sqlite.obj
 0002:00015f58       __real@c3dfffffffffffff    00000001800fef58     sqlite.obj
 0002:00015f60       __real@c3e0000000000000    00000001800fef60     sqlite.obj
 0002:00015f68       __real@d134f4d87b3b31f4    00000001800fef68     sqlite.obj
 0002:00015f70       __xmm@00000003000000020000000100000000 00000001800fef70     sqlite.obj
 0002:00015f80       __xmm@7fffffffffffffff7fffffffffffffff 00000001800fef80     sqlite.obj
 0002:00015f90       __xmm@80000000000000008000000000000000 00000001800fef90     sqlite.obj
 0002:00015fa0       __xmm@80000000800000008000000080000000 00000001800fefa0     sqlite.obj
 0002:00015fb0       __xmm@ffffffffffffffffffffffffffffffff 00000001800fefb0     sqlite.obj
 0002:00016020       _load_config_used          00000001800ff020     LIBCMT:loadcfg.obj
 0002:00016180       __volatile_metadata        00000001800ff180     <linker-defined>
 0002:00016748       __rtc_iaa                  00000001800ff748     LIBCMT:initsect.obj
 0002:00016750       __rtc_izz                  00000001800ff750     LIBCMT:initsect.obj
 0002:00016758       __rtc_taa                  00000001800ff758     LIBCMT:initsect.obj
 0002:00016760       __rtc_tzz                  00000001800ff760     LIBCMT:initsect.obj
 0002:00024778       __IMPORT_DESCRIPTOR_KERNEL32 000000018010d778     kernel32:KERNEL32.dll
 0002:0002478c       __NULL_IMPORT_DESCRIPTOR   000000018010d78c     kernel32:KERNEL32.dll
 0003:00000000       __security_cookie_complement 000000018010f000     LIBCMT:gs_cookie.obj
 0003:00000008       __security_cookie          000000018010f008     LIBCMT:gs_cookie.obj
 0003:00000010       __scrt_native_dllmain_reason 000000018010f010     LIBCMT:utility.obj
 0003:00000018       __isa_available            000000018010f018     LIBCMT:cpu_disp.obj
 0003:0000001c       __isa_enabled              000000018010f01c     LIBCMT:cpu_disp.obj
 0003:00000020       __memcpy_nt_iters          000000018010f020     LIBCMT:cpu_disp.obj
 0003:00000028       __memset_nt_iters          000000018010f028     LIBCMT:cpu_disp.obj
 0003:00000040       __abort_behavior           000000018010f040     libucrt:abort.obj
 0003:00000100       __acrt_initial_multibyte_data 000000018010f100     libucrt:mbctype.obj
 0003:00000640       __acrt_initial_locale_data 000000018010f640     libucrt:nlsdata.obj
 0003:00000798       __acrt_initial_locale_pointers 000000018010f798     libucrt:nlsdata.obj
 0003:000007a8       __acrt_wide_c_locale_string 000000018010f7a8     libucrt:nlsdata.obj
 0003:000007b0       _iob                       000000018010f7b0     libucrt:_file.obj
 0003:000008b8       __globallocalestatus       000000018010f8b8     libucrt:glstatus.obj
 0003:000008c0       __acrt_lconv_c             000000018010f8c0     libucrt:localeconv.obj
 0003:00000958       __acrt_lconv_static_decimal 000000018010f958     libucrt:localeconv.obj
 0003:0000095c       __acrt_lconv_static_W_decimal 000000018010f95c     libucrt:localeconv.obj
 0003:00000960       _lookuptrailbytes          000000018010f960     libucrt:read.obj
 0003:00000a74       _fltused                   000000018010fa74     LIBCMT:fltused.obj
 0003:00004930       ?__type_info_root_node@@3U__type_info_node@@A 0000000180113930     LIBCMT:tncleanup.obj
 0003:00004940       ?_OptionsStorage@?1??__local_stdio_printf_options@@9@4_KA 0000000180113940     LIBCMT:default_local_stdio_options.obj
 0003:00004948       ?_OptionsStorage@?1??__local_stdio_scanf_options@@9@4_KA 0000000180113948     LIBCMT:default_local_stdio_options.obj
 0003:00004950       __scrt_current_native_startup_state 0000000180113950     LIBCMT:utility.obj
 0003:00004958       __scrt_native_startup_lock 0000000180113958     LIBCMT:utility.obj
 0003:00004998       __scrt_debugger_hook_flag  0000000180113998     LIBCMT:utility_desktop.obj
 0003:000049a0       __castguard_check_failure_os_handled_fptr 00000001801139a0     LIBCMT:guard_support.obj
 0003:000049a8       __favor                    00000001801139a8     LIBCMT:cpu_disp.obj
 0003:000049b0       ?__WinRTOutOfMemoryExceptionCallback@@3P6APEAXXZEA 00000001801139b0     libvcruntime:ehhelpers.obj
 0003:00004a40       ?pArgList@UnDecorator@@0PEAVReplicator@@EA 0000000180113a40     libvcruntime:undname.obj
 0003:00004a48       ?pZNameList@UnDecorator@@0PEAVReplicator@@EA 0000000180113a48     libvcruntime:undname.obj
 0003:00004a50       ?pTemplateArgList@UnDecorator@@0PEAVReplicator@@EA 0000000180113a50     libvcruntime:undname.obj
 0003:00004a58       ?gName@UnDecorator@@0PEBDEB 0000000180113a58     libvcruntime:undname.obj
 0003:00004a60       ?name@UnDecorator@@0PEBDEB 0000000180113a60     libvcruntime:undname.obj
 0003:00004a68       ?disableFlags@UnDecorator@@0KA 0000000180113a68     libvcruntime:undname.obj
 0003:00004a6c       ?fExplicitTemplateParams@UnDecorator@@0_NA 0000000180113a6c     libvcruntime:undname.obj
 0003:00004a6d       ?fGetTemplateArgumentList@UnDecorator@@0_NA 0000000180113a6d     libvcruntime:undname.obj
 0003:00004a70       ?m_pGetParameter@UnDecorator@@0P6APEADJ@ZEA 0000000180113a70     libvcruntime:undname.obj
 0003:00004a78       ?m_CHPENameOffset@UnDecorator@@0KA 0000000180113a78     libvcruntime:undname.obj
 0003:00004a7c       ?m_recursionLevel@UnDecorator@@0KA 0000000180113a7c     libvcruntime:undname.obj
 0003:00004b18       __pPurecall                0000000180113b18     libvcruntime:purevirt_data.obj
 0003:00004b30       ?c_exit_complete@?1???R<lambda_6e4b09c48022b2350581041d5f6b0c4c>@@QEBA@XZ@4_NA 0000000180113b30     libucrt:exit.obj
 0003:00004c48       _environ_table             0000000180113c48     libucrt:environment_initialization.obj
 0003:00004c50       _wenviron_table            0000000180113c50     libucrt:environment_initialization.obj
 0003:00004c58       __dcrt_initial_wide_environment 0000000180113c58     libucrt:environment_initialization.obj
 0003:00004c60       __dcrt_initial_narrow_environment 0000000180113c60     libucrt:environment_initialization.obj
 0003:00004c68       __acrt_atexit_table        0000000180113c68     libucrt:onexit.obj
 0003:00004c80       __acrt_at_quick_exit_table 0000000180113c80     libucrt:onexit.obj
 0003:00004e58       ?_timezone@@3V?$dual_state_global@J@__crt_state_management@@A 0000000180113e58     libucrt:timeset.obj
 0003:00004e5c       ?_daylight@@3V?$dual_state_global@H@__crt_state_management@@A 0000000180113e5c     libucrt:timeset.obj
 0003:00004e60       ?_dstbias@@3V?$dual_state_global@J@__crt_state_management@@A 0000000180113e60     libucrt:timeset.obj
 0003:00004f40       __acrt_heap                0000000180113f40     libucrt:heap_handle.obj
 0003:00005188       _mbctype                   0000000180114188     libucrt:mbctype.obj
 0003:00005190       _mbcasemap                 0000000180114190     libucrt:mbctype.obj
 0003:00005198       __acrt_current_multibyte_data 0000000180114198     libucrt:mbctype.obj
 0003:000051a8       _pgmptr                    00000001801141a8     libucrt:argv_data.obj
 0003:000051b0       __argc                     00000001801141b0     libucrt:argv_data.obj
 0003:000051b8       __argv                     00000001801141b8     libucrt:argv_data.obj
 0003:000051c0       __wargv                    00000001801141c0     libucrt:argv_data.obj
 0003:000051c8       _acmdln                    00000001801141c8     libucrt:argv_data.obj
 0003:000051d0       _wcmdln                    00000001801141d0     libucrt:argv_data.obj
 0003:000051e0       __pioinfo                  00000001801141e0     libucrt:ioinit.obj
 0003:000055e0       _nhandle                   00000001801145e0     libucrt:ioinit.obj
 0003:00005618       __acrt_current_locale_data 0000000180114618     libucrt:nlsdata.obj
 0003:00005620       _nstream                   0000000180114620     libucrt:_file.obj
 0003:00005628       __piob                     0000000180114628     libucrt:_file.obj
 0003:00005630       __acrt_stdout_buffer       0000000180114630     libucrt:_sftbuf.obj
 0003:00005638       __acrt_stderr_buffer       0000000180114638     libucrt:_sftbuf.obj
 0003:00005648       __acrt_locale_changed_data 0000000180114648     libucrt:wsetlocale.obj
 0003:00005650       __acrt_lconv_static_null   0000000180114650     libucrt:localeconv.obj
 0003:00005654       __acrt_lconv_static_W_null 0000000180114654     libucrt:localeconv.obj
 0003:00005668       __fma3_is_available        0000000180114668     libucrt:fma3_available.obj
 0003:0000566c       __use_fma3_lib             000000018011466c     libucrt:fma3_available.obj
 0003:00005670       sqlite3_data_directory     0000000180114670     sqlite.obj
 0003:00005678       sqlite3_temp_directory     0000000180114678     sqlite.obj
 0003:00005af8       __scrt_ucrt_dll_is_in_use  0000000180114af8     <common>
 0003:00005b00       __dyn_tls_init_callback    0000000180114b00     <common>

 entry point at        0001:000d916c

 Static symbols

 0000:ffede000       .debug$S                   0000000180000000     sqlite3.exp
 0000:ffede000       .debug$S                   0000000180000000     kernel32:KERNEL32.dll
 0000:ffede000       .debug$S                   0000000180000000     kernel32:KERNEL32.dll
 0000:ffede000       .debug$S                   0000000180000000     kernel32:KERNEL32.dll
 0000:ffede000       .debug$S                   0000000180000000     kernel32:KERNEL32.dll
 0000:ffede000       .debug$S                   0000000180000000     kernel32:KERNEL32.dll
 0000:ffede000       .debug$S                   0000000180000000     kernel32:KERNEL32.dll
 0000:ffede000       .debug$S                   0000000180000000     kernel32:KERNEL32.dll
 0000:ffede000       .debug$S                   0000000180000000     kernel32:KERNEL32.dll
 0000:ffede000       .debug$S                   0000000180000000     kernel32:KERNEL32.dll
 0000:ffede000       .debug$S                   0000000180000000     kernel32:KERNEL32.dll
 0000:ffede000       .debug$S                   0000000180000000     kernel32:KERNEL32.dll
 0000:ffede000       .debug$S                   0000000180000000     kernel32:KERNEL32.dll
 0000:ffede000       .debug$S                   0000000180000000     kernel32:KERNEL32.dll
 0000:ffede000       .debug$S                   0000000180000000     kernel32:KERNEL32.dll
 0000:ffede000       .debug$S                   0000000180000000     kernel32:KERNEL32.dll
 0000:ffede000       .debug$S                   0000000180000000     kernel32:KERNEL32.dll
 0000:ffede000       .debug$S                   0000000180000000     kernel32:KERNEL32.dll
 0000:ffede000       .debug$S                   0000000180000000     kernel32:KERNEL32.dll
 0000:ffede000       .debug$S                   0000000180000000     kernel32:KERNEL32.dll
 0000:ffede000       .debug$S                   0000000180000000     kernel32:KERNEL32.dll
 0000:ffede000       .debug$S                   0000000180000000     kernel32:KERNEL32.dll
 0000:ffede000       .debug$S                   0000000180000000     kernel32:KERNEL32.dll
 0000:ffede000       .debug$S                   0000000180000000     kernel32:KERNEL32.dll
 0000:ffede000       .debug$S                   0000000180000000     kernel32:KERNEL32.dll
 0000:ffede000       .debug$S                   0000000180000000     kernel32:KERNEL32.dll
 0000:ffede000       .debug$S                   0000000180000000     kernel32:KERNEL32.dll
 0000:ffede000       .debug$S                   0000000180000000     kernel32:KERNEL32.dll
 0000:ffede000       .debug$S                   0000000180000000     kernel32:KERNEL32.dll
 0000:ffede000       .debug$S                   0000000180000000     kernel32:KERNEL32.dll
 0000:ffede000       .debug$S                   0000000180000000     kernel32:KERNEL32.dll
 0000:ffede000       .debug$S                   0000000180000000     kernel32:KERNEL32.dll
 0000:ffede000       .debug$S                   0000000180000000     kernel32:KERNEL32.dll
 0000:ffede000       .debug$S                   0000000180000000     kernel32:KERNEL32.dll
 0000:ffede000       .debug$S                   0000000180000000     kernel32:KERNEL32.dll
 0000:ffede000       .debug$S                   0000000180000000     kernel32:KERNEL32.dll
 0000:ffede000       .debug$S                   0000000180000000     kernel32:KERNEL32.dll
 0000:ffede000       .debug$S                   0000000180000000     kernel32:KERNEL32.dll
 0000:ffede000       .debug$S                   0000000180000000     kernel32:KERNEL32.dll
 0000:ffede000       .debug$S                   0000000180000000     kernel32:KERNEL32.dll
 0000:ffede000       .debug$S                   0000000180000000     kernel32:KERNEL32.dll
 0000:ffede000       .debug$S                   0000000180000000     kernel32:KERNEL32.dll
 0000:ffede000       .debug$S                   0000000180000000     kernel32:KERNEL32.dll
 0000:ffede000       .debug$S                   0000000180000000     kernel32:KERNEL32.dll
 0000:ffede000       .debug$S                   0000000180000000     kernel32:KERNEL32.dll
 0000:ffede000       .debug$S                   0000000180000000     kernel32:KERNEL32.dll
 0000:ffede000       .debug$S                   0000000180000000     kernel32:KERNEL32.dll
 0000:ffede000       .debug$S                   0000000180000000     kernel32:KERNEL32.dll
 0000:ffede000       .debug$S                   0000000180000000     kernel32:KERNEL32.dll
 0000:ffede000       .debug$S                   0000000180000000     kernel32:KERNEL32.dll
 0000:ffede000       .debug$S                   0000000180000000     kernel32:KERNEL32.dll
 0000:ffede000       .debug$S                   0000000180000000     kernel32:KERNEL32.dll
 0000:ffede000       .debug$S                   0000000180000000     kernel32:KERNEL32.dll
 0000:ffede000       .debug$S                   0000000180000000     kernel32:KERNEL32.dll
 0000:ffede000       .debug$S                   0000000180000000     kernel32:KERNEL32.dll
 0000:ffede000       .debug$S                   0000000180000000     kernel32:KERNEL32.dll
 0000:ffede000       .debug$S                   0000000180000000     kernel32:KERNEL32.dll
 0000:ffede000       .debug$S                   0000000180000000     kernel32:KERNEL32.dll
 0000:ffede000       .debug$S                   0000000180000000     kernel32:KERNEL32.dll
 0000:ffede000       .debug$S                   0000000180000000     kernel32:KERNEL32.dll
 0000:ffede000       .debug$S                   0000000180000000     kernel32:KERNEL32.dll
 0000:ffede000       .debug$S                   0000000180000000     kernel32:KERNEL32.dll
 0000:ffede000       .debug$S                   0000000180000000     kernel32:KERNEL32.dll
 0000:ffede000       .debug$S                   0000000180000000     kernel32:KERNEL32.dll
 0000:ffede000       .debug$S                   0000000180000000     kernel32:KERNEL32.dll
 0000:ffede000       .debug$S                   0000000180000000     kernel32:KERNEL32.dll
 0000:ffede000       .debug$S                   0000000180000000     kernel32:KERNEL32.dll
 0000:ffede000       .debug$S                   0000000180000000     kernel32:KERNEL32.dll
 0000:ffede000       .debug$S                   0000000180000000     kernel32:KERNEL32.dll
 0000:ffede000       .debug$S                   0000000180000000     kernel32:KERNEL32.dll
 0000:ffede000       .debug$S                   0000000180000000     kernel32:KERNEL32.dll
 0000:ffede000       .debug$S                   0000000180000000     kernel32:KERNEL32.dll
 0000:ffede000       .debug$S                   0000000180000000     kernel32:KERNEL32.dll
 0000:ffede000       .debug$S                   0000000180000000     kernel32:KERNEL32.dll
 0000:ffede000       .debug$S                   0000000180000000     kernel32:KERNEL32.dll
 0000:ffede000       .debug$S                   0000000180000000     kernel32:KERNEL32.dll
 0000:ffede000       .debug$S                   0000000180000000     kernel32:KERNEL32.dll
 0000:ffede000       .debug$S                   0000000180000000     kernel32:KERNEL32.dll
 0000:ffede000       .debug$S                   0000000180000000     kernel32:KERNEL32.dll
 0000:ffede000       .debug$S                   0000000180000000     kernel32:KERNEL32.dll
 0000:ffede000       .debug$S                   0000000180000000     kernel32:KERNEL32.dll
 0000:ffede000       .debug$S                   0000000180000000     kernel32:KERNEL32.dll
 0000:ffede000       .debug$S                   0000000180000000     kernel32:KERNEL32.dll
 0000:ffede000       .debug$S                   0000000180000000     kernel32:KERNEL32.dll
 0000:ffede000       .debug$S                   0000000180000000     kernel32:KERNEL32.dll
 0000:ffede000       .debug$S                   0000000180000000     kernel32:KERNEL32.dll
 0000:ffede000       .debug$S                   0000000180000000     kernel32:KERNEL32.dll
 0000:ffede000       .debug$S                   0000000180000000     kernel32:KERNEL32.dll
 0000:ffede000       .debug$S                   0000000180000000     kernel32:KERNEL32.dll
 0000:ffede000       .debug$S                   0000000180000000     kernel32:KERNEL32.dll
 0000:ffede000       .debug$S                   0000000180000000     kernel32:KERNEL32.dll
 0000:ffede000       .debug$S                   0000000180000000     kernel32:KERNEL32.dll
 0000:ffede000       .debug$S                   0000000180000000     kernel32:KERNEL32.dll
 0000:ffede000       .debug$S                   0000000180000000     kernel32:KERNEL32.dll
 0000:ffede000       .debug$S                   0000000180000000     kernel32:KERNEL32.dll
 0000:ffede000       .debug$S                   0000000180000000     kernel32:KERNEL32.dll
 0000:ffede000       .debug$S                   0000000180000000     kernel32:KERNEL32.dll
 0000:ffede000       .debug$S                   0000000180000000     kernel32:KERNEL32.dll
 0000:ffede000       .debug$S                   0000000180000000     kernel32:KERNEL32.dll
 0000:ffede000       .debug$S                   0000000180000000     kernel32:KERNEL32.dll
 0000:ffede000       .debug$S                   0000000180000000     kernel32:KERNEL32.dll
 0000:ffede000       .debug$S                   0000000180000000     kernel32:KERNEL32.dll
 0000:ffede000       .debug$S                   0000000180000000     kernel32:KERNEL32.dll
 0000:ffede000       .debug$S                   0000000180000000     kernel32:KERNEL32.dll
 0000:ffede000       .debug$S                   0000000180000000     kernel32:KERNEL32.dll
 0000:ffede000       .debug$S                   0000000180000000     kernel32:KERNEL32.dll
 0000:ffede000       .debug$S                   0000000180000000     kernel32:KERNEL32.dll
 0000:ffede000       .debug$S                   0000000180000000     kernel32:KERNEL32.dll
 0000:ffede000       .debug$S                   0000000180000000     kernel32:KERNEL32.dll
 0000:ffede000       .debug$S                   0000000180000000     kernel32:KERNEL32.dll
 0000:ffede000       .debug$S                   0000000180000000     kernel32:KERNEL32.dll
 0000:ffede000       .debug$S                   0000000180000000     kernel32:KERNEL32.dll
 0000:ffede000       .debug$S                   0000000180000000     kernel32:KERNEL32.dll
 0000:ffede000       .debug$S                   0000000180000000     kernel32:KERNEL32.dll
 0000:ffede000       .debug$S                   0000000180000000     kernel32:KERNEL32.dll
 0000:ffede000       .debug$S                   0000000180000000     kernel32:KERNEL32.dll
 0000:ffede000       .debug$S                   0000000180000000     kernel32:KERNEL32.dll
 0000:ffede000       .debug$S                   0000000180000000     kernel32:KERNEL32.dll
 0000:ffede000       .debug$S                   0000000180000000     kernel32:KERNEL32.dll
 0000:ffede000       .debug$S                   0000000180000000     kernel32:KERNEL32.dll
 0000:ffede000       .debug$S                   0000000180000000     kernel32:KERNEL32.dll
 0000:ffede000       .debug$S                   0000000180000000     kernel32:KERNEL32.dll
 0000:ffede000       .debug$S                   0000000180000000     kernel32:KERNEL32.dll
 0000:ffede000       .debug$S                   0000000180000000     kernel32:KERNEL32.dll
 0000:ffede000       .debug$S                   0000000180000000     kernel32:KERNEL32.dll
 0000:ffede000       .debug$S                   0000000180000000     kernel32:KERNEL32.dll
 0000:ffede000       .debug$S                   0000000180000000     kernel32:KERNEL32.dll
 0001:000001e0       sqlite3LookasideUsed       00000001800011e0 f   sqlite.obj
 0001:000007d8       $LN152                     00000001800017d8     sqlite.obj
 0001:00000810       getDigits                  0000000180001810 f   sqlite.obj
 0001:000008e0       parseHhMmSs                00000001800018e0 f   sqlite.obj
 0001:00000ac0       computeJD                  0000000180001ac0 f   sqlite.obj
 0001:00000c50       setDateTimeToCurrent       0000000180001c50 f   sqlite.obj
 0001:00000d00       setRawDateNumber           0000000180001d00 f   sqlite.obj
 0001:00000d40       parseDateOrTime            0000000180001d40 f   sqlite.obj
 0001:00000f90       computeYMD                 0000000180001f90 f   sqlite.obj
 0001:000010f0       computeHMS                 00000001800020f0 f   sqlite.obj
 0001:000011a0       toLocaltime                00000001800021a0 f   sqlite.obj
 0001:000013a0       parseModifier              00000001800023a0 f   sqlite.obj
 0001:00002944       $LN517                     0000000180003944     sqlite.obj
 0001:00002964       $LN516                     0000000180003964     sqlite.obj
 0001:000029c0       isDate                     00000001800039c0 f   sqlite.obj
 0001:00002d80       juliandayFunc              0000000180003d80 f   sqlite.obj
 0001:00002de0       unixepochFunc              0000000180003de0 f   sqlite.obj
 0001:00002ed0       datetimeFunc               0000000180003ed0 f   sqlite.obj
 0001:00003330       timeFunc                   0000000180004330 f   sqlite.obj
 0001:000035e0       dateFunc                   00000001800045e0 f   sqlite.obj
 0001:00003800       strftimeFunc               0000000180004800 f   sqlite.obj
 0001:000041c8       $LN231                     00000001800051c8     sqlite.obj
 0001:00004210       $LN230                     0000000180005210     sqlite.obj
 0001:00004270       ctimeFunc                  0000000180005270 f   sqlite.obj
 0001:00004280       cdateFunc                  0000000180005280 f   sqlite.obj
 0001:00004290       timediffFunc               0000000180005290 f   sqlite.obj
 0001:000047b0       ctimestampFunc             00000001800057b0 f   sqlite.obj
 0001:000047c0       sqlite3OsCurrentTimeInt64  00000001800057c0 f   sqlite.obj
 0001:00004810       sqlite3OsOpenMalloc        0000000180005810 f   sqlite.obj
 0001:00004910       sqlite3OsCloseFree         0000000180005910 f   sqlite.obj
 0001:00004bf0       sqlite3MemMalloc           0000000180005bf0 f   sqlite.obj
 0001:00004c30       sqlite3MemFree             0000000180005c30 f   sqlite.obj
 0001:00004c40       sqlite3MemSize             0000000180005c40 f   sqlite.obj
 0001:00004c50       sqlite3MemRealloc          0000000180005c50 f   sqlite.obj
 0001:00004cb0       sqlite3MemRoundup          0000000180005cb0 f   sqlite.obj
 0001:00004cc0       hasHighPrecisionDouble     0000000180005cc0 f   sqlite.obj
 0001:00004cc0       memdbSync                  0000000180005cc0 f   sqlite.obj
 0001:00004cc0       memjrnlSync                0000000180005cc0 f   sqlite.obj
 0001:00004cc0       noopMutexEnd               0000000180005cc0 f   sqlite.obj
 0001:00004cc0       noopMutexInit              0000000180005cc0 f   sqlite.obj
 0001:00004cc0       noopMutexTry               0000000180005cc0 f   sqlite.obj
 0001:00004cc0       sqlite3ExprWalkNoop        0000000180005cc0 f   sqlite.obj
 0001:00004cc0       sqlite3MemInit             0000000180005cc0 f   sqlite.obj
 0001:00004cc0       sqlite3SelectWalkNoop      0000000180005cc0 f   sqlite.obj
 0001:00004cc0       winNolockCheckReservedLock 0000000180005cc0 f   sqlite.obj
 0001:00004cc0       winNolockLock              0000000180005cc0 f   sqlite.obj
 0001:00004cc0       winNolockUnlock            0000000180005cc0 f   sqlite.obj
 0001:00004cd0       noopMutexEnter             0000000180005cd0 f   sqlite.obj
 0001:00004cd0       noopMutexFree              0000000180005cd0 f   sqlite.obj
 0001:00004cd0       noopMutexLeave             0000000180005cd0 f   sqlite.obj
 0001:00004cd0       noopStepFunc               0000000180005cd0 f   sqlite.obj
 0001:00004cd0       noopValueFunc              0000000180005cd0 f   sqlite.obj
 0001:00004cd0       sqlite3MemShutdown         0000000180005cd0 f   sqlite.obj
 0001:00004cd0       sqlite3NoopDestructor      0000000180005cd0 f   sqlite.obj
 0001:00004cd0       sqlite3WalkWinDefnDummyCallback 0000000180005cd0 f   sqlite.obj
 0001:00004ce0       sqlite3MutexInit           0000000180005ce0 f   sqlite.obj
 0001:00004e00       noopMutexAlloc             0000000180005e00 f   sqlite.obj
 0001:00004e10       winMutexInit               0000000180005e10 f   sqlite.obj
 0001:00004e90       winMutexEnd                0000000180005e90 f   sqlite.obj
 0001:00004ef0       winMutexAlloc              0000000180005ef0 f   sqlite.obj
 0001:00004f60       winMutexFree               0000000180005f60 f   sqlite.obj
 0001:00004fe0       winMutexEnter              0000000180005fe0 f   sqlite.obj
 0001:00004ff0       winMutexTry                0000000180005ff0 f   sqlite.obj
 0001:00005030       winMutexLeave              0000000180006030 f   sqlite.obj
 0001:00005280       sqlite3MallocAlarm         0000000180006280 f   sqlite.obj
 0001:000052c0       sqlite3Malloc              00000001800062c0 f   sqlite.obj
 0001:00005520       measureAllocationSize      0000000180006520 f   sqlite.obj
 0001:00005590       sqlite3DbFreeNN            0000000180006590 f   sqlite.obj
 0001:00005670       sqlite3DbNNFreeNN          0000000180006670 f   sqlite.obj
 0001:00005750       sqlite3DbFree              0000000180006750 f   sqlite.obj
 0001:00005760       sqlite3Realloc             0000000180006760 f   sqlite.obj
 0001:000059c0       sqlite3MallocZero          00000001800069c0 f   sqlite.obj
 0001:00005a00       sqlite3DbMallocZero        0000000180006a00 f   sqlite.obj
 0001:00005a50       dbMallocRawFinish          0000000180006a50 f   sqlite.obj
 0001:00005a90       sqlite3DbMallocRawNN       0000000180006a90 f   sqlite.obj
 0001:00005b50       dbReallocFinish            0000000180006b50 f   sqlite.obj
 0001:00005c10       sqlite3DbReallocOrFree     0000000180006c10 f   sqlite.obj
 0001:00005cc0       sqlite3DbStrDup            0000000180006cc0 f   sqlite.obj
 0001:00005d40       sqlite3DbStrNDup           0000000180006d40 f   sqlite.obj
 0001:00005da0       sqlite3DbSpanDup           0000000180006da0 f   sqlite.obj
 0001:00005e50       sqlite3OomFault            0000000180006e50 f   sqlite.obj
 0001:00005ef0       sqlite3OomClear            0000000180006ef0 f   sqlite.obj
 0001:00005f30       apiHandleError             0000000180006f30 f   sqlite.obj
 0001:00005fa0       getIntArg                  0000000180006fa0 f   sqlite.obj
 0001:00006020       printfTempBuf              0000000180007020 f   sqlite.obj
 0001:000079b8       $LN694                     00000001800089b8     sqlite.obj
 0001:000079e8       $LN693                     00000001800089e8     sqlite.obj
 0001:00007a38       $LN692                     0000000180008a38     sqlite.obj
 0001:00007a80       sqlite3StrAccumEnlarge     0000000180008a80 f   sqlite.obj
 0001:00008140       enlargeAndAppend           0000000180009140 f   sqlite.obj
 0001:00008210       strAccumFinishRealloc      0000000180009210 f   sqlite.obj
 0001:000082c0       sqlite3ResultStrAccum      00000001800092c0 f   sqlite.obj
 0001:00008600       sqlite3VMPrintf            0000000180009600 f   sqlite.obj
 0001:000086d0       sqlite3MPrintf             00000001800096d0 f   sqlite.obj
 0001:000089c0       sqlite3RCStrUnref          00000001800099c0 f   sqlite.obj
 0001:00008a50       sqlite3RCStrNew            0000000180009a50 f   sqlite.obj
 0001:00008a90       chacha_block               0000000180009a90 f   sqlite.obj
 0001:00008fa0       sqlite3ThreadProc          0000000180009fa0 f   sqlite.obj
 0001:00008fd0       sqlite3Utf8Read            0000000180009fd0 f   sqlite.obj
 0001:00009070       sqlite3Utf8ReadLimited     000000018000a070 f   sqlite.obj
 0001:00009120       sqlite3VdbeMemTranslate    000000018000a120 f   sqlite.obj
 0001:00009660       sqlite3Utf8CharLen         000000018000a660 f   sqlite.obj
 0001:000096c0       sqlite3Utf16to8            000000018000a6c0 f   sqlite.obj
 0001:00009760       sqlite3Strlen30            000000018000a760 f   sqlite.obj
 0001:00009780       sqlite3ErrorFinish         000000018000a780 f   sqlite.obj
 0001:000097d0       sqlite3SystemError         000000018000a7d0 f   sqlite.obj
 0001:000098a0       sqlite3ErrorWithMsg        000000018000a8a0 f   sqlite.obj
 0001:00009990       sqlite3ProgressCheck       000000018000a990 f   sqlite.obj
 0001:00009a00       sqlite3ErrorMsg            000000018000aa00 f   sqlite.obj
 0001:00009ab0       sqlite3DequoteExpr         000000018000aab0 f   sqlite.obj
 0001:00009b30       sqlite3DequoteToken        000000018000ab30 f   sqlite.obj
 0001:00009bf0       sqlite3StrICmp             000000018000abf0 f   sqlite.obj
 0001:00009ca0       sqlite3StrIHash            000000018000aca0 f   sqlite.obj
 0001:00009ce0       dekkerMul2                 000000018000ace0 f   sqlite.obj
 0001:00009df0       sqlite3AtoF                000000018000adf0 f   sqlite.obj
 0001:0000a640       sqlite3Atoi64              000000018000b640 f   sqlite.obj
 0001:0000a8f0       sqlite3DecOrHexToI64       000000018000b8f0 f   sqlite.obj
 0001:0000aa10       sqlite3GetInt32            000000018000ba10 f   sqlite.obj
 0001:0000aba0       sqlite3FpDecode            000000018000bba0 f   sqlite.obj
 0001:0000b1d0       sqlite3GetUInt32           000000018000c1d0 f   sqlite.obj
 0001:0000b260       putVarint64                000000018000c260 f   sqlite.obj
 0001:0000b370       sqlite3PutVarint           000000018000c370 f   sqlite.obj
 0001:0000b3b0       sqlite3GetVarint           000000018000c3b0 f   sqlite.obj
 0001:0000b5a0       sqlite3GetVarint32         000000018000c5a0 f   sqlite.obj
 0001:0000b620       sqlite3HexToBlob           000000018000c620 f   sqlite.obj
 0001:0000b6f0       sqlite3AddInt64            000000018000c6f0 f   sqlite.obj
 0001:0000b740       sqlite3SubInt64            000000018000c740 f   sqlite.obj
 0001:0000b7b0       sqlite3MulInt64            000000018000c7b0 f   sqlite.obj
 0001:0000b850       sqlite3LogEstAdd           000000018000c850 f   sqlite.obj
 0001:0000b8d0       sqlite3LogEst              000000018000c8d0 f   sqlite.obj
 0001:0000b960       sqlite3LogEstFromDouble    000000018000c960 f   sqlite.obj
 0001:0000b9f0       sqlite3LogEstToInt         000000018000c9f0 f   sqlite.obj
 0001:0000ba60       sqlite3VListNameToNum      000000018000ca60 f   sqlite.obj
 0001:0000baf0       sqlite3HashClear           000000018000caf0 f   sqlite.obj
 0001:0000bc10       strHash                    000000018000cc10 f   sqlite.obj
 0001:0000bc50       rehash                     000000018000cc50 f   sqlite.obj
 0001:0000be40       findElementWithHash        000000018000ce40 f   sqlite.obj
 0001:0000bf20       sqlite3HashInsert          000000018000cf20 f   sqlite.obj
 0001:0000c110       winSetSystemCall           000000018000d110 f   sqlite.obj
 0001:0000c1e0       winGetSystemCall           000000018000d1e0 f   sqlite.obj
 0001:0000c250       winNextSystemCall          000000018000d250 f   sqlite.obj
 0001:0000c3d0       winUtf8ToUnicode           000000018000d3d0 f   sqlite.obj
 0001:0000c490       winUnicodeToUtf8           000000018000d490 f   sqlite.obj
 0001:0000c550       winMbcsToUtf8              000000018000d550 f   sqlite.obj
 0001:0000c670       winUtf8ToMbcs              000000018000d670 f   sqlite.obj
 0001:0000cb30       winGetLastErrorMsg         000000018000db30 f   sqlite.obj
 0001:0000cc80       winLogErrorAtLine          000000018000dc80 f   sqlite.obj
 0001:0000cd60       winUnlockFile              000000018000dd60 f   sqlite.obj
 0001:0000cdb0       winClose                   000000018000ddb0 f   sqlite.obj
 0001:0000ce50       winRead                    000000018000de50 f   sqlite.obj
 0001:0000cff0       winWrite                   000000018000dff0 f   sqlite.obj
 0001:0000d1a0       winTruncate                000000018000e1a0 f   sqlite.obj
 0001:0000d2f0       winSync                    000000018000e2f0 f   sqlite.obj
 0001:0000d370       winFileSize                000000018000e370 f   sqlite.obj
 0001:0000d3f0       winGetReadLock             000000018000e3f0 f   sqlite.obj
 0001:0000d460       winUnlockReadLock          000000018000e460 f   sqlite.obj
 0001:0000d4f0       winLock                    000000018000e4f0 f   sqlite.obj
 0001:0000d760       winCheckReservedLock       000000018000e760 f   sqlite.obj
 0001:0000d840       winUnlock                  000000018000e840 f   sqlite.obj
 0001:0000d9a0       winFileControl             000000018000e9a0 f   sqlite.obj
 0001:0000dbfc       $LN41                      000000018000ebfc     sqlite.obj
 0001:0000dc2c       $LN40                      000000018000ec2c     sqlite.obj
 0001:0000dc50       winSectorSize              000000018000ec50 f   sqlite.obj
 0001:0000dc60       winDeviceCharacteristics   000000018000ec60 f   sqlite.obj
 0001:0000dc70       winShmPurge                000000018000ec70 f   sqlite.obj
 0001:0000df80       winLockSharedMemory        000000018000ef80 f   sqlite.obj
 0001:0000e130       winOpenSharedMemory        000000018000f130 f   sqlite.obj
 0001:0000e600       winShmUnmap                000000018000f600 f   sqlite.obj
 0001:0000e730       winShmLock                 000000018000f730 f   sqlite.obj
 0001:0000e970       winShmBarrier              000000018000f970 f   sqlite.obj
 0001:0000e9b0       winShmMap                  000000018000f9b0 f   sqlite.obj
 0001:0000ecb0       winUnmapfile               000000018000fcb0 f   sqlite.obj
 0001:0000ed60       winMapfile                 000000018000fd60 f   sqlite.obj
 0001:0000ef10       winFetch                   000000018000ff10 f   sqlite.obj
 0001:0000ef90       winUnfetch                 000000018000ff90 f   sqlite.obj
 0001:0000efb0       winGetTempname             000000018000ffb0 f   sqlite.obj
 0001:0000f5f0       winOpen                    00000001800105f0 f   sqlite.obj
 0001:0000fdf0       winDelete                  0000000180010df0 f   sqlite.obj
 0001:0000ff80       winAccess                  0000000180010f80 f   sqlite.obj
 0001:000101b0       winFullPathnameNoMutex     00000001800111b0 f   sqlite.obj
 0001:000103a0       winFullPathname            00000001800113a0 f   sqlite.obj
 0001:00010440       winDlOpen                  0000000180011440 f   sqlite.obj
 0001:000104f0       winDlError                 00000001800114f0 f   sqlite.obj
 0001:00010520       winDlSym                   0000000180011520 f   sqlite.obj
 0001:00010530       winDlClose                 0000000180011530 f   sqlite.obj
 0001:00010540       winRandomness              0000000180011540 f   sqlite.obj
 0001:00010810       winSleep                   0000000180011810 f   sqlite.obj
 0001:00010850       winCurrentTimeInt64        0000000180011850 f   sqlite.obj
 0001:000108b0       winCurrentTime             00000001800118b0 f   sqlite.obj
 0001:00010920       winGetLastError            0000000180011920 f   sqlite.obj
 0001:00010cb0       memdbClose                 0000000180011cb0 f   sqlite.obj
 0001:00010f10       memdbRead                  0000000180011f10 f   sqlite.obj
 0001:00010fc0       memdbWrite                 0000000180011fc0 f   sqlite.obj
 0001:000110f0       memdbTruncate              00000001800120f0 f   sqlite.obj
 0001:00011150       memdbFileSize              0000000180012150 f   sqlite.obj
 0001:000111a0       memdbLock                  00000001800121a0 f   sqlite.obj
 0001:00011270       memdbUnlock                0000000180012270 f   sqlite.obj
 0001:000112e0       memdbFileControl           00000001800122e0 f   sqlite.obj
 0001:00011380       memdbDeviceCharacteristics 0000000180012380 f   sqlite.obj
 0001:00011390       memdbFetch                 0000000180012390 f   sqlite.obj
 0001:00011410       memdbUnfetch               0000000180012410 f   sqlite.obj
 0001:00011450       memdbOpen                  0000000180012450 f   sqlite.obj
 0001:00011740       memdbAccess                0000000180012740 f   sqlite.obj
 0001:00011750       memdbFullPathname          0000000180012750 f   sqlite.obj
 0001:00011780       memdbDlOpen                0000000180012780 f   sqlite.obj
 0001:00011790       memdbDlError               0000000180012790 f   sqlite.obj
 0001:000117a0       memdbDlSym                 00000001800127a0 f   sqlite.obj
 0001:000117b0       memdbDlClose               00000001800127b0 f   sqlite.obj
 0001:000117c0       memdbRandomness            00000001800127c0 f   sqlite.obj
 0001:000117d0       memdbSleep                 00000001800127d0 f   sqlite.obj
 0001:000117e0       memdbGetLastError          00000001800127e0 f   sqlite.obj
 0001:000117f0       memdbCurrentTimeInt64      00000001800127f0 f   sqlite.obj
 0001:00011800       memdbFromDbSchema          0000000180012800 f   sqlite.obj
 0001:00012ab0       sqlite3BitvecCreate        0000000180013ab0 f   sqlite.obj
 0001:00012af0       sqlite3BitvecTestNotNull   0000000180013af0 f   sqlite.obj
 0001:00012bd0       sqlite3BitvecSet           0000000180013bd0 f   sqlite.obj
 0001:00012ea0       sqlite3BitvecClear         0000000180013ea0 f   sqlite.obj
 0001:000131b0       sqlite3BitvecDestroy       00000001800141b0 f   sqlite.obj
 0001:00013270       sqlite3BitvecBuiltinTest   0000000180014270 f   sqlite.obj
 0001:00013580       sqlite3PcacheSetPageSize   0000000180014580 f   sqlite.obj
 0001:00013630       pcacheFetchFinishWithInit  0000000180014630 f   sqlite.obj
 0001:00013690       sqlite3PcacheRelease       0000000180014690 f   sqlite.obj
 0001:00013750       sqlite3PcacheDrop          0000000180014750 f   sqlite.obj
 0001:000137d0       sqlite3PcacheMakeDirty     00000001800147d0 f   sqlite.obj
 0001:00013840       sqlite3PcacheMakeClean     0000000180014840 f   sqlite.obj
 0001:000138c0       sqlite3PcacheCleanAll      00000001800148c0 f   sqlite.obj
 0001:00013970       sqlite3PcacheMove          0000000180014970 f   sqlite.obj
 0001:00013a70       sqlite3PcacheTruncate      0000000180014a70 f   sqlite.obj
 0001:00013b90       sqlite3PcacheDirtyList     0000000180014b90 f   sqlite.obj
 0001:00013d50       pcache1Alloc               0000000180014d50 f   sqlite.obj
 0001:00013eb0       pcache1Free                0000000180014eb0 f   sqlite.obj
 0001:00013fe0       pcache1AllocPage           0000000180014fe0 f   sqlite.obj
 0001:00014180       pcache1FreePage            0000000180015180 f   sqlite.obj
 0001:000141c0       pcache1ResizeHash          00000001800151c0 f   sqlite.obj
 0001:00014300       pcache1EnforceMaxPage      0000000180015300 f   sqlite.obj
 0001:00014450       pcache1TruncateUnsafe      0000000180015450 f   sqlite.obj
 0001:00014570       pcache1Init                0000000180015570 f   sqlite.obj
 0001:00014660       pcache1Shutdown            0000000180015660 f   sqlite.obj
 0001:000146b0       pcache1Create              00000001800156b0 f   sqlite.obj
 0001:000147c0       pcache1Cachesize           00000001800157c0 f   sqlite.obj
 0001:00014820       pcache1Shrink              0000000180015820 f   sqlite.obj
 0001:00014860       pcache1Pagecount           0000000180015860 f   sqlite.obj
 0001:00014870       pcache1FetchStage2         0000000180015870 f   sqlite.obj
 0001:00014a60       pcache1Fetch               0000000180015a60 f   sqlite.obj
 0001:00014ad0       pcache1Unpin               0000000180015ad0 f   sqlite.obj
 0001:00014b90       pcache1Rekey               0000000180015b90 f   sqlite.obj
 0001:00014c10       pcache1Truncate            0000000180015c10 f   sqlite.obj
 0001:00014c40       pcache1Destroy             0000000180015c40 f   sqlite.obj
 0001:00014dc0       sqlite3RowSetClear         0000000180015dc0 f   sqlite.obj
 0001:00014ee0       sqlite3RowSetDelete        0000000180015ee0 f   sqlite.obj
 0001:00014f10       rowSetEntryAlloc           0000000180015f10 f   sqlite.obj
 0001:00014fd0       sqlite3RowSetInsert        0000000180015fd0 f   sqlite.obj
 0001:00015040       rowSetEntrySort            0000000180016040 f   sqlite.obj
 0001:00015270       rowSetTreeToList           0000000180016270 f   sqlite.obj
 0001:000152d0       rowSetNDeepTree            00000001800162d0 f   sqlite.obj
 0001:00015350       rowSetListToTree           0000000180016350 f   sqlite.obj
 0001:00015420       sqlite3RowSetNext          0000000180016420 f   sqlite.obj
 0001:000154a0       sqlite3RowSetTest          00000001800164a0 f   sqlite.obj
 0001:00015660       subjRequiresPage           0000000180016660 f   sqlite.obj
 0001:000157f0       pagerUnlockDb              00000001800167f0 f   sqlite.obj
 0001:00015840       readSuperJournal           0000000180016840 f   sqlite.obj
 0001:00015a80       writeJournalHdr            0000000180016a80 f   sqlite.obj
 0001:00015bf0       readJournalHdr             0000000180016bf0 f   sqlite.obj
 0001:00015e10       writeSuperJournal          0000000180016e10 f   sqlite.obj
 0001:00015fb0       pager_reset                0000000180016fb0 f   sqlite.obj
 0001:00015fe0       releaseAllSavepoints       0000000180016fe0 f   sqlite.obj
 0001:00016180       addToSavepointBitvecs      0000000180017180 f   sqlite.obj
 0001:000164d0       pager_unlock               00000001800174d0 f   sqlite.obj
 0001:00016640       pager_error                0000000180017640 f   sqlite.obj
 0001:00016690       pagerFlushOnCommit         0000000180017690 f   sqlite.obj
 0001:00016730       pager_end_transaction      0000000180017730 f   sqlite.obj
 0001:00016aa0       pagerUnlockAndRollback     0000000180017aa0 f   sqlite.obj
 0001:00016b60       pager_cksum                0000000180017b60 f   sqlite.obj
 0001:00016bd0       pager_playback_one_page    0000000180017bd0 f   sqlite.obj
 0001:00016e70       pager_delsuper             0000000180017e70 f   sqlite.obj
 0001:000171d0       pager_truncate             00000001800181d0 f   sqlite.obj
 0001:000172c0       sqlite3SectorSize          00000001800182c0 f   sqlite.obj
 0001:00017300       setSectorSize              0000000180018300 f   sqlite.obj
 0001:00017380       pager_playback             0000000180018380 f   sqlite.obj
 0001:00017730       readDbPage                 0000000180018730 f   sqlite.obj
 0001:00017840       pagerUndoCallback          0000000180018840 f   sqlite.obj
 0001:00017960       pagerWalFrames             0000000180018960 f   sqlite.obj
 0001:00017a60       pagerPagecount             0000000180018a60 f   sqlite.obj
 0001:00017af0       pagerPlaybackSavepoint     0000000180018af0 f   sqlite.obj
 0001:00017e10       pagerFixMaplimit           0000000180018e10 f   sqlite.obj
 0001:00017e90       sqlite3PagerSetFlags       0000000180018e90 f   sqlite.obj
 0001:00017f40       sqlite3PagerSetPagesize    0000000180018f40 f   sqlite.obj
 0001:00018080       pagerSyncHotJournal        0000000180019080 f   sqlite.obj
 0001:000180c0       databaseIsUnmoved          00000001800190c0 f   sqlite.obj
 0001:00018120       sqlite3PagerClose          0000000180019120 f   sqlite.obj
 0001:00018590       syncJournal                0000000180019590 f   sqlite.obj
 0001:00018790       pager_write_pagelist       0000000180019790 f   sqlite.obj
 0001:000188f0       subjournalPage             00000001800198f0 f   sqlite.obj
 0001:00018a50       pagerStress                0000000180019a50 f   sqlite.obj
 0001:00018b80       sqlite3PagerOpen           0000000180019b80 f   sqlite.obj
 0001:000195b0       hasHotJournal              000000018001a5b0 f   sqlite.obj
 0001:00019780       sqlite3PagerSharedLock     000000018001a780 f   sqlite.obj
 0001:00019b50       getPageNormal              000000018001ab50 f   sqlite.obj
 0001:00019de0       getPageMMap                000000018001ade0 f   sqlite.obj
 0001:00019ff0       getPageError               000000018001aff0 f   sqlite.obj
 0001:0001a000       sqlite3PagerLookup         000000018001b000 f   sqlite.obj
 0001:0001a070       sqlite3PagerUnrefNotNull   000000018001b070 f   sqlite.obj
 0001:0001a0c0       sqlite3PagerBegin          000000018001b0c0 f   sqlite.obj
 0001:0001a240       pagerAddPageToRollbackJournal 000000018001b240 f   sqlite.obj
 0001:0001a380       pager_write                000000018001b380 f   sqlite.obj
 0001:0001a5c0       pagerWriteLargeSector      000000018001b5c0 f   sqlite.obj
 0001:0001a8b0       sqlite3PagerWrite          000000018001b8b0 f   sqlite.obj
 0001:0001a930       sqlite3PagerSync           000000018001b930 f   sqlite.obj
 0001:0001a990       sqlite3PagerExclusiveLock  000000018001b990 f   sqlite.obj
 0001:0001aa00       sqlite3PagerCommitPhaseOne 000000018001ba00 f   sqlite.obj
 0001:0001ace0       sqlite3PagerRollback       000000018001bce0 f   sqlite.obj
 0001:0001ade0       pagerOpenSavepoint         000000018001bde0 f   sqlite.obj
 0001:0001af30       sqlite3PagerSavepoint      000000018001bf30 f   sqlite.obj
 0001:0001b060       sqlite3PagerFilename       000000018001c060 f   sqlite.obj
 0001:0001b090       sqlite3PagerMovepage       000000018001c090 f   sqlite.obj
 0001:0001b230       sqlite3PagerSetJournalMode 000000018001c230 f   sqlite.obj
 0001:0001b3b0       sqlite3PagerGetJournalMode 000000018001c3b0 f   sqlite.obj
 0001:0001b3c0       sqlite3PagerOkToChangeJournalMode 000000018001c3c0 f   sqlite.obj
 0001:0001b3e0       sqlite3PagerWalSupported   000000018001c3e0 f   sqlite.obj
 0001:0001b410       pagerExclusiveLock         000000018001c410 f   sqlite.obj
 0001:0001b4b0       pagerOpenWal               000000018001c4b0 f   sqlite.obj
 0001:0001b520       sqlite3PagerOpenWal        000000018001c520 f   sqlite.obj
 0001:0001b5c0       sqlite3PagerCloseWal       000000018001c5c0 f   sqlite.obj
 0001:0001b6c0       sehInjectFault             000000018001c6c0 f   sqlite.obj
 0001:0001b730       walIndexPageRealloc        000000018001c730 f   sqlite.obj
 0001:0001b880       walCkptInfo                000000018001c880 f   sqlite.obj
 0001:0001b8a0       walChecksumBytes           000000018001c8a0 f   sqlite.obj
 0001:0001ba40       walIndexWriteHdr           000000018001ca40 f   sqlite.obj
 0001:0001baf0       walLockShared              000000018001caf0 f   sqlite.obj
 0001:0001bb50       walUnlockShared            000000018001cb50 f   sqlite.obj
 0001:0001bba0       walLockExclusive           000000018001cba0 f   sqlite.obj
 0001:0001bc10       walUnlockExclusive         000000018001cc10 f   sqlite.obj
 0001:0001bc70       walHashGet                 000000018001cc70 f   sqlite.obj
 0001:0001bd20       walCleanupHash             000000018001cd20 f   sqlite.obj
 0001:0001bdc0       walIndexAppend             000000018001cdc0 f   sqlite.obj
 0001:0001bef0       walIndexRecover            000000018001cef0 f   sqlite.obj
 0001:0001c4f0       walIndexClose              000000018001d4f0 f   sqlite.obj
 0001:0001c600       sqlite3WalOpen             000000018001d600 f   sqlite.obj
 0001:0001c7b0       walMergesort               000000018001d7b0 f   sqlite.obj
 0001:0001ca50       walIteratorInit            000000018001da50 f   sqlite.obj
 0001:0001cd30       walRestartHdr              000000018001dd30 f   sqlite.obj
 0001:0001cdc0       walCheckpoint              000000018001ddc0 f   sqlite.obj
 0001:0001d490       walLimitSize               000000018001e490 f   sqlite.obj
 0001:0001d520       walHandleException         000000018001e520 f   sqlite.obj
 0001:0001d6b0       sqlite3WalClose            000000018001e6b0 f   sqlite.obj
 0001:0001d8e0       walIndexTryHdr             000000018001e8e0 f   sqlite.obj
 0001:0001da80       walIndexReadHdr            000000018001ea80 f   sqlite.obj
 0001:0001dca0       walBeginShmUnreliable      000000018001eca0 f   sqlite.obj
 0001:0001e0c0       walTryBeginRead            000000018001f0c0 f   sqlite.obj
 0001:0001e4c0       sqlite3WalBeginReadTransaction 000000018001f4c0 f   sqlite.obj
 0001:0001e520       sqlite3WalEndReadTransaction 000000018001f520 f   sqlite.obj
 0001:0001e5c0       walFindFrame               000000018001f5c0 f   sqlite.obj
 0001:0001e850       sqlite3WalFindFrame        000000018001f850 f   sqlite.obj
 0001:0001e880       sqlite3WalBeginWriteTransaction 000000018001f880 f   sqlite.obj
 0001:0001e950       sqlite3WalUndo             000000018001f950 f   sqlite.obj
 0001:0001eac0       sqlite3WalSavepointUndo    000000018001fac0 f   sqlite.obj
 0001:0001eb10       walWriteToLog              000000018001fb10 f   sqlite.obj
 0001:0001ebc0       walWriteOneFrame           000000018001fbc0 f   sqlite.obj
 0001:0001ed20       walRewriteChecksums        000000018001fd20 f   sqlite.obj
 0001:0001ef50       walFrames                  000000018001ff50 f   sqlite.obj
 0001:0001f460       sqlite3WalFrames           0000000180020460 f   sqlite.obj
 0001:0001f4a0       sqlite3WalCheckpoint       00000001800204a0 f   sqlite.obj
 0001:0001f760       unlockBtreeMutex           0000000180020760 f   sqlite.obj
 0001:0001f790       btreeLockCarefully         0000000180020790 f   sqlite.obj
 0001:0001f860       btreeEnterAll              0000000180020860 f   sqlite.obj
 0001:0001f8d0       btreeLeaveAll              00000001800208d0 f   sqlite.obj
 0001:0001f940       btreeReleaseAllCursorPages 0000000180020940 f   sqlite.obj
 0001:0001fa50       saveCursorKey              0000000180020a50 f   sqlite.obj
 0001:0001fb10       saveCursorsOnList          0000000180020b10 f   sqlite.obj
 0001:0001fbb0       sqlite3BtreeClearCursor    0000000180020bb0 f   sqlite.obj
 0001:0001fc70       btreeMoveto                0000000180020c70 f   sqlite.obj
 0001:0001fd70       btreeRestoreCursorPosition 0000000180020d70 f   sqlite.obj
 0001:0001ff40       sqlite3BtreeCursorHintFlags 0000000180020f40 f   sqlite.obj
 0001:0001ff50       ptrmapPageno               0000000180020f50 f   sqlite.obj
 0001:0001ffa0       ptrmapPut                  0000000180020fa0 f   sqlite.obj
 0001:00020160       ptrmapGet                  0000000180021160 f   sqlite.obj
 0001:00020310       btreeParseCellAdjustSizeForOverflow 0000000180021310 f   sqlite.obj
 0001:00020360       btreeParseCellPtrNoPayload 0000000180021360 f   sqlite.obj
 0001:000203a0       btreeParseCellPtr          00000001800213a0 f   sqlite.obj
 0001:00020550       btreeParseCellPtrIndex     0000000180021550 f   sqlite.obj
 0001:00020600       cellSizePtr                0000000180021600 f   sqlite.obj
 0001:000206b0       cellSizePtrIdxLeaf         00000001800216b0 f   sqlite.obj
 0001:00020770       cellSizePtrNoPayload       0000000180021770 f   sqlite.obj
 0001:000207a0       cellSizePtrTableLeaf       00000001800217a0 f   sqlite.obj
 0001:000208e0       ptrmapPutOvflPtr           00000001800218e0 f   sqlite.obj
 0001:00020980       defragmentPage             0000000180021980 f   sqlite.obj
 0001:00020d30       pageFindSlot               0000000180021d30 f   sqlite.obj
 0001:00020e70       freeSpace                  0000000180021e70 f   sqlite.obj
 0001:00021180       decodeFlags                0000000180022180 f   sqlite.obj
 0001:000212d0       btreeComputeFreeSpace      00000001800222d0 f   sqlite.obj
 0001:00021420       btreeCellSizeCheck         0000000180022420 f   sqlite.obj
 0001:00021510       btreeInitPage              0000000180022510 f   sqlite.obj
 0001:00021640       zeroPage                   0000000180022640 f   sqlite.obj
 0001:00021730       btreePageLookup            0000000180022730 f   sqlite.obj
 0001:000217e0       sqlite3BtreeLastPage       00000001800227e0 f   sqlite.obj
 0001:000217f0       getAndInitPage             00000001800227f0 f   sqlite.obj
 0001:00021950       releasePageNotNull         0000000180022950 f   sqlite.obj
 0001:000219a0       releasePage                00000001800229a0 f   sqlite.obj
 0001:00021a00       releasePageOne             0000000180022a00 f   sqlite.obj
 0001:00021a40       btreeGetUnusedPage         0000000180022a40 f   sqlite.obj
 0001:00021b70       pageReinit                 0000000180022b70 f   sqlite.obj
 0001:00021b90       btreeInvokeBusyHandler     0000000180022b90 f   sqlite.obj
 0001:00021be0       sqlite3BtreeOpen           0000000180022be0 f   sqlite.obj
 0001:000224a0       allocateTempSpace          00000001800234a0 f   sqlite.obj
 0001:00022500       freeTempSpace              0000000180023500 f   sqlite.obj
 0001:00022540       sqlite3BtreeClose          0000000180023540 f   sqlite.obj
 0001:000227e0       sqlite3BtreeSetCacheSize   00000001800237e0 f   sqlite.obj
 0001:00022880       sqlite3BtreeSetSpillSize   0000000180023880 f   sqlite.obj
 0001:00022940       sqlite3BtreeSetPagerFlags  0000000180023940 f   sqlite.obj
 0001:000229a0       sqlite3BtreeSetPageSize    00000001800239a0 f   sqlite.obj
 0001:00022aa0       sqlite3BtreeGetRequestedReserve 0000000180023aa0 f   sqlite.obj
 0001:00022b10       sqlite3BtreeMaxPageCount   0000000180023b10 f   sqlite.obj
 0001:00022b70       sqlite3BtreeSecureDelete   0000000180023b70 f   sqlite.obj
 0001:00022c00       sqlite3BtreeSetAutoVacuum  0000000180023c00 f   sqlite.obj
 0001:00022c90       sqlite3BtreeGetAutoVacuum  0000000180023c90 f   sqlite.obj
 0001:00022cf0       setDefaultSyncFlag         0000000180023cf0 f   sqlite.obj
 0001:00022d60       lockBtree                  0000000180023d60 f   sqlite.obj
 0001:00023070       newDatabase                0000000180024070 f   sqlite.obj
 0001:00023140       btreeBeginTrans            0000000180024140 f   sqlite.obj
 0001:000234b0       sqlite3BtreeBeginTrans     00000001800244b0 f   sqlite.obj
 0001:00023510       setChildPtrmaps            0000000180024510 f   sqlite.obj
 0001:00023b20       modifyPagePointer          0000000180024b20 f   sqlite.obj
 0001:00023cc0       relocatePage               0000000180024cc0 f   sqlite.obj
 0001:00023e80       incrVacuumStep             0000000180024e80 f   sqlite.obj
 0001:000241a0       finalDbSize                00000001800251a0 f   sqlite.obj
 0001:00024270       sqlite3BtreeIncrVacuum     0000000180025270 f   sqlite.obj
 0001:000243c0       autoVacuumCommit           00000001800253c0 f   sqlite.obj
 0001:00024610       sqlite3BtreeCommitPhaseOne 0000000180025610 f   sqlite.obj
 0001:000246c0       btreeEndTransaction        00000001800256c0 f   sqlite.obj
 0001:00024860       sqlite3BtreeCommitPhaseTwo 0000000180025860 f   sqlite.obj
 0001:000249a0       sqlite3BtreeCommit         00000001800259a0 f   sqlite.obj
 0001:00024a00       sqlite3BtreeTripAllCursors 0000000180025a00 f   sqlite.obj
 0001:00024b10       sqlite3BtreeRollback       0000000180025b10 f   sqlite.obj
 0001:00024c80       sqlite3BtreeBeginStmt      0000000180025c80 f   sqlite.obj
 0001:00024cf0       sqlite3BtreeSavepoint      0000000180025cf0 f   sqlite.obj
 0001:00024df0       btreeCursor                0000000180025df0 f   sqlite.obj
 0001:00024ed0       sqlite3BtreeCursor         0000000180025ed0 f   sqlite.obj
 0001:00024f60       sqlite3BtreeCloseCursor    0000000180025f60 f   sqlite.obj
 0001:00025130       getCellInfo                0000000180026130 f   sqlite.obj
 0001:00025170       sqlite3BtreeCursorIsValidNN 0000000180026170 f   sqlite.obj
 0001:00025180       sqlite3BtreeIntegerKey     0000000180026180 f   sqlite.obj
 0001:000251a0       sqlite3BtreeCursorPin      00000001800261a0 f   sqlite.obj
 0001:000251b0       sqlite3BtreeCursorUnpin    00000001800261b0 f   sqlite.obj
 0001:000251c0       sqlite3BtreeOffset         00000001800261c0 f   sqlite.obj
 0001:00025200       sqlite3BtreePayloadSize    0000000180026200 f   sqlite.obj
 0001:00025220       getOverflowPage            0000000180026220 f   sqlite.obj
 0001:00025400       copyPayload                0000000180026400 f   sqlite.obj
 0001:00025460       accessPayload              0000000180026460 f   sqlite.obj
 0001:00025910       accessPayloadChecked       0000000180026910 f   sqlite.obj
 0001:00025970       sqlite3BtreePayloadChecked 0000000180026970 f   sqlite.obj
 0001:000259a0       fetchPayload               00000001800269a0 f   sqlite.obj
 0001:000259e0       moveToChild                00000001800269e0 f   sqlite.obj
 0001:00025b60       moveToParent               0000000180026b60 f   sqlite.obj
 0001:00025bf0       moveToRoot                 0000000180026bf0 f   sqlite.obj
 0001:00025de0       moveToLeftmost             0000000180026de0 f   sqlite.obj
 0001:00025fa0       moveToRightmost            0000000180026fa0 f   sqlite.obj
 0001:00026160       sqlite3BtreeFirst          0000000180027160 f   sqlite.obj
 0001:000261b0       btreeLast                  00000001800271b0 f   sqlite.obj
 0001:00026220       sqlite3BtreeLast           0000000180027220 f   sqlite.obj
 0001:00026240       sqlite3BtreeTableMoveto    0000000180027240 f   sqlite.obj
 0001:000264c0       indexCellCompare           00000001800274c0 f   sqlite.obj
 0001:00026530       sqlite3BtreeIndexMoveto    0000000180027530 f   sqlite.obj
 0001:00026b10       sqlite3BtreeEof            0000000180027b10 f   sqlite.obj
 0001:00026b20       sqlite3BtreeRowCountEst    0000000180027b20 f   sqlite.obj
 0001:00026b80       btreeNext                  0000000180027b80 f   sqlite.obj
 0001:00026cf0       sqlite3BtreeNext           0000000180027cf0 f   sqlite.obj
 0001:00026d30       btreePrevious              0000000180027d30 f   sqlite.obj
 0001:00026ea0       sqlite3BtreePrevious       0000000180027ea0 f   sqlite.obj
 0001:00026ee0       allocateBtreePage          0000000180027ee0 f   sqlite.obj
 0001:00027810       freePage2                  0000000180028810 f   sqlite.obj
 0001:00027c90       clearCellOverflow          0000000180028c90 f   sqlite.obj
 0001:00027ea0       fillInCell                 0000000180028ea0 f   sqlite.obj
 0001:000283c0       dropCell                   00000001800293c0 f   sqlite.obj
 0001:000284f0       insertCell                 00000001800294f0 f   sqlite.obj
 0001:000287f0       insertCellFast             00000001800297f0 f   sqlite.obj
 0001:00028ab0       computeCellSize            0000000180029ab0 f   sqlite.obj
 0001:00028af0       rebuildPage                0000000180029af0 f   sqlite.obj
 0001:00028d50       pageInsertArray            0000000180029d50 f   sqlite.obj
 0001:00028f40       pageFreeArray              0000000180029f40 f   sqlite.obj
 0001:00029110       editPage                   000000018002a110 f   sqlite.obj
 0001:00029450       balance_quick              000000018002a450 f   sqlite.obj
 0001:00029750       copyNodeContent            000000018002a750 f   sqlite.obj
 0001:00029840       balance_nonroot            000000018002a840 f   sqlite.obj
 0001:0002ae80       balance_deeper             000000018002be80 f   sqlite.obj
 0001:0002b160       balance                    000000018002c160 f   sqlite.obj
 0001:0002b590       btreeOverwriteContent      000000018002c590 f   sqlite.obj
 0001:0002b6f0       btreeOverwriteOverflowCell 000000018002c6f0 f   sqlite.obj
 0001:0002b8c0       btreeOverwriteCell         000000018002c8c0 f   sqlite.obj
 0001:0002b960       sqlite3BtreeInsert         000000018002c960 f   sqlite.obj
 0001:0002beb0       sqlite3BtreeTransferRow    000000018002ceb0 f   sqlite.obj
 0001:0002c400       sqlite3BtreeDelete         000000018002d400 f   sqlite.obj
 0001:0002c940       btreeCreateTable           000000018002d940 f   sqlite.obj
 0001:0002cdc0       sqlite3BtreeCreateTable    000000018002ddc0 f   sqlite.obj
 0001:0002ce30       clearDatabasePage          000000018002de30 f   sqlite.obj
 0001:0002d090       sqlite3BtreeClearTable     000000018002e090 f   sqlite.obj
 0001:0002d170       sqlite3BtreeClearTableOfCursor 000000018002e170 f   sqlite.obj
 0001:0002d180       btreeDropTable             000000018002e180 f   sqlite.obj
 0001:0002d4c0       sqlite3BtreeDropTable      000000018002e4c0 f   sqlite.obj
 0001:0002d520       sqlite3BtreeGetMeta        000000018002e520 f   sqlite.obj
 0001:0002d5b0       sqlite3BtreeUpdateMeta     000000018002e5b0 f   sqlite.obj
 0001:0002d650       sqlite3BtreeCount          000000018002e650 f   sqlite.obj
 0001:0002d800       sqlite3BtreePager          000000018002e800 f   sqlite.obj
 0001:0002d810       checkProgress              000000018002e810 f   sqlite.obj
 0001:0002d880       checkAppendMsg             000000018002e880 f   sqlite.obj
 0001:0002d960       checkRef                   000000018002e960 f   sqlite.obj
 0001:0002d9d0       checkPtrmap                000000018002e9d0 f   sqlite.obj
 0001:0002da90       checkList                  000000018002ea90 f   sqlite.obj
 0001:0002dd50       checkTreePage              000000018002ed50 f   sqlite.obj
 0001:0002e530       sqlite3BtreeIntegrityCheck 000000018002f530 f   sqlite.obj
 0001:0002ebd0       sqlite3BtreeLockTable      000000018002fbd0 f   sqlite.obj
 0001:0002ed00       sqlite3BtreePutData        000000018002fd00 f   sqlite.obj
 0001:0002edc0       sqlite3BtreeSetVersion     000000018002fdc0 f   sqlite.obj
 0001:0002eec0       sqlite3BtreeCursorHasHint  000000018002fec0 f   sqlite.obj
 0001:0002eed0       findBtree                  000000018002fed0 f   sqlite.obj
 0001:0002f200       backupOnePage              0000000180030200 f   sqlite.obj
 0001:0002fcb0       backupUpdate               0000000180030cb0 f   sqlite.obj
 0001:0002fd50       sqlite3BtreeCopyFile       0000000180030d50 f   sqlite.obj
 0001:0002fee0       vdbeMemRenderNum           0000000180030ee0 f   sqlite.obj
 0001:000300a0       sqlite3VdbeChangeEncoding  00000001800310a0 f   sqlite.obj
 0001:000300c0       sqlite3VdbeMemGrow         00000001800310c0 f   sqlite.obj
 0001:00030250       sqlite3VdbeMemZeroTerminateIfAble 0000000180031250 f   sqlite.obj
 0001:00030310       vdbeMemAddTerminator       0000000180031310 f   sqlite.obj
 0001:00030370       sqlite3VdbeMemMakeWriteable 0000000180031370 f   sqlite.obj
 0001:000303d0       sqlite3VdbeMemExpandBlob   00000001800313d0 f   sqlite.obj
 0001:00030430       sqlite3VdbeMemStringify    0000000180031430 f   sqlite.obj
 0001:000304e0       sqlite3VdbeMemFinalize     00000001800314e0 f   sqlite.obj
 0001:000305a0       sqlite3VdbeMemAggValue     00000001800315a0 f   sqlite.obj
 0001:00030630       vdbeMemClearExternAndSetNull 0000000180031630 f   sqlite.obj
 0001:00030670       vdbeMemClear               0000000180031670 f   sqlite.obj
 0001:000306c0       sqlite3VdbeMemRelease      00000001800316c0 f   sqlite.obj
 0001:000306e0       sqlite3VdbeMemReleaseMalloc 00000001800316e0 f   sqlite.obj
 0001:000306f0       memIntValue                00000001800316f0 f   sqlite.obj
 0001:00030720       sqlite3VdbeIntValue        0000000180031720 f   sqlite.obj
 0001:00030780       memRealValue               0000000180031780 f   sqlite.obj
 0001:000307b0       sqlite3VdbeRealValue       00000001800317b0 f   sqlite.obj
 0001:000307e0       sqlite3VdbeBooleanValue    00000001800317e0 f   sqlite.obj
 0001:00030840       sqlite3VdbeIntegerAffinity 0000000180031840 f   sqlite.obj
 0001:000308d0       sqlite3VdbeMemIntegerify   00000001800318d0 f   sqlite.obj
 0001:00030960       sqlite3VdbeMemRealify      0000000180031960 f   sqlite.obj
 0001:000309c0       sqlite3VdbeMemNumerify     00000001800319c0 f   sqlite.obj
 0001:00030ad0       sqlite3VdbeMemCast         0000000180031ad0 f   sqlite.obj
 0001:00030c60       sqlite3VdbeMemInit         0000000180031c60 f   sqlite.obj
 0001:00030c80       sqlite3VdbeMemSetNull      0000000180031c80 f   sqlite.obj
 0001:00030ca0       sqlite3VdbeMemSetZeroBlob  0000000180031ca0 f   sqlite.obj
 0001:00030cf0       vdbeReleaseAndSetInt64     0000000180031cf0 f   sqlite.obj
 0001:00030d30       sqlite3VdbeMemSetInt64     0000000180031d30 f   sqlite.obj
 0001:00030d50       sqlite3VdbeMemSetPointer   0000000180031d50 f   sqlite.obj
 0001:00030dc0       sqlite3VdbeMemSetDouble    0000000180031dc0 f   sqlite.obj
 0001:00030e40       sqlite3VdbeMemSetRowSet    0000000180031e40 f   sqlite.obj
 0001:00030f50       sqlite3VdbeMemTooBig       0000000180031f50 f   sqlite.obj
 0001:00030f80       vdbeClrCopy                0000000180031f80 f   sqlite.obj
 0001:00030fc0       sqlite3VdbeMemShallowCopy  0000000180031fc0 f   sqlite.obj
 0001:00031000       sqlite3VdbeMemCopy         0000000180032000 f   sqlite.obj
 0001:000310a0       sqlite3VdbeMemSetStr       00000001800320a0 f   sqlite.obj
 0001:000313d0       sqlite3VdbeMemFromBtree    00000001800323d0 f   sqlite.obj
 0001:000314e0       sqlite3VdbeMemFromBtreeZeroOffset 00000001800324e0 f   sqlite.obj
 0001:00031540       valueToText                0000000180032540 f   sqlite.obj
 0001:00031680       sqlite3ValueIsOfClass      0000000180032680 f   sqlite.obj
 0001:000316c0       valueFromExpr              00000001800326c0 f   sqlite.obj
 0001:00031d10       valueBytes                 0000000180032d10 f   sqlite.obj
 0001:00031d40       sqlite3VdbeCreate          0000000180032d40 f   sqlite.obj
 0001:00031eb0       sqlite3VdbeError           0000000180032eb0 f   sqlite.obj
 0001:00031f00       growOpArray                0000000180032f00 f   sqlite.obj
 0001:00032040       growOp3                    0000000180033040 f   sqlite.obj
 0001:000320a0       addOp4IntSlow              00000001800330a0 f   sqlite.obj
 0001:00032140       sqlite3VdbeAddOp0          0000000180033140 f   sqlite.obj
 0001:000321b0       sqlite3VdbeAddOp1          00000001800331b0 f   sqlite.obj
 0001:00032220       sqlite3VdbeAddOp2          0000000180033220 f   sqlite.obj
 0001:00032290       sqlite3VdbeAddOp3          0000000180033290 f   sqlite.obj
 0001:00032300       sqlite3VdbeAddOp4Int       0000000180033300 f   sqlite.obj
 0001:00032370       sqlite3VdbeGoto            0000000180033370 f   sqlite.obj
 0001:000323e0       sqlite3VdbeLoadString      00000001800333e0 f   sqlite.obj
 0001:000324a0       sqlite3VdbeMultiLoad       00000001800334a0 f   sqlite.obj
 0001:00032690       sqlite3VdbeAddOp4          0000000180033690 f   sqlite.obj
 0001:000327c0       sqlite3VdbeAddFunctionCall 00000001800337c0 f   sqlite.obj
 0001:00032970       sqlite3VdbeExplain         0000000180033970 f   sqlite.obj
 0001:00032ac0       sqlite3VdbeExplainPop      0000000180033ac0 f   sqlite.obj
 0001:00032b10       sqlite3VdbeAddParseSchemaOp 0000000180033b10 f   sqlite.obj
 0001:00032c80       sqlite3VdbeEndCoroutine    0000000180033c80 f   sqlite.obj
 0001:00032d00       resizeResolveLabel         0000000180033d00 f   sqlite.obj
 0001:00032e50       sqlite3VdbeResolveLabel    0000000180033e50 f   sqlite.obj
 0001:00032e80       sqlite3VdbeReusable        0000000180033e80 f   sqlite.obj
 0001:00032ec0       resolveP2Values            0000000180033ec0 f   sqlite.obj
 0001:00032fac       $LN29                      0000000180033fac     sqlite.obj
 0001:00032fd0       sqlite3VdbeAddOpList       0000000180033fd0 f   sqlite.obj
 0001:000330d0       sqlite3VdbeChangeP3        00000001800340d0 f   sqlite.obj
 0001:00033100       sqlite3VdbeTypeofColumn    0000000180034100 f   sqlite.obj
 0001:00033150       sqlite3VdbeJumpHere        0000000180034150 f   sqlite.obj
 0001:00033180       sqlite3VdbeJumpHereOrPopInst 0000000180034180 f   sqlite.obj
 0001:000331d0       freeP4Mem                  00000001800341d0 f   sqlite.obj
 0001:00033210       freeP4FuncCtx              0000000180034210 f   sqlite.obj
 0001:00033250       freeP4                     0000000180034250 f   sqlite.obj
 0001:0003336c       $LN39                      000000018003436c     sqlite.obj
 0001:000333a0       vdbeFreeOpArray            00000001800343a0 f   sqlite.obj
 0001:00033520       $LN51                      0000000180034520     sqlite.obj
 0001:00033550       sqlite3VdbeChangeToNoop    0000000180034550 f   sqlite.obj
 0001:000335b0       vdbeChangeP4Full           00000001800345b0 f   sqlite.obj
 0001:00033680       sqlite3VdbeChangeP4        0000000180034680 f   sqlite.obj
 0001:00033700       sqlite3VdbeAppendP4        0000000180034700 f   sqlite.obj
 0001:00033740       sqlite3VdbeSetP4KeyInfo    0000000180034740 f   sqlite.obj
 0001:000337b0       sqlite3VdbeDisplayP4       00000001800347b0 f   sqlite.obj
 0001:00033b58       $LN76                      0000000180034b58     sqlite.obj
 0001:00033b90       sqlite3VdbeUsesBtree       0000000180034b90 f   sqlite.obj
 0001:00033bd0       sqlite3VdbeEnter           0000000180034bd0 f   sqlite.obj
 0001:00033c70       vdbeLeave                  0000000180034c70 f   sqlite.obj
 0001:00033d00       sqlite3VdbeLeave           0000000180034d00 f   sqlite.obj
 0001:00033d10       releaseMemArray            0000000180034d10 f   sqlite.obj
 0001:00033e00       sqlite3VdbeFrameMemDel     0000000180034e00 f   sqlite.obj
 0001:00033e20       sqlite3VdbeNextOpcode      0000000180034e20 f   sqlite.obj
 0001:000340a0       sqlite3VdbeFrameDelete     00000001800350a0 f   sqlite.obj
 0001:000342d0       sqlite3VdbeList            00000001800352d0 f   sqlite.obj
 0001:00034600       sqlite3VdbeMakeReady       0000000180035600 f   sqlite.obj
 0001:00034930       sqlite3VdbeFreeCursor      0000000180035930 f   sqlite.obj
 0001:00034940       freeCursorWithCache        0000000180035940 f   sqlite.obj
 0001:000349a0       sqlite3VdbeFreeCursorNN    00000001800359a0 f   sqlite.obj
 0001:00034ab0       closeCursorsInFrame        0000000180035ab0 f   sqlite.obj
 0001:00034c30       sqlite3VdbeFrameRestore    0000000180035c30 f   sqlite.obj
 0001:00034dd0       sqlite3VdbeSetNumCols      0000000180035dd0 f   sqlite.obj
 0001:00034e90       vdbeCommit                 0000000180035e90 f   sqlite.obj
 0001:00035a80       vdbeCloseStatement         0000000180036a80 f   sqlite.obj
 0001:00035d20       sqlite3VdbeCheckFk         0000000180036d20 f   sqlite.obj
 0001:00035d90       sqlite3VdbeHalt            0000000180036d90 f   sqlite.obj
 0001:00036290       sqlite3VdbeTransferError   0000000180037290 f   sqlite.obj
 0001:00036390       sqlite3VdbeReset           0000000180037390 f   sqlite.obj
 0001:00036420       sqlite3VdbeFinalize        0000000180037420 f   sqlite.obj
 0001:00036460       sqlite3VdbeDeleteAuxData   0000000180037460 f   sqlite.obj
 0001:000365b0       sqlite3VdbeDelete          00000001800375b0 f   sqlite.obj
 0001:000367a0       sqlite3VdbeFinishMoveto    00000001800377a0 f   sqlite.obj
 0001:00036810       sqlite3VdbeHandleMovedCursor 0000000180037810 f   sqlite.obj
 0001:00036870       sqlite3VdbeCursorRestore   0000000180037870 f   sqlite.obj
 0001:00036880       sqlite3VdbeSerialGet       0000000180037880 f   sqlite.obj
 0001:00036a7c       $LN24                      0000000180037a7c     sqlite.obj
 0001:00036ab0       sqlite3VdbeAllocUnpackedRecord 0000000180037ab0 f   sqlite.obj
 0001:00036b10       sqlite3VdbeRecordUnpack    0000000180037b10 f   sqlite.obj
 0001:00036ed0       $LN59                      0000000180037ed0     sqlite.obj
 0001:00036f00       vdbeCompareMemString       0000000180037f00 f   sqlite.obj
 0001:000370c0       sqlite3BlobCompare         00000001800380c0 f   sqlite.obj
 0001:000371b0       sqlite3IntFloatCompare     00000001800381b0 f   sqlite.obj
 0001:00037250       sqlite3MemCompare          0000000180038250 f   sqlite.obj
 0001:00037360       sqlite3VdbeRecordCompareWithSkip 0000000180038360 f   sqlite.obj
 0001:00037d1c       $LN193                     0000000180038d1c     sqlite.obj
 0001:00037d40       sqlite3VdbeRecordCompare   0000000180038d40 f   sqlite.obj
 0001:00037d50       vdbeRecordCompareInt       0000000180038d50 f   sqlite.obj
 0001:00037ee8       $LN26                      0000000180038ee8     sqlite.obj
 0001:00037f10       vdbeRecordCompareString    0000000180038f10 f   sqlite.obj
 0001:00038060       sqlite3VdbeIdxRowid        0000000180039060 f   sqlite.obj
 0001:00038270       sqlite3VdbeIdxKeyCompare   0000000180039270 f   sqlite.obj
 0001:00038390       sqlite3VdbeSetChanges      0000000180039390 f   sqlite.obj
 0001:000383a0       sqlite3ExpirePreparedStatements 00000001800393a0 f   sqlite.obj
 0001:000383d0       sqlite3VdbeGetBoundValue   00000001800393d0 f   sqlite.obj
 0001:00038470       sqlite3NotPureFunc         0000000180039470 f   sqlite.obj
 0001:00038590       sqlite3VtabImportErrmsg    0000000180039590 f   sqlite.obj
 0001:000386e0       invokeProfileCallback      00000001800396e0 f   sqlite.obj
 0001:00038ec0       setResultStrOrError        0000000180039ec0 f   sqlite.obj
 0001:000395e0       sqlite3Step                000000018003a5e0 f   sqlite.obj
 0001:0003a0b0       sqlite3VdbeValueListFree   000000018003b0b0 f   sqlite.obj
 0001:0003a120       valueFromValueList         000000018003b120 f   sqlite.obj
 0001:0003a350       createAggContext           000000018003b350 f   sqlite.obj
 0001:0003af30       columnName                 000000018003bf30 f   sqlite.obj
 0001:0003b110       vdbeUnbind                 000000018003c110 f   sqlite.obj
 0001:0003b2d0       bindText                   000000018003c2d0 f   sqlite.obj
 0001:0003baf0       sqlite3TransferBindings    000000018003caf0 f   sqlite.obj
 0001:0003bf90       sqlite3VdbeExpandSql       000000018003cf90 f   sqlite.obj
 0001:0003c530       allocateCursor             000000018003d530 f   sqlite.obj
 0001:0003c660       applyNumericAffinity       000000018003d660 f   sqlite.obj
 0001:0003c780       applyAffinity              000000018003d780 f   sqlite.obj
 0001:0003c850       computeNumericType         000000018003d850 f   sqlite.obj
 0001:0003c900       out2PrereleaseWithClear    000000018003d900 f   sqlite.obj
 0001:0003c930       out2Prerelease             000000018003d930 f   sqlite.obj
 0001:0003c960       filterHash                 000000018003d960 f   sqlite.obj
 0001:0003ca60       vdbeColumnFromOverflow     000000018003da60 f   sqlite.obj
 0001:0003cc90       sqlite3VdbeExec            000000018003dc90 f   sqlite.obj
 0001:000439ec       $LN3017                    00000001800449ec     sqlite.obj
 0001:00043cd0       blobSeekToRow              0000000180044cd0 f   sqlite.obj
 0001:000448a0       blobReadWrite              00000001800458a0 f   sqlite.obj
 0001:00044b90       vdbePmaReaderClear         0000000180045b90 f   sqlite.obj
 0001:00044cb0       vdbePmaReadBlob            0000000180045cb0 f   sqlite.obj
 0001:00044e20       vdbePmaReadVarint          0000000180045e20 f   sqlite.obj
 0001:00044f00       vdbePmaReaderSeek          0000000180045f00 f   sqlite.obj
 0001:00045050       vdbePmaReaderNext          0000000180046050 f   sqlite.obj
 0001:00045170       vdbeSorterCompareTail      0000000180046170 f   sqlite.obj
 0001:000451e0       vdbeSorterCompare          00000001800461e0 f   sqlite.obj
 0001:00045250       vdbeSorterCompareText      0000000180046250 f   sqlite.obj
 0001:000453f0       vdbeSorterCompareInt       00000001800463f0 f   sqlite.obj
 0001:00045560       sqlite3VdbeSorterInit      0000000180046560 f   sqlite.obj
 0001:00045760       vdbeSorterRecordFree       0000000180046760 f   sqlite.obj
 0001:00045860       vdbeSorterJoinThread       0000000180046860 f   sqlite.obj
 0001:00045960       vdbeSorterCreateThread     0000000180046960 f   sqlite.obj
 0001:00045a40       vdbeSorterJoinAll          0000000180046a40 f   sqlite.obj
 0001:00045b80       vdbeMergeEngineNew         0000000180046b80 f   sqlite.obj
 0001:00045c20       vdbeMergeEngineFree        0000000180046c20 f   sqlite.obj
 0001:00045cd0       vdbeIncrFree               0000000180046cd0 f   sqlite.obj
 0001:00045d80       sqlite3VdbeSorterReset     0000000180046d80 f   sqlite.obj
 0001:000461c0       vdbeSorterExtendFile       00000001800471c0 f   sqlite.obj
 0001:00046260       vdbeSorterOpenTempFile     0000000180047260 f   sqlite.obj
 0001:00046320       vdbeSorterMerge            0000000180047320 f   sqlite.obj
 0001:000463c0       vdbeSorterSort             00000001800473c0 f   sqlite.obj
 0001:000465a0       vdbeSorterListToPMA        00000001800475a0 f   sqlite.obj
 0001:00046a90       vdbeMergeEngineStep        0000000180047a90 f   sqlite.obj
 0001:00046c40       vdbeSorterFlushThread      0000000180047c40 f   sqlite.obj
 0001:00046c70       vdbeSorterFlushPMA         0000000180047c70 f   sqlite.obj
 0001:00046db0       sqlite3VdbeSorterWrite     0000000180047db0 f   sqlite.obj
 0001:00046ff0       vdbeIncrPopulate           0000000180047ff0 f   sqlite.obj
 0001:00047370       vdbeIncrPopulateThread     0000000180048370 f   sqlite.obj
 0001:00047390       vdbeIncrMergerNew          0000000180048390 f   sqlite.obj
 0001:00047460       vdbeMergeEngineInit        0000000180048460 f   sqlite.obj
 0001:000475e0       vdbePmaReaderIncrMergeInit 00000001800485e0 f   sqlite.obj
 0001:000476e0       vdbePmaReaderBgIncrInit    00000001800486e0 f   sqlite.obj
 0001:00047710       vdbeMergeEngineLevel0      0000000180048710 f   sqlite.obj
 0001:000478a0       vdbeSorterAddToTree        00000001800488a0 f   sqlite.obj
 0001:00047b70       vdbeSorterMergeTreeBuild   0000000180048b70 f   sqlite.obj
 0001:00047e90       vdbeSorterSetupMerge       0000000180048e90 f   sqlite.obj
 0001:000481a0       sqlite3VdbeSorterRewind    00000001800491a0 f   sqlite.obj
 0001:00048230       sqlite3VdbeSorterNext      0000000180049230 f   sqlite.obj
 0001:000482e0       sqlite3VdbeSorterRowkey    00000001800492e0 f   sqlite.obj
 0001:000483b0       sqlite3VdbeSorterCompare   00000001800493b0 f   sqlite.obj
 0001:000484b0       memjrnlRead                00000001800494b0 f   sqlite.obj
 0001:000485b0       memjrnlFreeChunks          00000001800495b0 f   sqlite.obj
 0001:00048650       memjrnlWrite               0000000180049650 f   sqlite.obj
 0001:000489a0       memjrnlTruncate            00000001800499a0 f   sqlite.obj
 0001:00048a30       memjrnlClose               0000000180049a30 f   sqlite.obj
 0001:00048a50       memjrnlFileSize            0000000180049a50 f   sqlite.obj
 0001:00048a60       sqlite3JournalOpen         0000000180049a60 f   sqlite.obj
 0001:00048ad0       walkWindowList             0000000180049ad0 f   sqlite.obj
 0001:00048be0       sqlite3WalkExprNN          0000000180049be0 f   sqlite.obj
 0001:00048cb0       sqlite3WalkExprList        0000000180049cb0 f   sqlite.obj
 0001:00048d20       sqlite3WalkSelect          0000000180049d20 f   sqlite.obj
 0001:00048f80       sqlite3WalkerDepthIncrease 0000000180049f80 f   sqlite.obj
 0001:00048f90       sqlite3WalkerDepthDecrease 0000000180049f90 f   sqlite.obj
 0001:00048fa0       incrAggDepth               0000000180049fa0 f   sqlite.obj
 0001:00048fb0       resolveAlias               0000000180049fb0 f   sqlite.obj
 0001:00049160       sqlite3MatchEName          000000018004a160 f   sqlite.obj
 0001:00049360       sqlite3ExprColUsed         000000018004a360 f   sqlite.obj
 0001:000493c0       extendFJMatch              000000018004a3c0 f   sqlite.obj
 0001:000494c0       isValidSchemaTableName     000000018004a4c0 f   sqlite.obj
 0001:00049640       lookupName                 000000018004a640 f   sqlite.obj
 0001:0004aac0       sqlite3CreateColumnExpr    000000018004bac0 f   sqlite.obj
 0001:0004abd0       resolveExprStep            000000018004bbd0 f   sqlite.obj
 0001:0004bb64       $LN788                     000000018004cb64     sqlite.obj
 0001:0004bb88       $LN787                     000000018004cb88     sqlite.obj
 0001:0004bc30       resolveAsName              000000018004cc30 f   sqlite.obj
 0001:0004bce0       resolveOrderByTermToExprList 000000018004cce0 f   sqlite.obj
 0001:0004be60       sqlite3ResolveOrderGroupBy 000000018004ce60 f   sqlite.obj
 0001:0004bf50       resolveRemoveWindowsCb     000000018004cf50 f   sqlite.obj
 0001:0004bf90       resolveOrderGroupBy        000000018004cf90 f   sqlite.obj
 0001:0004c1f0       resolveSelectStep          000000018004d1f0 f   sqlite.obj
 0001:0004ca60       sqlite3ResolveExprNames    000000018004da60 f   sqlite.obj
 0001:0004cb60       sqlite3ResolveExprListNames 000000018004db60 f   sqlite.obj
 0001:0004ccb0       sqlite3ResolveSelfReference 000000018004dcb0 f   sqlite.obj
 0001:0004cdb0       sqlite3ExprAffinity        000000018004ddb0 f   sqlite.obj
 0001:0004ce80       sqlite3ExprDataType        000000018004de80 f   sqlite.obj
 0001:0004cf94       $LN41                      000000018004df94     sqlite.obj
 0001:0004cfb8       $LN40                      000000018004dfb8     sqlite.obj
 0001:0004d050       sqlite3ExprAddCollateToken 000000018004e050 f   sqlite.obj
 0001:0004d090       sqlite3ExprAddCollateString 000000018004e090 f   sqlite.obj
 0001:0004d180       sqlite3ExprCollSeq         000000018004e180 f   sqlite.obj
 0001:0004d390       sqlite3IndexAffinityOk     000000018004e390 f   sqlite.obj
 0001:0004d440       sqlite3ExprCompareCollSeq  000000018004e440 f   sqlite.obj
 0001:0004d4a0       codeCompare                000000018004e4a0 f   sqlite.obj
 0001:0004d6a0       sqlite3ExprIsVector        000000018004e6a0 f   sqlite.obj
 0001:0004d6f0       sqlite3ExprVectorSize      000000018004e6f0 f   sqlite.obj
 0001:0004d720       sqlite3ExprForVectorField  000000018004e720 f   sqlite.obj
 0001:0004d830       codeVectorCompare          000000018004e830 f   sqlite.obj
 0001:0004df30       heightOfSelect             000000018004ef30 f   sqlite.obj
 0001:0004e030       sqlite3ExprSetHeightAndFlags 000000018004f030 f   sqlite.obj
 0001:0004e120       sqlite3ExprSetErrorOffset  000000018004f120 f   sqlite.obj
 0001:0004e130       sqlite3ExprAlloc           000000018004f130 f   sqlite.obj
 0001:0004e2c0       sqlite3Expr                000000018004f2c0 f   sqlite.obj
 0001:0004e3d0       sqlite3ExprAttachSubtrees  000000018004f3d0 f   sqlite.obj
 0001:0004e460       sqlite3PExpr               000000018004f460 f   sqlite.obj
 0001:0004e570       sqlite3PExprAddSelect      000000018004f570 f   sqlite.obj
 0001:0004e5a0       sqlite3ExprListToValues    000000018004f5a0 f   sqlite.obj
 0001:0004e6c0       sqlite3ExprAnd             000000018004f6c0 f   sqlite.obj
 0001:0004e8e0       sqlite3ExprFunction        000000018004f8e0 f   sqlite.obj
 0001:0004e9b0       sqlite3ExprAddFunctionOrderBy 000000018004f9b0 f   sqlite.obj
 0001:0004eaa0       sqlite3ExprAssignVarNumber 000000018004faa0 f   sqlite.obj
 0001:0004ed70       sqlite3ExprDeleteNN        000000018004fd70 f   sqlite.obj
 0001:0004ee20       sqlite3ExprDelete          000000018004fe20 f   sqlite.obj
 0001:0004ee20       sqlite3ExprDeleteGeneric   000000018004fe20 f   sqlite.obj
 0001:0004ee30       sqlite3ExprDeferredDelete  000000018004fe30 f   sqlite.obj
 0001:0004eeb0       sqlite3ExprUnmapAndDelete  000000018004feb0 f   sqlite.obj
 0001:0004ef40       dupedExprSize              000000018004ff40 f   sqlite.obj
 0001:0004efe0       exprDup                    000000018004ffe0 f   sqlite.obj
 0001:0004f300       sqlite3WithDup             0000000180050300 f   sqlite.obj
 0001:0004f490       gatherSelectWindowsCallback 0000000180050490 f   sqlite.obj
 0001:0004f4c0       gatherSelectWindowsSelectCallback 00000001800504c0 f   sqlite.obj
 0001:0004f4d0       sqlite3ExprListDup         00000001800504d0 f   sqlite.obj
 0001:0004f720       sqlite3SrcListDup          0000000180050720 f   sqlite.obj
 0001:0004fa30       sqlite3IdListDup           0000000180050a30 f   sqlite.obj
 0001:0004fb60       sqlite3SelectDup           0000000180050b60 f   sqlite.obj
 0001:0004fe10       sqlite3ExprListAppendNew   0000000180050e10 f   sqlite.obj
 0001:0004fef0       sqlite3ExprListAppendGrow  0000000180050ef0 f   sqlite.obj
 0001:0004ffe0       sqlite3ExprListAppend      0000000180050fe0 f   sqlite.obj
 0001:00050030       sqlite3ExprListAppendVector 0000000180051030 f   sqlite.obj
 0001:00050250       sqlite3ExprListSetSortOrder 0000000180051250 f   sqlite.obj
 0001:00050280       sqlite3ExprListSetName     0000000180051280 f   sqlite.obj
 0001:000503a0       sqlite3ExprListSetSpan     00000001800513a0 f   sqlite.obj
 0001:000503f0       sqlite3ExprListCheckLength 00000001800513f0 f   sqlite.obj
 0001:00050420       exprListDeleteNN           0000000180051420 f   sqlite.obj
 0001:00050550       sqlite3ExprListDelete      0000000180051550 f   sqlite.obj
 0001:00050550       sqlite3ExprListDeleteGeneric 0000000180051550 f   sqlite.obj
 0001:00050560       sqlite3SelectWalkFail      0000000180051560 f   sqlite.obj
 0001:00050570       sqlite3IsTrueOrFalse       0000000180051570 f   sqlite.obj
 0001:00050600       sqlite3ExprIdToTrueFalse   0000000180051600 f   sqlite.obj
 0001:00050650       sqlite3ExprSimplifiedAndOr 0000000180051650 f   sqlite.obj
 0001:00050710       exprNodeIsConstant         0000000180051710 f   sqlite.obj
 0001:0005080c       $LN34                      000000018005180c     sqlite.obj
 0001:00050824       $LN33                      0000000180051824     sqlite.obj
 0001:000508a0       sqlite3ExprIsConstant      00000001800518a0 f   sqlite.obj
 0001:00050900       sqlite3ExprIsSingleTableConstraint 0000000180051900 f   sqlite.obj
 0001:000509d0       exprNodeIsConstantOrGroupBy 00000001800519d0 f   sqlite.obj
 0001:00050ab0       sqlite3ExprIsInteger       0000000180051ab0 f   sqlite.obj
 0001:00050b50       sqlite3ExprCanBeNull       0000000180051b50 f   sqlite.obj
 0001:00050bd0       sqlite3ExprNeedsNoAffinityChange 0000000180051bd0 f   sqlite.obj
 0001:00050c70       sqlite3IsRowid             0000000180051c70 f   sqlite.obj
 0001:00050d30       sqlite3RowidAlias          0000000180051d30 f   sqlite.obj
 0001:00050e60       sqlite3SetHasNullFlag      0000000180051e60 f   sqlite.obj
 0001:00050ff0       sqlite3FindInIndex         0000000180051ff0 f   sqlite.obj
 0001:00051a60       exprINAffinity             0000000180052a60 f   sqlite.obj
 0001:00051bd0       sqlite3CodeRhsOfIN         0000000180052bd0 f   sqlite.obj
 0001:00052490       sqlite3CodeSubselect       0000000180053490 f   sqlite.obj
 0001:000529a0       sqlite3ExprCheckIN         00000001800539a0 f   sqlite.obj
 0001:00052a90       sqlite3ExprCodeIN          0000000180053a90 f   sqlite.obj
 0001:00053db0       codeReal                   0000000180054db0 f   sqlite.obj
 0001:00053f20       codeInteger                0000000180054f20 f   sqlite.obj
 0001:000541b0       sqlite3ExprCodeLoadIndexColumn 00000001800551b0 f   sqlite.obj
 0001:00054260       sqlite3ExprCodeGeneratedColumn 0000000180055260 f   sqlite.obj
 0001:00054470       sqlite3ExprCodeGetColumnOfTable 0000000180055470 f   sqlite.obj
 0001:00054650       sqlite3ExprCodeMove        0000000180055650 f   sqlite.obj
 0001:000546c0       exprCodeVector             00000001800556c0 f   sqlite.obj
 0001:00054890       setDoNotMergeFlagOnCopy    0000000180055890 f   sqlite.obj
 0001:000548f0       exprCodeInlineFunction     00000001800558f0 f   sqlite.obj
 0001:00054c00       $LN66                      0000000180055c00     sqlite.obj
 0001:00054c20       sqlite3IndexedExprLookup   0000000180055c20 f   sqlite.obj
 0001:00054dc0       exprPartidxExprLookup      0000000180055dc0 f   sqlite.obj
 0001:00054fb0       sqlite3ExprCodeTarget      0000000180055fb0 f   sqlite.obj
 0001:00056350       $LN552                     0000000180057350     sqlite.obj
 0001:000563cc       $LN551                     00000001800573cc     sqlite.obj
 0001:00056470       sqlite3ExprCodeRunJustOnce 0000000180057470 f   sqlite.obj
 0001:00056690       sqlite3ExprCodeTemp        0000000180057690 f   sqlite.obj
 0001:000567c0       sqlite3ExprCode            00000001800577c0 f   sqlite.obj
 0001:00056850       sqlite3ExprCodeExprList    0000000180057850 f   sqlite.obj
 0001:00056b00       exprCodeBetween            0000000180057b00 f   sqlite.obj
 0001:00056cb0       sqlite3ExprIfTrue          0000000180057cb0 f   sqlite.obj
 0001:00056ffc       $LN115                     0000000180057ffc     sqlite.obj
 0001:00057020       $LN114                     0000000180058020     sqlite.obj
 0001:000570c0       sqlite3ExprIfFalse         00000001800580c0 f   sqlite.obj
 0001:00057414       $LN61                      0000000180058414     sqlite.obj
 0001:00057438       $LN60                      0000000180058438     sqlite.obj
 0001:000574e0       exprCompareVariable        00000001800584e0 f   sqlite.obj
 0001:000576f0       sqlite3ExprCompare         00000001800586f0 f   sqlite.obj
 0001:000579b0       sqlite3ExprListCompare     00000001800589b0 f   sqlite.obj
 0001:00057a50       exprImpliesNotNull         0000000180058a50 f   sqlite.obj
 0001:00057b8c       $LN52                      0000000180058b8c     sqlite.obj
 0001:00057bac       $LN51                      0000000180058bac     sqlite.obj
 0001:00057c50       sqlite3ExprImpliesExpr     0000000180058c50 f   sqlite.obj
 0001:00057cf0       impliesNotNullRow          0000000180058cf0 f   sqlite.obj
 0001:00057e98       $LN65                      0000000180058e98     sqlite.obj
 0001:00057eb4       $LN64                      0000000180058eb4     sqlite.obj
 0001:00057f40       sqlite3ExprImpliesNonNullRow 0000000180058f40 f   sqlite.obj
 0001:00058040       exprIdxCover               0000000180059040 f   sqlite.obj
 0001:000580b0       selectRefEnter             00000001800590b0 f   sqlite.obj
 0001:000581a0       selectRefLeave             00000001800591a0 f   sqlite.obj
 0001:000581c0       exprRefToSrcList           00000001800591c0 f   sqlite.obj
 0001:00058260       agginfoPersistExprCb       0000000180059260 f   sqlite.obj
 0001:00058330       findOrCreateAggInfoColumn  0000000180059330 f   sqlite.obj
 0001:00058500       analyzeAggregate           0000000180059500 f   sqlite.obj
 0001:000588e0       sqlite3ExprAnalyzeAggList  00000001800598e0 f   sqlite.obj
 0001:000589b0       sqlite3GetTempRange        00000001800599b0 f   sqlite.obj
 0001:00058a10       isAlterableTable           0000000180059a10 f   sqlite.obj
 0001:00058b00       renameTestSchema           0000000180059b00 f   sqlite.obj
 0001:00058b90       renameFixQuotes            0000000180059b90 f   sqlite.obj
 0001:00058bd0       renameReloadSchema         0000000180059bd0 f   sqlite.obj
 0001:00058c30       sqlite3AlterRenameTable    0000000180059c30 f   sqlite.obj
 0001:00059120       sqlite3AlterFinishAddColumn 000000018005a120 f   sqlite.obj
 0001:00059660       sqlite3AlterBeginAddColumn 000000018005a660 f   sqlite.obj
 0001:000599b0       sqlite3AlterRenameColumn   000000018005a9b0 f   sqlite.obj
 0001:00059d80       sqlite3RenameTokenMap      000000018005ad80 f   sqlite.obj
 0001:00059e10       sqlite3RenameTokenRemap    000000018005ae10 f   sqlite.obj
 0001:00059e40       renameUnmapExprCb          000000018005ae40 f   sqlite.obj
 0001:00059ea0       renameWalkWith             000000018005aea0 f   sqlite.obj
 0001:00059ff0       renameUnmapSelectCb        000000018005aff0 f   sqlite.obj
 0001:0005a180       sqlite3RenameExprlistUnmap 000000018005b180 f   sqlite.obj
 0001:0005a250       renameTokenFree            000000018005b250 f   sqlite.obj
 0001:0005a350       renameColumnSelectCb       000000018005b350 f   sqlite.obj
 0001:0005a380       renameColumnExprCb         000000018005b380 f   sqlite.obj
 0001:0005a440       renameColumnParseError     000000018005b440 f   sqlite.obj
 0001:0005a580       renameParseSql             000000018005b580 f   sqlite.obj
 0001:0005a6f0       renameEditSql              000000018005b6f0 f   sqlite.obj
 0001:0005ac40       renameResolveTrigger       000000018005bc40 f   sqlite.obj
 0001:0005b0a0       renameWalkTrigger          000000018005c0a0 f   sqlite.obj
 0001:0005b220       renameParseCleanup         000000018005c220 f   sqlite.obj
 0001:0005b6a0       renameColumnFunc           000000018005c6a0 f   sqlite.obj
 0001:0005c4f0       renameTableExprCb          000000018005d4f0 f   sqlite.obj
 0001:0005c560       renameTableSelectCb        000000018005d560 f   sqlite.obj
 0001:0005c640       renameTableFunc            000000018005d640 f   sqlite.obj
 0001:0005cf60       renameQuotefixExprCb       000000018005df60 f   sqlite.obj
 0001:0005cfc0       renameQuotefixFunc         000000018005dfc0 f   sqlite.obj
 0001:0005d360       renameTableTest            000000018005e360 f   sqlite.obj
 0001:0005d740       dropColumnFunc             000000018005e740 f   sqlite.obj
 0001:0005da70       sqlite3AlterDropColumn     000000018005ea70 f   sqlite.obj
 0001:0005e0d0       openStatTable              000000018005f0d0 f   sqlite.obj
 0001:0005e3d0       statAccumDestructor        000000018005f3d0 f   sqlite.obj
 0001:0005e3f0       statInit                   000000018005f3f0 f   sqlite.obj
 0001:0005e680       statPush                   000000018005f680 f   sqlite.obj
 0001:0005e7c0       statGet                    000000018005f7c0 f   sqlite.obj
 0001:0005ea80       analyzeOneTable            000000018005fa80 f   sqlite.obj
 0001:0005fa90       loadAnalysis               0000000180060a90 f   sqlite.obj
 0001:0005fb30       analyzeDatabase            0000000180060b30 f   sqlite.obj
 0001:0005fc30       analyzeTable               0000000180060c30 f   sqlite.obj
 0001:0005fd40       sqlite3Analyze             0000000180060d40 f   sqlite.obj
 0001:0005feb0       decodeIntArray             0000000180060eb0 f   sqlite.obj
 0001:000600f0       analysisLoader             00000001800610f0 f   sqlite.obj
 0001:00060260       sqlite3AnalysisLoad        0000000180061260 f   sqlite.obj
 0001:000604e0       sqlite3DbIsNamed           00000001800614e0 f   sqlite.obj
 0001:00060590       attachFunc                 0000000180061590 f   sqlite.obj
 0001:00060f70       detachFunc                 0000000180061f70 f   sqlite.obj
 0001:00061150       codeAttach                 0000000180062150 f   sqlite.obj
 0001:000613b0       sqlite3Detach              00000001800623b0 f   sqlite.obj
 0001:00061620       sqlite3Attach              0000000180062620 f   sqlite.obj
 0001:00061650       fixExprCb                  0000000180062650 f   sqlite.obj
 0001:000616a0       fixSelectCb                00000001800626a0 f   sqlite.obj
 0001:00061810       sqlite3FixTriggerStep      0000000180062810 f   sqlite.obj
 0001:00061a90       sqlite3AuthReadCol         0000000180062a90 f   sqlite.obj
 0001:00061ba0       sqlite3AuthCheck           0000000180062ba0 f   sqlite.obj
 0001:00061c60       lockTable                  0000000180062c60 f   sqlite.obj
 0001:00061e00       sqlite3FinishCoding        0000000180062e00 f   sqlite.obj
 0001:00062530       sqlite3NestedParse         0000000180063530 f   sqlite.obj
 0001:00062700       sqlite3FindTable           0000000180063700 f   sqlite.obj
 0001:00062d60       sqlite3LocateTable         0000000180063d60 f   sqlite.obj
 0001:00062f10       sqlite3LocateTableItem     0000000180063f10 f   sqlite.obj
 0001:00062f60       sqlite3FindIndex           0000000180063f60 f   sqlite.obj
 0001:00063080       sqlite3FreeIndex           0000000180064080 f   sqlite.obj
 0001:000630f0       sqlite3UnlinkAndDeleteIndex 00000001800640f0 f   sqlite.obj
 0001:00063190       sqlite3CollapseDatabaseArray 0000000180064190 f   sqlite.obj
 0001:000632b0       sqlite3ResetOneSchema      00000001800642b0 f   sqlite.obj
 0001:00063330       sqlite3ResetAllSchemasOfConnection 0000000180064330 f   sqlite.obj
 0001:000633d0       sqlite3ColumnSetExpr       00000001800643d0 f   sqlite.obj
 0001:000634c0       sqlite3ColumnSetColl       00000001800644c0 f   sqlite.obj
 0001:000635f0       sqlite3DeleteColumnNames   00000001800645f0 f   sqlite.obj
 0001:00063760       deleteTable                0000000180064760 f   sqlite.obj
 0001:00063db0       sqlite3DeleteTableGeneric  0000000180064db0 f   sqlite.obj
 0001:00063dd0       sqlite3UnlinkAndDeleteTable 0000000180064dd0 f   sqlite.obj
 0001:00063e30       sqlite3NameFromToken       0000000180064e30 f   sqlite.obj
 0001:00063f10       sqlite3FindDbName          0000000180064f10 f   sqlite.obj
 0001:00063ff0       sqlite3FindDb              0000000180064ff0 f   sqlite.obj
 0001:00064040       sqlite3TwoPartName         0000000180065040 f   sqlite.obj
 0001:00064100       sqlite3WritableSchema      0000000180065100 f   sqlite.obj
 0001:00064120       sqlite3CheckObjectName     0000000180065120 f   sqlite.obj
 0001:00064360       sqlite3PrimaryKeyIndex     0000000180065360 f   sqlite.obj
 0001:00064390       sqlite3TableColumnToStorage 0000000180065390 f   sqlite.obj
 0001:00064410       sqlite3ForceNotReadOnly    0000000180065410 f   sqlite.obj
 0001:000644d0       sqlite3StartTable          00000001800654d0 f   sqlite.obj
 0001:00064b90       sqlite3DeleteReturning     0000000180065b90 f   sqlite.obj
 0001:00064bf0       sqlite3AddReturning        0000000180065bf0 f   sqlite.obj
 0001:00064dc0       sqlite3AddColumn           0000000180065dc0 f   sqlite.obj
 0001:00065500       sqlite3AddNotNull          0000000180066500 f   sqlite.obj
 0001:00065570       sqlite3AffinityType        0000000180066570 f   sqlite.obj
 0001:000656d0       sqlite3AddDefaultValue     00000001800666d0 f   sqlite.obj
 0001:00065a00       sqlite3AddPrimaryKey       0000000180066a00 f   sqlite.obj
 0001:00065d10       sqlite3AddCheckConstraint  0000000180066d10 f   sqlite.obj
 0001:00065e80       sqlite3AddCollateType      0000000180066e80 f   sqlite.obj
 0001:00065fa0       sqlite3AddGenerated        0000000180066fa0 f   sqlite.obj
 0001:00066220       sqlite3ChangeCookie        0000000180067220 f   sqlite.obj
 0001:000662b0       identPut                   00000001800672b0 f   sqlite.obj
 0001:000663b0       createTableStmt            00000001800673b0 f   sqlite.obj
 0001:00066610       resizeIndexObject          0000000180067610 f   sqlite.obj
 0001:00066710       estimateIndexWidth         0000000180067710 f   sqlite.obj
 0001:000667f0       isDupColumn                00000001800677f0 f   sqlite.obj
 0001:000668a0       recomputeColumnsNotIndexed 00000001800678a0 f   sqlite.obj
 0001:00066900       convertToWithoutRowidTable 0000000180067900 f   sqlite.obj
 0001:00066e90       sqlite3IsShadowTableOf     0000000180067e90 f   sqlite.obj
 0001:00066fb0       sqlite3ShadowTableName     0000000180067fb0 f   sqlite.obj
 0001:00067030       sqlite3EndTable            0000000180068030 f   sqlite.obj
 0001:00067b50       sqlite3CreateView          0000000180068b50 f   sqlite.obj
 0001:00067e20       viewGetColumnNames         0000000180068e20 f   sqlite.obj
 0001:00068230       sqliteViewResetAll         0000000180069230 f   sqlite.obj
 0001:00068420       sqlite3RootPageMoved       0000000180069420 f   sqlite.obj
 0001:00068480       destroyRootPage            0000000180069480 f   sqlite.obj
 0001:000685d0       sqlite3ClearStatTables     00000001800695d0 f   sqlite.obj
 0001:00068680       sqlite3CodeDropTable       0000000180069680 f   sqlite.obj
 0001:000689e0       sqlite3ReadOnlyShadowTables 00000001800699e0 f   sqlite.obj
 0001:00068a20       tableMayNotBeDropped       0000000180069a20 f   sqlite.obj
 0001:00068bc0       sqlite3DropTable           0000000180069bc0 f   sqlite.obj
 0001:00068e90       sqlite3CreateForeignKey    0000000180069e90 f   sqlite.obj
 0001:00069430       sqlite3RefillIndex         000000018006a430 f   sqlite.obj
 0001:00069af0       sqlite3AllocateIndexObject 000000018006aaf0 f   sqlite.obj
 0001:00069bc0       sqlite3HasExplicitNulls    000000018006abc0 f   sqlite.obj
 0001:00069c40       sqlite3CreateIndex         000000018006ac40 f   sqlite.obj
 0001:0006af20       sqlite3DefaultRowEst       000000018006bf20 f   sqlite.obj
 0001:0006afe0       sqlite3DropIndex           000000018006bfe0 f   sqlite.obj
 0001:0006b210       sqlite3IdListAppend        000000018006c210 f   sqlite.obj
 0001:0006b330       sqlite3IdListDelete        000000018006c330 f   sqlite.obj
 0001:0006b470       sqlite3IdListIndex         000000018006c470 f   sqlite.obj
 0001:0006b510       sqlite3SrcListEnlarge      000000018006c510 f   sqlite.obj
 0001:0006b6d0       sqlite3SrcListAppend       000000018006c6d0 f   sqlite.obj
 0001:0006b7e0       sqlite3SrcListAssignCursors 000000018006c7e0 f   sqlite.obj
 0001:0006b860       sqlite3SrcListDelete       000000018006c860 f   sqlite.obj
 0001:0006b980       sqlite3SrcListAppendFromTerm 000000018006c980 f   sqlite.obj
 0001:0006bbe0       sqlite3SrcListIndexedBy    000000018006cbe0 f   sqlite.obj
 0001:0006bc40       sqlite3SrcListAppendList   000000018006cc40 f   sqlite.obj
 0001:0006bcf0       sqlite3SrcListFuncArgs     000000018006ccf0 f   sqlite.obj
 0001:0006bd20       sqlite3SrcListShiftJoinType 000000018006cd20 f   sqlite.obj
 0001:0006bdc0       sqlite3BeginTransaction    000000018006cdc0 f   sqlite.obj
 0001:0006bf80       sqlite3EndTransaction      000000018006cf80 f   sqlite.obj
 0001:0006c070       sqlite3Savepoint           000000018006d070 f   sqlite.obj
 0001:0006c1d0       sqlite3OpenTempDatabase    000000018006d1d0 f   sqlite.obj
 0001:0006c2a0       sqlite3CodeVerifyNamedSchema 000000018006d2a0 f   sqlite.obj
 0001:0006c370       sqlite3BeginWriteOperation 000000018006d370 f   sqlite.obj
 0001:0006c3e0       sqlite3HaltConstraint      000000018006d3e0 f   sqlite.obj
 0001:0006c4b0       sqlite3UniqueConstraint    000000018006d4b0 f   sqlite.obj
 0001:0006c700       sqlite3RowidConstraint     000000018006d700 f   sqlite.obj
 0001:0006c780       reindexTable               000000018006d780 f   sqlite.obj
 0001:0006c910       reindexDatabases           000000018006d910 f   sqlite.obj
 0001:0006cb10       sqlite3Reindex             000000018006db10 f   sqlite.obj
 0001:0006ccf0       sqlite3KeyInfoOfIndex      000000018006dcf0 f   sqlite.obj
 0001:0006ce00       sqlite3CteNew              000000018006de00 f   sqlite.obj
 0001:0006ced0       sqlite3WithAdd             000000018006ded0 f   sqlite.obj
 0001:0006d0c0       sqlite3WithDelete          000000018006e0c0 f   sqlite.obj
 0001:0006d0c0       sqlite3WithDeleteGeneric   000000018006e0c0 f   sqlite.obj
 0001:0006d160       sqlite3FindCollSeq         000000018006e160 f   sqlite.obj
 0001:0006d2b0       sqlite3SetTextEncoding     000000018006e2b0 f   sqlite.obj
 0001:0006d330       sqlite3GetCollSeq          000000018006e330 f   sqlite.obj
 0001:0006d5e0       sqlite3LocateCollSeq       000000018006e5e0 f   sqlite.obj
 0001:0006d650       sqlite3FunctionSearch      000000018006e650 f   sqlite.obj
 0001:0006d6d0       sqlite3InsertBuiltinFuncs  000000018006e6d0 f   sqlite.obj
 0001:0006d800       sqlite3FindFunction        000000018006e800 f   sqlite.obj
 0001:0006daa0       sqlite3SchemaClear         000000018006eaa0 f   sqlite.obj
 0001:0006dea0       sqlite3SchemaGet           000000018006eea0 f   sqlite.obj
 0001:0006dfe0       sqlite3SrcListLookup       000000018006efe0 f   sqlite.obj
 0001:0006e0b0       sqlite3CodeChangeCount     000000018006f0b0 f   sqlite.obj
 0001:0006e1c0       sqlite3IsReadOnly          000000018006f1c0 f   sqlite.obj
 0001:0006e340       sqlite3MaterializeView     000000018006f340 f   sqlite.obj
 0001:0006e5a0       sqlite3DeleteFrom          000000018006f5a0 f   sqlite.obj
 0001:0006f2e0       sqlite3GenerateRowDelete   00000001800702e0 f   sqlite.obj
 0001:0006f9d0       sqlite3GenerateRowIndexDelete 00000001800709d0 f   sqlite.obj
 0001:0006fbb0       sqlite3GenerateIndexKey    0000000180070bb0 f   sqlite.obj
 0001:0006fe80       minmaxFunc                 0000000180070e80 f   sqlite.obj
 0001:0006ff80       typeofFunc                 0000000180070f80 f   sqlite.obj
 0001:0006ffd0       subtypeFunc                0000000180070fd0 f   sqlite.obj
 0001:00070010       lengthFunc                 0000000180071010 f   sqlite.obj
 0001:00070190       bytelengthFunc             0000000180071190 f   sqlite.obj
 0001:00070330       absFunc                    0000000180071330 f   sqlite.obj
 0001:000704d0       instrFunc                  00000001800714d0 f   sqlite.obj
 0001:00070840       printfFunc                 0000000180071840 f   sqlite.obj
 0001:00070970       substrFunc                 0000000180071970 f   sqlite.obj
 0001:00070c70       roundFunc                  0000000180071c70 f   sqlite.obj
 0001:00070df0       contextMalloc              0000000180071df0 f   sqlite.obj
 0001:00070ea0       upperFunc                  0000000180071ea0 f   sqlite.obj
 0001:00070fb0       lowerFunc                  0000000180071fb0 f   sqlite.obj
 0001:000710d0       randomFunc                 00000001800720d0 f   sqlite.obj
 0001:00071130       randomBlob                 0000000180072130 f   sqlite.obj
 0001:00071200       last_insert_rowid          0000000180072200 f   sqlite.obj
 0001:00071230       changes                    0000000180072230 f   sqlite.obj
 0001:00071260       total_changes              0000000180072260 f   sqlite.obj
 0001:000712a0       patternCompare             00000001800722a0 f   sqlite.obj
 0001:00071700       likeFunc                   0000000180072700 f   sqlite.obj
 0001:000719a0       nullifFunc                 00000001800729a0 f   sqlite.obj
 0001:000719f0       versionFunc                00000001800729f0 f   sqlite.obj
 0001:00071a20       sourceidFunc               0000000180072a20 f   sqlite.obj
 0001:00071a50       errlogFunc                 0000000180072a50 f   sqlite.obj
 0001:00071b30       compileoptionusedFunc      0000000180072b30 f   sqlite.obj
 0001:00071bb0       compileoptiongetFunc       0000000180072bb0 f   sqlite.obj
 0001:00071c60       sqlite3QuoteValue          0000000180072c60 f   sqlite.obj
 0001:00071f10       quoteFunc                  0000000180072f10 f   sqlite.obj
 0001:00071ff0       unicodeFunc                0000000180072ff0 f   sqlite.obj
 0001:00072080       charFunc                   0000000180073080 f   sqlite.obj
 0001:000723a0       hexFunc                    00000001800733a0 f   sqlite.obj
 0001:00072550       unhexFunc                  0000000180073550 f   sqlite.obj
 0001:00072930       zeroblobFunc               0000000180073930 f   sqlite.obj
 0001:000729d0       replaceFunc                00000001800739d0 f   sqlite.obj
 0001:00072dc0       trimFunc                   0000000180073dc0 f   sqlite.obj
 0001:00073170       concatFuncCore             0000000180074170 f   sqlite.obj
 0001:000735a0       concatFunc                 00000001800745a0 f   sqlite.obj
 0001:000735c0       concatwsFunc               00000001800745c0 f   sqlite.obj
 0001:00073690       loadExt                    0000000180074690 f   sqlite.obj
 0001:00073930       kahanBabuskaNeumaierStep   0000000180074930 f   sqlite.obj
 0001:000739d0       kahanBabuskaNeumaierStepInt64 00000001800749d0 f   sqlite.obj
 0001:00073a30       kahanBabuskaNeumaierInit   0000000180074a30 f   sqlite.obj
 0001:00073aa0       sumStep                    0000000180074aa0 f   sqlite.obj
 0001:00073c20       sumInverse                 0000000180074c20 f   sqlite.obj
 0001:00073d50       sumFinalize                0000000180074d50 f   sqlite.obj
 0001:00073e60       avgFinalize                0000000180074e60 f   sqlite.obj
 0001:00073f00       totalFinalize              0000000180074f00 f   sqlite.obj
 0001:00073fa0       countStep                  0000000180074fa0 f   sqlite.obj
 0001:00074000       countFinalize              0000000180075000 f   sqlite.obj
 0001:00074060       countInverse               0000000180075060 f   sqlite.obj
 0001:000740c0       minmaxStep                 00000001800750c0 f   sqlite.obj
 0001:000741e0       minMaxValue                00000001800751e0 f   sqlite.obj
 0001:00074230       minMaxFinalize             0000000180075230 f   sqlite.obj
 0001:000742a0       groupConcatStep            00000001800752a0 f   sqlite.obj
 0001:000745c0       groupConcatInverse         00000001800755c0 f   sqlite.obj
 0001:00074700       groupConcatFinalize        0000000180075700 f   sqlite.obj
 0001:000747b0       groupConcatValue           00000001800757b0 f   sqlite.obj
 0001:00074860       signFunc                   0000000180075860 f   sqlite.obj
 0001:00074940       sqlite3FkLocateIndex       0000000180075940 f   sqlite.obj
 0001:00074c90       fkLookupParent             0000000180075c90 f   sqlite.obj
 0001:00075920       exprTableRegister          0000000180076920 f   sqlite.obj
 0001:00075a10       fkScanChildren             0000000180076a10 f   sqlite.obj
 0001:00076860       fkTriggerDelete            0000000180077860 f   sqlite.obj
 0001:000768e0       sqlite3FkClearTriggerCache 00000001800778e0 f   sqlite.obj
 0001:00076ba0       sqlite3FkDropTable         0000000180077ba0 f   sqlite.obj
 0001:00076dc0       fkParentIsModified         0000000180077dc0 f   sqlite.obj
 0001:00076ee0       sqlite3FkCheck             0000000180077ee0 f   sqlite.obj
 0001:00077910       sqlite3FkOldmask           0000000180078910 f   sqlite.obj
 0001:00077a40       sqlite3FkRequired          0000000180078a40 f   sqlite.obj
 0001:00077c00       fkActionTrigger            0000000180078c00 f   sqlite.obj
 0001:00079020       sqlite3FkActions           000000018007a020 f   sqlite.obj
 0001:00079110       sqlite3FkDelete            000000018007a110 f   sqlite.obj
 0001:00079340       sqlite3OpenTable           000000018007a340 f   sqlite.obj
 0001:00079520       computeIndexAffStr         000000018007a520 f   sqlite.obj
 0001:00079620       sqlite3TableAffinity       000000018007a620 f   sqlite.obj
 0001:00079830       exprColumnFlagUnion        000000018007a830 f   sqlite.obj
 0001:00079860       sqlite3ComputeGeneratedColumns 000000018007a860 f   sqlite.obj
 0001:00079b20       autoIncBegin               000000018007ab20 f   sqlite.obj
 0001:00079c40       sqlite3AutoincrementBegin  000000018007ac40 f   sqlite.obj
 0001:00079f10       autoIncStep                000000018007af10 f   sqlite.obj
 0001:00079f80       autoIncrementEnd           000000018007af80 f   sqlite.obj
 0001:0007a190       sqlite3Insert              000000018007b190 f   sqlite.obj
 0001:0007bb10       checkConstraintExprNode    000000018007cb10 f   sqlite.obj
 0001:0007bb40       sqlite3GenerateConstraintChecks 000000018007cb40 f   sqlite.obj
 0001:0007e30c       $LN1232                    000000018007f30c     sqlite.obj
 0001:0007e330       sqlite3CompleteInsertion   000000018007f330 f   sqlite.obj
 0001:0007e610       sqlite3OpenTableAndIndices 000000018007f610 f   sqlite.obj
 0001:0007e8e0       xferCompatibleIndex        000000018007f8e0 f   sqlite.obj
 0001:0007ea40       xferOptimization           000000018007fa40 f   sqlite.obj
 0001:00080490       sqlite3LoadExtension       0000000180081490 f   sqlite.obj
 0001:00080e60       getSafetyLevel             0000000180081e60 f   sqlite.obj
 0001:00080fa0       invalidateTempStorage      0000000180081fa0 f   sqlite.obj
 0001:00081000       setPragmaResultColumnNames 0000000180082000 f   sqlite.obj
 0001:000810f0       returnSingleInt            00000001800820f0 f   sqlite.obj
 0001:00081250       returnSingleText           0000000180082250 f   sqlite.obj
 0001:000812e0       setAllPagerFlags           00000001800822e0 f   sqlite.obj
 0001:000813a0       sqlite3JournalModename     00000001800823a0 f   sqlite.obj
 0001:000813c0       pragmaLocate               00000001800823c0 f   sqlite.obj
 0001:000814b0       pragmaFunclistLine         00000001800824b0 f   sqlite.obj
 0001:000815b0       integrityCheckResultRow    00000001800825b0 f   sqlite.obj
 0001:00081700       sqlite3Pragma              0000000180082700 f   sqlite.obj
 0001:00086264       $LN2380                    0000000180087264     sqlite.obj
 0001:00086310       pragmaVtabConnect          0000000180087310 f   sqlite.obj
 0001:000865f0       pragmaVtabDisconnect       00000001800875f0 f   sqlite.obj
 0001:00086670       pragmaVtabBestIndex        0000000180087670 f   sqlite.obj
 0001:00086760       pragmaVtabOpen             0000000180087760 f   sqlite.obj
 0001:000867c0       pragmaVtabCursorClear      00000001800877c0 f   sqlite.obj
 0001:00086880       pragmaVtabClose            0000000180087880 f   sqlite.obj
 0001:00086900       pragmaVtabNext             0000000180087900 f   sqlite.obj
 0001:00086950       pragmaVtabFilter           0000000180087950 f   sqlite.obj
 0001:00086c30       pragmaVtabEof              0000000180087c30 f   sqlite.obj
 0001:00086c40       pragmaVtabColumn           0000000180087c40 f   sqlite.obj
 0001:00086cb0       pragmaVtabRowid            0000000180087cb0 f   sqlite.obj
 0001:00086cc0       corruptSchema              0000000180087cc0 f   sqlite.obj
 0001:00086dd0       sqlite3InitCallback        0000000180087dd0 f   sqlite.obj
 0001:000870d0       sqlite3InitOne             00000001800880d0 f   sqlite.obj
 0001:000875a0       sqlite3Init                00000001800885a0 f   sqlite.obj
 0001:00087670       sqlite3ReadSchema          0000000180088670 f   sqlite.obj
 0001:000876d0       schemaIsValid              00000001800886d0 f   sqlite.obj
 0001:00087850       sqlite3ParseObjectReset    0000000180088850 f   sqlite.obj
 0001:000879d0       sqlite3ParserAddCleanup    00000001800889d0 f   sqlite.obj
 0001:00087a60       sqlite3ParseObjectInit     0000000180088a60 f   sqlite.obj
 0001:00087b00       sqlite3Prepare             0000000180088b00 f   sqlite.obj
 0001:00088060       sqlite3LockAndPrepare      0000000180089060 f   sqlite.obj
 0001:00088240       sqlite3Reprepare           0000000180089240 f   sqlite.obj
 0001:00088590       sqlite3Prepare16           0000000180089590 f   sqlite.obj
 0001:000887d0       clearSelect                00000001800897d0 f   sqlite.obj
 0001:00088b00       sqlite3SelectNew           0000000180089b00 f   sqlite.obj
 0001:00089250       sqlite3SelectDelete        000000018008a250 f   sqlite.obj
 0001:00089250       sqlite3SelectDeleteGeneric 000000018008a250 f   sqlite.obj
 0001:00089270       sqlite3JoinType            000000018008a270 f   sqlite.obj
 0001:00089470       sqlite3ColumnIndex         000000018008a470 f   sqlite.obj
 0001:00089530       sqlite3SetJoinExpr         000000018008a530 f   sqlite.obj
 0001:000895e0       unsetJoinExpr              000000018008a5e0 f   sqlite.obj
 0001:000896d0       sqlite3ProcessJoin         000000018008a6d0 f   sqlite.obj
 0001:0008a570       makeSorterRecord           000000018008b570 f   sqlite.obj
 0001:0008a630       pushOntoSorter             000000018008b630 f   sqlite.obj
 0001:0008ace0       codeOffset                 000000018008bce0 f   sqlite.obj
 0001:0008ad60       codeDistinct               000000018008bd60 f   sqlite.obj
 0001:0008b160       fixDistinctOpenEph         000000018008c160 f   sqlite.obj
 0001:0008b250       selectInnerLoop            000000018008c250 f   sqlite.obj
 0001:0008be8c       $LN198                     000000018008ce8c     sqlite.obj
 0001:0008bed0       sqlite3KeyInfoAlloc        000000018008ced0 f   sqlite.obj
 0001:0008bf80       sqlite3KeyInfoFromExprList 000000018008cf80 f   sqlite.obj
 0001:0008c040       sqlite3SelectOpName        000000018008d040 f   sqlite.obj
 0001:0008c080       generateSortTail           000000018008d080 f   sqlite.obj
 0001:0008ccc0       columnTypeImpl             000000018008dcc0 f   sqlite.obj
 0001:0008ce40       sqlite3GenerateColumnNames 000000018008de40 f   sqlite.obj
 0001:0008d1a0       sqlite3ColumnsFromExprList 000000018008e1a0 f   sqlite.obj
 0001:0008dcb0       sqlite3SubqueryColumnTypes 000000018008ecb0 f   sqlite.obj
 0001:0008e020       sqlite3ResultSetOfSelect   000000018008f020 f   sqlite.obj
 0001:0008e150       computeLimitRegisters      000000018008f150 f   sqlite.obj
 0001:0008e300       multiSelectCollSeq         000000018008f300 f   sqlite.obj
 0001:0008e370       multiSelectOrderByKeyInfo  000000018008f370 f   sqlite.obj
 0001:0008e4e0       generateWithRecursiveQuery 000000018008f4e0 f   sqlite.obj
 0001:0008ece0       multiSelect                000000018008fce0 f   sqlite.obj
 0001:0008f8c0       generateOutputSubroutine   00000001800908c0 f   sqlite.obj
 0001:0008feb0       multiSelectOrderBy         0000000180090eb0 f   sqlite.obj
 0001:00091790       substExpr                  0000000180092790 f   sqlite.obj
 0001:00091b20       substSelect                0000000180092b20 f   sqlite.obj
 0001:00091cb0       recomputeColumnsUsedExpr   0000000180092cb0 f   sqlite.obj
 0001:00091ce0       srclistRenumberCursors     0000000180092ce0 f   sqlite.obj
 0001:00091da0       renumberCursorsCb          0000000180092da0 f   sqlite.obj
 0001:00091df0       compoundHasDifferentAffinities 0000000180092df0 f   sqlite.obj
 0001:00091f90       flattenSubquery            0000000180092f90 f   sqlite.obj
 0001:00092890       constInsert                0000000180093890 f   sqlite.obj
 0001:00092a20       findConstInWhere           0000000180093a20 f   sqlite.obj
 0001:00092b70       propagateConstantExprRewriteOne 0000000180093b70 f   sqlite.obj
 0001:00092c60       propagateConstantExprRewrite 0000000180093c60 f   sqlite.obj
 0001:00092cf0       pushDownWhereTerms         0000000180093cf0 f   sqlite.obj
 0001:00093010       sqlite3IndexedByLookup     0000000180094010 f   sqlite.obj
 0001:000930c0       convertCompoundSelectToSubquery 00000001800940c0 f   sqlite.obj
 0001:00093350       sqlite3WithPush            0000000180094350 f   sqlite.obj
 0001:000933b0       resolveFromTermToCte       00000001800943b0 f   sqlite.obj
 0001:00093920       sqlite3SelectPopWith       0000000180094920 f   sqlite.obj
 0001:00093970       selectExpander             0000000180094970 f   sqlite.obj
 0001:00094e70       selectAddSubqueryTypeInfo  0000000180095e70 f   sqlite.obj
 0001:00094f00       sqlite3SelectPrep          0000000180095f00 f   sqlite.obj
 0001:00095020       analyzeAggFuncArgs         0000000180096020 f   sqlite.obj
 0001:00095120       aggregateIdxEprRefToColCallback 0000000180096120 f   sqlite.obj
 0001:00095180       resetAccumulator           0000000180096180 f   sqlite.obj
 0001:000954f0       finalizeAggFunctions       00000001800964f0 f   sqlite.obj
 0001:00095aa0       updateAccumulator          0000000180096aa0 f   sqlite.obj
 0001:00096340       havingToWhereExprCb        0000000180097340 f   sqlite.obj
 0001:00096550       isSelfJoinView             0000000180097550 f   sqlite.obj
 0001:00096650       agginfoFree                0000000180097650 f   sqlite.obj
 0001:000966a0       countOfViewOptimization    00000001800976a0 f   sqlite.obj
 0001:00096aa0       sameSrcAlias               0000000180097aa0 f   sqlite.obj
 0001:00096b80       sqlite3Select              0000000180097b80 f   sqlite.obj
 0001:00099f70       sqlite3_get_table_cb       000000018009af70 f   sqlite.obj
 0001:0009a550       sqlite3DeleteTriggerStep   000000018009b550 f   sqlite.obj
 0001:0009a790       sqlite3TriggerList         000000018009b790 f   sqlite.obj
 0001:0009a860       sqlite3BeginTrigger        000000018009b860 f   sqlite.obj
 0001:0009b0b0       sqlite3FinishTrigger       000000018009c0b0 f   sqlite.obj
 0001:0009b4c0       sqlite3TriggerSelectStep   000000018009c4c0 f   sqlite.obj
 0001:0009b5b0       triggerStepAllocate        000000018009c5b0 f   sqlite.obj
 0001:0009b720       sqlite3TriggerInsertStep   000000018009c720 f   sqlite.obj
 0001:0009be50       sqlite3TriggerUpdateStep   000000018009ce50 f   sqlite.obj
 0001:0009c600       sqlite3TriggerDeleteStep   000000018009d600 f   sqlite.obj
 0001:0009c6b0       sqlite3DropTrigger         000000018009d6b0 f   sqlite.obj
 0001:0009c880       sqlite3DropTriggerPtr      000000018009d880 f   sqlite.obj
 0001:0009ca70       sqlite3UnlinkAndDeleteTrigger 000000018009da70 f   sqlite.obj
 0001:0009cb70       checkColumnOverlap         000000018009db70 f   sqlite.obj
 0001:0009cc60       triggersReallyExist        000000018009dc60 f   sqlite.obj
 0001:0009cde0       sqlite3TriggerStepSrc      000000018009dde0 f   sqlite.obj
 0001:0009d060       sqlite3ExpandReturning     000000018009e060 f   sqlite.obj
 0001:0009d420       codeReturningTrigger       000000018009e420 f   sqlite.obj
 0001:0009d810       codeTriggerProgram         000000018009e810 f   sqlite.obj
 0001:0009dba0       codeRowTrigger             000000018009eba0 f   sqlite.obj
 0001:0009df80       getRowTrigger              000000018009ef80 f   sqlite.obj
 0001:0009dfd0       sqlite3CodeRowTriggerDirect 000000018009efd0 f   sqlite.obj
 0001:0009e190       sqlite3CodeRowTrigger      000000018009f190 f   sqlite.obj
 0001:0009e290       sqlite3TriggerColmask      000000018009f290 f   sqlite.obj
 0001:0009e370       sqlite3ColumnDefault       000000018009f370 f   sqlite.obj
 0001:0009e570       exprRowColumn              000000018009f570 f   sqlite.obj
 0001:0009e600       updateFromSelect           000000018009f600 f   sqlite.obj
 0001:0009e9c0       sqlite3Update              000000018009f9c0 f   sqlite.obj
 0001:000a1668       $LN1508                    00000001800a2668     sqlite.obj
 0001:000a16a0       updateVirtualTable         00000001800a26a0 f   sqlite.obj
 0001:000a23c0       upsertDelete               00000001800a33c0 f   sqlite.obj
 0001:000a25d0       sqlite3UpsertDup           00000001800a35d0 f   sqlite.obj
 0001:000a2740       sqlite3UpsertNew           00000001800a3740 f   sqlite.obj
 0001:000a2840       sqlite3UpsertAnalyzeTarget 00000001800a3840 f   sqlite.obj
 0001:000a2bb0       sqlite3UpsertDoUpdate      00000001800a3bb0 f   sqlite.obj
 0001:000a3030       execSql                    00000001800a4030 f   sqlite.obj
 0001:000a3260       execSqlF                   00000001800a4260 f   sqlite.obj
 0001:000a32c0       sqlite3Vacuum              00000001800a42c0 f   sqlite.obj
 0001:000a33d0       sqlite3RunVacuum           00000001800a43d0 f   sqlite.obj
 0001:000a3ab0       sqlite3VtabCreateModule    00000001800a4ab0 f   sqlite.obj
 0001:000a3e90       sqlite3VtabLock            00000001800a4e90 f   sqlite.obj
 0001:000a3ea0       sqlite3VtabUnlock          00000001800a4ea0 f   sqlite.obj
 0001:000a3f20       sqlite3VtabDisconnect      00000001800a4f20 f   sqlite.obj
 0001:000a3fd0       sqlite3VtabUnlockList      00000001800a4fd0 f   sqlite.obj
 0001:000a4090       addModuleArgument          00000001800a5090 f   sqlite.obj
 0001:000a4180       sqlite3VtabBeginParse      00000001800a5180 f   sqlite.obj
 0001:000a4300       addArgumentToVtab          00000001800a5300 f   sqlite.obj
 0001:000a4390       sqlite3VtabFinishParse     00000001800a5390 f   sqlite.obj
 0001:000a4700       sqlite3VtabArgInit         00000001800a5700 f   sqlite.obj
 0001:000a4730       sqlite3VtabArgExtend       00000001800a5730 f   sqlite.obj
 0001:000a4760       vtabCallConstructor        00000001800a5760 f   sqlite.obj
 0001:000a4d50       growVTrans                 00000001800a5d50 f   sqlite.obj
 0001:000a4e10       sqlite3VtabCallCreate      00000001800a5e10 f   sqlite.obj
 0001:000a5220       sqlite3VtabCallDestroy     00000001800a6220 f   sqlite.obj
 0001:000a53b0       callFinaliser              00000001800a63b0 f   sqlite.obj
 0001:000a54d0       sqlite3VtabBegin           00000001800a64d0 f   sqlite.obj
 0001:000a55d0       sqlite3VtabSavepoint       00000001800a65d0 f   sqlite.obj
 0001:000a56e0       sqlite3VtabOverloadFunction 00000001800a66e0 f   sqlite.obj
 0001:000a5870       sqlite3VtabMakeWritable    00000001800a6870 f   sqlite.obj
 0001:000a5910       sqlite3VtabEponymousTableInit 00000001800a6910 f   sqlite.obj
 0001:000a5c20       sqlite3VtabEponymousTableClear 00000001800a6c20 f   sqlite.obj
 0001:000a5d50       explainAppendTerm          00000001800a6d50 f   sqlite.obj
 0001:000a6050       explainIndexRange          00000001800a7050 f   sqlite.obj
 0001:000a6240       sqlite3WhereExplainOneScan 00000001800a7240 f   sqlite.obj
 0001:000a6600       sqlite3WhereExplainBloomFilter 00000001800a7600 f   sqlite.obj
 0001:000a6900       disableTerm                00000001800a7900 f   sqlite.obj
 0001:000a6980       updateRangeAffinityStr     00000001800a7980 f   sqlite.obj
 0001:000a6a70       removeUnindexableInClauseTerms 00000001800a7a70 f   sqlite.obj
 0001:000a6d80       codeEqualityTerm           00000001800a7d80 f   sqlite.obj
 0001:000a7610       codeAllEqualityTerms       00000001800a8610 f   sqlite.obj
 0001:000a7bb0       codeDeferredSeek           00000001800a8bb0 f   sqlite.obj
 0001:000a7d70       codeExprOrVector           00000001800a8d70 f   sqlite.obj
 0001:000a7e30       whereApplyPartialIndexConstraints 00000001800a8e30 f   sqlite.obj
 0001:000a8120       filterPullDown             00000001800a9120 f   sqlite.obj
 0001:000a83f0       sqlite3WhereCodeOneLoopStart 00000001800a93f0 f   sqlite.obj
 0001:000ab760       sqlite3WhereRightJoinLoop  00000001800ac760 f   sqlite.obj
 0001:000abf70       whereClauseInsert          00000001800acf70 f   sqlite.obj
 0001:000ac0e0       isLikeOrGlob               00000001800ad0e0 f   sqlite.obj
 0001:000ac5c0       exprAnalyzeOrTerm          00000001800ad5c0 f   sqlite.obj
 0001:000ad560       exprSelectUsage            00000001800ae560 f   sqlite.obj
 0001:000ad780       exprMightBeIndexed2        00000001800ae780 f   sqlite.obj
 0001:000ad8d0       exprMightBeIndexed         00000001800ae8d0 f   sqlite.obj
 0001:000ad970       exprAnalyze                00000001800ae970 f   sqlite.obj
 0001:000aef60       sqlite3WhereSplit          00000001800aff60 f   sqlite.obj
 0001:000aefe0       whereAddLimitExpr          00000001800affe0 f   sqlite.obj
 0001:000af220       sqlite3WhereAddLimit       00000001800b0220 f   sqlite.obj
 0001:000af320       sqlite3WhereClauseClear    00000001800b0320 f   sqlite.obj
 0001:000af3c0       sqlite3WhereExprUsageFull  00000001800b03c0 f   sqlite.obj
 0001:000af570       sqlite3WhereExprUsageNN    00000001800b0570 f   sqlite.obj
 0001:000af5e0       sqlite3WhereExprListUsage  00000001800b05e0 f   sqlite.obj
 0001:000af670       sqlite3WhereTabFuncArgs    00000001800b0670 f   sqlite.obj
 0001:000af9c0       whereOrInsert              00000001800b09c0 f   sqlite.obj
 0001:000afac0       whereScanNext              00000001800b0ac0 f   sqlite.obj
 0001:000afdf0       whereScanInitIndexExpr     00000001800b0df0 f   sqlite.obj
 0001:000afe20       whereScanInit              00000001800b0e20 f   sqlite.obj
 0001:000b02d0       sqlite3WhereFindTerm       00000001800b12d0 f   sqlite.obj
 0001:000b0390       isDistinctRedundant        00000001800b1390 f   sqlite.obj
 0001:000b0630       termCanDriveIndex          00000001800b1630 f   sqlite.obj
 0001:000b06b0       constructAutomaticIndex    00000001800b16b0 f   sqlite.obj
 0001:000b16e0       sqlite3ConstructBloomFilter 00000001800b26e0 f   sqlite.obj
 0001:000b1e40       allocateIndexInfo          00000001800b2e40 f   sqlite.obj
 0001:000b23c0       freeIndexInfo              00000001800b33c0 f   sqlite.obj
 0001:000b25f0       vtabBestIndex              00000001800b35f0 f   sqlite.obj
 0001:000b27e0       whereLoopClearUnion        00000001800b37e0 f   sqlite.obj
 0001:000b2870       whereLoopResize            00000001800b3870 f   sqlite.obj
 0001:000b2910       whereInfoFree              00000001800b3910 f   sqlite.obj
 0001:000b2b70       whereLoopCheaperProperSubset 00000001800b3b70 f   sqlite.obj
 0001:000b2c80       whereLoopFindLesser        00000001800b3c80 f   sqlite.obj
 0001:000b2d50       whereLoopInsert            00000001800b3d50 f   sqlite.obj
 0001:000b3070       whereLoopOutputAdjust      00000001800b4070 f   sqlite.obj
 0001:000b32d0       whereRangeVectorLen        00000001800b42d0 f   sqlite.obj
 0001:000b3560       whereLoopAddBtreeIndex     00000001800b4560 f   sqlite.obj
 0001:000b3de0       indexMightHelpWithOrderBy  00000001800b4de0 f   sqlite.obj
 0001:000b3f90       whereUsablePartialIndex    00000001800b4f90 f   sqlite.obj
 0001:000b4080       exprIsCoveredByIndex       00000001800b5080 f   sqlite.obj
 0001:000b4370       whereIsCoveringIndexWalkCallback 00000001800b5370 f   sqlite.obj
 0001:000b4400       whereIsCoveringIndex       00000001800b5400 f   sqlite.obj
 0001:000b44d0       whereIndexedExprCleanup    00000001800b54d0 f   sqlite.obj
 0001:000b45e0       wherePartIdxExpr           00000001800b55e0 f   sqlite.obj
 0001:000b47e0       whereLoopAddBtree          00000001800b57e0 f   sqlite.obj
 0001:000b4e70       whereLoopAddVirtualOne     00000001800b5e70 f   sqlite.obj
 0001:000b55f0       whereLoopAddVirtual        00000001800b65f0 f   sqlite.obj
 0001:000b59d0       whereLoopAddOr             00000001800b69d0 f   sqlite.obj
 0001:000b5ff0       whereLoopAddAll            00000001800b6ff0 f   sqlite.obj
 0001:000b6430       wherePathSatisfiesOrderBy  00000001800b7430 f   sqlite.obj
 0001:000b6e40       wherePathSolver            00000001800b7e40 f   sqlite.obj
 0001:000b7970       whereShortCut              00000001800b8970 f   sqlite.obj
 0001:000b7bd0       exprNodeIsDeterministic    00000001800b8bd0 f   sqlite.obj
 0001:000b7bf0       whereOmitNoopJoin          00000001800b8bf0 f   sqlite.obj
 0001:000b7e30       whereCheckIfBloomFilterIsUseful 00000001800b8e30 f   sqlite.obj
 0001:000b7ee0       whereAddIndexedExpr        00000001800b8ee0 f   sqlite.obj
 0001:000b81a0       whereReverseScanOrder      00000001800b91a0 f   sqlite.obj
 0001:000b8200       sqlite3WhereBegin          00000001800b9200 f   sqlite.obj
 0001:000b95c0       sqlite3WhereEnd            00000001800ba5c0 f   sqlite.obj
 0001:000ba590       row_numberStepFunc         00000001800bb590 f   sqlite.obj
 0001:000ba5c0       row_numberValueFunc        00000001800bb5c0 f   sqlite.obj
 0001:000ba620       dense_rankStepFunc         00000001800bb620 f   sqlite.obj
 0001:000ba660       dense_rankValueFunc        00000001800bb660 f   sqlite.obj
 0001:000ba6e0       nth_valueStepFunc          00000001800bb6e0 f   sqlite.obj
 0001:000ba830       nth_valueFinalizeFunc      00000001800bb830 f   sqlite.obj
 0001:000ba8b0       first_valueStepFunc        00000001800bb8b0 f   sqlite.obj
 0001:000ba920       first_valueFinalizeFunc    00000001800bb920 f   sqlite.obj
 0001:000ba9b0       rankStepFunc               00000001800bb9b0 f   sqlite.obj
 0001:000baa00       rankValueFunc              00000001800bba00 f   sqlite.obj
 0001:000baa80       cume_distStepFunc          00000001800bba80 f   sqlite.obj
 0001:000baa80       percent_rankStepFunc       00000001800bba80 f   sqlite.obj
 0001:000baab0       cume_distInvFunc           00000001800bbab0 f   sqlite.obj
 0001:000baab0       percent_rankInvFunc        00000001800bbab0 f   sqlite.obj
 0001:000baae0       percent_rankValueFunc      00000001800bbae0 f   sqlite.obj
 0001:000bab50       cume_distValueFunc         00000001800bbb50 f   sqlite.obj
 0001:000baba0       ntileStepFunc              00000001800bbba0 f   sqlite.obj
 0001:000bac30       ntileInvFunc               00000001800bbc30 f   sqlite.obj
 0001:000bac60       ntileValueFunc             00000001800bbc60 f   sqlite.obj
 0001:000bad50       last_valueStepFunc         00000001800bbd50 f   sqlite.obj
 0001:000bae30       last_valueInvFunc          00000001800bbe30 f   sqlite.obj
 0001:000baeb0       last_valueValueFunc        00000001800bbeb0 f   sqlite.obj
 0001:000baf00       last_valueFinalizeFunc     00000001800bbf00 f   sqlite.obj
 0001:000baf80       windowFind                 00000001800bbf80 f   sqlite.obj
 0001:000bb010       sqlite3WindowUpdate        00000001800bc010 f   sqlite.obj
 0001:000bb3e0       selectWindowRewriteExprCb  00000001800bc3e0 f   sqlite.obj
 0001:000bb620       selectWindowRewriteSelectCb 00000001800bc620 f   sqlite.obj
 0001:000bb670       selectWindowRewriteEList   00000001800bc670 f   sqlite.obj
 0001:000bb750       exprListAppendList         00000001800bc750 f   sqlite.obj
 0001:000bb950       sqlite3WindowExtraAggFuncDepth 00000001800bc950 f   sqlite.obj
 0001:000bb970       disallowAggregatesInOrderByCb 00000001800bc970 f   sqlite.obj
 0001:000bb9a0       sqlite3WindowRewrite       00000001800bc9a0 f   sqlite.obj
 0001:000bc4d0       sqlite3WindowDelete        00000001800bd4d0 f   sqlite.obj
 0001:000bc5a0       sqlite3WindowListDelete    00000001800bd5a0 f   sqlite.obj
 0001:000bc8c0       sqlite3WindowOffsetExpr    00000001800bd8c0 f   sqlite.obj
 0001:000bc9e0       sqlite3WindowAlloc         00000001800bd9e0 f   sqlite.obj
 0001:000bcbb0       sqlite3WindowAssemble      00000001800bdbb0 f   sqlite.obj
 0001:000bcca0       sqlite3WindowChain         00000001800bdca0 f   sqlite.obj
 0001:000bcde0       sqlite3WindowAttach        00000001800bdde0 f   sqlite.obj
 0001:000bce20       sqlite3WindowLink          00000001800bde20 f   sqlite.obj
 0001:000bcf20       sqlite3WindowCompare       00000001800bdf20 f   sqlite.obj
 0001:000bd110       sqlite3WindowCodeInit      00000001800be110 f   sqlite.obj
 0001:000bd780       windowCheckValue           00000001800be780 f   sqlite.obj
 0001:000bdb50       windowReadPeerValues       00000001800beb50 f   sqlite.obj
 0001:000bdc60       windowAggStep              00000001800bec60 f   sqlite.obj
 0001:000be660       windowAggFinal             00000001800bf660 f   sqlite.obj
 0001:000bea40       windowFullScan             00000001800bfa40 f   sqlite.obj
 0001:000bf230       windowReturnOneRow         00000001800c0230 f   sqlite.obj
 0001:000bfad0       windowInitAccum            00000001800c0ad0 f   sqlite.obj
 0001:000bfd80       windowIfNewPeer            00000001800c0d80 f   sqlite.obj
 0001:000bffc0       windowCodeRangeTest        00000001800c0fc0 f   sqlite.obj
 0001:000c0580       windowCodeOp               00000001800c1580 f   sqlite.obj
 0001:000c0b10       sqlite3WindowDup           00000001800c1b10 f   sqlite.obj
 0001:000c0dd0       sqlite3WindowListDup       00000001800c1dd0 f   sqlite.obj
 0001:000c10c0       windowExprGtZero           00000001800c20c0 f   sqlite.obj
 0001:000c1290       sqlite3WindowCodeStep      00000001800c2290 f   sqlite.obj
 0001:000c27f0       disableLookaside           00000001800c37f0 f   sqlite.obj
 0001:000c2810       parserDoubleLinkSelect     00000001800c3810 f   sqlite.obj
 0001:000c2910       attachWithToSelect         00000001800c3910 f   sqlite.obj
 0001:000c2950       tokenExpr                  00000001800c3950 f   sqlite.obj
 0001:000c2a40       binaryToUnaryIfNull        00000001800c3a40 f   sqlite.obj
 0001:000c2a90       parserAddExprIdListTerm    00000001800c3a90 f   sqlite.obj
 0001:000c2b60       yy_destructor              00000001800c3b60 f   sqlite.obj
 0001:000c2c24       $LN68                      00000001800c3c24     sqlite.obj
 0001:000c2c54       $LN67                      00000001800c3c54     sqlite.obj
 0001:000c2cd0       yy_find_reduce_action      00000001800c3cd0 f   sqlite.obj
 0001:000c2d00       yyStackOverflow            00000001800c3d00 f   sqlite.obj
 0001:000c2d70       yy_reduce                  00000001800c3d70 f   sqlite.obj
 0001:000c553c       $LN2285                    00000001800c653c     sqlite.obj
 0001:000c5a90       sqlite3Parser              00000001800c6a90 f   sqlite.obj
 0001:000c5c80       keywordCode                00000001800c6c80 f   sqlite.obj
 0001:000c5e50       sqlite3GetToken            00000001800c6e50 f   sqlite.obj
 0001:000c65e0       $LN231                     00000001800c75e0     sqlite.obj
 0001:000c6660       sqlite3RunParser           00000001800c7660 f   sqlite.obj
 0001:000c7110       $LN193                     00000001800c8110     sqlite.obj
 0001:000c712c       $LN192                     00000001800c812c     sqlite.obj
 0001:000c7184       $LN191                     00000001800c8184     sqlite.obj
 0001:000c7194       $LN190                     00000001800c8194     sqlite.obj
 0001:000c73a0       sqlite3TestExtInit         00000001800c83a0 f   sqlite.obj
 0001:000c7e68       $LN47                      00000001800c8e68     sqlite.obj
 0001:000c7ee0       setupLookaside             00000001800c8ee0 f   sqlite.obj
 0001:000c84a0       binCollFunc                00000001800c94a0 f   sqlite.obj
 0001:000c84e0       rtrimCollFunc              00000001800c94e0 f   sqlite.obj
 0001:000c8560       nocaseCollatingFunc        00000001800c9560 f   sqlite.obj
 0001:000c86b0       sqlite3CloseSavepoints     00000001800c96b0 f   sqlite.obj
 0001:000c87c0       connectionIsBusy           00000001800c97c0 f   sqlite.obj
 0001:000c8810       sqlite3Close               00000001800c9810 f   sqlite.obj
 0001:000c8b60       sqlite3LeaveMutexAndCloseZombie 00000001800c9b60 f   sqlite.obj
 0001:000c9450       sqlite3RollbackAll         00000001800ca450 f   sqlite.obj
 0001:000c95b0       sqlite3ErrStr              00000001800ca5b0 f   sqlite.obj
 0001:000c9600       sqliteDefaultBusyCallback  00000001800ca600 f   sqlite.obj
 0001:000c9840       sqlite3CreateFunc          00000001800ca840 f   sqlite.obj
 0001:000c9b90       createFunctionApi          00000001800cab90 f   sqlite.obj
 0001:000c9f50       sqlite3InvalidFunction     00000001800caf50 f   sqlite.obj
 0001:000ca450       sqlite3WalDefaultHook      00000001800cb450 f   sqlite.obj
 0001:000ca730       sqlite3Checkpoint          00000001800cb730 f   sqlite.obj
 0001:000cad30       createCollation            00000001800cbd30 f   sqlite.obj
 0001:000cafb0       sqlite3ParseUri            00000001800cbfb0 f   sqlite.obj
 0001:000cb6f0       openDatabase               00000001800cc6f0 f   sqlite.obj
 0001:000cc6d0       sqlite3ReportError         00000001800cd6d0 f   sqlite.obj
 0001:000cc700       sqlite3CorruptError        00000001800cd700 f   sqlite.obj
 0001:000cc740       sqlite3MisuseError         00000001800cd740 f   sqlite.obj
 0001:000cc780       sqlite3CantopenError       00000001800cd780 f   sqlite.obj
 0001:000cd418       $LN115                     00000001800ce418     sqlite.obj
 0001:000cdd20       jsonCacheDeleteGeneric     00000001800ced20 f   sqlite.obj
 0001:000cdea0       jsonCacheInsert            00000001800ceea0 f   sqlite.obj
 0001:000ce1f0       jsonCacheSearch            00000001800cf1f0 f   sqlite.obj
 0001:000ce3a0       jsonStringReset            00000001800cf3a0 f   sqlite.obj
 0001:000ce3e0       jsonStringGrow             00000001800cf3e0 f   sqlite.obj
 0001:000ce5a0       jsonStringExpandAndAppend  00000001800cf5a0 f   sqlite.obj
 0001:000ce5f0       jsonAppendRaw              00000001800cf5f0 f   sqlite.obj
 0001:000ce640       jsonPrintf                 00000001800cf640 f   sqlite.obj
 0001:000ce700       jsonAppendCharExpand       00000001800cf700 f   sqlite.obj
 0001:000ce740       jsonStringTerminate        00000001800cf740 f   sqlite.obj
 0001:000ce790       jsonAppendString           00000001800cf790 f   sqlite.obj
 0001:000cea40       jsonAppendSqlValue         00000001800cfa40 f   sqlite.obj
 0001:000ced50       jsonReturnString           00000001800cfd50 f   sqlite.obj
 0001:000cef70       jsonParseReset             00000001800cff70 f   sqlite.obj
 0001:000cefd0       jsonHexToInt4              00000001800cffd0 f   sqlite.obj
 0001:000cf060       json5Whitespace            00000001800d0060 f   sqlite.obj
 0001:000cf1ec       $LN65                      00000001800d01ec     sqlite.obj
 0001:000cf20c       $LN64                      00000001800d020c     sqlite.obj
 0001:000cf300       jsonWrongNumArgs           00000001800d0300 f   sqlite.obj
 0001:000cf3c0       jsonBlobExpand             00000001800d03c0 f   sqlite.obj
 0001:000cf460       jsonBlobMakeEditable       00000001800d0460 f   sqlite.obj
 0001:000cf4f0       jsonBlobExpandAndAppendOneByte 00000001800d04f0 f   sqlite.obj
 0001:000cf530       jsonBlobExpandAndAppendNode 00000001800d0530 f   sqlite.obj
 0001:000cf590       jsonBlobAppendNode         00000001800d0590 f   sqlite.obj
 0001:000cf650       jsonBlobChangePayloadSize  00000001800d0650 f   sqlite.obj
 0001:000cf7d0       jsonbValidityCheck         00000001800d07d0 f   sqlite.obj
 0001:000cfcfc       $LN173                     00000001800d0cfc     sqlite.obj
 0001:000cfd30       jsonTranslateTextToBlob    00000001800d0d30 f   sqlite.obj
 0001:000d0aa8       $LN407                     00000001800d1aa8     sqlite.obj
 0001:000d0af0       $LN406                     00000001800d1af0     sqlite.obj
 0001:000d0be0       jsonConvertTextToBlob      00000001800d1be0 f   sqlite.obj
 0001:000d0d40       jsonReturnStringAsBlob     00000001800d1d40 f   sqlite.obj
 0001:000d0ea0       jsonbPayloadSize           00000001800d1ea0 f   sqlite.obj
 0001:000d1040       jsonTranslateBlobToText    00000001800d2040 f   sqlite.obj
 0001:000d1908       $LN222                     00000001800d2908     sqlite.obj
 0001:000d193c       $LN221                     00000001800d293c     sqlite.obj
 0001:000d195c       $LN220                     00000001800d295c     sqlite.obj
 0001:000d1a40       jsonFuncArgMightBeBinary   00000001800d2a40 f   sqlite.obj
 0001:000d1b60       jsonbArrayCount            00000001800d2b60 f   sqlite.obj
 0001:000d1d40       jsonAfterEditSizeAdjust    00000001800d2d40 f   sqlite.obj
 0001:000d1da0       jsonBlobEdit               00000001800d2da0 f   sqlite.obj
 0001:000d1e60       jsonUnescapeOneChar        00000001800d2e60 f   sqlite.obj
 0001:000d20c8       $LN61                      00000001800d30c8     sqlite.obj
 0001:000d20f8       $LN60                      00000001800d30f8     sqlite.obj
 0001:000d21e0       jsonLabelCompareEscaped    00000001800d31e0 f   sqlite.obj
 0001:000d23a0       jsonCreateEditSubstructure 00000001800d33a0 f   sqlite.obj
 0001:000d2450       jsonLookupStep             00000001800d3450 f   sqlite.obj
 0001:000d2b80       jsonReturnTextJsonFromBlob 00000001800d3b80 f   sqlite.obj
 0001:000d2dd0       jsonReturnFromBlob         00000001800d3dd0 f   sqlite.obj
 0001:000d3314       $LN143                     00000001800d4314     sqlite.obj
 0001:000d3350       jsonFunctionArgToBlob      00000001800d4350 f   sqlite.obj
 0001:000d37b0       jsonBadPathError           00000001800d47b0 f   sqlite.obj
 0001:000d38c0       jsonInsertIntoBlob         00000001800d48c0 f   sqlite.obj
 0001:000d3de0       jsonParseFuncArg           00000001800d4de0 f   sqlite.obj
 0001:000d4590       jsonReturnParse            00000001800d5590 f   sqlite.obj
 0001:000d48d0       jsonQuoteFunc              00000001800d58d0 f   sqlite.obj
 0001:000d4b10       jsonArrayFunc              00000001800d5b10 f   sqlite.obj
 0001:000d4de0       jsonArrayLengthFunc        00000001800d5de0 f   sqlite.obj
 0001:000d4f70       jsonExtractFunc            00000001800d5f70 f   sqlite.obj
 0001:000d5a30       jsonMergePatch             00000001800d6a30 f   sqlite.obj
 0001:000d6060       jsonPatchFunc              00000001800d7060 f   sqlite.obj
 0001:000d6170       jsonObjectFunc             00000001800d7170 f   sqlite.obj
 0001:000d65a0       jsonRemoveFunc             00000001800d75a0 f   sqlite.obj
 0001:000d6860       jsonReplaceFunc            00000001800d7860 f   sqlite.obj
 0001:000d6890       jsonSetFunc                00000001800d7890 f   sqlite.obj
 0001:000d68d0       jsonTypeFunc               00000001800d78d0 f   sqlite.obj
 0001:000d6a40       jsonValidFunc              00000001800d7a40 f   sqlite.obj
 0001:000d6c70       jsonErrorFunc              00000001800d7c70 f   sqlite.obj
 0001:000d6ee0       jsonArrayStep              00000001800d7ee0 f   sqlite.obj
 0001:000d6f90       jsonArrayCompute           00000001800d7f90 f   sqlite.obj
 0001:000d7100       jsonArrayValue             00000001800d8100 f   sqlite.obj
 0001:000d7110       jsonArrayFinal             00000001800d8110 f   sqlite.obj
 0001:000d7120       jsonGroupInverse           00000001800d8120 f   sqlite.obj
 0001:000d7210       jsonObjectStep             00000001800d8210 f   sqlite.obj
 0001:000d7350       jsonObjectCompute          00000001800d8350 f   sqlite.obj
 0001:000d74c0       jsonObjectValue            00000001800d84c0 f   sqlite.obj
 0001:000d74d0       jsonObjectFinal            00000001800d84d0 f   sqlite.obj
 0001:000d74e0       jsonEachConnect            00000001800d84e0 f   sqlite.obj
 0001:000d7580       jsonEachDisconnect         00000001800d8580 f   sqlite.obj
 0001:000d75a0       jsonEachOpenEach           00000001800d85a0 f   sqlite.obj
 0001:000d76a0       jsonEachOpenTree           00000001800d86a0 f   sqlite.obj
 0001:000d77a0       jsonEachCursorReset        00000001800d87a0 f   sqlite.obj
 0001:000d7860       jsonEachClose              00000001800d8860 f   sqlite.obj
 0001:000d7890       jsonEachEof                00000001800d8890 f   sqlite.obj
 0001:000d78a0       jsonSkipLabel              00000001800d88a0 f   sqlite.obj
 0001:000d78f0       jsonAppendPathName         00000001800d88f0 f   sqlite.obj
 0001:000d79d0       jsonEachNext               00000001800d89d0 f   sqlite.obj
 0001:000d7c50       jsonEachPathLength         00000001800d8c50 f   sqlite.obj
 0001:000d7d30       jsonEachColumn             00000001800d8d30 f   sqlite.obj
 0001:000d80ac       $LN69                      00000001800d90ac     sqlite.obj
 0001:000d80d0       jsonEachRowid              00000001800d90d0 f   sqlite.obj
 0001:000d80e0       jsonEachBestIndex          00000001800d90e0 f   sqlite.obj
 0001:000d8210       jsonEachFilter             00000001800d9210 f   sqlite.obj
 0001:000d8640       sqlite3JsonTableFunctions  00000001800d9640 f   sqlite.obj
 0001:000d8790       ?impl@implementation@?1??Wrapper_InitializeCriticalSectionEx@@YAHPEAU_RTL_CRITICAL_SECTION@@KK@Z@SAH0KK@Z 00000001800d9790 f   vc_crt_fix_impl.obj
 0001:000d8870       ?impl@implementation@?1??Wrapper_CompareStringEx@@YAHPEB_WK0H0HPEAU_nlsversioninfo@@PEAX_J@Z@SAH0K0H0H123@Z 00000001800d9870 f   vc_crt_fix_impl.obj
 0001:000d8920       ?impl@implementation@?1??Wrapper_LCMapStringEx@@YAHPEB_WK0HPEA_WHPEAU_nlsversioninfo@@PEAX_J@Z@SAH0K0H1H234@Z 00000001800d9920 f   vc_crt_fix_impl.obj
 0001:000d89d0       ?impl@implementation@?1??Wrapper_SleepConditionVariableSRW@@YAHPEAU_RTL_CONDITION_VARIABLE@@PEAU_RTL_SRWLOCK@@KK@Z@SAH01KK@Z 00000001800d99d0 f   vc_crt_fix_impl.obj
 0001:000d8a70       ?impl@implementation@?1??Wrapper_AcquireSRWLockExclusive@@YAXPEAU_RTL_SRWLOCK@@@Z@SAX0@Z 00000001800d9a70 f   vc_crt_fix_impl.obj
 0001:000d8a70       ?impl@implementation@?1??Wrapper_ReleaseSRWLockExclusive@@YAXPEAU_RTL_SRWLOCK@@@Z@SAX0@Z 00000001800d9a70 f   vc_crt_fix_impl.obj
 0001:000d8a70       ?impl@implementation@?1??Wrapper_WakeAllConditionVariable@@YAXPEAU_RTL_CONDITION_VARIABLE@@@Z@SAX0@Z 00000001800d9a70 f   vc_crt_fix_impl.obj
 0001:000d8b80       $$000000                   00000001800d9b80     LIBCMT:amdsecgs.obj
 0001:000d8d68       capture_current_context    00000001800d9d68 f   LIBCMT:gs_report.obj
 0001:000d8dd8       capture_previous_context   00000001800d9dd8 f   LIBCMT:gs_report.obj
 0001:000d8e4c       ?dllmain_crt_dispatch@@YAHQEAUHINSTANCE__@@KQEAX@Z 00000001800d9e4c f   LIBCMT:dll_dllmain.obj
 0001:000d8e9c       ?dllmain_crt_process_attach@@YAHQEAUHINSTANCE__@@QEAX@Z 00000001800d9e9c f   LIBCMT:dll_dllmain.obj
 0001:000d8fb4       ?dllmain_crt_process_detach@@YAH_N@Z 00000001800d9fb4 f   LIBCMT:dll_dllmain.obj
 0001:000d9038       ?dllmain_dispatch@@YAHQEAUHINSTANCE__@@KQEAX@Z 00000001800da038 f   LIBCMT:dll_dllmain.obj
 0001:000d9f60       $$000000                   00000001800daf60     libvcruntime:memset.obj
 0001:000da120       $$000000                   00000001800db120     libvcruntime:notify.obj
 0001:000da3c0       ?try_get_function@@YAPEAXW4function_id@?A0xf6f43728@@QEBDQEBW4module_id@2@2@Z 00000001800db3c0 f   libvcruntime:winapi_downlevel.obj
 0001:000da6a0       $$000000                   00000001800db6a0     libvcruntime:handlers.obj
 0001:000da7b0       $$000000                   00000001800db7b0     libvcruntime:memcpy.obj
 0001:000dae58       ??$thread_start@P6AIPEAX@Z$00@@YAKQEAX@Z 00000001800dbe58 f   libucrt:thread.obj
 0001:000daec0       ?common_end_thread@@YAXI@Z 00000001800dbec0 f   libucrt:thread.obj
 0001:000daf24       ?create_thread_parameter@@YAPEAU__acrt_thread_parameter@@QEAX0@Z 00000001800dbf24 f   libucrt:thread.obj
 0001:000db064       ??$common_localtime_s@_J@@YAHQEAUtm@@QEB_J@Z 00000001800dc064 f   libucrt:localtime.obj
 0001:000db36c       fallbackMethod             00000001800dc36c f   libucrt:strcspn.obj
 0001:000db718       $LN78                      00000001800dc718     libucrt:strcspn.obj
 0001:000db754       $LN77                      00000001800dc754     libucrt:strcspn.obj
 0001:000db794       $LN76                      00000001800dc794     libucrt:strcspn.obj
 0001:000db820       $$000000                   00000001800dc820     libucrt:strncmp.obj
 0001:000db8c4       fallbackMethod             00000001800dc8c4 f   libucrt:strspn.obj
 0001:000dbc98       $LN78                      00000001800dcc98     libucrt:strspn.obj
 0001:000dbcd4       $LN77                      00000001800dccd4     libucrt:strspn.obj
 0001:000dbd14       $LN76                      00000001800dcd14     libucrt:strspn.obj
 0001:000dbf98       ??$?RV<lambda_d80eeec6fff315bfe5c115232f3240e3>@@AEAV<lambda_6e4b09c48022b2350581041d5f6b0c4c>@@V<lambda_2358e3775559c9db80273638284d5e45>@@@?$__crt_seh_guarded_call@X@@QEAAX$$QEAV<lambda_d80eeec6fff315bfe5c115232f3240e3>@@AEAV<lambda_6e4b09c48022b2350581041d5f6b0c4c>@@$$QEAV<lambda_2358e3775559c9db80273638284d5e45>@@@Z 00000001800dcf98 f   libucrt:exit.obj
 0001:000dbfd0       ??R<lambda_6e4b09c48022b2350581041d5f6b0c4c>@@QEBA@XZ 00000001800dcfd0 f   libucrt:exit.obj
 0001:000dc094       ?atexit_exception_filter@@YAHK@Z 00000001800dd094 f   libucrt:exit.obj
 0001:000dc0a0       ?common_exit@@YAXHW4_crt_exit_cleanup_mode@@W4_crt_exit_return_mode@@@Z 00000001800dd0a0 f   libucrt:exit.obj
 0001:000dc15c       ?exit_or_terminate_process@@YAXI@Z 00000001800dd15c f   libucrt:exit.obj
 0001:000dc1a8       ?try_cor_exit_process@@YAXI@Z 00000001800dd1a8 f   libucrt:exit.obj
 0001:000dc230       ??$parse_command_line@D@@YAXPEADPEAPEAD0PEA_K2@Z 00000001800dd230 f   libucrt:argv_parsing.obj
 0001:000dc5dc       ??$common_initialize_environment_nolock@D@@YAHXZ 00000001800dd5dc f   libucrt:environment_initialization.obj
 0001:000dc648       ??$create_environment@D@@YAQEAPEADQEAD@Z 00000001800dd648 f   libucrt:environment_initialization.obj
 0001:000dc750       ??$free_environment@D@@YAXQEAPEAD@Z 00000001800dd750 f   libucrt:environment_initialization.obj
 0001:000dc750       ??$free_environment@_W@@YAXQEAPEA_W@Z 00000001800dd750 f   libucrt:environment_initialization.obj
 0001:000dc794       ??$initialize_environment_by_cloning_nolock@D@@YAHXZ 00000001800dd794 f   libucrt:environment_initialization.obj
 0001:000dc868       ??$uninitialize_environment_internal@D@@YAXAEAPEAPEAD@Z 00000001800dd868 f   libucrt:environment_initialization.obj
 0001:000dc884       ??$uninitialize_environment_internal@_W@@YAXAEAPEAPEA_W@Z 00000001800dd884 f   libucrt:environment_initialization.obj
 0001:000dc91c       ??$?RV<lambda_7777bce6b2f8c936911f934f8298dc43>@@AEAV<lambda_f03950bc5685219e0bcd2087efbe011e>@@V<lambda_3883c3dff614d5e0c5f61bb1ac94921c>@@@?$__crt_seh_guarded_call@H@@QEAAH$$QEAV<lambda_7777bce6b2f8c936911f934f8298dc43>@@AEAV<lambda_f03950bc5685219e0bcd2087efbe011e>@@$$QEAV<lambda_3883c3dff614d5e0c5f61bb1ac94921c>@@@Z 00000001800dd91c f   libucrt:onexit.obj
 0001:000dc958       ??R<lambda_f03950bc5685219e0bcd2087efbe011e>@@QEBAHXZ 00000001800dd958 f   libucrt:onexit.obj
 0001:000dcad4       initialize_global_variables 00000001800ddad4 f   libucrt:initialization.obj
 0001:000dcae8       initialize_c               00000001800ddae8 f   libucrt:initialization.obj
 0001:000dcb0c       initialize_environment     00000001800ddb0c f   libucrt:initialization.obj
 0001:000dcb0c       initialize_global_state_isolation 00000001800ddb0c f   libucrt:initialization.obj
 0001:000dcb0c       report_memory_leaks        00000001800ddb0c f   libucrt:initialization.obj
 0001:000dcb0c       uninitialize_c             00000001800ddb0c f   libucrt:initialization.obj
 0001:000dcb0c       uninitialize_global_state_isolation 00000001800ddb0c f   libucrt:initialization.obj
 0001:000dcb10       uninitialize_environment   00000001800ddb10 f   libucrt:initialization.obj
 0001:000dcb20       initialize_pointers        00000001800ddb20 f   libucrt:initialization.obj
 0001:000dcb60       uninitialize_vcruntime     00000001800ddb60 f   libucrt:initialization.obj
 0001:000dcb68       uninitialize_allocated_memory 00000001800ddb68 f   libucrt:initialization.obj
 0001:000dcba8       uninitialize_allocated_io_buffers 00000001800ddba8 f   libucrt:initialization.obj
 0001:000dd5e4       ??$?RV<lambda_0ae27a3a962d80f24befdcbee591983d>@@AEAV<lambda_8d0ee55de4b1038c4002e0adecdf1839>@@V<lambda_dc504788e8f1664fe9b84e20bfb512f2>@@@?$__crt_seh_guarded_call@X@@QEAAX$$QEAV<lambda_0ae27a3a962d80f24befdcbee591983d>@@AEAV<lambda_8d0ee55de4b1038c4002e0adecdf1839>@@$$QEAV<lambda_dc504788e8f1664fe9b84e20bfb512f2>@@@Z 00000001800de5e4 f   libucrt:per_thread_data.obj
 0001:000dd624       ??$?RV<lambda_2d41944a1d46af3157314b8a01080d33>@@AEAV<lambda_8f455de75cd7d7f24b4096f044d8b9e6>@@V<lambda_aa500f224e6afead328df44964fe2772>@@@?$__crt_seh_guarded_call@X@@QEAAX$$QEAV<lambda_2d41944a1d46af3157314b8a01080d33>@@AEAV<lambda_8f455de75cd7d7f24b4096f044d8b9e6>@@$$QEAV<lambda_aa500f224e6afead328df44964fe2772>@@@Z 00000001800de624 f   libucrt:per_thread_data.obj
 0001:000dd664       ??$?RV<lambda_aa87e3671a710a21b5dc78c0bdf72e11>@@AEAV<lambda_92619d2358a28f41a33ba319515a20b9>@@V<lambda_6992ecaafeb10aed2b74cb1fae11a551>@@@?$__crt_seh_guarded_call@X@@QEAAX$$QEAV<lambda_aa87e3671a710a21b5dc78c0bdf72e11>@@AEAV<lambda_92619d2358a28f41a33ba319515a20b9>@@$$QEAV<lambda_6992ecaafeb10aed2b74cb1fae11a551>@@@Z 00000001800de664 f   libucrt:per_thread_data.obj
 0001:000dd6ac       ??$?RV<lambda_f2e299630e499de9f9a165e60fcd3db5>@@AEAV<lambda_2ae9d31cdba2644fcbeaf08da7c24588>@@V<lambda_40d01ff24d0e7b3814fdbdcee8eab3c7>@@@?$__crt_seh_guarded_call@X@@QEAAX$$QEAV<lambda_f2e299630e499de9f9a165e60fcd3db5>@@AEAV<lambda_2ae9d31cdba2644fcbeaf08da7c24588>@@$$QEAV<lambda_40d01ff24d0e7b3814fdbdcee8eab3c7>@@@Z 00000001800de6ac f   libucrt:per_thread_data.obj
 0001:000dd70c       ?construct_ptd_array@@YAXQEAU__acrt_ptd@@@Z 00000001800de70c f   libucrt:per_thread_data.obj
 0001:000dd7dc       ?destroy_fls@@YAXPEAX@Z    00000001800de7dc f   libucrt:per_thread_data.obj
 0001:000dd7fc       ?destroy_ptd_array@@YAXQEAU__acrt_ptd@@@Z 00000001800de7fc f   libucrt:per_thread_data.obj
 0001:000dd8f4       ?replace_current_thread_locale_nolock@@YAXQEAU__acrt_ptd@@QEAU__crt_locale_data@@@Z 00000001800de8f4 f   libucrt:per_thread_data.obj
 0001:000ddc48       ?try_get_function@@YAPEAXW4function_id@?A0x391cf84c@@QEBDQEBW4module_id@2@2@Z 00000001800dec48 f   libucrt:winapi_thunks.obj
 0001:000de564       ??$common_gmtime_s@_J@@YAHQEAUtm@@QEB_J@Z 00000001800df564 f   libucrt:gmtime.obj
 0001:000de6f8       ?compute_year@@YAHAEA_JAEA_N@Z 00000001800df6f8 f   libucrt:gmtime.obj
 0001:000de7f0       ?_isindst_nolock@@YAHQEAUtm@@@Z 00000001800df7f0 f   libucrt:tzset.obj
 0001:000deae4       ?cvtdate@@YAXW4transition_type@?A0x7639d0b4@@W4date_type@2@HHHHHHHHH@Z 00000001800dfae4 f   libucrt:tzset.obj
 0001:000decdc       ?tzset_from_environment_nolock@@YAXPEAD@Z 00000001800dfcdc f   libucrt:tzset.obj
 0001:000deee4       ?tzset_from_system_nolock@@YAXXZ 00000001800dfee4 f   libucrt:tzset.obj
 0001:000df08c       ?tzset_nolock@@YAXXZ       00000001800e008c f   libucrt:tzset.obj
 0001:000df3c0       ?<lambda_invoker_cdecl>@<lambda_a1ce4c8ae42411fd470c77163914f50e>@@CAHPEBX0@Z 00000001800e03c0 f   libucrt:argv_wildcards.obj
 0001:000df6d8       ??$common_expand_argv_wildcards@D@@YAHQEAPEADQEAPEAPEAD@Z 00000001800e06d8 f   libucrt:argv_wildcards.obj
 0001:000df8e4       ??$copy_and_add_argument_to_buffer@D@@YAHQEBD0_KAEAV?$argument_list@D@?A0x5f5c8891@@@Z 00000001800e08e4 f   libucrt:argv_wildcards.obj
 0001:000dfa6c       ??$expand_argument_wildcards@D@@YAHQEAD0AEAV?$argument_list@D@?A0x5f5c8891@@@Z 00000001800e0a6c f   libucrt:argv_wildcards.obj
 0001:000dffb8       ??$?RV<lambda_efdfa57d1f175319df784efa44bb7b81>@@AEAV<lambda_5f0a4c1567f8adc6734073e5d1e1b35c>@@V<lambda_2e8a7d3640ea6ccb4c2413664c2db6fd>@@@?$__crt_seh_guarded_call@X@@QEAAX$$QEAV<lambda_efdfa57d1f175319df784efa44bb7b81>@@AEAV<lambda_5f0a4c1567f8adc6734073e5d1e1b35c>@@$$QEAV<lambda_2e8a7d3640ea6ccb4c2413664c2db6fd>@@@Z 00000001800e0fb8 f   libucrt:mbctype.obj
 0001:000e0174       ?getSystemCP@@YAHH@Z       00000001800e1174 f   libucrt:mbctype.obj
 0001:000e01f4       ?setSBCS@@YAXPEAU__crt_multibyte_data@@@Z 00000001800e11f4 f   libucrt:mbctype.obj
 0001:000e0284       ?setSBUpLow@@YAXPEAU__crt_multibyte_data@@@Z 00000001800e1284 f   libucrt:mbctype.obj
 0001:000e0468       ?setmbcp_internal@@YAHH_NQEAU__acrt_ptd@@QEAPEAU__crt_multibyte_data@@@Z 00000001800e1468 f   libucrt:mbctype.obj
 0001:000e062c       ?update_thread_multibyte_data_internal@@YAPEAU__crt_multibyte_data@@QEAU__acrt_ptd@@QEAPEAU1@@Z 00000001800e162c f   libucrt:mbctype.obj
 0001:000e0a1c       ?x_ismbbtype_l@@YAHPEAU__crt_locale_pointers@@IHH@Z 00000001800e1a1c f   libucrt:ismbbyte.obj
 0001:000e0cc8       ??$common_set_variable_in_environment_nolock@D@@YAHQEADH@Z 00000001800e1cc8 f   libucrt:setenv.obj
 0001:000e0fe8       ??$copy_environment@D@@YAPEAPEADQEAPEAD@Z 00000001800e1fe8 f   libucrt:setenv.obj
 0001:000e1170       ?initialize_inherited_file_handles_nolock@@YAXXZ 00000001800e2170 f   libucrt:ioinit.obj
 0001:000e1260       ?initialize_stdio_handles_nolock@@YAXXZ 00000001800e2260 f   libucrt:ioinit.obj
 0001:000e1510       ??$?RV<lambda_450d765d439847d4c735a33c368b5fc0>@@AEAV<lambda_44731a7d0e6d81c3e6aa82d741081786>@@V<lambda_601a2a7da3b7a96e9554ac7215c4b07c>@@@?$__crt_seh_guarded_call@P6AXH@Z@@QEAAP6AXH@Z$$QEAV<lambda_450d765d439847d4c735a33c368b5fc0>@@AEAV<lambda_44731a7d0e6d81c3e6aa82d741081786>@@$$QEAV<lambda_601a2a7da3b7a96e9554ac7215c4b07c>@@@Z 00000001800e2510 f   libucrt:signal.obj
 0001:000e186c       ??$?RV<lambda_842d9ff0dc9ef11c61343bbaebe7f885>@@AEAV<lambda_c5860995281e5c4ce005b3de8f5874ee>@@V<lambda_d90129c13df834fdcbf8d2b88dafcf2d>@@@?$__crt_seh_guarded_call@X@@QEAAX$$QEAV<lambda_842d9ff0dc9ef11c61343bbaebe7f885>@@AEAV<lambda_c5860995281e5c4ce005b3de8f5874ee>@@$$QEAV<lambda_d90129c13df834fdcbf8d2b88dafcf2d>@@@Z 00000001800e286c f   libucrt:fflush.obj
 0001:000e1908       ??$?RV<lambda_886d6c58226a84441f68b9f2b8217b83>@@AEAV<lambda_ab61a845afdef5b7c387490eaf3616ee>@@V<lambda_f7f22ab5edc0698d5f6905b0d3f44752>@@@?$__crt_seh_guarded_call@X@@QEAAX$$QEAV<lambda_886d6c58226a84441f68b9f2b8217b83>@@AEAV<lambda_ab61a845afdef5b7c387490eaf3616ee>@@$$QEAV<lambda_f7f22ab5edc0698d5f6905b0d3f44752>@@@Z 00000001800e2908 f   libucrt:fflush.obj
 0001:000e19e8       ?common_flush_all@@YAH_N@Z 00000001800e29e8 f   libucrt:fflush.obj
 0001:000e1ec4       ??$?RV<lambda_410d79af7f07d98d83a3f525b3859a53>@@AEAV<lambda_3e16ef9562a7dcce91392c22ab16ea36>@@V<lambda_38119f0e861e05405d8a144b9b982f0a>@@@?$__crt_seh_guarded_call@X@@QEAAX$$QEAV<lambda_410d79af7f07d98d83a3f525b3859a53>@@AEAV<lambda_3e16ef9562a7dcce91392c22ab16ea36>@@$$QEAV<lambda_38119f0e861e05405d8a144b9b982f0a>@@@Z 00000001800e2ec4 f   libucrt:wsetlocale.obj
 0001:000e2568       ??$common_getenv_nolock@D@@YAPEADQEBD@Z 00000001800e3568 f   libucrt:getenv.obj
 0001:000e25f4       ??$common_getenv_s@D@@YAHQEA_KQEAD_KQEBD@Z 00000001800e35f4 f   libucrt:getenv.obj
 0001:000e2bb0       fallbackMethod             00000001800e3bb0 f   libucrt:strpbrk.obj
 0001:000e2f74       $LN78                      00000001800e3f74     libucrt:strpbrk.obj
 0001:000e2fb0       $LN77                      00000001800e3fb0     libucrt:strpbrk.obj
 0001:000e2ff0       $LN76                      00000001800e3ff0     libucrt:strpbrk.obj
 0001:000e325c       ?__acrt_LCMapStringA_stat@@YAHPEAU__crt_locale_pointers@@PEB_WKPEBDHPEADHHH@Z 00000001800e425c f   libucrt:lcmapstringa.obj
 0001:000e360c       ?initialize_multibyte@@YAHXZ 00000001800e460c f   libucrt:multibyte_initializer.obj
 0001:000e3bf8       ??$?RV<lambda_a37b2b86f63e897a80ea819b0eb08c01>@@AEAV<lambda_38ce7e780aa69e748d6df282ebc68efe>@@V<lambda_99fb1378e971ab6e7edea83e3a7a83a2>@@@?$__crt_seh_guarded_call@H@@QEAAH$$QEAV<lambda_a37b2b86f63e897a80ea819b0eb08c01>@@AEAV<lambda_38ce7e780aa69e748d6df282ebc68efe>@@$$QEAV<lambda_99fb1378e971ab6e7edea83e3a7a83a2>@@@Z 00000001800e4bf8 f   libucrt:commit.obj
 0001:000e3d18       ?write_double_translated_ansi_nolock@@YA?AUwrite_result@?A0x17268360@@HQEBDI@Z 00000001800e4d18 f   libucrt:write.obj
 0001:000e41e8       ?write_text_ansi_nolock@@YA?AUwrite_result@?A0x17268360@@HQEBDI@Z 00000001800e51e8 f   libucrt:write.obj
 0001:000e42ec       ?write_text_utf16le_nolock@@YA?AUwrite_result@?A0x17268360@@HQEBDI@Z 00000001800e52ec f   libucrt:write.obj
 0001:000e4408       ?write_text_utf8_nolock@@YA?AUwrite_result@?A0x17268360@@HQEBDI@Z 00000001800e5408 f   libucrt:write.obj
 0001:000e4e0c       ?free_crt_array_internal@@YAXQEAPEBX_K@Z 00000001800e5e0c f   libucrt:inittime.obj
 0001:000e511c       ?InternalCompareStringA@@YAHPEAU__crt_locale_pointers@@PEB_WKPEBDH2HH@Z 00000001800e611c f   libucrt:comparestringa.obj
 0001:000e5510       ??$common_lseek_nolock@_J@@YA_JH_JH@Z 00000001800e6510 f   libucrt:lseek.obj
 0001:000e58c0       $$000000                   00000001800e68c0     libucrt:log10.obj
 0001:000e5f9c       ??$?RV<lambda_751a882b2c74d4b022dec766aa51a29a>@@AEAV<lambda_628dfdc04ba53c8bfc02c9951375f3f5>@@V<lambda_f6c7be5f7998530c34de24c7437d6b54>@@@?$__crt_seh_guarded_call@H@@QEAAH$$QEAV<lambda_751a882b2c74d4b022dec766aa51a29a>@@AEAV<lambda_628dfdc04ba53c8bfc02c9951375f3f5>@@$$QEAV<lambda_f6c7be5f7998530c34de24c7437d6b54>@@@Z 00000001800e6f9c f   libucrt:close.obj
 0001:000e6190       _call_matherr              00000001800e7190 f   libucrt:libm_error.obj
 0001:000e61f8       _exception_enabled         00000001800e71f8 f   libucrt:libm_error.obj
 0001:000e6470       _log_special_common        00000001800e7470 f   libucrt:log_special.obj
 0001:000e6510       $$000000                   00000001800e7510     libucrt:fpsr.obj
 0001:000e6b90       $$000000                   00000001800e7b90     LIBCMT:chkstk.obj
 0001:000e6bf0       $$000000                   00000001800e7bf0     libvcruntime:memcmp.obj
 0001:000e6cd0       $$000000                   00000001800e7cd0     libvcruntime:memchr.obj
 0001:000e6d50       $$000000                   00000001800e7d50     libucrt:strcmp.obj
 0001:000e6dd0       $$000000                   00000001800e7dd0     LIBCMT:guard_dispatch.obj
 0001:000e6df0       $$000000                   00000001800e7df0     LIBCMT:guard_xfg_dispatch.obj
 0001:000e6e10       sqlite3WalBeginReadTransaction$filt$0 00000001800e7e10 f   sqlite.obj
 0001:000e6e10       sqlite3WalFindFrame$filt$0 00000001800e7e10 f   sqlite.obj
 0001:000e6e90       sqlite3WalBeginWriteTransaction$filt$0 00000001800e7e90 f   sqlite.obj
 0001:000e6f10       sqlite3WalUndo$filt$0      00000001800e7f10 f   sqlite.obj
 0001:000e6f90       sqlite3WalSavepointUndo$filt$0 00000001800e7f90 f   sqlite.obj
 0001:000e7010       sqlite3WalFrames$filt$0    00000001800e8010 f   sqlite.obj
 0001:000e7090       sqlite3WalCheckpoint$filt$0 00000001800e8090 f   sqlite.obj
 0001:000e7107       ?fin$0@?0??dllmain_crt_process_attach@@YAHQEAUHINSTANCE__@@QEAX@Z@4HA 00000001800e8107 f   LIBCMT:dll_dllmain.obj
 0001:000e711e       ?fin$0@?0??dllmain_crt_process_detach@@YAH_N@Z@4HA 00000001800e811e f   LIBCMT:dll_dllmain.obj
 0001:000e7137       ?fin$1@?0??dllmain_crt_process_detach@@YAH_N@Z@4HA 00000001800e8137 f   LIBCMT:dll_dllmain.obj
 0001:000e714b       ?filt$0@?0??dllmain_dispatch@@YAHQEAUHINSTANCE__@@KQEAX@Z@4HA 00000001800e814b f   LIBCMT:dll_dllmain.obj
 0001:000e7181       __scrt_is_nonwritable_in_current_image$filt$0 00000001800e8181 f   LIBCMT:utility.obj
 0001:000e7199       __DestructExceptionObject$filt$0 00000001800e8199 f   libvcruntime:ehhelpers.obj
 0001:000e722f       ?filt$0@?0???$thread_start@P6AIPEAX@Z$00@@YAKQEAX@Z@4HA 00000001800e822f f   libucrt:thread.obj
 0001:000e724d       ?fin$0@?0???$?RV<lambda_0ae27a3a962d80f24befdcbee591983d>@@AEAV<lambda_8d0ee55de4b1038c4002e0adecdf1839>@@V<lambda_dc504788e8f1664fe9b84e20bfb512f2>@@@?$__crt_seh_guarded_call@X@@QEAAX$$QEAV<lambda_0ae27a3a962d80f24befdcbee591983d>@@AEAV<lambda_8d0ee55de4b1038c4002e0adecdf1839>@@$$QEAV<lambda_dc504788e8f1664fe9b84e20bfb512f2>@@@Z@4HA 00000001800e824d f   libucrt:per_thread_data.obj
 0001:000e724d       ?fin$0@?0???$?RV<lambda_2d41944a1d46af3157314b8a01080d33>@@AEAV<lambda_8f455de75cd7d7f24b4096f044d8b9e6>@@V<lambda_aa500f224e6afead328df44964fe2772>@@@?$__crt_seh_guarded_call@X@@QEAAX$$QEAV<lambda_2d41944a1d46af3157314b8a01080d33>@@AEAV<lambda_8f455de75cd7d7f24b4096f044d8b9e6>@@$$QEAV<lambda_aa500f224e6afead328df44964fe2772>@@@Z@4HA 00000001800e824d f   libucrt:per_thread_data.obj
 0001:000e724d       ?fin$0@?0???$?RV<lambda_aa87e3671a710a21b5dc78c0bdf72e11>@@AEAV<lambda_92619d2358a28f41a33ba319515a20b9>@@V<lambda_6992ecaafeb10aed2b74cb1fae11a551>@@@?$__crt_seh_guarded_call@X@@QEAAX$$QEAV<lambda_aa87e3671a710a21b5dc78c0bdf72e11>@@AEAV<lambda_92619d2358a28f41a33ba319515a20b9>@@$$QEAV<lambda_6992ecaafeb10aed2b74cb1fae11a551>@@@Z@4HA 00000001800e824d f   libucrt:per_thread_data.obj
 0001:000e724d       ?fin$0@?0???$?RV<lambda_f2e299630e499de9f9a165e60fcd3db5>@@AEAV<lambda_2ae9d31cdba2644fcbeaf08da7c24588>@@V<lambda_40d01ff24d0e7b3814fdbdcee8eab3c7>@@@?$__crt_seh_guarded_call@X@@QEAAX$$QEAV<lambda_f2e299630e499de9f9a165e60fcd3db5>@@AEAV<lambda_2ae9d31cdba2644fcbeaf08da7c24588>@@$$QEAV<lambda_40d01ff24d0e7b3814fdbdcee8eab3c7>@@@Z@4HA 00000001800e824d f   libucrt:per_thread_data.obj
 0001:000e724d       ?fin$0@?0???$?RV<lambda_efdfa57d1f175319df784efa44bb7b81>@@AEAV<lambda_5f0a4c1567f8adc6734073e5d1e1b35c>@@V<lambda_2e8a7d3640ea6ccb4c2413664c2db6fd>@@@?$__crt_seh_guarded_call@X@@QEAAX$$QEAV<lambda_efdfa57d1f175319df784efa44bb7b81>@@AEAV<lambda_5f0a4c1567f8adc6734073e5d1e1b35c>@@$$QEAV<lambda_2e8a7d3640ea6ccb4c2413664c2db6fd>@@@Z@4HA 00000001800e824d f   libucrt:mbctype.obj
 0001:000e724d       ?fin$0@?0???$?RV<lambda_450d765d439847d4c735a33c368b5fc0>@@AEAV<lambda_44731a7d0e6d81c3e6aa82d741081786>@@V<lambda_601a2a7da3b7a96e9554ac7215c4b07c>@@@?$__crt_seh_guarded_call@P6AXH@Z@@QEAAP6AXH@Z$$QEAV<lambda_450d765d439847d4c735a33c368b5fc0>@@AEAV<lambda_44731a7d0e6d81c3e6aa82d741081786>@@$$QEAV<lambda_601a2a7da3b7a96e9554ac7215c4b07c>@@@Z@4HA 00000001800e824d f   libucrt:signal.obj
 0001:000e724d       ?fin$0@?0???$?RV<lambda_d80eeec6fff315bfe5c115232f3240e3>@@AEAV<lambda_6e4b09c48022b2350581041d5f6b0c4c>@@V<lambda_2358e3775559c9db80273638284d5e45>@@@?$__crt_seh_guarded_call@X@@QEAAX$$QEAV<lambda_d80eeec6fff315bfe5c115232f3240e3>@@AEAV<lambda_6e4b09c48022b2350581041d5f6b0c4c>@@$$QEAV<lambda_2358e3775559c9db80273638284d5e45>@@@Z@4HA 00000001800e824d f   libucrt:exit.obj
 0001:000e724d       ?fin$0@?0???$?RV<lambda_7777bce6b2f8c936911f934f8298dc43>@@AEAV<lambda_f03950bc5685219e0bcd2087efbe011e>@@V<lambda_3883c3dff614d5e0c5f61bb1ac94921c>@@@?$__crt_seh_guarded_call@H@@QEAAH$$QEAV<lambda_7777bce6b2f8c936911f934f8298dc43>@@AEAV<lambda_f03950bc5685219e0bcd2087efbe011e>@@$$QEAV<lambda_3883c3dff614d5e0c5f61bb1ac94921c>@@@Z@4HA 00000001800e824d f   libucrt:onexit.obj
 0001:000e7267       ?filt$0@?0???R<lambda_6e4b09c48022b2350581041d5f6b0c4c>@@QEBA@XZ@4HA 00000001800e8267 f   libucrt:exit.obj
 0001:000e7282       __tzset$fin$0              00000001800e8282 f   libucrt:tzset.obj
 0001:000e7282       _isindst$fin$0             00000001800e8282 f   libucrt:tzset.obj
 0001:000e729b       ?fin$0@?0??update_thread_multibyte_data_internal@@YAPEAU__crt_multibyte_data@@QEAU__acrt_ptd@@QEAPEAU1@@Z@4HA 00000001800e829b f   libucrt:mbctype.obj
 0001:000e72b4       __acrt_initialize_lowio$fin$0 00000001800e82b4 f   libucrt:ioinit.obj
 0001:000e72b4       __acrt_lowio_ensure_fh_exists$fin$0 00000001800e82b4 f   libucrt:osfinfo.obj
 0001:000e72cd       _query_new_handler$fin$0   00000001800e82cd f   libucrt:new_handler.obj
 0001:000e72e3       raise$fin$0                00000001800e82e3 f   libucrt:signal.obj
 0001:000e7304       ?fin$0@?0???$?RV<lambda_842d9ff0dc9ef11c61343bbaebe7f885>@@AEAV<lambda_c5860995281e5c4ce005b3de8f5874ee>@@V<lambda_d90129c13df834fdcbf8d2b88dafcf2d>@@@?$__crt_seh_guarded_call@X@@QEAAX$$QEAV<lambda_842d9ff0dc9ef11c61343bbaebe7f885>@@AEAV<lambda_c5860995281e5c4ce005b3de8f5874ee>@@$$QEAV<lambda_d90129c13df834fdcbf8d2b88dafcf2d>@@@Z@4HA 00000001800e8304 f   libucrt:fflush.obj
 0001:000e731f       ?fin$0@?0???$?RV<lambda_886d6c58226a84441f68b9f2b8217b83>@@AEAV<lambda_ab61a845afdef5b7c387490eaf3616ee>@@V<lambda_f7f22ab5edc0698d5f6905b0d3f44752>@@@?$__crt_seh_guarded_call@X@@QEAAX$$QEAV<lambda_886d6c58226a84441f68b9f2b8217b83>@@AEAV<lambda_ab61a845afdef5b7c387490eaf3616ee>@@$$QEAV<lambda_f7f22ab5edc0698d5f6905b0d3f44752>@@@Z@4HA 00000001800e831f f   libucrt:fflush.obj
 0001:000e733c       ?fin$0@?0???$?RV<lambda_410d79af7f07d98d83a3f525b3859a53>@@AEAV<lambda_3e16ef9562a7dcce91392c22ab16ea36>@@V<lambda_38119f0e861e05405d8a144b9b982f0a>@@@?$__crt_seh_guarded_call@X@@QEAAX$$QEAV<lambda_410d79af7f07d98d83a3f525b3859a53>@@AEAV<lambda_3e16ef9562a7dcce91392c22ab16ea36>@@$$QEAV<lambda_38119f0e861e05405d8a144b9b982f0a>@@@Z@4HA 00000001800e833c f   libucrt:wsetlocale.obj
 0001:000e7356       __acrt_update_thread_locale_data$fin$0 00000001800e8356 f   libucrt:locale_refcounting.obj
 0001:000e736f       ?fin$0@?0???$common_getenv_s@D@@YAHQEA_KQEAD_KQEBD@Z@4HA 00000001800e836f f   libucrt:getenv.obj
 0001:000e7388       ?fin$0@?0???$?RV<lambda_751a882b2c74d4b022dec766aa51a29a>@@AEAV<lambda_628dfdc04ba53c8bfc02c9951375f3f5>@@V<lambda_f6c7be5f7998530c34de24c7437d6b54>@@@?$__crt_seh_guarded_call@H@@QEAAH$$QEAV<lambda_751a882b2c74d4b022dec766aa51a29a>@@AEAV<lambda_628dfdc04ba53c8bfc02c9951375f3f5>@@$$QEAV<lambda_f6c7be5f7998530c34de24c7437d6b54>@@@Z@4HA 00000001800e8388 f   libucrt:close.obj
 0001:000e7388       ?fin$0@?0???$?RV<lambda_a37b2b86f63e897a80ea819b0eb08c01>@@AEAV<lambda_38ce7e780aa69e748d6df282ebc68efe>@@V<lambda_99fb1378e971ab6e7edea83e3a7a83a2>@@@?$__crt_seh_guarded_call@H@@QEAAH$$QEAV<lambda_a37b2b86f63e897a80ea819b0eb08c01>@@AEAV<lambda_38ce7e780aa69e748d6df282ebc68efe>@@$$QEAV<lambda_99fb1378e971ab6e7edea83e3a7a83a2>@@@Z@4HA 00000001800e8388 f   libucrt:commit.obj
 0001:000e73a2       _write$fin$0               00000001800e83a2 f   libucrt:write.obj
 0001:000e73b9       _fcloseall$fin$0           00000001800e83b9 f   libucrt:closeall.obj
 0001:000e73d2       fclose$fin$0               00000001800e83d2 f   libucrt:fclose.obj
 0001:000e73ea       _ctrlfp$filt$0             00000001800e83ea f   libucrt:fpctrl.obj
 0001:000e7420       _IsNonwritableInCurrentImage$filt$0 00000001800e8420 f   LIBCMT:pesect.obj
 0002:00000448       GS_ExceptionPointers       00000001800e9448     LIBCMT:gs_report.obj
 0002:00000470       ?tokenTable@@3QBUStringLiteral@@B 00000001800e9470     libvcruntime:undname.obj
 0002:00000570       ?nameTable@@3QBUStringLiteral@@B 00000001800e9570     libvcruntime:undname.obj
 0002:00000aa0       ?rttiTable@@3QBUStringLiteral@@B 00000001800e9aa0     libvcruntime:undname.obj
 0002:00000af0       ?IndirectionName@@3QBUStringLiteral@@B 00000001800e9af0     libvcruntime:undname.obj
 0002:00000b50       ?PrefixName@@3QBUStringLiteral@@B 00000001800e9b50     libvcruntime:undname.obj
 0002:00001208       ?module_names@?A0xf6f43728@@3QBQEB_WB 00000001800ea208     libvcruntime:winapi_downlevel.obj
 0002:000012c8       ?candidate_modules@?1??try_get_FlsAlloc@@YAP6AKP6AXPEAX@Z@ZXZ@4QBW4module_id@?A0xf6f43728@@B 00000001800ea2c8     libvcruntime:winapi_downlevel.obj
 0002:000012e0       ?candidate_modules@?1??try_get_FlsFree@@YAP6AHK@ZXZ@4QBW4module_id@?A0xf6f43728@@B 00000001800ea2e0     libvcruntime:winapi_downlevel.obj
 0002:000012f0       ?candidate_modules@?1??try_get_FlsGetValue@@YAP6APEAXK@ZXZ@4QBW4module_id@?A0xf6f43728@@B 00000001800ea2f0     libvcruntime:winapi_downlevel.obj
 0002:00001308       ?candidate_modules@?1??try_get_FlsSetValue@@YAP6AHKPEAX@ZXZ@4QBW4module_id@?A0xf6f43728@@B 00000001800ea308     libvcruntime:winapi_downlevel.obj
 0002:00001320       ?candidate_modules@?1??try_get_InitializeCriticalSectionEx@@YAP6AHPEAU_RTL_CRITICAL_SECTION@@KK@ZXZ@4QBW4module_id@?A0xf6f43728@@B 00000001800ea320     libvcruntime:winapi_downlevel.obj
 0002:00001450       __acrt_initializers        00000001800ea450     libucrt:initialization.obj
 0002:00001550       ?errtable@@3QBUerrentry@?A0x31fdb9ec@@B 00000001800ea550     libucrt:errno.obj
 0002:000016c0       ?module_names@?A0x391cf84c@@3QBQEB_WB 00000001800ea6c0     libucrt:winapi_thunks.obj
 0002:00001bc8       ?candidate_modules@?1??try_get_AreFileApisANSI@@YAP6AHXZXZ@4QBW4module_id@?A0x391cf84c@@B 00000001800eabc8     libucrt:winapi_thunks.obj
 0002:00001bd0       ?candidate_modules@?1??try_get_CompareStringEx@@YAP6AHPEB_WK0H0HPEAU_nlsversioninfo@@PEAX_J@ZXZ@4QBW4module_id@?A0x391cf84c@@B 00000001800eabd0     libucrt:winapi_thunks.obj
 0002:00001be8       ?candidate_modules@?1??try_get_FlsAlloc@@YAP6AKP6AXPEAX@Z@ZXZ@4QBW4module_id@?A0x391cf84c@@B 00000001800eabe8     libucrt:winapi_thunks.obj
 0002:00001bf0       ?candidate_modules@?1??try_get_FlsFree@@YAP6AHK@ZXZ@4QBW4module_id@?A0x391cf84c@@B 00000001800eabf0     libucrt:winapi_thunks.obj
 0002:00001bf8       ?candidate_modules@?1??try_get_FlsGetValue@@YAP6APEAXK@ZXZ@4QBW4module_id@?A0x391cf84c@@B 00000001800eabf8     libucrt:winapi_thunks.obj
 0002:00001c00       ?candidate_modules@?1??try_get_FlsSetValue@@YAP6AHKPEAX@ZXZ@4QBW4module_id@?A0x391cf84c@@B 00000001800eac00     libucrt:winapi_thunks.obj
 0002:00001c08       ?candidate_modules@?1??try_get_InitializeCriticalSectionEx@@YAP6AHPEAU_RTL_CRITICAL_SECTION@@KK@ZXZ@4QBW4module_id@?A0x391cf84c@@B 00000001800eac08     libucrt:winapi_thunks.obj
 0002:00001c10       ?candidate_modules@?1??try_get_LCMapStringEx@@YAP6AHPEB_WK0HPEA_WHPEAU_nlsversioninfo@@PEAX_J@ZXZ@4QBW4module_id@?A0x391cf84c@@B 00000001800eac10     libucrt:winapi_thunks.obj
 0002:00001c28       ?candidate_modules@?1??try_get_LocaleNameToLCID@@YAP6AKPEB_WK@ZXZ@4QBW4module_id@?A0x391cf84c@@B 00000001800eac28     libucrt:winapi_thunks.obj
 0002:00001c44       ?candidate_modules@?1??try_get_RoInitialize@@YAP6AJW4RO_INIT_TYPE@@@ZXZ@4QBW4module_id@?A0x391cf84c@@B 00000001800eac44     libucrt:winapi_thunks.obj
 0002:00001c58       ?candidate_modules@?1??try_get_RoUninitialize@@YAP6AXXZXZ@4QBW4module_id@?A0x391cf84c@@B 00000001800eac58     libucrt:winapi_thunks.obj
 0002:00001c70       ?candidate_modules@?1??try_get_AppPolicyGetProcessTerminationMethod@@YAP6AJPEAXPEAW4AppPolicyProcessTerminationMethod@@@ZXZ@4QBW4module_id@?A0x391cf84c@@B 00000001800eac70     libucrt:winapi_thunks.obj
 0002:00001ca0       ?candidate_modules@?1??try_get_AppPolicyGetThreadInitializationType@@YAP6AJPEAXPEAW4AppPolicyThreadInitializationType@@@ZXZ@4QBW4module_id@?A0x391cf84c@@B 00000001800eaca0     libucrt:winapi_thunks.obj
 0002:00001cd8       ?_mb_locale_names@@3QBQEB_WB 00000001800eacd8     libucrt:mbctype.obj
 0002:000029c0       ?LcidToLocaleNameTable@?A0x881e4c05@@3QBULcidToLocaleName@1@B 00000001800eb9c0     libucrt:lcidtoname_downlevel.obj
 0002:00004420       ?LocaleNameToIndexTable@?A0x881e4c05@@3QBULocaleNameIndex@1@B 00000001800ed420     libucrt:lcidtoname_downlevel.obj
 0002:00005d30       __real_ninf                00000001800eed30     libucrt:log10.obj
 0002:00005d40       __real_inf                 00000001800eed40     libucrt:log10.obj
 0002:00005d50       __real_neg_qnan            00000001800eed50     libucrt:log10.obj
 0002:00005d60       __real_qnanbit             00000001800eed60     libucrt:log10.obj
 0002:00005d70       __int_1023                 00000001800eed70     libucrt:log10.obj
 0002:00005d80       __mask_001                 00000001800eed80     libucrt:log10.obj
 0002:00005d90       __mask_mant                00000001800eed90     libucrt:log10.obj
 0002:00005da0       __mask_mant_top8           00000001800eeda0     libucrt:log10.obj
 0002:00005db0       __mask_mant9               00000001800eedb0     libucrt:log10.obj
 0002:00005dc0       __real_log10_e             00000001800eedc0     libucrt:log10.obj
 0002:00005dd0       __real_log10_e_lead        00000001800eedd0     libucrt:log10.obj
 0002:00005de0       __real_log10_e_tail        00000001800eede0     libucrt:log10.obj
 0002:00005df0       __real_log10_2_lead        00000001800eedf0     libucrt:log10.obj
 0002:00005e00       __real_log10_2_tail        00000001800eee00     libucrt:log10.obj
 0002:00005e10       __real_two                 00000001800eee10     libucrt:log10.obj
 0002:00005e20       __real_one                 00000001800eee20     libucrt:log10.obj
 0002:00005e30       __real_half                00000001800eee30     libucrt:log10.obj
 0002:00005e40       __mask_100                 00000001800eee40     libucrt:log10.obj
 0002:00005e50       __real_1_over_512          00000001800eee50     libucrt:log10.obj
 0002:00005e60       __real_1_over_2            00000001800eee60     libucrt:log10.obj
 0002:00005e70       __real_1_over_3            00000001800eee70     libucrt:log10.obj
 0002:00005e80       __real_1_over_4            00000001800eee80     libucrt:log10.obj
 0002:00005e90       __real_1_over_5            00000001800eee90     libucrt:log10.obj
 0002:00005ea0       __real_1_over_6            00000001800eeea0     libucrt:log10.obj
 0002:00005eb0       __real_neg_1023            00000001800eeeb0     libucrt:log10.obj
 0002:00005ec0       __mask_2045                00000001800eeec0     libucrt:log10.obj
 0002:00005ed0       __real_threshold           00000001800eeed0     libucrt:log10.obj
 0002:00005ee0       __real_near_one_lt         00000001800eeee0     libucrt:log10.obj
 0002:00005ef0       __real_near_one_gt         00000001800eeef0     libucrt:log10.obj
 0002:00005f00       __real_min_norm            00000001800eef00     libucrt:log10.obj
 0002:00005f10       __real_notsign             00000001800eef10     libucrt:log10.obj
 0002:00005f20       __real_ca1                 00000001800eef20     libucrt:log10.obj
 0002:00005f30       __real_ca2                 00000001800eef30     libucrt:log10.obj
 0002:00005f40       __real_ca3                 00000001800eef40     libucrt:log10.obj
 0002:00005f50       __real_ca4                 00000001800eef50     libucrt:log10.obj
 0002:00005f60       __mask_lower               00000001800eef60     libucrt:log10.obj
 0002:00005f70       __flag_x_zero              00000001800eef70     libucrt:log10.obj
 0002:00005f74       __flag_x_neg               00000001800eef74     libucrt:log10.obj
 0002:00005f78       __flag_x_nan               00000001800eef78     libucrt:log10.obj
 0002:000077d0       __real@433fffffffffffff    00000001800f07d0     libucrt:fpsr.obj
 0002:000077d8       __real@c33fffffffffffff    00000001800f07d8     libucrt:fpsr.obj
 0002:0000f098       ?aEnc@?1??synthCollSeq@@9@9 00000001800f8098     sqlite.obj
 0002:0000f0a0       ?aCopy@?M@??sqlite3RunVacuum@@9@9 00000001800f80a0     sqlite.obj
 0002:0000f0b0       ?aMsg@?1??sqlite3ErrStr@@9@9 00000001800f80b0     sqlite.obj
 0002:0000f1a0       ?defaultMethods@?1??sqlite3PCacheSetDefault@@9@9 00000001800f81a0     sqlite.obj
 0002:0000f210       sqlite3BuiltinExtensions   00000001800f8210     sqlite.obj
 0002:0000f220       ?and_logic@?JA@??sqlite3VdbeExec@@9@9 00000001800f8220     sqlite.obj
 0002:0000f22c       rankName                   00000001800f822c     sqlite.obj
 0002:0000f238       ?az@?2??sqlite3Savepoint@@9@9 00000001800f8238     sqlite.obj
 0002:0000f250       ?emptyObject@?1??jsonCreateEditSubstructure@@9@9 00000001800f8250     sqlite.obj
 0002:0000f260       sqlite3Utf8Trans1          00000001800f8260     sqlite.obj
 0002:0000f2a0       iExplainColNames16         00000001800f82a0     sqlite.obj
 0002:0000f2ac       likeInfoNorm               00000001800f82ac     sqlite.obj
 0002:0000f2b0       ?azErr@?1??windowCheckValue@@9@9 00000001800f82b0     sqlite.obj
 0002:0000f2d8       ?aStart@?HL@??sqlite3WhereCodeOneLoopStart@@9@9 00000001800f82d8     sqlite.obj
 0002:0000f2dc       aPrefix                    00000001800f82dc     sqlite.obj
 0002:0000f2f0       ?aSpecial@?BB@??jsonAppendString@@9@9 00000001800f82f0     sqlite.obj
 0002:0000f310       zKWText                    00000001800f8310     sqlite.obj
 0002:0000f5ac       sqlite3StdTypeLen          00000001800f85ac     sqlite.obj
 0002:0000f5c0       aKWLen                     00000001800f85c0     sqlite.obj
 0002:0000f660       ?detach_func@?1??sqlite3Detach@@9@9 00000001800f8660     sqlite.obj
 0002:0000f6a8       ?azType@?BK@??sqlite3VdbeExec@@9@9 00000001800f86a8     sqlite.obj
 0002:0000f6c8       ?zText@?1??getSafetyLevel@@9@9 00000001800f86c8     sqlite.obj
 0002:0000f6e4       lagName                    00000001800f86e4     sqlite.obj
 0002:0000f6f0       jsonIsSpace                00000001800f86f0     sqlite.obj
 0002:0000f7f0       sqlite3StdTypeAffinity     00000001800f87f0     sqlite.obj
 0002:0000f7f8       ?nullRow@?BC@??sqlite3StartTable@@9@9 00000001800f87f8     sqlite.obj
 0002:0000f800       ?zAff@?BC@??sqlite3ExprCodeTarget@@9@9 00000001800f8800     sqlite.obj
 0002:0000f80c       ?ops@?BI@??exprAnalyze@@9@9 00000001800f880c     sqlite.obj
 0002:0000f810       ?zFake@?1??sqlite3PagerFilename@@9@9 00000001800f8810     sqlite.obj
 0002:0000f820       yy_default                 00000001800f8820     sqlite.obj
 0002:0000fcb0       jsonbType                  00000001800f8cb0     sqlite.obj
 0002:0000fd38       ?aOp@?1??windowCheckValue@@9@9 00000001800f8d38     sqlite.obj
 0002:0000fd50       nth_valueName              00000001800f8d50     sqlite.obj
 0002:0000fd60       aKWOffset                  00000001800f8d60     sqlite.obj
 0002:0000fe90       pragmaVtabModule           00000001800f8e90     sqlite.obj
 0002:0000ff58       ?totals@?1??sqliteDefaultBusyCallback@@9@9 00000001800f8f58     sqlite.obj
 0002:0000ff68       zeroItem                   00000001800f8f68     sqlite.obj
 0002:0000ff88       ?azModeName@?1??sqlite3JournalModename@@9@9 00000001800f8f88     sqlite.obj
 0002:0000ffb8       ?zeroHdr@?4??zeroJournalHdr@@9@9 00000001800f8fb8     sqlite.obj
 0002:0000ffe0       yyRuleInfoNRhs             00000001800f8fe0     sqlite.obj
 0002:00010180       aKWCode                    00000001800f9180     sqlite.obj
 0002:00010218       ?azEndings@?1??sqlite3LoadExtension@@9@9 00000001800f9218     sqlite.obj
 0002:00010220       MemJournalMethods          00000001800f9220     sqlite.obj
 0002:000102b8       ?chacha20_init@?3??sqlite3_randomness@@9@9 00000001800f92b8     sqlite.obj
 0002:000102c8       last_valueName             00000001800f92c8     sqlite.obj
 0002:000102e0       aXformType                 00000001800f92e0     sqlite.obj
 0002:00010340       ?aTable@?1??openStatTable@@9@9 00000001800f9340     sqlite.obj
 0002:00010370       aDigits                    00000001800f9370     sqlite.obj
 0002:000103a0       ?aFlagOp@?5??sqlite3_db_config@@9@9 00000001800f93a0     sqlite.obj
 0002:00010430       pragCName                  00000001800f9430     sqlite.obj
 0002:000105f8       ?aMJNeeded@?4??vdbeCommit@@9@9 00000001800f95f8     sqlite.obj
 0002:00010600       ?attach_func@?1??sqlite3Attach@@9@9 00000001800f9600     sqlite.obj
 0002:00010648       aHardLimit                 00000001800f9648     sqlite.obj
 0002:00010680       sqlite3CtypeMap            00000001800f9680     sqlite.obj
 0002:00010790       ?azType@?8??createTableStmt@@9@9 00000001800f9790     sqlite.obj
 0002:000107c0       ?iOffset@?1??getSafetyLevel@@9@9 00000001800f97c0     sqlite.obj
 0002:000107c8       statMutex                  00000001800f97c8     sqlite.obj
 0002:000107d8       dense_rankName             00000001800f97d8     sqlite.obj
 0002:000107e4       likeInfoAlt                00000001800f97e4     sqlite.obj
 0002:000107e8       ?or_logic@?JB@??sqlite3VdbeExec@@9@9 00000001800f97e8     sqlite.obj
 0002:00010800       winIoMethod                00000001800f9800     sqlite.obj
 0002:000108a0       yy_reduce_ofst             00000001800f98a0     sqlite.obj
 0002:00010bd8       ?azType@?1??typeofFunc@@9@9 00000001800f9bd8     sqlite.obj
 0002:00010c00       memdb_io_methods           00000001800f9c00     sqlite.obj
 0002:00010c98       sqlite3StrBINARY           00000001800f9c98     sqlite.obj
 0002:00010ca0       aNanInfName                00000001800f9ca0     sqlite.obj
 0002:00010d18       ?zerobyte@?5??syncJournal@@9@9 00000001800f9d18     sqlite.obj
 0002:00010d1c       globInfo                   00000001800f9d1c     sqlite.obj
 0002:00010d20       ?aOp@?2??isAuxiliaryVtabOperator@@9@9 00000001800f9d20     sqlite.obj
 0002:00010d60       winIoNolockMethod          00000001800f9d60     sqlite.obj
 0002:00010e00       sqlite3SmallTypeSizes      00000001800f9e00     sqlite.obj
 0002:00010e80       ?aLen@?2??vdbeSorterCompareInt@@9@9 00000001800f9e80     sqlite.obj
 0002:00010e90       ?aMx@?1??getDigits@@9@9    00000001800f9e90     sqlite.obj
 0002:00010ea0       ?azAlterType@?4??corruptSchema@@9@9 00000001800f9ea0     sqlite.obj
 0002:00010eb8       jsonSpaces                 00000001800f9eb8     sqlite.obj
 0002:00010ec0       sqlite3Apis                00000001800f9ec0     sqlite.obj
 0002:00011730       ?azOne@?3??trimFunc@@9@9   00000001800fa730     sqlite.obj
 0002:00011740       statGetFuncdef             00000001800fa740     sqlite.obj
 0002:00011788       ?aCode@?7??sqlite3StartTable@@9@9 00000001800fa788     sqlite.obj
 0002:00011790       ?iLength@?1??getSafetyLevel@@9@9 00000001800fa790     sqlite.obj
 0002:00011798       ?nullMem@?1??columnNullValue@@9@9 00000001800fa798     sqlite.obj
 0002:000117d0       sqlite3UpperToLower        00000001800fa7d0     sqlite.obj
 0002:000118e8       ?a@?1??sqlite3LogEst@@9@9  00000001800fa8e8     sqlite.obj
 0002:00011900       ?endCode@?BAJ@??sqlite3Pragma@@9@9 00000001800fa900     sqlite.obj
 0002:00011920       statInitFuncdef            00000001800fa920     sqlite.obj
 0002:00011968       ?delays@?1??sqliteDefaultBusyCallback@@9@9 00000001800fa968     sqlite.obj
 0002:00011978       ?setCookie@?BBE@??sqlite3Pragma@@9@9 00000001800fa978     sqlite.obj
 0002:00011980       yyRuleInfoLhs              00000001800fa980     sqlite.obj
 0002:00011cb0       aJournalMagic              00000001800facb0     sqlite.obj
 0002:00011cc0       ?encnames@?BAL@??sqlite3Pragma@@9@9 00000001800facc0     sqlite.obj
 0002:00011d50       first_valueName            00000001800fad50     sqlite.obj
 0002:00011d60       aPragmaName                00000001800fad60     sqlite.obj
 0002:000123b0       hexdigits                  00000001800fb3b0     sqlite.obj
 0002:000123c0       ?aKeyword@?1??sqlite3JoinType@@9@9 00000001800fb3c0     sqlite.obj
 0002:000123d8       ?aStartOp@?CH@??sqlite3WhereCodeOneLoopStart@@9@9 00000001800fb3d8     sqlite.obj
 0002:000123e0       yy_action                  00000001800fb3e0     sqlite.obj
 0002:00013448       ?zKeyText@?1??sqlite3JoinType@@9@9 00000001800fc448     sqlite.obj
 0002:00013470       sqlite3azCompileOpt        00000001800fc470     sqlite.obj
 0002:000135a0       ?aVal@?1??sqlite3DefaultRowEst@@9@9 00000001800fc5a0     sqlite.obj
 0002:000135b0       ?defaultMethods@?1??sqlite3MemSetDefault@@9@9 00000001800fc5b0     sqlite.obj
 0002:000135f0       sqlite3OpcodeProperty      00000001800fc5f0     sqlite.obj
 0002:000136b0       ntileName                  00000001800fc6b0     sqlite.obj
 0002:000136b8       ?aFlag@?NF@??sqlite3VdbeExec@@9@9 00000001800fc6b8     sqlite.obj
 0002:000136bc       ?aStep@?HL@??sqlite3WhereCodeOneLoopStart@@9@9 00000001800fc6bc     sqlite.obj
 0002:000136c0       ?azTypes@?1??vdbeMemTypeName@@9@9 00000001800fc6c0     sqlite.obj
 0002:000136f0       yy_lookahead               00000001800fc6f0     sqlite.obj
 0002:000148d0       ?aMod@?1??sqlite3JsonTableFunctions@@9@9 00000001800fd8d0     sqlite.obj
 0002:000148f0       ?azEnc@?3??pragmaFunclistLine@@9@9 00000001800fd8f0     sqlite.obj
 0002:00014910       ?x@?1??sqlite3LogEstAdd@@9@9 00000001800fd910     sqlite.obj
 0002:00014930       ?aEndOp@?CH@??sqlite3WhereCodeOneLoopStart@@9@9 00000001800fd930     sqlite.obj
 0002:00014934       ?aFlag@?N@??sqlite3VdbeSerialGet@@9@9 00000001800fd934     sqlite.obj
 0002:00014940       fmtinfo                    00000001800fd940     sqlite.obj
 0002:000149d0       ?aType@?1??sqlite3_value_type@@9@9 00000001800fd9d0     sqlite.obj
 0002:00014a10       yy_shift_ofst              00000001800fda10     sqlite.obj
 0002:00014e98       zMagicHeader               00000001800fde98     sqlite.obj
 0002:00014ea8       ?readCookie@?BBG@??sqlite3Pragma@@9@9 00000001800fdea8     sqlite.obj
 0002:00014eb8       ?encnames@?6??sqlite3VdbeDisplayP4@@9@9 00000001800fdeb8     sqlite.obj
 0002:00014ee0       ?sMutex@?1??sqlite3DefaultMutex@@9@9 00000001800fdee0     sqlite.obj
 0002:00014f30       yyFallback                 00000001800fdf30     sqlite.obj
 0002:000150b0       ?zChars@?1??winGetTempname@@9@9 00000001800fe0b0     sqlite.obj
 0002:000150f0       percent_rankName           00000001800fe0f0     sqlite.obj
 0002:00015100       ?lenOne@?3??trimFunc@@9@9  00000001800fe100     sqlite.obj
 0002:00015110       ?sMutex@?1??sqlite3NoopMutex@@9@9 00000001800fe110     sqlite.obj
 0002:00015158       leadName                   00000001800fe158     sqlite.obj
 0002:00015160       ?iValue@?1??getSafetyLevel@@9@9 00000001800fe160     sqlite.obj
 0002:00015170       azExplainColNames8         00000001800fe170     sqlite.obj
 0002:000151d0       aiClass                    00000001800fe1d0     sqlite.obj
 0002:000152d0       statPushFuncdef            00000001800fe2d0     sqlite.obj
 0002:00015318       ?outOfMem@?1??sqlite3_errmsg16@@9@9 00000001800fe318     sqlite.obj
 0002:00015340       ?trans@?1??sqlite3_complete@@9@9 00000001800fe340     sqlite.obj
 0002:00015380       ?zOrd@?DF@??sqlite3_str_vappendf@@9@9 00000001800fe380     sqlite.obj
 0002:0001538c       ?aMap@?1??sqlite3_vtab_on_conflict@@9@9 00000001800fe38c     sqlite.obj
 0002:00015398       ?aMask@?KJ@??sqlite3VdbeExec@@9@9 00000001800fe398     sqlite.obj
 0002:000153b0       jsonIsOk                   00000001800fe3b0     sqlite.obj
 0002:000154b0       row_numberName             00000001800fe4b0     sqlite.obj
 0002:000154c0       ?tkCoalesce@?BA@??sqlite3ProcessJoin@@9@9 00000001800fe4c0     sqlite.obj
 0002:000154d0       azExplainColNames16data    00000001800fe4d0     sqlite.obj
 0002:00015550       aKWHash                    00000001800fe550     sqlite.obj
 0002:000155d0       ?aStdTypeMask@?PA@??sqlite3Pragma@@9@9 00000001800fe5d0     sqlite.obj
 0002:000155e0       ?azName@?1??sqlite3OpcodeName@@9@9 00000001800fe5e0     sqlite.obj
 0002:00015bd0       cume_distName              00000001800febd0     sqlite.obj
 0002:00015be0       aKWNext                    00000001800febe0     sqlite.obj
 0002:00015c80       ?misuse@?1??sqlite3_errmsg16@@9@9 00000001800fec80     sqlite.obj
 0002:00015db0       ?kernel32@modules@@3QB_WB  00000001800fedb0     vc_crt_fix_impl.obj
 0002:00016768       $unwind$sqlite3_status64   00000001800ff768     sqlite.obj
 0002:00016774       $chain$0$sqlite3_status64  00000001800ff774     sqlite.obj
 0002:00016788       $chain$2$sqlite3_status64  00000001800ff788     sqlite.obj
 0002:000167a0       $chain$3$sqlite3_status64  00000001800ff7a0     sqlite.obj
 0002:000167b0       $chain$4$sqlite3_status64  00000001800ff7b0     sqlite.obj
 0002:000167c0       $unwind$sqlite3_status     00000001800ff7c0     sqlite.obj
 0002:000167cc       $chain$1$sqlite3_status    00000001800ff7cc     sqlite.obj
 0002:000167e4       $chain$4$sqlite3_status    00000001800ff7e4     sqlite.obj
 0002:00016800       $chain$5$sqlite3_status    00000001800ff800     sqlite.obj
 0002:00016814       $chain$6$sqlite3_status    00000001800ff814     sqlite.obj
 0002:00016824       $unwind$estimateIndexWidth 00000001800ff824     sqlite.obj
 0002:00016824       $unwind$exprRefToSrcList   00000001800ff824     sqlite.obj
 0002:00016824       $unwind$pcache1Rekey       00000001800ff824     sqlite.obj
 0002:00016824       $unwind$sqlite3DbIsNamed   00000001800ff824     sqlite.obj
 0002:00016824       $unwind$sqlite3LookasideUsed 00000001800ff824     sqlite.obj
 0002:00016824       $unwind$winGetSystemCall   00000001800ff824     sqlite.obj
 0002:0001682c       $unwind$sqlite3_db_status  00000001800ff82c     sqlite.obj
 0002:00016834       $chain$5$sqlite3_db_status 00000001800ff834     sqlite.obj
 0002:0001685c       $chain$6$sqlite3_db_status 00000001800ff85c     sqlite.obj
 0002:00016870       $chain$7$sqlite3_db_status 00000001800ff870     sqlite.obj
 0002:00016880       $chain$8$sqlite3_db_status 00000001800ff880     sqlite.obj
 0002:00016890       $unwind$getDigits          00000001800ff890     sqlite.obj
 0002:0001689c       $unwind$parseHhMmSs        00000001800ff89c     sqlite.obj
 0002:000168b0       $unwind$computeJD          00000001800ff8b0     sqlite.obj
 0002:000168b0       $unwind$sqlite3DequoteToken 00000001800ff8b0     sqlite.obj
 0002:000168b0       $unwind$sqlite3GetVarint   00000001800ff8b0     sqlite.obj
 0002:000168b8       $chain$0$computeJD         00000001800ff8b8     sqlite.obj
 0002:000168cc       $chain$1$computeJD         00000001800ff8cc     sqlite.obj
 0002:000168dc       $chain$2$computeJD         00000001800ff8dc     sqlite.obj
 0002:000168f0       $unwind$applyNumericAffinity 00000001800ff8f0     sqlite.obj
 0002:000168f0       $unwind$btreeEnterAll      00000001800ff8f0     sqlite.obj
 0002:000168f0       $unwind$dbReallocFinish    00000001800ff8f0     sqlite.obj
 0002:000168f0       $unwind$impliesNotNullRow  00000001800ff8f0     sqlite.obj
 0002:000168f0       $unwind$pagerExclusiveLock 00000001800ff8f0     sqlite.obj
 0002:000168f0       $unwind$pagerPagecount     00000001800ff8f0     sqlite.obj
 0002:000168f0       $unwind$pcache1Alloc       00000001800ff8f0     sqlite.obj
 0002:000168f0       $unwind$rowSetTreeToList   00000001800ff8f0     sqlite.obj
 0002:000168f0       $unwind$setDateTimeToCurrent 00000001800ff8f0     sqlite.obj
 0002:000168f0       $unwind$sqlite3AffinityType 00000001800ff8f0     sqlite.obj
 0002:000168f0       $unwind$sqlite3ExprIsInteger 00000001800ff8f0     sqlite.obj
 0002:000168f0       $unwind$sqlite3PagerOpenWal 00000001800ff8f0     sqlite.obj
 0002:000168f0       $unwind$sqlite3VtabBegin   00000001800ff8f0     sqlite.obj
 0002:000168f0       $unwind$sqlite3_reset      00000001800ff8f0     sqlite.obj
 0002:000168f0       $unwind$winFileControl     00000001800ff8f0     sqlite.obj
 0002:000168f0       $unwind$??$common_gmtime_s@_J@@YAHQEAUtm@@QEB_J@Z 00000001800ff8f0     libucrt:gmtime.obj
 0002:000168fc       $unwind$parseDateOrTime    00000001800ff8fc     sqlite.obj
 0002:00016910       $unwind$allocateTempSpace  00000001800ff910     sqlite.obj
 0002:00016910       $unwind$applyAffinity      00000001800ff910     sqlite.obj
 0002:00016910       $unwind$attachWithToSelect 00000001800ff910     sqlite.obj
 0002:00016910       $unwind$avgFinalize        00000001800ff910     sqlite.obj
 0002:00016910       $unwind$btreeInvokeBusyHandler 00000001800ff910     sqlite.obj
 0002:00016910       $unwind$btreeParseCellPtrNoPayload 00000001800ff910     sqlite.obj
 0002:00016910       $unwind$bytelengthFunc     00000001800ff910     sqlite.obj
 0002:00016910       $unwind$checkProgress      00000001800ff910     sqlite.obj
 0002:00016910       $unwind$compileoptionusedFunc 00000001800ff910     sqlite.obj
 0002:00016910       $unwind$computeHMS         00000001800ff910     sqlite.obj
 0002:00016910       $unwind$computeNumericType 00000001800ff910     sqlite.obj
 0002:00016910       $unwind$countFinalize      00000001800ff910     sqlite.obj
 0002:00016910       $unwind$cume_distValueFunc 00000001800ff910     sqlite.obj
 0002:00016910       $unwind$dense_rankValueFunc 00000001800ff910     sqlite.obj
 0002:00016910       $unwind$freeP4             00000001800ff910     sqlite.obj
 0002:00016910       $unwind$freeTempSpace      00000001800ff910     sqlite.obj
 0002:00016910       $unwind$getRowTrigger      00000001800ff910     sqlite.obj
 0002:00016910       $unwind$growVTrans         00000001800ff910     sqlite.obj
 0002:00016910       $unwind$invalidateTempStorage 00000001800ff910     sqlite.obj
 0002:00016910       $unwind$jsonEachClose      00000001800ff910     sqlite.obj
 0002:00016910       $unwind$jsonStringReset    00000001800ff910     sqlite.obj
 0002:00016910       $unwind$jsonStringTerminate 00000001800ff910     sqlite.obj
 0002:00016910       $unwind$last_valueInvFunc  00000001800ff910     sqlite.obj
 0002:00016910       $unwind$last_valueValueFunc 00000001800ff910     sqlite.obj
 0002:00016910       $unwind$lengthFunc         00000001800ff910     sqlite.obj
 0002:00016910       $unwind$measureAllocationSize 00000001800ff910     sqlite.obj
 0002:00016910       $unwind$memdbUnfetch       00000001800ff910     sqlite.obj
 0002:00016910       $unwind$minMaxValue        00000001800ff910     sqlite.obj
 0002:00016910       $unwind$ntileValueFunc     00000001800ff910     sqlite.obj
 0002:00016910       $unwind$out2PrereleaseWithClear 00000001800ff910     sqlite.obj
 0002:00016910       $unwind$pagerSyncHotJournal 00000001800ff910     sqlite.obj
 0002:00016910       $unwind$pcache1FreePage    00000001800ff910     sqlite.obj
 0002:00016910       $unwind$percent_rankValueFunc 00000001800ff910     sqlite.obj
 0002:00016910       $unwind$pragmaVtabClose    00000001800ff910     sqlite.obj
 0002:00016910       $unwind$pragmaVtabDisconnect 00000001800ff910     sqlite.obj
 0002:00016910       $unwind$randomFunc         00000001800ff910     sqlite.obj
 0002:00016910       $unwind$releasePageOne     00000001800ff910     sqlite.obj
 0002:00016910       $unwind$rowSetEntryAlloc   00000001800ff910     sqlite.obj
 0002:00016910       $unwind$row_numberValueFunc 00000001800ff910     sqlite.obj
 0002:00016910       $unwind$sqlite3BtreeClearTable 00000001800ff910     sqlite.obj
 0002:00016910       $unwind$sqlite3BtreeIntegerKey 00000001800ff910     sqlite.obj
 0002:00016910       $unwind$sqlite3BtreeOffset 00000001800ff910     sqlite.obj
 0002:00016910       $unwind$sqlite3BtreePayloadSize 00000001800ff910     sqlite.obj
 0002:00016910       $unwind$sqlite3DbFreeNN    00000001800ff910     sqlite.obj
 0002:00016910       $unwind$sqlite3DbNNFreeNN  00000001800ff910     sqlite.obj
 0002:00016910       $unwind$sqlite3ExprAddCollateToken 00000001800ff910     sqlite.obj
 0002:00016910       $unwind$sqlite3ExprDataType 00000001800ff910     sqlite.obj
 0002:00016910       $unwind$sqlite3ExprSetHeightAndFlags 00000001800ff910     sqlite.obj
 0002:00016910       $unwind$sqlite3ExprSimplifiedAndOr 00000001800ff910     sqlite.obj
 0002:00016910       $unwind$sqlite3GetToken    00000001800ff910     sqlite.obj
 0002:00016910       $unwind$sqlite3GetVarint32 00000001800ff910     sqlite.obj
 0002:00016910       $unwind$sqlite3Malloc      00000001800ff910     sqlite.obj
 0002:00016910       $unwind$sqlite3OomFault    00000001800ff910     sqlite.obj
 0002:00016910       $unwind$sqlite3OsCloseFree 00000001800ff910     sqlite.obj
 0002:00016910       $unwind$sqlite3OsCurrentTimeInt64 00000001800ff910     sqlite.obj
 0002:00016910       $unwind$sqlite3PagerExclusiveLock 00000001800ff910     sqlite.obj
 0002:00016910       $unwind$sqlite3PagerSetJournalMode 00000001800ff910     sqlite.obj
 0002:00016910       $unwind$sqlite3PagerSync   00000001800ff910     sqlite.obj
 0002:00016910       $unwind$sqlite3PagerWrite  00000001800ff910     sqlite.obj
 0002:00016910       $unwind$sqlite3PcacheCleanAll 00000001800ff910     sqlite.obj
 0002:00016910       $unwind$sqlite3ProgressCheck 00000001800ff910     sqlite.obj
 0002:00016910       $unwind$sqlite3RCStrNew    00000001800ff910     sqlite.obj
 0002:00016910       $unwind$sqlite3RCStrUnref  00000001800ff910     sqlite.obj
 0002:00016910       $unwind$sqlite3ResetAllSchemasOfConnection 00000001800ff910     sqlite.obj
 0002:00016910       $unwind$sqlite3RowSetDelete 00000001800ff910     sqlite.obj
 0002:00016910       $unwind$sqlite3ThreadProc  00000001800ff910     sqlite.obj
 0002:00016910       $unwind$sqlite3UnlinkAndDeleteIndex 00000001800ff910     sqlite.obj
 0002:00016910       $unwind$sqlite3UnlinkAndDeleteTable 00000001800ff910     sqlite.obj
 0002:00016910       $unwind$sqlite3VdbeAllocUnpackedRecord 00000001800ff910     sqlite.obj
 0002:00016910       $unwind$sqlite3VdbeFreeCursorNN 00000001800ff910     sqlite.obj
 0002:00016910       $unwind$sqlite3VdbeMemExpandBlob 00000001800ff910     sqlite.obj
 0002:00016910       $unwind$sqlite3VdbeMemIntegerify 00000001800ff910     sqlite.obj
 0002:00016910       $unwind$sqlite3VdbeMemMakeWriteable 00000001800ff910     sqlite.obj
 0002:00016910       $unwind$sqlite3VdbeMemNumerify 00000001800ff910     sqlite.obj
 0002:00016910       $unwind$sqlite3VdbeMemRealify 00000001800ff910     sqlite.obj
 0002:00016910       $unwind$sqlite3VdbeMemZeroTerminateIfAble 00000001800ff910     sqlite.obj
 0002:00016910       $unwind$sqlite3VdbeSetP4KeyInfo 00000001800ff910     sqlite.obj
 0002:00016910       $unwind$sqlite3VtabArgInit 00000001800ff910     sqlite.obj
 0002:00016910       $unwind$sqlite3VtabDisconnect 00000001800ff910     sqlite.obj
 0002:00016910       $unwind$sqlite3VtabEponymousTableClear 00000001800ff910     sqlite.obj
 0002:00016910       $unwind$sqlite3VtabUnlockList 00000001800ff910     sqlite.obj
 0002:00016910       $unwind$sqlite3WithPush    00000001800ff910     sqlite.obj
 0002:00016910       $unwind$sqlite3_blob_close 00000001800ff910     sqlite.obj
 0002:00016910       $unwind$sqlite3_db_filename 00000001800ff910     sqlite.obj
 0002:00016910       $unwind$sqlite3_db_readonly 00000001800ff910     sqlite.obj
 0002:00016910       $unwind$sqlite3_error_offset 00000001800ff910     sqlite.obj
 0002:00016910       $unwind$sqlite3_expanded_sql 00000001800ff910     sqlite.obj
 0002:00016910       $unwind$sqlite3_malloc     00000001800ff910     sqlite.obj
 0002:00016910       $unwind$sqlite3_malloc64   00000001800ff910     sqlite.obj
 0002:00016910       $unwind$sqlite3_mutex_alloc 00000001800ff910     sqlite.obj
 0002:00016910       $unwind$sqlite3_result_error_nomem 00000001800ff910     sqlite.obj
 0002:00016910       $unwind$sqlite3_shutdown   00000001800ff910     sqlite.obj
 0002:00016910       $unwind$sqlite3_str_finish 00000001800ff910     sqlite.obj
 0002:00016910       $unwind$sqlite3_str_new    00000001800ff910     sqlite.obj
 0002:00016910       $unwind$sqlite3_str_reset  00000001800ff910     sqlite.obj
 0002:00016910       $unwind$sqlite3_uri_int64  00000001800ff910     sqlite.obj
 0002:00016910       $unwind$sqlite3_value_blob 00000001800ff910     sqlite.obj
 0002:00016910       $unwind$sqlite3_vfs_unregister 00000001800ff910     sqlite.obj
 0002:00016910       $unwind$sqlite3_win32_mbcs_to_utf8 00000001800ff910     sqlite.obj
 0002:00016910       $unwind$sqlite3_win32_unicode_to_utf8 00000001800ff910     sqlite.obj
 0002:00016910       $unwind$sqlite3_win32_utf8_to_mbcs 00000001800ff910     sqlite.obj
 0002:00016910       $unwind$sqlite3_win32_utf8_to_unicode 00000001800ff910     sqlite.obj
 0002:00016910       $unwind$unicodeFunc        00000001800ff910     sqlite.obj
 0002:00016910       $unwind$unlockBtreeMutex   00000001800ff910     sqlite.obj
 0002:00016910       $unwind$valueBytes         00000001800ff910     sqlite.obj
 0002:00016910       $unwind$vdbeIncrPopulateThread 00000001800ff910     sqlite.obj
 0002:00016910       $unwind$vdbeMemAddTerminator 00000001800ff910     sqlite.obj
 0002:00016910       $unwind$vdbeMemClear       00000001800ff910     sqlite.obj
 0002:00016910       $unwind$vdbeMemClearExternAndSetNull 00000001800ff910     sqlite.obj
 0002:00016910       $unwind$vdbePmaReaderBgIncrInit 00000001800ff910     sqlite.obj
 0002:00016910       $unwind$vdbeSorterFlushThread 00000001800ff910     sqlite.obj
 0002:00016910       $unwind$walCkptInfo        00000001800ff910     sqlite.obj
 0002:00016910       $unwind$walHandleException 00000001800ff910     sqlite.obj
 0002:00016910       $unwind$whereIsCoveringIndexWalkCallback 00000001800ff910     sqlite.obj
 0002:00016910       $unwind$whereScanInitIndexExpr 00000001800ff910     sqlite.obj
 0002:00016910       $unwind$winCurrentTime     00000001800ff910     sqlite.obj
 0002:00016910       $unwind$winCurrentTimeInt64 00000001800ff910     sqlite.obj
 0002:00016910       $unwind$winDlOpen          00000001800ff910     sqlite.obj
 0002:00016910       $unwind$winMutexFree       00000001800ff910     sqlite.obj
 0002:00016910       $unwind$winMutexTry        00000001800ff910     sqlite.obj
 0002:00016910       $unwind$winSleep           00000001800ff910     sqlite.obj
 0002:00016910       $unwind$Wrapper_AcquireSRWLockExclusive 00000001800ff910     vc_crt_fix_impl.obj
 0002:00016910       $unwind$Wrapper_ReleaseSRWLockExclusive 00000001800ff910     vc_crt_fix_impl.obj
 0002:00016910       $unwind$Wrapper_WakeAllConditionVariable 00000001800ff910     vc_crt_fix_impl.obj
 0002:00016910       $unwind$__raise_securityfailure 00000001800ff910     LIBCMT:gs_report.obj
 0002:00016910       $unwind$__scrt_initialize_crt 00000001800ff910     LIBCMT:utility.obj
 0002:00016910       $unwind$__scrt_initialize_onexit_tables 00000001800ff910     LIBCMT:utility.obj
 0002:00016910       $unwind$__scrt_release_startup_lock 00000001800ff910     LIBCMT:utility.obj
 0002:00016910       $unwind$__scrt_uninitialize_crt 00000001800ff910     LIBCMT:utility.obj
 0002:00016910       $unwind$__vcrt_uninitialize_locks 00000001800ff910     libvcruntime:locks.obj
 0002:00016910       $unwind$__vcrt_freeptd     00000001800ff910     libvcruntime:per_thread_data.obj
 0002:00016910       $unwind$__std_type_info_destroy_list 00000001800ff910     libvcruntime:std_type_info.obj
 0002:00016910       $unwind$__vcrt_FlsAlloc    00000001800ff910     libvcruntime:winapi_downlevel.obj
 0002:00016910       $unwind$__vcrt_FlsFree     00000001800ff910     libvcruntime:winapi_downlevel.obj
 0002:00016910       $unwind$__vcrt_FlsGetValue 00000001800ff910     libvcruntime:winapi_downlevel.obj
 0002:00016910       $unwind$_calloc_base       00000001800ff910     libucrt:calloc_base.obj
 0002:00016910       $unwind$_malloc_base       00000001800ff910     libucrt:malloc_base.obj
 0002:00016910       $unwind$_callnewh          00000001800ff910     libucrt:new_handler.obj
 0002:00016910       $unwind$initialize_pointers 00000001800ff910     libucrt:initialization.obj
 0002:00016910       $unwind$uninitialize_allocated_memory 00000001800ff910     libucrt:initialization.obj
 0002:00016910       $unwind$__acrt_initialize_locks 00000001800ff910     libucrt:locks.obj
 0002:00016910       $unwind$__acrt_uninitialize_locks 00000001800ff910     libucrt:locks.obj
 0002:00016910       $unwind$__acrt_freeptd     00000001800ff910     libucrt:per_thread_data.obj
 0002:00016910       $unwind$__acrt_getptd_head 00000001800ff910     libucrt:per_thread_data.obj
 0002:00016910       $unwind$__acrt_get_begin_thread_init_policy 00000001800ff910     libucrt:win_policies.obj
 0002:00016910       $unwind$__acrt_get_process_end_policy 00000001800ff910     libucrt:win_policies.obj
 0002:00016910       $unwind$__acrt_AppPolicyGetProcessTerminationMethodInternal 00000001800ff910     libucrt:winapi_thunks.obj
 0002:00016910       $unwind$__acrt_AppPolicyGetThreadInitializationTypeInternal 00000001800ff910     libucrt:winapi_thunks.obj
 0002:00016910       $unwind$__acrt_FlsAlloc    00000001800ff910     libucrt:winapi_thunks.obj
 0002:00016910       $unwind$__acrt_FlsFree     00000001800ff910     libucrt:winapi_thunks.obj
 0002:00016910       $unwind$__acrt_FlsGetValue 00000001800ff910     libucrt:winapi_thunks.obj
 0002:00016910       $unwind$__acrt_RoInitialize 00000001800ff910     libucrt:winapi_thunks.obj
 0002:00016910       $unwind$__acrt_uninitialize_winapi_thunks 00000001800ff910     libucrt:winapi_thunks.obj
 0002:00016910       $unwind$__acrt_update_locale_info 00000001800ff910     libucrt:locale_update.obj
 0002:00016910       $unwind$__acrt_update_multibyte_info 00000001800ff910     libucrt:locale_update.obj
 0002:00016910       $unwind$__acrt_allocate_buffer_for_argv 00000001800ff910     libucrt:argv_parsing.obj
 0002:00016910       $unwind$?exit_or_terminate_process@@YAXI@Z 00000001800ff910     libucrt:exit.obj
 0002:00016910       $unwind$?try_cor_exit_process@@YAXI@Z 00000001800ff910     libucrt:exit.obj
 0002:00016910       $unwind$__acrt_uninitialize_stdio 00000001800ff910     libucrt:_file.obj
 0002:00016910       $unwind$__acrt_stdio_free_buffer_nolock 00000001800ff910     libucrt:_freebuf.obj
 0002:00016910       $unwind$_fflush_nolock     00000001800ff910     libucrt:fflush.obj
 0002:00016910       $unwind$strcpy_s           00000001800ff910     libucrt:strcpy_s.obj
 0002:00016910       $unwind$_clrfp             00000001800ff910     libucrt:fpctrl.obj
 0002:00016910       $unwind$_set_statfp        00000001800ff910     libucrt:fpctrl.obj
 0002:00016918       $unwind$toLocaltime        00000001800ff918     sqlite.obj
 0002:00016938       $unwind$parseModifier      00000001800ff938     sqlite.obj
 0002:00016968       $chain$0$parseModifier     00000001800ff968     sqlite.obj
 0002:0001697c       $chain$1$parseModifier     00000001800ff97c     sqlite.obj
 0002:0001698c       $unwind$isDate             00000001800ff98c     sqlite.obj
 0002:0001698c       $unwind$__C_specific_handler 00000001800ff98c     libvcruntime:riscchandler.obj
 0002:000169a8       $chain$0$isDate            00000001800ff9a8     sqlite.obj
 0002:000169bc       $chain$1$isDate            00000001800ff9bc     sqlite.obj
 0002:000169cc       $unwind$juliandayFunc      00000001800ff9cc     sqlite.obj
 0002:000169cc       $unwind$unixepochFunc      00000001800ff9cc     sqlite.obj
 0002:000169dc       $unwind$datetimeFunc       00000001800ff9dc     sqlite.obj
 0002:000169f4       $unwind$timeFunc           00000001800ff9f4     sqlite.obj
 0002:00016a08       $unwind$dateFunc           00000001800ffa08     sqlite.obj
 0002:00016a18       $unwind$strftimeFunc       00000001800ffa18     sqlite.obj
 0002:00016a30       $chain$0$strftimeFunc      00000001800ffa30     sqlite.obj
 0002:00016a44       $chain$6$strftimeFunc      00000001800ffa44     sqlite.obj
 0002:00016a6c       $chain$7$strftimeFunc      00000001800ffa6c     sqlite.obj
 0002:00016a7c       $chain$8$strftimeFunc      00000001800ffa7c     sqlite.obj
 0002:00016a8c       $unwind$timediffFunc       00000001800ffa8c     sqlite.obj
 0002:00016aa4       $chain$2$timediffFunc      00000001800ffaa4     sqlite.obj
 0002:00016ac0       $chain$3$timediffFunc      00000001800ffac0     sqlite.obj
 0002:00016ad4       $chain$4$timediffFunc      00000001800ffad4     sqlite.obj
 0002:00016ae4       $unwind$blobSeekToRow      00000001800ffae4     sqlite.obj
 0002:00016ae4       $unwind$exprImpliesNotNull 00000001800ffae4     sqlite.obj
 0002:00016ae4       $unwind$jsonArrayLengthFunc 00000001800ffae4     sqlite.obj
 0002:00016ae4       $unwind$pageFindSlot       00000001800ffae4     sqlite.obj
 0002:00016ae4       $unwind$sqlite3ExprCodeRunJustOnce 00000001800ffae4     sqlite.obj
 0002:00016ae4       $unwind$sqlite3OpenTable   00000001800ffae4     sqlite.obj
 0002:00016ae4       $unwind$sqlite3OsOpenMalloc 00000001800ffae4     sqlite.obj
 0002:00016ae4       $unwind$sqlite3_create_collation16 00000001800ffae4     sqlite.obj
 0002:00016ae4       $unwind$??$create_environment@D@@YAQEAPEADQEAD@Z 00000001800ffae4     libucrt:environment_initialization.obj
 0002:00016afc       $unwind$sqlite3_vfs_find   00000001800ffafc     sqlite.obj
 0002:00016b0c       $unwind$btreeLeaveAll      00000001800ffb0c     sqlite.obj
 0002:00016b0c       $unwind$pagerStress        00000001800ffb0c     sqlite.obj
 0002:00016b0c       $unwind$pager_unlock       00000001800ffb0c     sqlite.obj
 0002:00016b0c       $unwind$sqlite3RowSetClear 00000001800ffb0c     sqlite.obj
 0002:00016b0c       $unwind$sqlite3SchemaGet   00000001800ffb0c     sqlite.obj
 0002:00016b0c       $unwind$sqlite3WalEndReadTransaction 00000001800ffb0c     sqlite.obj
 0002:00016b0c       $unwind$sqlite3_sleep      00000001800ffb0c     sqlite.obj
 0002:00016b0c       $unwind$sqlite3_vfs_register 00000001800ffb0c     sqlite.obj
 0002:00016b18       $chain$0$sqlite3_vfs_register 00000001800ffb18     sqlite.obj
 0002:00016b2c       $chain$1$sqlite3_vfs_register 00000001800ffb2c     sqlite.obj
 0002:00016b3c       $chain$0$sqlite3_vfs_unregister 00000001800ffb3c     sqlite.obj
 0002:00016b50       $chain$1$sqlite3_vfs_unregister 00000001800ffb50     sqlite.obj
 0002:00016b60       $unwind$agginfoFree        00000001800ffb60     sqlite.obj
 0002:00016b60       $unwind$binCollFunc        00000001800ffb60     sqlite.obj
 0002:00016b60       $unwind$btreeLast          00000001800ffb60     sqlite.obj
 0002:00016b60       $unwind$computeCellSize    00000001800ffb60     sqlite.obj
 0002:00016b60       $unwind$countInverse       00000001800ffb60     sqlite.obj
 0002:00016b60       $unwind$countStep          00000001800ffb60     sqlite.obj
 0002:00016b60       $unwind$dbMallocRawFinish  00000001800ffb60     sqlite.obj
 0002:00016b60       $unwind$dupedExprSize      00000001800ffb60     sqlite.obj
 0002:00016b60       $unwind$exprNodeIsConstant 00000001800ffb60     sqlite.obj
 0002:00016b60       $unwind$first_valueFinalizeFunc 00000001800ffb60     sqlite.obj
 0002:00016b60       $unwind$freeP4FuncCtx      00000001800ffb60     sqlite.obj
 0002:00016b60       $unwind$freeP4Mem          00000001800ffb60     sqlite.obj
 0002:00016b60       $unwind$groupConcatFinalize 00000001800ffb60     sqlite.obj
 0002:00016b60       $unwind$jsonAppendCharExpand 00000001800ffb60     sqlite.obj
 0002:00016b60       $unwind$jsonBlobExpand     00000001800ffb60     sqlite.obj
 0002:00016b60       $unwind$jsonBlobExpandAndAppendOneByte 00000001800ffb60     sqlite.obj
 0002:00016b60       $unwind$jsonCreateEditSubstructure 00000001800ffb60     sqlite.obj
 0002:00016b60       $unwind$jsonEachCursorReset 00000001800ffb60     sqlite.obj
 0002:00016b60       $unwind$jsonParseReset     00000001800ffb60     sqlite.obj
 0002:00016b60       $unwind$last_valueFinalizeFunc 00000001800ffb60     sqlite.obj
 0002:00016b60       $unwind$memdbFileSize      00000001800ffb60     sqlite.obj
 0002:00016b60       $unwind$minMaxFinalize     00000001800ffb60     sqlite.obj
 0002:00016b60       $unwind$nth_valueFinalizeFunc 00000001800ffb60     sqlite.obj
 0002:00016b60       $unwind$nullifFunc         00000001800ffb60     sqlite.obj
 0002:00016b60       $unwind$pagerUnlockDb      00000001800ffb60     sqlite.obj
 0002:00016b60       $unwind$pcache1Destroy     00000001800ffb60     sqlite.obj
 0002:00016b60       $unwind$pcache1Truncate    00000001800ffb60     sqlite.obj
 0002:00016b60       $unwind$pragmaVtabOpen     00000001800ffb60     sqlite.obj
 0002:00016b60       $unwind$propagateConstantExprRewrite 00000001800ffb60     sqlite.obj
 0002:00016b60       $unwind$rankValueFunc      00000001800ffb60     sqlite.obj
 0002:00016b60       $unwind$renameFixQuotes    00000001800ffb60     sqlite.obj
 0002:00016b60       $unwind$rtrimCollFunc      00000001800ffb60     sqlite.obj
 0002:00016b60       $unwind$selectWindowRewriteSelectCb 00000001800ffb60     sqlite.obj
 0002:00016b60       $unwind$setSectorSize      00000001800ffb60     sqlite.obj
 0002:00016b60       $unwind$sqlite3BitvecCreate 00000001800ffb60     sqlite.obj
 0002:00016b60       $unwind$sqlite3BlobCompare 00000001800ffb60     sqlite.obj
 0002:00016b60       $unwind$sqlite3BtreeClearCursor 00000001800ffb60     sqlite.obj
 0002:00016b60       $unwind$sqlite3BtreeCommit 00000001800ffb60     sqlite.obj
 0002:00016b60       $unwind$sqlite3BtreeFirst  00000001800ffb60     sqlite.obj
 0002:00016b60       $unwind$sqlite3BtreeMaxPageCount 00000001800ffb60     sqlite.obj
 0002:00016b60       $unwind$sqlite3BtreeSecureDelete 00000001800ffb60     sqlite.obj
 0002:00016b60       $unwind$sqlite3CloseSavepoints 00000001800ffb60     sqlite.obj
 0002:00016b60       $unwind$sqlite3DbMallocZero 00000001800ffb60     sqlite.obj
 0002:00016b60       $unwind$sqlite3DeleteReturning 00000001800ffb60     sqlite.obj
 0002:00016b60       $unwind$sqlite3ErrorFinish 00000001800ffb60     sqlite.obj
 0002:00016b60       $unwind$sqlite3ExprAttachSubtrees 00000001800ffb60     sqlite.obj
 0002:00016b60       $unwind$sqlite3ExprCompareCollSeq 00000001800ffb60     sqlite.obj
 0002:00016b60       $unwind$sqlite3ExprDeferredDelete 00000001800ffb60     sqlite.obj
 0002:00016b60       $unwind$sqlite3ExprDeleteNN 00000001800ffb60     sqlite.obj
 0002:00016b60       $unwind$sqlite3ExprIdToTrueFalse 00000001800ffb60     sqlite.obj
 0002:00016b60       $unwind$sqlite3ExprListAppendNew 00000001800ffb60     sqlite.obj
 0002:00016b60       $unwind$sqlite3FreeIndex   00000001800ffb60     sqlite.obj
 0002:00016b60       $unwind$sqlite3HexToBlob   00000001800ffb60     sqlite.obj
 0002:00016b60       $unwind$sqlite3MallocZero  00000001800ffb60     sqlite.obj
 0002:00016b60       $unwind$sqlite3MemMalloc   00000001800ffb60     sqlite.obj
 0002:00016b60       $unwind$sqlite3PagerLookup 00000001800ffb60     sqlite.obj
 0002:00016b60       $unwind$sqlite3ParseObjectInit 00000001800ffb60     sqlite.obj
 0002:00016b60       $unwind$sqlite3ReadSchema  00000001800ffb60     sqlite.obj
 0002:00016b60       $unwind$sqlite3RowSetInsert 00000001800ffb60     sqlite.obj
 0002:00016b60       $unwind$sqlite3RowSetNext  00000001800ffb60     sqlite.obj
 0002:00016b60       $unwind$sqlite3SetTextEncoding 00000001800ffb60     sqlite.obj
 0002:00016b60       $unwind$sqlite3UnlinkAndDeleteTrigger 00000001800ffb60     sqlite.obj
 0002:00016b60       $unwind$sqlite3VdbeFinalize 00000001800ffb60     sqlite.obj
 0002:00016b60       $unwind$sqlite3VdbeHandleMovedCursor 00000001800ffb60     sqlite.obj
 0002:00016b60       $unwind$sqlite3VdbeMemCast 00000001800ffb60     sqlite.obj
 0002:00016b60       $unwind$sqlite3VdbeMemSetZeroBlob 00000001800ffb60     sqlite.obj
 0002:00016b60       $unwind$sqlite3VdbeReset   00000001800ffb60     sqlite.obj
 0002:00016b60       $unwind$sqlite3VdbeSorterNext 00000001800ffb60     sqlite.obj
 0002:00016b60       $unwind$sqlite3VtabMakeWritable 00000001800ffb60     sqlite.obj
 0002:00016b60       $unwind$sqlite3WalkExprNN  00000001800ffb60     sqlite.obj
 0002:00016b60       $unwind$sqlite3_bind_null  00000001800ffb60     sqlite.obj
 0002:00016b60       $unwind$sqlite3_busy_timeout 00000001800ffb60     sqlite.obj
 0002:00016b60       $unwind$sqlite3_column_blob 00000001800ffb60     sqlite.obj
 0002:00016b60       $unwind$sqlite3_column_type 00000001800ffb60     sqlite.obj
 0002:00016b60       $unwind$sqlite3_column_value 00000001800ffb60     sqlite.obj
 0002:00016b60       $unwind$sqlite3_enable_load_extension 00000001800ffb60     sqlite.obj
 0002:00016b60       $unwind$sqlite3_extended_result_codes 00000001800ffb60     sqlite.obj
 0002:00016b60       $unwind$sqlite3_get_clientdata 00000001800ffb60     sqlite.obj
 0002:00016b60       $unwind$sqlite3_memory_used 00000001800ffb60     sqlite.obj
 0002:00016b60       $unwind$sqlite3_next_stmt  00000001800ffb60     sqlite.obj
 0002:00016b60       $unwind$sqlite3_realloc    00000001800ffb60     sqlite.obj
 0002:00016b60       $unwind$sqlite3_realloc64  00000001800ffb60     sqlite.obj
 0002:00016b60       $unwind$sqlite3_set_last_insert_rowid 00000001800ffb60     sqlite.obj
 0002:00016b60       $unwind$sqlite3_str_appendchar 00000001800ffb60     sqlite.obj
 0002:00016b60       $unwind$sqlite3_uri_boolean 00000001800ffb60     sqlite.obj
 0002:00016b60       $unwind$sqlite3_value_dup  00000001800ffb60     sqlite.obj
 0002:00016b60       $unwind$sqlite3_value_numeric_type 00000001800ffb60     sqlite.obj
 0002:00016b60       $unwind$sqlite3_wal_autocheckpoint 00000001800ffb60     sqlite.obj
 0002:00016b60       $unwind$sqlite3_win32_mbcs_to_utf8_v2 00000001800ffb60     sqlite.obj
 0002:00016b60       $unwind$sqlite3_win32_utf8_to_mbcs_v2 00000001800ffb60     sqlite.obj
 0002:00016b60       $unwind$strAccumFinishRealloc 00000001800ffb60     sqlite.obj
 0002:00016b60       $unwind$vdbePmaReaderClear 00000001800ffb60     sqlite.obj
 0002:00016b60       $unwind$vdbeReleaseAndSetInt64 00000001800ffb60     sqlite.obj
 0002:00016b60       $unwind$whereLoopClearUnion 00000001800ffb60     sqlite.obj
 0002:00016b60       $unwind$winDlError         00000001800ffb60     sqlite.obj
 0002:00016b60       $unwind$windowFind         00000001800ffb60     sqlite.obj
 0002:00016b60       $unwind$zeroblobFunc       00000001800ffb60     sqlite.obj
 0002:00016b60       $unwind$_RTC_Initialize    00000001800ffb60     LIBCMT:initsect.obj
 0002:00016b60       $unwind$_RTC_Terminate     00000001800ffb60     LIBCMT:initsect.obj
 0002:00016b60       $unwind$__vcrt_FlsSetValue 00000001800ffb60     libvcruntime:winapi_downlevel.obj
 0002:00016b60       $unwind$??$common_initialize_environment_nolock@D@@YAHXZ 00000001800ffb60     libucrt:environment_initialization.obj
 0002:00016b60       $unwind$_realloc_base      00000001800ffb60     libucrt:realloc_base.obj
 0002:00016b60       $unwind$?replace_current_thread_locale_nolock@@YAXQEAU__acrt_ptd@@QEAU__crt_locale_data@@@Z 00000001800ffb60     libucrt:per_thread_data.obj
 0002:00016b60       $unwind$__acrt_execute_uninitializers 00000001800ffb60     libucrt:shared_initialization.obj
 0002:00016b60       $unwind$__acrt_FlsSetValue 00000001800ffb60     libucrt:winapi_thunks.obj
 0002:00016b60       $unwind$__acrt_LocaleNameToLCID 00000001800ffb60     libucrt:winapi_thunks.obj
 0002:00016b60       $unwind$_updatetlocinfoEx_nolock 00000001800ffb60     libucrt:locale_refcounting.obj
 0002:00016b60       $unwind$_close_nolock      00000001800ffb60     libucrt:close.obj
 0002:00016b60       $unwind$__acrt_uninitialize_lowio 00000001800ffb60     libucrt:ioinit.obj
 0002:00016b60       $unwind$__acrt_errno_map_os_error 00000001800ffb60     libucrt:errno.obj
 0002:00016b60       $unwind$_initterm_e        00000001800ffb60     libucrt:initterm.obj
 0002:00016b60       $unwind$?common_end_thread@@YAXI@Z 00000001800ffb60     libucrt:thread.obj
 0002:00016b60       $unwind$_fclose_nolock     00000001800ffb60     libucrt:fclose.obj
 0002:00016b60       $unwind$strncpy_s          00000001800ffb60     libucrt:strncpy_s.obj
 0002:00016b6c       $unwind$btreePageLookup    00000001800ffb6c     sqlite.obj
 0002:00016b6c       $unwind$copyPayload        00000001800ffb6c     sqlite.obj
 0002:00016b6c       $unwind$createAggContext   00000001800ffb6c     sqlite.obj
 0002:00016b6c       $unwind$enlargeAndAppend   00000001800ffb6c     sqlite.obj
 0002:00016b6c       $unwind$errlogFunc         00000001800ffb6c     sqlite.obj
 0002:00016b6c       $unwind$exprRowColumn      00000001800ffb6c     sqlite.obj
 0002:00016b6c       $unwind$first_valueStepFunc 00000001800ffb6c     sqlite.obj
 0002:00016b6c       $unwind$freeCursorWithCache 00000001800ffb6c     sqlite.obj
 0002:00016b6c       $unwind$jsonArrayStep      00000001800ffb6c     sqlite.obj
 0002:00016b6c       $unwind$jsonBlobMakeEditable 00000001800ffb6c     sqlite.obj
 0002:00016b6c       $unwind$jsonObjectStep     00000001800ffb6c     sqlite.obj
 0002:00016b6c       $unwind$jsonStringExpandAndAppend 00000001800ffb6c     sqlite.obj
 0002:00016b6c       $unwind$memdbTruncate      00000001800ffb6c     sqlite.obj
 0002:00016b6c       $unwind$memdbUnlock        00000001800ffb6c     sqlite.obj
 0002:00016b6c       $unwind$multiSelectCollSeq 00000001800ffb6c     sqlite.obj
 0002:00016b6c       $unwind$renameReloadSchema 00000001800ffb6c     sqlite.obj
 0002:00016b6c       $unwind$renameTableSelectCb 00000001800ffb6c     sqlite.obj
 0002:00016b6c       $unwind$resolveP2Values    00000001800ffb6c     sqlite.obj
 0002:00016b6c       $unwind$selectRefEnter     00000001800ffb6c     sqlite.obj
 0002:00016b6c       $unwind$sqlite3BeginWriteOperation 00000001800ffb6c     sqlite.obj
 0002:00016b6c       $unwind$sqlite3BtreeBeginStmt 00000001800ffb6c     sqlite.obj
 0002:00016b6c       $unwind$sqlite3BtreeCreateTable 00000001800ffb6c     sqlite.obj
 0002:00016b6c       $unwind$sqlite3BtreeDropTable 00000001800ffb6c     sqlite.obj
 0002:00016b6c       $unwind$sqlite3BtreeGetRequestedReserve 00000001800ffb6c     sqlite.obj
 0002:00016b6c       $unwind$sqlite3BtreeSetCacheSize 00000001800ffb6c     sqlite.obj
 0002:00016b6c       $unwind$sqlite3BtreeSetPagerFlags 00000001800ffb6c     sqlite.obj
 0002:00016b6c       $unwind$sqlite3BtreeSetSpillSize 00000001800ffb6c     sqlite.obj
 0002:00016b6c       $unwind$sqlite3CreateColumnExpr 00000001800ffb6c     sqlite.obj
 0002:00016b6c       $unwind$sqlite3DbReallocOrFree 00000001800ffb6c     sqlite.obj
 0002:00016b6c       $unwind$sqlite3DbSpanDup   00000001800ffb6c     sqlite.obj
 0002:00016b6c       $unwind$sqlite3DefaultRowEst 00000001800ffb6c     sqlite.obj
 0002:00016b6c       $unwind$sqlite3ExprCode    00000001800ffb6c     sqlite.obj
 0002:00016b6c       $unwind$sqlite3ExprListAppendGrow 00000001800ffb6c     sqlite.obj
 0002:00016b6c       $unwind$sqlite3FindDb      00000001800ffb6c     sqlite.obj
 0002:00016b6c       $unwind$sqlite3IndexAffinityOk 00000001800ffb6c     sqlite.obj
 0002:00016b6c       $unwind$sqlite3IsReadOnly  00000001800ffb6c     sqlite.obj
 0002:00016b6c       $unwind$sqlite3IsShadowTableOf 00000001800ffb6c     sqlite.obj
 0002:00016b6c       $unwind$sqlite3MemRealloc  00000001800ffb6c     sqlite.obj
 0002:00016b6c       $unwind$sqlite3ParseObjectReset 00000001800ffb6c     sqlite.obj
 0002:00016b6c       $unwind$sqlite3ParserAddCleanup 00000001800ffb6c     sqlite.obj
 0002:00016b6c       $unwind$sqlite3PcacheMove  00000001800ffb6c     sqlite.obj
 0002:00016b6c       $unwind$sqlite3PcacheSetPageSize 00000001800ffb6c     sqlite.obj
 0002:00016b6c       $unwind$sqlite3RenameTokenMap 00000001800ffb6c     sqlite.obj
 0002:00016b6c       $unwind$sqlite3ShadowTableName 00000001800ffb6c     sqlite.obj
 0002:00016b6c       $unwind$sqlite3VdbeAddOpList 00000001800ffb6c     sqlite.obj
 0002:00016b6c       $unwind$sqlite3VdbeMemCopy 00000001800ffb6c     sqlite.obj
 0002:00016b6c       $unwind$sqlite3VdbeMemGrow 00000001800ffb6c     sqlite.obj
 0002:00016b6c       $unwind$sqlite3VdbeMemSetRowSet 00000001800ffb6c     sqlite.obj
 0002:00016b6c       $unwind$sqlite3VdbeMemStringify 00000001800ffb6c     sqlite.obj
 0002:00016b6c       $unwind$sqlite3VdbeSorterRewind 00000001800ffb6c     sqlite.obj
 0002:00016b6c       $unwind$sqlite3VdbeSorterRowkey 00000001800ffb6c     sqlite.obj
 0002:00016b6c       $unwind$sqlite3WalkExprList 00000001800ffb6c     sqlite.obj
 0002:00016b6c       $unwind$sqlite3WhereSplit  00000001800ffb6c     sqlite.obj
 0002:00016b6c       $unwind$sqlite3_bind_zeroblob64 00000001800ffb6c     sqlite.obj
 0002:00016b6c       $unwind$sqlite3_busy_handler 00000001800ffb6c     sqlite.obj
 0002:00016b6c       $unwind$sqlite3_cancel_auto_extension 00000001800ffb6c     sqlite.obj
 0002:00016b6c       $unwind$sqlite3_collation_needed 00000001800ffb6c     sqlite.obj
 0002:00016b6c       $unwind$sqlite3_collation_needed16 00000001800ffb6c     sqlite.obj
 0002:00016b6c       $unwind$sqlite3_column_bytes 00000001800ffb6c     sqlite.obj
 0002:00016b6c       $unwind$sqlite3_column_bytes16 00000001800ffb6c     sqlite.obj
 0002:00016b6c       $unwind$sqlite3_column_int 00000001800ffb6c     sqlite.obj
 0002:00016b6c       $unwind$sqlite3_column_int64 00000001800ffb6c     sqlite.obj
 0002:00016b6c       $unwind$sqlite3_column_text 00000001800ffb6c     sqlite.obj
 0002:00016b6c       $unwind$sqlite3_column_text16 00000001800ffb6c     sqlite.obj
 0002:00016b6c       $unwind$sqlite3_memory_highwater 00000001800ffb6c     sqlite.obj
 0002:00016b6c       $unwind$sqlite3_set_authorizer 00000001800ffb6c     sqlite.obj
 0002:00016b6c       $unwind$sqlite3_txn_state  00000001800ffb6c     sqlite.obj
 0002:00016b6c       $unwind$sqlite3_win32_set_directory16 00000001800ffb6c     sqlite.obj
 0002:00016b6c       $unwind$statPush           00000001800ffb6c     sqlite.obj
 0002:00016b6c       $unwind$vdbeClrCopy        00000001800ffb6c     sqlite.obj
 0002:00016b6c       $unwind$vdbeIncrMergerNew  00000001800ffb6c     sqlite.obj
 0002:00016b6c       $unwind$walIndexWriteHdr   00000001800ffb6c     sqlite.obj
 0002:00016b6c       $unwind$walLockExclusive   00000001800ffb6c     sqlite.obj
 0002:00016b6c       $unwind$walUnlockExclusive 00000001800ffb6c     sqlite.obj
 0002:00016b6c       $unwind$whereIndexedExprCleanup 00000001800ffb6c     sqlite.obj
 0002:00016b6c       $unwind$winGetLastError    00000001800ffb6c     sqlite.obj
 0002:00016b6c       $unwind$yyStackOverflow    00000001800ffb6c     sqlite.obj
 0002:00016b6c       $unwind$?impl@implementation@?1??Wrapper_InitializeCriticalSectionEx@@YAHPEAU_RTL_CRITICAL_SECTION@@KK@Z@SAH0KK@Z 00000001800ffb6c     vc_crt_fix_impl.obj
 0002:00016b6c       $unwind$Wrapper_InitializeCriticalSectionEx 00000001800ffb6c     vc_crt_fix_impl.obj
 0002:00016b6c       $unwind$_DllMainCRTStartup 00000001800ffb6c     LIBCMT:dll_dllmain.obj
 0002:00016b6c       $unwind$__vcrt_getptd_noexit 00000001800ffb6c     libvcruntime:per_thread_data.obj
 0002:00016b6c       $unwind$__vcrt_InitializeCriticalSectionEx 00000001800ffb6c     libvcruntime:winapi_downlevel.obj
 0002:00016b6c       $unwind$??$common_getenv_nolock@D@@YAPEADQEBD@Z 00000001800ffb6c     libucrt:getenv.obj
 0002:00016b6c       $unwind$__acrt_getptd      00000001800ffb6c     libucrt:per_thread_data.obj
 0002:00016b6c       $unwind$__acrt_getptd_noexit 00000001800ffb6c     libucrt:per_thread_data.obj
 0002:00016b6c       $unwind$__acrt_execute_initializers 00000001800ffb6c     libucrt:shared_initialization.obj
 0002:00016b6c       $unwind$__acrt_InitializeCriticalSectionEx 00000001800ffb6c     libucrt:winapi_thunks.obj
 0002:00016b6c       $unwind$?free_crt_array_internal@@YAXQEAPEBX_K@Z 00000001800ffb6c     libucrt:inittime.obj
 0002:00016b6c       $unwind$??$common_lseek_nolock@_J@@YA_JH_JH@Z 00000001800ffb6c     libucrt:lseek.obj
 0002:00016b6c       $unwind$?create_thread_parameter@@YAPEAU__acrt_thread_parameter@@QEAX0@Z 00000001800ffb6c     libucrt:thread.obj
 0002:00016b6c       $unwind$__acrt_stdio_flush_nolock 00000001800ffb6c     libucrt:fflush.obj
 0002:00016b6c       $unwind$??0_LocaleUpdate@@QEAA@QEAU__crt_locale_pointers@@@Z 00000001800ffb6c     libucrt:output.obj
 0002:00016b6c       $unwind$_exception_enabled 00000001800ffb6c     libucrt:libm_error.obj
 0002:00016b7c       $unwind$agginfoPersistExprCb 00000001800ffb7c     sqlite.obj
 0002:00016b7c       $unwind$apiHandleError     00000001800ffb7c     sqlite.obj
 0002:00016b7c       $unwind$checkRef           00000001800ffb7c     sqlite.obj
 0002:00016b7c       $unwind$cume_distInvFunc   00000001800ffb7c     sqlite.obj
 0002:00016b7c       $unwind$cume_distStepFunc  00000001800ffb7c     sqlite.obj
 0002:00016b7c       $unwind$databaseIsUnmoved  00000001800ffb7c     sqlite.obj
 0002:00016b7c       $unwind$dense_rankStepFunc 00000001800ffb7c     sqlite.obj
 0002:00016b7c       $unwind$disallowAggregatesInOrderByCb 00000001800ffb7c     sqlite.obj
 0002:00016b7c       $unwind$fixExprCb          00000001800ffb7c     sqlite.obj
 0002:00016b7c       $unwind$gatherSelectWindowsCallback 00000001800ffb7c     sqlite.obj
 0002:00016b7c       $unwind$jsonEachDisconnect 00000001800ffb7c     sqlite.obj
 0002:00016b7c       $unwind$jsonSkipLabel      00000001800ffb7c     sqlite.obj
 0002:00016b7c       $unwind$kahanBabuskaNeumaierStepInt64 00000001800ffb7c     sqlite.obj
 0002:00016b7c       $unwind$memIntValue        00000001800ffb7c     sqlite.obj
 0002:00016b7c       $unwind$memRealValue       00000001800ffb7c     sqlite.obj
 0002:00016b7c       $unwind$memdbFullPathname  00000001800ffb7c     sqlite.obj
 0002:00016b7c       $unwind$memjrnlClose       00000001800ffb7c     sqlite.obj
 0002:00016b7c       $unwind$ntileInvFunc       00000001800ffb7c     sqlite.obj
 0002:00016b7c       $unwind$pagerFixMaplimit   00000001800ffb7c     sqlite.obj
 0002:00016b7c       $unwind$pcache1Init        00000001800ffb7c     sqlite.obj
 0002:00016b7c       $unwind$pcache1Shrink      00000001800ffb7c     sqlite.obj
 0002:00016b7c       $unwind$pcache1Unpin       00000001800ffb7c     sqlite.obj
 0002:00016b7c       $unwind$percent_rankInvFunc 00000001800ffb7c     sqlite.obj
 0002:00016b7c       $unwind$percent_rankStepFunc 00000001800ffb7c     sqlite.obj
 0002:00016b7c       $unwind$rankStepFunc       00000001800ffb7c     sqlite.obj
 0002:00016b7c       $unwind$recomputeColumnsUsedExpr 00000001800ffb7c     sqlite.obj
 0002:00016b7c       $unwind$releaseMemArray    00000001800ffb7c     sqlite.obj
 0002:00016b7c       $unwind$renameColumnSelectCb 00000001800ffb7c     sqlite.obj
 0002:00016b7c       $unwind$row_numberStepFunc 00000001800ffb7c     sqlite.obj
 0002:00016b7c       $unwind$selectAddSubqueryTypeInfo 00000001800ffb7c     sqlite.obj
 0002:00016b7c       $unwind$sqlite3ExprCheckIN 00000001800ffb7c     sqlite.obj
 0002:00016b7c       $unwind$sqlite3ExprListSetSpan 00000001800ffb7c     sqlite.obj
 0002:00016b7c       $unwind$sqlite3HasExplicitNulls 00000001800ffb7c     sqlite.obj
 0002:00016b7c       $unwind$sqlite3MallocAlarm 00000001800ffb7c     sqlite.obj
 0002:00016b7c       $unwind$sqlite3MemCompare  00000001800ffb7c     sqlite.obj
 0002:00016b7c       $unwind$sqlite3MutexInit   00000001800ffb7c     sqlite.obj
 0002:00016b7c       $unwind$sqlite3NameFromToken 00000001800ffb7c     sqlite.obj
 0002:00016b7c       $unwind$sqlite3SectorSize  00000001800ffb7c     sqlite.obj
 0002:00016b7c       $unwind$sqlite3SrcListIndexedBy 00000001800ffb7c     sqlite.obj
 0002:00016b7c       $unwind$sqlite3VdbeBooleanValue 00000001800ffb7c     sqlite.obj
 0002:00016b7c       $unwind$sqlite3_db_release_memory 00000001800ffb7c     sqlite.obj
 0002:00016b7c       $unwind$sqlite3_free_filename 00000001800ffb7c     sqlite.obj
 0002:00016b7c       $unwind$sqlite3_keyword_check 00000001800ffb7c     sqlite.obj
 0002:00016b7c       $unwind$sqlite3_msize      00000001800ffb7c     sqlite.obj
 0002:00016b7c       $unwind$sqlite3_os_init    00000001800ffb7c     sqlite.obj
 0002:00016b7c       $unwind$sqlite3_reset_auto_extension 00000001800ffb7c     sqlite.obj
 0002:00016b7c       $unwind$sqlite3_stmt_explain 00000001800ffb7c     sqlite.obj
 0002:00016b7c       $unwind$sqlite3_vtab_collation 00000001800ffb7c     sqlite.obj
 0002:00016b7c       $unwind$sqliteDefaultBusyCallback 00000001800ffb7c     sqlite.obj
 0002:00016b7c       $unwind$termCanDriveIndex  00000001800ffb7c     sqlite.obj
 0002:00016b7c       $unwind$winShmBarrier      00000001800ffb7c     sqlite.obj
 0002:00016b7c       $unwind$winUnfetch         00000001800ffb7c     sqlite.obj
 0002:00016b7c       $unwind$?impl@implementation@?1??Wrapper_SleepConditionVariableSRW@@YAHPEAU_RTL_CONDITION_VARIABLE@@PEAU_RTL_SRWLOCK@@KK@Z@SAH01KK@Z 00000001800ffb7c     vc_crt_fix_impl.obj
 0002:00016b7c       $unwind$__scrt_initialize_default_local_stdio_options 00000001800ffb7c     LIBCMT:default_local_stdio_options.obj
 0002:00016b7c       $unwind$?dllmain_crt_dispatch@@YAHQEAUHINSTANCE__@@KQEAX@Z 00000001800ffb7c     LIBCMT:dll_dllmain.obj
 0002:00016b7c       $unwind$__report_rangecheckfailure 00000001800ffb7c     LIBCMT:gs_report.obj
 0002:00016b7c       $unwind$__GSHandlerCheck   00000001800ffb7c     LIBCMT:gshandler.obj
 0002:00016b7c       $unwind$__scrt_acquire_startup_lock 00000001800ffb7c     LIBCMT:utility.obj
 0002:00016b7c       $unwind$__scrt_dllmain_after_initialize_c 00000001800ffb7c     LIBCMT:utility.obj
 0002:00016b7c       $unwind$__scrt_dllmain_before_initialize_c 00000001800ffb7c     LIBCMT:utility.obj
 0002:00016b7c       $unwind$__scrt_dllmain_crt_thread_attach 00000001800ffb7c     LIBCMT:utility.obj
 0002:00016b7c       $unwind$__scrt_dllmain_crt_thread_detach 00000001800ffb7c     LIBCMT:utility.obj
 0002:00016b7c       $unwind$__scrt_dllmain_uninitialize_c 00000001800ffb7c     LIBCMT:utility.obj
 0002:00016b7c       $unwind$__scrt_dllmain_uninitialize_critical 00000001800ffb7c     LIBCMT:utility.obj
 0002:00016b7c       $unwind$__vcrt_initialize  00000001800ffb7c     libvcruntime:initialization.obj
 0002:00016b7c       $unwind$__vcrt_thread_attach 00000001800ffb7c     libvcruntime:initialization.obj
 0002:00016b7c       $unwind$__vcrt_thread_detach 00000001800ffb7c     libvcruntime:initialization.obj
 0002:00016b7c       $unwind$__vcrt_uninitialize 00000001800ffb7c     libvcruntime:initialization.obj
 0002:00016b7c       $unwind$__vcrt_uninitialize_critical 00000001800ffb7c     libvcruntime:initialization.obj
 0002:00016b7c       $unwind$__vcrt_initialize_locks 00000001800ffb7c     libvcruntime:locks.obj
 0002:00016b7c       $unwind$__vcrt_freefls     00000001800ffb7c     libvcruntime:per_thread_data.obj
 0002:00016b7c       $unwind$__vcrt_getptd      00000001800ffb7c     libvcruntime:per_thread_data.obj
 0002:00016b7c       $unwind$__vcrt_initialize_ptd 00000001800ffb7c     libvcruntime:per_thread_data.obj
 0002:00016b7c       $unwind$__vcrt_uninitialize_ptd 00000001800ffb7c     libvcruntime:per_thread_data.obj
 0002:00016b7c       $unwind$__dcrt_terminate_console_output 00000001800ffb7c     libucrt:initcon.obj
 0002:00016b7c       $unwind$??$uninitialize_environment_internal@D@@YAXAEAPEAPEAD@Z 00000001800ffb7c     libucrt:environment_initialization.obj
 0002:00016b7c       $unwind$??$uninitialize_environment_internal@_W@@YAXAEAPEAPEA_W@Z 00000001800ffb7c     libucrt:environment_initialization.obj
 0002:00016b7c       $unwind$__dcrt_get_or_create_narrow_environment_nolock 00000001800ffb7c     libucrt:environment_initialization.obj
 0002:00016b7c       $unwind$__dcrt_uninitialize_environments_nolock 00000001800ffb7c     libucrt:environment_initialization.obj
 0002:00016b7c       $unwind$__acrt_initialize_heap 00000001800ffb7c     libucrt:heap_handle.obj
 0002:00016b7c       $unwind$_msize_base        00000001800ffb7c     libucrt:msize.obj
 0002:00016b7c       $unwind$?initialize_multibyte@@YAHXZ 00000001800ffb7c     libucrt:multibyte_initializer.obj
 0002:00016b7c       $unwind$__acrt_thread_attach 00000001800ffb7c     libucrt:initialization.obj
 0002:00016b7c       $unwind$__acrt_thread_detach 00000001800ffb7c     libucrt:initialization.obj
 0002:00016b7c       $unwind$__acrt_uninitialize 00000001800ffb7c     libucrt:initialization.obj
 0002:00016b7c       $unwind$__acrt_uninitialize_critical 00000001800ffb7c     libucrt:initialization.obj
 0002:00016b7c       $unwind$initialize_c       00000001800ffb7c     libucrt:initialization.obj
 0002:00016b7c       $unwind$uninitialize_allocated_io_buffers 00000001800ffb7c     libucrt:initialization.obj
 0002:00016b7c       $unwind$uninitialize_environment 00000001800ffb7c     libucrt:initialization.obj
 0002:00016b7c       $unwind$__acrt_initialize_ptd 00000001800ffb7c     libucrt:per_thread_data.obj
 0002:00016b7c       $unwind$__acrt_uninitialize_ptd 00000001800ffb7c     libucrt:per_thread_data.obj
 0002:00016b7c       $unwind$__acrt_AreFileApisANSI 00000001800ffb7c     libucrt:winapi_thunks.obj
 0002:00016b7c       $unwind$__acrt_RoUninitialize 00000001800ffb7c     libucrt:winapi_thunks.obj
 0002:00016b7c       $unwind$__pctype_func      00000001800ffb7c     libucrt:ctype.obj
 0002:00016b7c       $unwind$___lc_codepage_func 00000001800ffb7c     libucrt:initctype.obj
 0002:00016b7c       $unwind$__acrt_release_locale_ref 00000001800ffb7c     libucrt:locale_refcounting.obj
 0002:00016b7c       $unwind$_isatty            00000001800ffb7c     libucrt:isatty.obj
 0002:00016b7c       $unwind$_get_osfhandle     00000001800ffb7c     libucrt:osfinfo.obj
 0002:00016b7c       $unwind$__acrt_initialize_multibyte 00000001800ffb7c     libucrt:mbctype.obj
 0002:00016b7c       $unwind$__acrt_update_thread_multibyte_data 00000001800ffb7c     libucrt:mbctype.obj
 0002:00016b7c       $unwind$__doserrno         00000001800ffb7c     libucrt:errno.obj
 0002:00016b7c       $unwind$_errno             00000001800ffb7c     libucrt:errno.obj
 0002:00016b7c       $unwind$_invoke_watson     00000001800ffb7c     libucrt:invalid_parameter.obj
 0002:00016b7c       $unwind$abort              00000001800ffb7c     libucrt:abort.obj
 0002:00016b7c       $unwind$__acrt_initialize_command_line 00000001800ffb7c     libucrt:argv_data.obj
 0002:00016b7c       $unwind$_endthreadex       00000001800ffb7c     libucrt:thread.obj
 0002:00016b7c       $unwind$_fileno            00000001800ffb7c     libucrt:fileno.obj
 0002:00016b7c       $unwind$_strnicmp          00000001800ffb7c     libucrt:strnicmp.obj
 0002:00016b7c       $unwind$_get_daylight      00000001800ffb7c     libucrt:timeset.obj
 0002:00016b7c       $unwind$_get_dstbias       00000001800ffb7c     libucrt:timeset.obj
 0002:00016b7c       $unwind$_get_timezone      00000001800ffb7c     libucrt:timeset.obj
 0002:00016b7c       $unwind$_statfp            00000001800ffb7c     libucrt:fpctrl.obj
 0002:00016b7c       $unwind$_set_errno_from_matherr 00000001800ffb7c     libucrt:fpexcept.obj
 0002:00016b84       $unwind$btreeReleaseAllCursorPages 00000001800ffb84     sqlite.obj
 0002:00016b84       $unwind$pagerUnlockAndRollback 00000001800ffb84     sqlite.obj
 0002:00016b84       $unwind$sqlite3ResetOneSchema 00000001800ffb84     sqlite.obj
 0002:00016b84       $unwind$sqlite3VdbeGetBoundValue 00000001800ffb84     sqlite.obj
 0002:00016b84       $unwind$sqlite3WhereClauseClear 00000001800ffb84     sqlite.obj
 0002:00016b84       $unwind$sqlite3_backup_init 00000001800ffb84     sqlite.obj
 0002:00016b84       $unwind$sqlite3_stmt_status 00000001800ffb84     sqlite.obj
 0002:00016b84       $unwind$winMutexEnd        00000001800ffb84     sqlite.obj
 0002:00016b84       $unwind$winMutexInit       00000001800ffb84     sqlite.obj
 0002:00016b8c       $chain$1$winMutexInit      00000001800ffb8c     sqlite.obj
 0002:00016ba4       $chain$2$winMutexInit      00000001800ffba4     sqlite.obj
 0002:00016bb4       $chain$1$winMutexEnd       00000001800ffbb4     sqlite.obj
 0002:00016bcc       $chain$2$winMutexEnd       00000001800ffbcc     sqlite.obj
 0002:00016bdc       $unwind$winMutexAlloc      00000001800ffbdc     sqlite.obj
 0002:00016be8       $unwind$sqlite3_soft_heap_limit64 00000001800ffbe8     sqlite.obj
 0002:00016bf8       $unwind$sqlite3_hard_heap_limit64 00000001800ffbf8     sqlite.obj
 0002:00016c04       $chain$0$sqlite3Malloc     00000001800ffc04     sqlite.obj
 0002:00016c18       $chain$1$sqlite3Malloc     00000001800ffc18     sqlite.obj
 0002:00016c28       $unwind$binaryToUnaryIfNull 00000001800ffc28     sqlite.obj
 0002:00016c28       $unwind$jsonAppendRaw      00000001800ffc28     sqlite.obj
 0002:00016c28       $unwind$rowSetListToTree   00000001800ffc28     sqlite.obj
 0002:00016c28       $unwind$sqlite3VdbeValueListFree 00000001800ffc28     sqlite.obj
 0002:00016c28       $unwind$sqlite3_free       00000001800ffc28     sqlite.obj
 0002:00016c28       $unwind$sqlite3_value_free 00000001800ffc28     sqlite.obj
 0002:00016c28       $unwind$vdbeSorterExtendFile 00000001800ffc28     sqlite.obj
 0002:00016c28       $unwind$_free_base         00000001800ffc28     libucrt:free_base.obj
 0002:00016c28       $unwind$?destroy_fls@@YAXPEAX@Z 00000001800ffc28     libucrt:per_thread_data.obj
 0002:00016c28       $unwind$__acrt_locale_free_numeric 00000001800ffc28     libucrt:initnum.obj
 0002:00016c28       $unwind$__acrt_locale_free_lc_time_if_unreferenced 00000001800ffc28     libucrt:locale_refcounting.obj
 0002:00016c30       $unwind$invokeProfileCallback 00000001800ffc30     sqlite.obj
 0002:00016c30       $unwind$sqlite3Realloc     00000001800ffc30     sqlite.obj
 0002:00016c30       $unwind$sqlite3WindowChain 00000001800ffc30     sqlite.obj
 0002:00016c3c       $chain$2$sqlite3Realloc    00000001800ffc3c     sqlite.obj
 0002:00016c58       $chain$4$sqlite3Realloc    00000001800ffc58     sqlite.obj
 0002:00016c74       $chain$0$dbReallocFinish   00000001800ffc74     sqlite.obj
 0002:00016c88       $chain$1$dbReallocFinish   00000001800ffc88     sqlite.obj
 0002:00016c98       $unwind$sqlite3DbStrDup    00000001800ffc98     sqlite.obj
 0002:00016ca8       $unwind$sqlite3DbStrNDup   00000001800ffca8     sqlite.obj
 0002:00016ca8       $unwind$walUnlockShared    00000001800ffca8     sqlite.obj
 0002:00016cb4       $chain$0$sqlite3DbStrNDup  00000001800ffcb4     sqlite.obj
 0002:00016cc8       $chain$1$sqlite3DbStrNDup  00000001800ffcc8     sqlite.obj
 0002:00016cd8       $unwind$printfTempBuf      00000001800ffcd8     sqlite.obj
 0002:00016ce4       $chain$1$printfTempBuf     00000001800ffce4     sqlite.obj
 0002:00016cf8       $chain$2$printfTempBuf     00000001800ffcf8     sqlite.obj
 0002:00016d08       $unwind$sqlite3_str_vappendf 00000001800ffd08     sqlite.obj
 0002:00016d20       $chain$3$sqlite3_str_vappendf 00000001800ffd20     sqlite.obj
 0002:00016d40       $chain$4$sqlite3_str_vappendf 00000001800ffd40     sqlite.obj
 0002:00016d50       $unwind$exprNodeIsConstantOrGroupBy 00000001800ffd50     sqlite.obj
 0002:00016d50       $unwind$jsonBlobChangePayloadSize 00000001800ffd50     sqlite.obj
 0002:00016d50       $unwind$jsonBlobEdit       00000001800ffd50     sqlite.obj
 0002:00016d50       $unwind$jsonbValidityCheck 00000001800ffd50     sqlite.obj
 0002:00016d50       $unwind$sqlite3FkRequired  00000001800ffd50     sqlite.obj
 0002:00016d50       $unwind$sqlite3StrAccumEnlarge 00000001800ffd50     sqlite.obj
 0002:00016d50       $unwind$?try_get_function@@YAPEAXW4function_id@?A0xf6f43728@@QEBDQEBW4module_id@2@2@Z 00000001800ffd50     libvcruntime:winapi_downlevel.obj
 0002:00016d50       $unwind$?try_get_function@@YAPEAXW4function_id@?A0x391cf84c@@QEBDQEBW4module_id@2@2@Z 00000001800ffd50     libucrt:winapi_thunks.obj
 0002:00016d6c       $unwind$sqlite3ResultStrAccum 00000001800ffd6c     sqlite.obj
 0002:00016d6c       $unwind$sqlite3_vtab_rhs_value 00000001800ffd6c     sqlite.obj
 0002:00016d78       $chain$0$sqlite3ResultStrAccum 00000001800ffd78     sqlite.obj
 0002:00016d8c       $chain$1$sqlite3ResultStrAccum 00000001800ffd8c     sqlite.obj
 0002:00016d9c       $chain$0$sqlite3_str_finish 00000001800ffd9c     sqlite.obj
 0002:00016db0       $chain$2$sqlite3_str_finish 00000001800ffdb0     sqlite.obj
 0002:00016dc4       $chain$3$sqlite3_str_finish 00000001800ffdc4     sqlite.obj
 0002:00016dd4       $unwind$sqlite3VMPrintf    00000001800ffdd4     sqlite.obj
 0002:00016dec       $unwind$sqlite3MPrintf     00000001800ffdec     sqlite.obj
 0002:00016dec       $unwind$sqlite3_str_appendf 00000001800ffdec     sqlite.obj
 0002:00016df4       $unwind$sqlite3_vmprintf   00000001800ffdf4     sqlite.obj
 0002:00016e0c       $unwind$sqlite3_mprintf    00000001800ffe0c     sqlite.obj
 0002:00016e14       $unwind$btreeRestoreCursorPosition 00000001800ffe14     sqlite.obj
 0002:00016e14       $unwind$sqlite3_vsnprintf  00000001800ffe14     sqlite.obj
 0002:00016e14       $unwind$walCleanupHash     00000001800ffe14     sqlite.obj
 0002:00016e14       $unwind$__dcrt_lowio_ensure_console_output_initialized 00000001800ffe14     libucrt:initcon.obj
 0002:00016e14       $unwind$_isleadbyte_l      00000001800ffe14     libucrt:_wctype.obj
 0002:00016e14       $unwind$?getSystemCP@@YAHH@Z 00000001800ffe14     libucrt:mbctype.obj
 0002:00016e1c       $unwind$sqlite3_snprintf   00000001800ffe1c     sqlite.obj
 0002:00016e24       $unwind$sqlite3_log        00000001800ffe24     sqlite.obj
 0002:00016e38       $unwind$chacha_block       00000001800ffe38     sqlite.obj
 0002:00016e5c       $unwind$sqlite3_randomness 00000001800ffe5c     sqlite.obj
 0002:00016e68       $chain$0$sqlite3_randomness 00000001800ffe68     sqlite.obj
 0002:00016e7c       $chain$1$sqlite3_randomness 00000001800ffe7c     sqlite.obj
 0002:00016e90       $chain$2$sqlite3_randomness 00000001800ffe90     sqlite.obj
 0002:00016ea4       $chain$3$sqlite3_randomness 00000001800ffea4     sqlite.obj
 0002:00016eb4       $chain$4$sqlite3_randomness 00000001800ffeb4     sqlite.obj
 0002:00016ec4       $chain$5$sqlite3_randomness 00000001800ffec4     sqlite.obj
 0002:00016ed4       $unwind$cellSizePtr        00000001800ffed4     sqlite.obj
 0002:00016ed4       $unwind$cellSizePtrIdxLeaf 00000001800ffed4     sqlite.obj
 0002:00016ed4       $unwind$sqlite3GetUInt32   00000001800ffed4     sqlite.obj
 0002:00016ed4       $unwind$sqlite3Utf8ReadLimited 00000001800ffed4     sqlite.obj
 0002:00016ee0       $unwind$selectWindowRewriteExprCb 00000001800ffee0     sqlite.obj
 0002:00016ee0       $unwind$sqlite3SrcListEnlarge 00000001800ffee0     sqlite.obj
 0002:00016ee0       $unwind$sqlite3VdbeMemTranslate 00000001800ffee0     sqlite.obj
 0002:00016ef4       $chain$0$sqlite3VdbeMemTranslate 00000001800ffef4     sqlite.obj
 0002:00016f08       $chain$1$sqlite3VdbeMemTranslate 00000001800fff08     sqlite.obj
 0002:00016f18       $unwind$sqlite3BtreeCopyFile 00000001800fff18     sqlite.obj
 0002:00016f18       $unwind$sqlite3Utf16to8    00000001800fff18     sqlite.obj
 0002:00016f20       $unwind$sqlite3SystemError 00000001800fff20     sqlite.obj
 0002:00016f28       $unwind$sqlite3ErrorWithMsg 00000001800fff28     sqlite.obj
 0002:00016f34       $unwind$sqlite3ErrorMsg    00000001800fff34     sqlite.obj
 0002:00016f40       $chain$0$sqlite3DequoteToken 00000001800fff40     sqlite.obj
 0002:00016f54       $chain$1$sqlite3DequoteToken 00000001800fff54     sqlite.obj
 0002:00016f64       $unwind$dekkerMul2         00000001800fff64     sqlite.obj
 0002:00016f6c       $unwind$sqlite3AtoF        00000001800fff6c     sqlite.obj
 0002:00016f84       $chain$1$sqlite3AtoF       00000001800fff84     sqlite.obj
 0002:00016f9c       $chain$2$sqlite3AtoF       00000001800fff9c     sqlite.obj
 0002:00016fac       $unwind$sqlite3Atoi64      00000001800fffac     sqlite.obj
 0002:00016fb8       $chain$4$sqlite3Atoi64     00000001800fffb8     sqlite.obj
 0002:00016fdc       $chain$5$sqlite3Atoi64     00000001800fffdc     sqlite.obj
 0002:00016ff0       $unwind$addArgumentToVtab  00000001800ffff0     sqlite.obj
 0002:00016ff0       $unwind$propagateConstantExprRewriteOne 00000001800ffff0     sqlite.obj
 0002:00016ff0       $unwind$sqlite3DecOrHexToI64 00000001800ffff0     sqlite.obj
 0002:00016ff0       $unwind$sqlite3VtabUnlock  00000001800ffff0     sqlite.obj
 0002:00016ff0       $unwind$sqlite3_win32_set_directory8 00000001800ffff0     sqlite.obj
 0002:00016ffc       $chain$1$sqlite3DecOrHexToI64 00000001800ffffc     sqlite.obj
 0002:00017014       $chain$2$sqlite3DecOrHexToI64 0000000180100014     sqlite.obj
 0002:00017014       $chain$4$sqlite3DecOrHexToI64 0000000180100014     sqlite.obj
 0002:00017028       $chain$5$sqlite3DecOrHexToI64 0000000180100028     sqlite.obj
 0002:00017038       $unwind$cellSizePtrTableLeaf 0000000180100038     sqlite.obj
 0002:00017038       $unwind$jsonbPayloadSize   0000000180100038     sqlite.obj
 0002:00017038       $unwind$sqlite3GetInt32    0000000180100038     sqlite.obj
 0002:00017038       $unwind$whereLoopCheaperProperSubset 0000000180100038     sqlite.obj
 0002:00017048       $unwind$sqlite3FpDecode    0000000180100048     sqlite.obj
 0002:0001705c       $chain$0$sqlite3FpDecode   000000018010005c     sqlite.obj
 0002:00017070       $chain$3$sqlite3FpDecode   0000000180100070     sqlite.obj
 0002:0001708c       $chain$4$sqlite3FpDecode   000000018010008c     sqlite.obj
 0002:000170a0       $chain$5$sqlite3FpDecode   00000001801000a0     sqlite.obj
 0002:000170b0       $chain$6$sqlite3FpDecode   00000001801000b0     sqlite.obj
 0002:000170c0       $chain$8$sqlite3FpDecode   00000001801000c0     sqlite.obj
 0002:000170d8       $chain$9$sqlite3FpDecode   00000001801000d8     sqlite.obj
 0002:000170e8       $chain$10$sqlite3FpDecode  00000001801000e8     sqlite.obj
 0002:000170f8       $unwind$putVarint64        00000001801000f8     sqlite.obj
 0002:00017108       $chain$0$sqlite3GetVarint  0000000180100108     sqlite.obj
 0002:0001711c       $chain$2$sqlite3GetVarint  000000018010011c     sqlite.obj
 0002:0001711c       $chain$4$sqlite3GetVarint  000000018010011c     sqlite.obj
 0002:0001711c       $chain$6$sqlite3GetVarint  000000018010011c     sqlite.obj
 0002:0001711c       $chain$8$sqlite3GetVarint  000000018010011c     sqlite.obj
 0002:00017130       $unwind$sqlite3LogEstFromDouble 0000000180100130     sqlite.obj
 0002:00017138       $unwind$pagerOpenSavepoint 0000000180100138     sqlite.obj
 0002:00017138       $unwind$pcache1FetchStage2 0000000180100138     sqlite.obj
 0002:00017138       $unwind$pcache1TruncateUnsafe 0000000180100138     sqlite.obj
 0002:00017138       $unwind$sqlite3AllocateIndexObject 0000000180100138     sqlite.obj
 0002:00017138       $unwind$sqlite3VListNameToNum 0000000180100138     sqlite.obj
 0002:00017138       $unwind$sqlite3VdbeMemSetStr 0000000180100138     sqlite.obj
 0002:00017138       $unwind$sqlite3VtabCreateModule 0000000180100138     sqlite.obj
 0002:00017138       $unwind$sqlite3WindowAlloc 0000000180100138     sqlite.obj
 0002:00017138       $unwind$sqlite3_db_cacheflush 0000000180100138     sqlite.obj
 0002:00017138       $unwind$sqlite3_set_clientdata 0000000180100138     sqlite.obj
 0002:00017138       $unwind$vdbeSorterCompareInt 0000000180100138     sqlite.obj
 0002:00017138       $unwind$whereUsablePartialIndex 0000000180100138     sqlite.obj
 0002:00017154       $unwind$addModuleArgument  0000000180100154     sqlite.obj
 0002:00017154       $unwind$extendFJMatch      0000000180100154     sqlite.obj
 0002:00017154       $unwind$jsonBlobExpandAndAppendNode 0000000180100154     sqlite.obj
 0002:00017154       $unwind$jsonEachConnect    0000000180100154     sqlite.obj
 0002:00017154       $unwind$memdbFileControl   0000000180100154     sqlite.obj
 0002:00017154       $unwind$memdbLock          0000000180100154     sqlite.obj
 0002:00017154       $unwind$memdbRead          0000000180100154     sqlite.obj
 0002:00017154       $unwind$parserAddExprIdListTerm 0000000180100154     sqlite.obj
 0002:00017154       $unwind$pcache1AllocPage   0000000180100154     sqlite.obj
 0002:00017154       $unwind$pcache1ResizeHash  0000000180100154     sqlite.obj
 0002:00017154       $unwind$pragmaVtabCursorClear 0000000180100154     sqlite.obj
 0002:00017154       $unwind$saveCursorsOnList  0000000180100154     sqlite.obj
 0002:00017154       $unwind$signFunc           0000000180100154     sqlite.obj
 0002:00017154       $unwind$sqlite3BtreeCommitPhaseOne 0000000180100154     sqlite.obj
 0002:00017154       $unwind$sqlite3BtreeSetAutoVacuum 0000000180100154     sqlite.obj
 0002:00017154       $unwind$sqlite3ColumnSetExpr 0000000180100154     sqlite.obj
 0002:00017154       $unwind$sqlite3HashClear   0000000180100154     sqlite.obj
 0002:00017154       $unwind$sqlite3LocateCollSeq 0000000180100154     sqlite.obj
 0002:00017154       $unwind$sqlite3SrcListLookup 0000000180100154     sqlite.obj
 0002:00017154       $unwind$sqlite3UpsertNew   0000000180100154     sqlite.obj
 0002:00017154       $unwind$sqlite3VdbeFrameDelete 0000000180100154     sqlite.obj
 0002:00017154       $unwind$sqlite3VdbeMemSetPointer 0000000180100154     sqlite.obj
 0002:00017154       $unwind$sqlite3_autovacuum_pages 0000000180100154     sqlite.obj
 0002:00017154       $unwind$sqlite3_bind_int64 0000000180100154     sqlite.obj
 0002:00017154       $unwind$sqlite3_bind_zeroblob 0000000180100154     sqlite.obj
 0002:00017154       $unwind$sqlite3_commit_hook 0000000180100154     sqlite.obj
 0002:00017154       $unwind$sqlite3_load_extension 0000000180100154     sqlite.obj
 0002:00017154       $unwind$sqlite3_profile    0000000180100154     sqlite.obj
 0002:00017154       $unwind$sqlite3_progress_handler 0000000180100154     sqlite.obj
 0002:00017154       $unwind$sqlite3_result_pointer 0000000180100154     sqlite.obj
 0002:00017154       $unwind$sqlite3_rollback_hook 0000000180100154     sqlite.obj
 0002:00017154       $unwind$sqlite3_trace      0000000180100154     sqlite.obj
 0002:00017154       $unwind$sqlite3_trace_v2   0000000180100154     sqlite.obj
 0002:00017154       $unwind$sqlite3_update_hook 0000000180100154     sqlite.obj
 0002:00017154       $unwind$sqlite3_wal_hook   0000000180100154     sqlite.obj
 0002:00017154       $unwind$sumInverse         0000000180100154     sqlite.obj
 0002:00017154       $unwind$sumStep            0000000180100154     sqlite.obj
 0002:00017154       $unwind$upsertDelete       0000000180100154     sqlite.obj
 0002:00017154       $unwind$vdbeSorterCompare  0000000180100154     sqlite.obj
 0002:00017154       $unwind$vdbeSorterCompareTail 0000000180100154     sqlite.obj
 0002:00017154       $unwind$walRestartHdr      0000000180100154     sqlite.obj
 0002:00017154       $unwind$winFetch           0000000180100154     sqlite.obj
 0002:00017154       $unwind$Wrapper_SleepConditionVariableSRW 0000000180100154     vc_crt_fix_impl.obj
 0002:00017154       $unwind$__scrt_dllmain_exception_filter 0000000180100154     LIBCMT:utility.obj
 0002:00017154       $unwind$_ischartype_l      0000000180100154     libucrt:atox.obj
 0002:00017154       $unwind$_recalloc_base     0000000180100154     libucrt:recalloc.obj
 0002:00017154       $unwind$__acrt_free_locale 0000000180100154     libucrt:locale_refcounting.obj
 0002:00017154       $unwind$__acrt_lowio_create_handle_array 0000000180100154     libucrt:osfinfo.obj
 0002:00017154       $unwind$?setSBCS@@YAXPEAU__crt_multibyte_data@@@Z 0000000180100154     libucrt:mbctype.obj
 0002:00017154       $unwind$_seh_filter_exe    0000000180100154     libucrt:exception_filter.obj
 0002:00017154       $unwind$_initterm          0000000180100154     libucrt:initterm.obj
 0002:00017168       $unwind$jsonAfterEditSizeAdjust 0000000180100168     sqlite.obj
 0002:00017168       $unwind$jsonGroupInverse   0000000180100168     sqlite.obj
 0002:00017168       $unwind$readDbPage         0000000180100168     sqlite.obj
 0002:00017168       $unwind$rehash             0000000180100168     sqlite.obj
 0002:00017168       $unwind$sqlite3CheckObjectName 0000000180100168     sqlite.obj
 0002:00017168       $unwind$sqlite3PagerBegin  0000000180100168     sqlite.obj
 0002:00017168       $unwind$vdbePmaReaderNext  0000000180100168     sqlite.obj
 0002:00017168       $unwind$walLimitSize       0000000180100168     sqlite.obj
 0002:00017178       $chain$0$rehash            0000000180100178     sqlite.obj
 0002:0001718c       $chain$1$rehash            000000018010018c     sqlite.obj
 0002:0001719c       $unwind$findElementWithHash 000000018010019c     sqlite.obj
 0002:000171a8       $unwind$sqlite3HashInsert  00000001801001a8     sqlite.obj
 0002:000171bc       $unwind$exprMightBeIndexed 00000001801001bc     sqlite.obj
 0002:000171bc       $unwind$recomputeColumnsNotIndexed 00000001801001bc     sqlite.obj
 0002:000171bc       $unwind$sqlite3FindDbName  00000001801001bc     sqlite.obj
 0002:000171bc       $unwind$vdbeRecordCompareInt 00000001801001bc     sqlite.obj
 0002:000171bc       $unwind$winSetSystemCall   00000001801001bc     sqlite.obj
 0002:000171bc       $unwind$__GSHandlerCheckCommon 00000001801001bc     LIBCMT:gshandler.obj
 0002:000171bc       $unwind$__acrt_WideCharToMultiByte 00000001801001bc     libucrt:widechartomultibyte.obj
 0002:000171c4       $chain$0$winSetSystemCall  00000001801001c4     sqlite.obj
 0002:000171d8       $chain$2$winSetSystemCall  00000001801001d8     sqlite.obj
 0002:000171ec       $unwind$whereCheckIfBloomFilterIsUseful 00000001801001ec     sqlite.obj
 0002:000171ec       $unwind$winNextSystemCall  00000001801001ec     sqlite.obj
 0002:000171f4       $chain$0$winNextSystemCall 00000001801001f4     sqlite.obj
 0002:00017208       $chain$1$winNextSystemCall 0000000180100208     sqlite.obj
 0002:00017218       $unwind$sqlite3_win32_write_debug 0000000180100218     sqlite.obj
 0002:00017230       $unwind$accessPayloadChecked 0000000180100230     sqlite.obj
 0002:00017230       $unwind$btreeComputeFreeSpace 0000000180100230     sqlite.obj
 0002:00017230       $unwind$codeExprOrVector   0000000180100230     sqlite.obj
 0002:00017230       $unwind$concatwsFunc       0000000180100230     sqlite.obj
 0002:00017230       $unwind$growOp3            0000000180100230     sqlite.obj
 0002:00017230       $unwind$jsonConvertTextToBlob 0000000180100230     sqlite.obj
 0002:00017230       $unwind$jsonReturnString   0000000180100230     sqlite.obj
 0002:00017230       $unwind$jsonTypeFunc       0000000180100230     sqlite.obj
 0002:00017230       $unwind$lowerFunc          0000000180100230     sqlite.obj
 0002:00017230       $unwind$makeSorterRecord   0000000180100230     sqlite.obj
 0002:00017230       $unwind$moveToLeftmost     0000000180100230     sqlite.obj
 0002:00017230       $unwind$moveToRightmost    0000000180100230     sqlite.obj
 0002:00017230       $unwind$moveToRoot         0000000180100230     sqlite.obj
 0002:00017230       $unwind$roundFunc          0000000180100230     sqlite.obj
 0002:00017230       $unwind$sqlite3AddCheckConstraint 0000000180100230     sqlite.obj
 0002:00017230       $unwind$sqlite3BtreeCursor 0000000180100230     sqlite.obj
 0002:00017230       $unwind$sqlite3BtreePutData 0000000180100230     sqlite.obj
 0002:00017230       $unwind$sqlite3ExprImpliesExpr 0000000180100230     sqlite.obj
 0002:00017230       $unwind$sqlite3VtabCallCreate 0000000180100230     sqlite.obj
 0002:00017230       $unwind$sqlite3_create_collation_v2 0000000180100230     sqlite.obj
 0002:00017230       $unwind$upperFunc          0000000180100230     sqlite.obj
 0002:00017230       $unwind$vdbeSorterCreateThread 0000000180100230     sqlite.obj
 0002:00017230       $unwind$winUtf8ToUnicode   0000000180100230     sqlite.obj
 0002:00017230       $unwind$_invalid_parameter 0000000180100230     libucrt:invalid_parameter.obj
 0002:00017230       $unwind$strcspn            0000000180100230     libucrt:strcspn.obj
 0002:00017230       $unwind$strspn             0000000180100230     libucrt:strspn.obj
 0002:00017244       $unwind$renameTestSchema   0000000180100244     sqlite.obj
 0002:00017244       $unwind$winUnicodeToUtf8   0000000180100244     sqlite.obj
 0002:00017244       $unwind$__dcrt_get_narrow_environment_from_os 0000000180100244     libucrt:get_environment_from_os.obj
 0002:00017244       $unwind$??$__acrt_wcs_to_mbs_cp@U__crt_win32_buffer_internal_dynamic_resizing@@@@YAHQEB_WAEAV?$__crt_win32_buffer@DU__crt_win32_buffer_internal_dynamic_resizing@@@@I@Z 0000000180100244     libucrt:argv_wildcards.obj
 0002:0001725c       $unwind$analyzeTable       000000018010025c     sqlite.obj
 0002:0001725c       $unwind$btreeMoveto        000000018010025c     sqlite.obj
 0002:0001725c       $unwind$btreeOverwriteContent 000000018010025c     sqlite.obj
 0002:0001725c       $unwind$destroyRootPage    000000018010025c     sqlite.obj
 0002:0001725c       $unwind$sqlite3CodeRowTriggerDirect 000000018010025c     sqlite.obj
 0002:0001725c       $unwind$sqlite3TriggerDeleteStep 000000018010025c     sqlite.obj
 0002:0001725c       $unwind$sqlite3_bind_blob  000000018010025c     sqlite.obj
 0002:0001725c       $unwind$sqlite3_bind_blob64 000000018010025c     sqlite.obj
 0002:0001725c       $unwind$sqlite3_create_module 000000018010025c     sqlite.obj
 0002:0001725c       $unwind$sqlite3_create_module_v2 000000018010025c     sqlite.obj
 0002:0001725c       $unwind$sqlite3_wal_checkpoint_v2 000000018010025c     sqlite.obj
 0002:0001725c       $unwind$winMbcsToUtf8      000000018010025c     sqlite.obj
 0002:00017274       $unwind$winUtf8ToMbcs      0000000180100274     sqlite.obj
 0002:00017280       $chain$0$winUtf8ToMbcs     0000000180100280     sqlite.obj
 0002:00017294       $chain$2$winUtf8ToMbcs     0000000180100294     sqlite.obj
 0002:000172ac       $chain$3$winUtf8ToMbcs     00000001801002ac     sqlite.obj
 0002:000172c0       $chain$4$winUtf8ToMbcs     00000001801002c0     sqlite.obj
 0002:000172d0       $chain$5$winUtf8ToMbcs     00000001801002d0     sqlite.obj
 0002:000172e0       $chain$7$winUtf8ToMbcs     00000001801002e0     sqlite.obj
 0002:000172f4       $chain$1$sqlite3_win32_set_directory8 00000001801002f4     sqlite.obj
 0002:0001730c       $chain$2$sqlite3_win32_set_directory8 000000018010030c     sqlite.obj
 0002:0001731c       $unwind$vdbeSorterOpenTempFile 000000018010031c     sqlite.obj
 0002:0001731c       $unwind$winGetLastErrorMsg 000000018010031c     sqlite.obj
 0002:0001731c       $unwind$??$initialize_environment_by_cloning_nolock@D@@YAHXZ 000000018010031c     libucrt:environment_initialization.obj
 0002:0001731c       $unwind$?x_ismbbtype_l@@YAHPEAU__crt_locale_pointers@@IHH@Z 000000018010031c     libucrt:ismbbyte.obj
 0002:0001731c       $unwind$_strnicmp_l        000000018010031c     libucrt:strnicmp.obj
 0002:0001732c       $unwind$winLogErrorAtLine  000000018010032c     sqlite.obj
 0002:00017344       $unwind$sqlite3ExprIsConstant 0000000180100344     sqlite.obj
 0002:00017344       $unwind$winUnlockFile      0000000180100344     sqlite.obj
 0002:0001734c       $unwind$btreeInitPage      000000018010034c     sqlite.obj
 0002:0001734c       $unwind$btreeNext          000000018010034c     sqlite.obj
 0002:0001734c       $unwind$corruptSchema      000000018010034c     sqlite.obj
 0002:0001734c       $unwind$integrityCheckResultRow 000000018010034c     sqlite.obj
 0002:0001734c       $unwind$jsonArrayCompute   000000018010034c     sqlite.obj
 0002:0001734c       $unwind$jsonObjectCompute  000000018010034c     sqlite.obj
 0002:0001734c       $unwind$jsonPatchFunc      000000018010034c     sqlite.obj
 0002:0001734c       $unwind$ntileStepFunc      000000018010034c     sqlite.obj
 0002:0001734c       $unwind$randomBlob         000000018010034c     sqlite.obj
 0002:0001734c       $unwind$returnSingleInt    000000018010034c     sqlite.obj
 0002:0001734c       $unwind$sqlite3EndTransaction 000000018010034c     sqlite.obj
 0002:0001734c       $unwind$sqlite3VdbeLoadString 000000018010034c     sqlite.obj
 0002:0001734c       $unwind$sqlite3VdbeTransferError 000000018010034c     sqlite.obj
 0002:0001734c       $unwind$vdbeUnbind         000000018010034c     sqlite.obj
 0002:0001734c       $unwind$winClose           000000018010034c     sqlite.obj
 0002:0001734c       $unwind$_beginthreadex     000000018010034c     libucrt:thread.obj
 0002:0001734c       $unwind$strpbrk            000000018010034c     libucrt:strpbrk.obj
 0002:0001735c       $unwind$winRead            000000018010035c     sqlite.obj
 0002:00017374       $unwind$winWrite           0000000180100374     sqlite.obj
 0002:0001738c       $unwind$winTruncate        000000018010038c     sqlite.obj
 0002:000173a0       $unwind$addOp4IntSlow      00000001801003a0     sqlite.obj
 0002:000173a0       $unwind$btreePrevious      00000001801003a0     sqlite.obj
 0002:000173a0       $unwind$compileoptiongetFunc 00000001801003a0     sqlite.obj
 0002:000173a0       $unwind$groupConcatValue   00000001801003a0     sqlite.obj
 0002:000173a0       $unwind$loadAnalysis       00000001801003a0     sqlite.obj
 0002:000173a0       $unwind$pragmaVtabColumn   00000001801003a0     sqlite.obj
 0002:000173a0       $unwind$saveCursorKey      00000001801003a0     sqlite.obj
 0002:000173a0       $unwind$sqlite3AuthCheck   00000001801003a0     sqlite.obj
 0002:000173a0       $unwind$sqlite3BtreeRollback 00000001801003a0     sqlite.obj
 0002:000173a0       $unwind$sqlite3ReportError 00000001801003a0     sqlite.obj
 0002:000173a0       $unwind$sqlite3VdbeAddOp2  00000001801003a0     sqlite.obj
 0002:000173a0       $unwind$sqlite3VdbeFinishMoveto 00000001801003a0     sqlite.obj
 0002:000173a0       $unwind$sqlite3_bind_value 00000001801003a0     sqlite.obj
 0002:000173a0       $unwind$sqlite3_column_double 00000001801003a0     sqlite.obj
 0002:000173a0       $unwind$sqlite3_file_control 00000001801003a0     sqlite.obj
 0002:000173a0       $unwind$sqlite3_result_blob64 00000001801003a0     sqlite.obj
 0002:000173a0       $unwind$sqlite3_result_text64 00000001801003a0     sqlite.obj
 0002:000173a0       $unwind$sumFinalize        00000001801003a0     sqlite.obj
 0002:000173a0       $unwind$winSync            00000001801003a0     sqlite.obj
 0002:000173a0       $unwind$winUnmapfile       00000001801003a0     sqlite.obj
 0002:000173a0       $unwind$?__mbrtowc_utf8@__crt_mbstring@@YA_KPEA_WPEBD_KPEAU_Mbstatet@@@Z 00000001801003a0     libucrt:mbrtowc.obj
 0002:000173a8       $unwind$sqlite3PagerCloseWal 00000001801003a8     sqlite.obj
 0002:000173a8       $unwind$sqlite3_open16     00000001801003a8     sqlite.obj
 0002:000173a8       $unwind$winFileSize        00000001801003a8     sqlite.obj
 0002:000173a8       $unwind$windowExprGtZero   00000001801003a8     sqlite.obj
 0002:000173b4       $unwind$winGetReadLock     00000001801003b4     sqlite.obj
 0002:000173b4       $unwind$winUnlockReadLock  00000001801003b4     sqlite.obj
 0002:000173c0       $unwind$winLock            00000001801003c0     sqlite.obj
 0002:000173d8       $chain$0$winLock           00000001801003d8     sqlite.obj
 0002:000173ec       $chain$1$winLock           00000001801003ec     sqlite.obj
 0002:000173fc       $chain$2$winLock           00000001801003fc     sqlite.obj
 0002:00017410       $unwind$winCheckReservedLock 0000000180100410     sqlite.obj
 0002:00017424       $unwind$winUnlock          0000000180100424     sqlite.obj
 0002:0001743c       $unwind$winShmPurge        000000018010043c     sqlite.obj
 0002:00017454       $chain$3$winShmPurge       0000000180100454     sqlite.obj
 0002:00017474       $chain$4$winShmPurge       0000000180100474     sqlite.obj
 0002:00017484       $chain$5$winShmPurge       0000000180100484     sqlite.obj
 0002:000174a4       $unwind$winLockSharedMemory 00000001801004a4     sqlite.obj
 0002:000174b4       $unwind$winOpenSharedMemory 00000001801004b4     sqlite.obj
 0002:000174cc       $unwind$pcache1EnforceMaxPage 00000001801004cc     sqlite.obj
 0002:000174cc       $unwind$winShmUnmap        00000001801004cc     sqlite.obj
 0002:000174dc       $chain$0$winShmUnmap       00000001801004dc     sqlite.obj
 0002:000174f0       $chain$1$winShmUnmap       00000001801004f0     sqlite.obj
 0002:00017500       $unwind$winShmLock         0000000180100500     sqlite.obj
 0002:00017514       $chain$0$winShmLock        0000000180100514     sqlite.obj
 0002:00017528       $chain$1$winShmLock        0000000180100528     sqlite.obj
 0002:00017538       $unwind$winShmMap          0000000180100538     sqlite.obj
 0002:0001754c       $chain$1$winShmMap         000000018010054c     sqlite.obj
 0002:00017564       $chain$2$winShmMap         0000000180100564     sqlite.obj
 0002:00017574       $unwind$btreeGetUnusedPage 0000000180100574     sqlite.obj
 0002:00017574       $unwind$jsonEachColumn     0000000180100574     sqlite.obj
 0002:00017574       $unwind$sqlite3OpenTempDatabase 0000000180100574     sqlite.obj
 0002:00017574       $unwind$sqlite3VdbeCreate  0000000180100574     sqlite.obj
 0002:00017574       $unwind$winMapfile         0000000180100574     sqlite.obj
 0002:00017584       $unwind$winGetTempname     0000000180100584     sqlite.obj
 0002:0001759c       $chain$0$winGetTempname    000000018010059c     sqlite.obj
 0002:000175b0       $chain$1$winGetTempname    00000001801005b0     sqlite.obj
 0002:000175b0       $chain$3$winGetTempname    00000001801005b0     sqlite.obj
 0002:000175c0       $chain$2$winGetTempname    00000001801005c0     sqlite.obj
 0002:000175d4       $unwind$winOpen            00000001801005d4     sqlite.obj
 0002:000175f4       $unwind$winDelete          00000001801005f4     sqlite.obj
 0002:00017608       $chain$0$winDelete         0000000180100608     sqlite.obj
 0002:0001761c       $chain$1$winDelete         000000018010061c     sqlite.obj
 0002:0001762c       $unwind$winAccess          000000018010062c     sqlite.obj
 0002:00017640       $chain$0$winAccess         0000000180100640     sqlite.obj
 0002:00017654       $chain$4$winAccess         0000000180100654     sqlite.obj
 0002:00017674       $chain$5$winAccess         0000000180100674     sqlite.obj
 0002:00017684       $chain$6$winAccess         0000000180100684     sqlite.obj
 0002:00017694       $chain$7$winAccess         0000000180100694     sqlite.obj
 0002:000176b8       $unwind$winFullPathnameNoMutex 00000001801006b8     sqlite.obj
 0002:000176c8       $chain$2$winFullPathnameNoMutex 00000001801006c8     sqlite.obj
 0002:000176e4       $chain$4$winFullPathnameNoMutex 00000001801006e4     sqlite.obj
 0002:00017700       $unwind$isValidSchemaTableName 0000000180100700     sqlite.obj
 0002:00017700       $unwind$sqlite3Analyze     0000000180100700     sqlite.obj
 0002:00017700       $unwind$sqlite3BtreeLockTable 0000000180100700     sqlite.obj
 0002:00017700       $unwind$sqlite3TwoPartName 0000000180100700     sqlite.obj
 0002:00017700       $unwind$winFullPathname    0000000180100700     sqlite.obj
 0002:00017714       $chain$0$winFullPathname   0000000180100714     sqlite.obj
 0002:00017728       $chain$1$winFullPathname   0000000180100728     sqlite.obj
 0002:00017738       $chain$0$winDlOpen         0000000180100738     sqlite.obj
 0002:0001774c       $chain$2$winDlOpen         000000018010074c     sqlite.obj
 0002:00017760       $unwind$winRandomness      0000000180100760     sqlite.obj
 0002:0001777c       $chain$0$sqlite3_os_init   000000018010077c     sqlite.obj
 0002:00017790       $chain$1$sqlite3_os_init   0000000180100790     sqlite.obj
 0002:000177a0       $unwind$memdbClose         00000001801007a0     sqlite.obj
 0002:000177a0       $unwind$sqlite3BtreeCloseCursor 00000001801007a0     sqlite.obj
 0002:000177a0       $unwind$sqlite3_errmsg16   00000001801007a0     sqlite.obj
 0002:000177a0       $unwind$valueToText        00000001801007a0     sqlite.obj
 0002:000177ac       $chain$0$memdbClose        00000001801007ac     sqlite.obj
 0002:000177c0       $chain$1$memdbClose        00000001801007c0     sqlite.obj
 0002:000177d4       $chain$2$memdbClose        00000001801007d4     sqlite.obj
 0002:000177e4       $chain$3$memdbClose        00000001801007e4     sqlite.obj
 0002:000177f4       $unwind$memdbWrite         00000001801007f4     sqlite.obj
 0002:000177f4       $unwind$sqlite3AddGenerated 00000001801007f4     sqlite.obj
 0002:000177f4       $unwind$sqlite3ExprCompare 00000001801007f4     sqlite.obj
 0002:00017804       $chain$1$memdbWrite        0000000180100804     sqlite.obj
 0002:0001781c       $chain$3$memdbWrite        000000018010081c     sqlite.obj
 0002:00017834       $unwind$jsonEachOpenEach   0000000180100834     sqlite.obj
 0002:00017834       $unwind$jsonEachOpenTree   0000000180100834     sqlite.obj
 0002:00017834       $unwind$jsonUnescapeOneChar 0000000180100834     sqlite.obj
 0002:00017834       $unwind$memdbFetch         0000000180100834     sqlite.obj
 0002:00017834       $unwind$sqlite3BtreeGetMeta 0000000180100834     sqlite.obj
 0002:00017834       $unwind$sqlite3ColumnSetColl 0000000180100834     sqlite.obj
 0002:00017834       $unwind$sqlite3VdbeFrameRestore 0000000180100834     sqlite.obj
 0002:00017834       $unwind$sqlite3VdbeSetNumCols 0000000180100834     sqlite.obj
 0002:00017834       $unwind$_free_osfhnd       0000000180100834     libucrt:osfinfo.obj
 0002:00017834       $unwind$?compute_year@@YAHAEA_JAEA_N@Z 0000000180100834     libucrt:gmtime.obj
 0002:00017848       $unwind$allocateCursor     0000000180100848     sqlite.obj
 0002:00017848       $unwind$compoundHasDifferentAffinities 0000000180100848     sqlite.obj
 0002:00017848       $unwind$findOrCreateAggInfoColumn 0000000180100848     sqlite.obj
 0002:00017848       $unwind$jsonCacheSearch    0000000180100848     sqlite.obj
 0002:00017848       $unwind$memdbOpen          0000000180100848     sqlite.obj
 0002:00017848       $unwind$sqlite3BtreeSetPageSize 0000000180100848     sqlite.obj
 0002:00017848       $unwind$sqlite3BtreeUpdateMeta 0000000180100848     sqlite.obj
 0002:00017848       $unwind$sqlite3CteNew      0000000180100848     sqlite.obj
 0002:00017848       $unwind$sqlite3ExprFunction 0000000180100848     sqlite.obj
 0002:00017848       $unwind$sqlite3KeyInfoAlloc 0000000180100848     sqlite.obj
 0002:00017848       $unwind$sqlite3VdbeSorterCompare 0000000180100848     sqlite.obj
 0002:00017848       $unwind$sqlite3_set_auxdata 0000000180100848     sqlite.obj
 0002:00017848       $unwind$writeJournalHdr    0000000180100848     sqlite.obj
 0002:00017848       $unwind$xferCompatibleIndex 0000000180100848     sqlite.obj
 0002:00017848       $unwind$zeroPage           0000000180100848     sqlite.obj
 0002:00017848       $unwind$__acrt_DownlevelLocaleNameToLCID 0000000180100848     libucrt:lcidtoname_downlevel.obj
 0002:00017848       $unwind$??R<lambda_f03950bc5685219e0bcd2087efbe011e>@@QEBAHXZ 0000000180100848     libucrt:onexit.obj
 0002:00017860       $unwind$identPut           0000000180100860     sqlite.obj
 0002:00017860       $unwind$memdbFromDbSchema  0000000180100860     sqlite.obj
 0002:00017860       $unwind$pagerAddPageToRollbackJournal 0000000180100860     sqlite.obj
 0002:00017860       $unwind$sqlite3PagerCommitPhaseOne 0000000180100860     sqlite.obj
 0002:00017874       $unwind$sqlite3_serialize  0000000180100874     sqlite.obj
 0002:00017888       $chain$0$sqlite3_serialize 0000000180100888     sqlite.obj
 0002:0001789c       $chain$1$sqlite3_serialize 000000018010089c     sqlite.obj
 0002:000178b0       $chain$2$sqlite3_serialize 00000001801008b0     sqlite.obj
 0002:000178c0       $chain$3$sqlite3_serialize 00000001801008c0     sqlite.obj
 0002:000178d0       $unwind$sqlite3_deserialize 00000001801008d0     sqlite.obj
 0002:000178d8       $chain$5$sqlite3_deserialize 00000001801008d8     sqlite.obj
 0002:00017900       $chain$6$sqlite3_deserialize 0000000180100900     sqlite.obj
 0002:00017914       $chain$7$sqlite3_deserialize 0000000180100914     sqlite.obj
 0002:00017924       $chain$8$sqlite3_deserialize 0000000180100924     sqlite.obj
 0002:0001793c       $chain$9$sqlite3_deserialize 000000018010093c     sqlite.obj
 0002:0001794c       $unwind$sqlite3BitvecSet   000000018010094c     sqlite.obj
 0002:0001794c       $unwind$sqlite3BtreeSetVersion 000000018010094c     sqlite.obj
 0002:00017960       $chain$0$sqlite3BitvecSet  0000000180100960     sqlite.obj
 0002:00017974       $chain$2$sqlite3BitvecSet  0000000180100974     sqlite.obj
 0002:00017988       $chain$3$sqlite3BitvecSet  0000000180100988     sqlite.obj
 0002:00017998       $unwind$sqlite3BitvecClear 0000000180100998     sqlite.obj
 0002:000179a8       $unwind$sqlite3BitvecDestroy 00000001801009a8     sqlite.obj
 0002:000179a8       $unwind$sqlite3_free_table 00000001801009a8     sqlite.obj
 0002:000179b0       $chain$1$sqlite3BitvecDestroy 00000001801009b0     sqlite.obj
 0002:000179c8       $chain$2$sqlite3BitvecDestroy 00000001801009c8     sqlite.obj
 0002:000179d8       $unwind$sqlite3BitvecBuiltinTest 00000001801009d8     sqlite.obj
 0002:000179f0       $chain$1$sqlite3BitvecBuiltinTest 00000001801009f0     sqlite.obj
 0002:00017a04       $chain$2$sqlite3BitvecBuiltinTest 0000000180100a04     sqlite.obj
 0002:00017a04       $chain$4$sqlite3BitvecBuiltinTest 0000000180100a04     sqlite.obj
 0002:00017a14       $chain$3$sqlite3BitvecBuiltinTest 0000000180100a14     sqlite.obj
 0002:00017a28       $chain$0$sqlite3PcacheCleanAll 0000000180100a28     sqlite.obj
 0002:00017a3c       $chain$1$sqlite3PcacheCleanAll 0000000180100a3c     sqlite.obj
 0002:00017a4c       $unwind$memjrnlTruncate    0000000180100a4c     sqlite.obj
 0002:00017a4c       $unwind$sqlite3PcacheTruncate 0000000180100a4c     sqlite.obj
 0002:00017a4c       $unwind$sqlite3VdbeDelete  0000000180100a4c     sqlite.obj
 0002:00017a58       $chain$1$sqlite3PcacheTruncate 0000000180100a58     sqlite.obj
 0002:00017a70       $chain$2$sqlite3PcacheTruncate 0000000180100a70     sqlite.obj
 0002:00017a80       $unwind$sqlite3PcacheDirtyList 0000000180100a80     sqlite.obj
 0002:00017a94       $chain$0$pcache1Alloc      0000000180100a94     sqlite.obj
 0002:00017aa8       $chain$1$pcache1Alloc      0000000180100aa8     sqlite.obj
 0002:00017ab8       $unwind$memjrnlFreeChunks  0000000180100ab8     sqlite.obj
 0002:00017ab8       $unwind$pcache1Free        0000000180100ab8     sqlite.obj
 0002:00017ab8       $unwind$vdbeIncrFree       0000000180100ab8     sqlite.obj
 0002:00017ab8       $unwind$vdbeMergeEngineFree 0000000180100ab8     sqlite.obj
 0002:00017ab8       $unwind$__acrt_locale_free_monetary 0000000180100ab8     libucrt:initmon.obj
 0002:00017ac0       $chain$0$pcache1Free       0000000180100ac0     sqlite.obj
 0002:00017ad4       $chain$1$pcache1Free       0000000180100ad4     sqlite.obj
 0002:00017ae4       $chain$0$pcache1EnforceMaxPage 0000000180100ae4     sqlite.obj
 0002:00017af8       $chain$1$pcache1EnforceMaxPage 0000000180100af8     sqlite.obj
 0002:00017b08       $unwind$autoIncBegin       0000000180100b08     sqlite.obj
 0002:00017b08       $unwind$exprListDeleteNN   0000000180100b08     sqlite.obj
 0002:00017b08       $unwind$pcache1Create      0000000180100b08     sqlite.obj
 0002:00017b08       $unwind$sameSrcAlias       0000000180100b08     sqlite.obj
 0002:00017b08       $unwind$sqlite3BtreeCommitPhaseTwo 0000000180100b08     sqlite.obj
 0002:00017b08       $unwind$sqlite3BtreeCount  0000000180100b08     sqlite.obj
 0002:00017b08       $unwind$sqlite3ExprForVectorField 0000000180100b08     sqlite.obj
 0002:00017b08       $unwind$sqlite3ExprListCompare 0000000180100b08     sqlite.obj
 0002:00017b08       $unwind$sqlite3IdListAppend 0000000180100b08     sqlite.obj
 0002:00017b08       $unwind$sqlite3PExpr       0000000180100b08     sqlite.obj
 0002:00017b08       $unwind$sqlite3ResultSetOfSelect 0000000180100b08     sqlite.obj
 0002:00017b08       $unwind$sqlite3TriggerSelectStep 0000000180100b08     sqlite.obj
 0002:00017b08       $unwind$sqlite3VdbeDeleteAuxData 0000000180100b08     sqlite.obj
 0002:00017b08       $unwind$sqlite3_bind_pointer 0000000180100b08     sqlite.obj
 0002:00017b08       $unwind$vdbeSorterFlushPMA 0000000180100b08     sqlite.obj
 0002:00017b08       $unwind$walHashGet         0000000180100b08     sqlite.obj
 0002:00017b08       $unwind$walWriteToLog      0000000180100b08     sqlite.obj
 0002:00017b08       $unwind$walkWindowList     0000000180100b08     sqlite.obj
 0002:00017b20       $chain$1$pcache1Shrink     0000000180100b20     sqlite.obj
 0002:00017b38       $chain$2$pcache1Shrink     0000000180100b38     sqlite.obj
 0002:00017b48       $chain$0$pcache1Unpin      0000000180100b48     sqlite.obj
 0002:00017b5c       $chain$2$pcache1Unpin      0000000180100b5c     sqlite.obj
 0002:00017b70       $chain$0$sqlite3RowSetClear 0000000180100b70     sqlite.obj
 0002:00017b84       $chain$1$sqlite3RowSetClear 0000000180100b84     sqlite.obj
 0002:00017b94       $unwind$rowSetEntrySort    0000000180100b94     sqlite.obj
 0002:00017ba4       $chain$0$rowSetEntrySort   0000000180100ba4     sqlite.obj
 0002:00017bb8       $chain$1$rowSetEntrySort   0000000180100bb8     sqlite.obj
 0002:00017bcc       $chain$2$rowSetEntrySort   0000000180100bcc     sqlite.obj
 0002:00017bdc       $chain$3$rowSetEntrySort   0000000180100bdc     sqlite.obj
 0002:00017bec       $unwind$rowSetNDeepTree    0000000180100bec     sqlite.obj
 0002:00017bfc       $unwind$sqlite3RowSetTest  0000000180100bfc     sqlite.obj
 0002:00017c04       $chain$1$sqlite3RowSetTest 0000000180100c04     sqlite.obj
 0002:00017c1c       $chain$2$sqlite3RowSetTest 0000000180100c1c     sqlite.obj
 0002:00017c30       $chain$5$sqlite3RowSetTest 0000000180100c30     sqlite.obj
 0002:00017c4c       $chain$6$sqlite3RowSetTest 0000000180100c4c     sqlite.obj
 0002:00017c5c       $chain$7$sqlite3RowSetTest 0000000180100c5c     sqlite.obj
 0002:00017c6c       $chain$8$sqlite3RowSetTest 0000000180100c6c     sqlite.obj
 0002:00017c7c       $unwind$subjRequiresPage   0000000180100c7c     sqlite.obj
 0002:00017c98       $unwind$readSuperJournal   0000000180100c98     sqlite.obj
 0002:00017cb4       $unwind$readJournalHdr     0000000180100cb4     sqlite.obj
 0002:00017ccc       $unwind$sqlite3CodeVerifyNamedSchema 0000000180100ccc     sqlite.obj
 0002:00017ccc       $unwind$sqlite3VtabCallDestroy 0000000180100ccc     sqlite.obj
 0002:00017ccc       $unwind$writeSuperJournal  0000000180100ccc     sqlite.obj
 0002:00017cdc       $chain$0$writeSuperJournal 0000000180100cdc     sqlite.obj
 0002:00017cf0       $chain$1$writeSuperJournal 0000000180100cf0     sqlite.obj
 0002:00017d00       $unwind$releaseAllSavepoints 0000000180100d00     sqlite.obj
 0002:00017d0c       $chain$0$releaseAllSavepoints 0000000180100d0c     sqlite.obj
 0002:00017d20       $chain$3$releaseAllSavepoints 0000000180100d20     sqlite.obj
 0002:00017d3c       $chain$4$releaseAllSavepoints 0000000180100d3c     sqlite.obj
 0002:00017d4c       $chain$5$releaseAllSavepoints 0000000180100d4c     sqlite.obj
 0002:00017d5c       $unwind$addToSavepointBitvecs 0000000180100d5c     sqlite.obj
 0002:00017d68       $chain$5$addToSavepointBitvecs 0000000180100d68     sqlite.obj
 0002:00017d90       $chain$6$addToSavepointBitvecs 0000000180100d90     sqlite.obj
 0002:00017da0       $chain$0$pager_unlock      0000000180100da0     sqlite.obj
 0002:00017db4       $chain$1$pager_unlock      0000000180100db4     sqlite.obj
 0002:00017dc4       $unwind$pager_end_transaction 0000000180100dc4     sqlite.obj
 0002:00017dc4       $unwind$sqlite3KeyInfoFromExprList 0000000180100dc4     sqlite.obj
 0002:00017dc4       $unwind$whereClauseInsert  0000000180100dc4     sqlite.obj
 0002:00017dd8       $chain$0$pager_end_transaction 0000000180100dd8     sqlite.obj
 0002:00017dec       $chain$1$pager_end_transaction 0000000180100dec     sqlite.obj
 0002:00017dfc       $chain$1$pagerUnlockAndRollback 0000000180100dfc     sqlite.obj
 0002:00017e14       $chain$2$pagerUnlockAndRollback 0000000180100e14     sqlite.obj
 0002:00017e24       $unwind$pager_playback_one_page 0000000180100e24     sqlite.obj
 0002:00017e38       $chain$1$pager_playback_one_page 0000000180100e38     sqlite.obj
 0002:00017e50       $chain$2$pager_playback_one_page 0000000180100e50     sqlite.obj
 0002:00017e60       $unwind$pager_delsuper     0000000180100e60     sqlite.obj
 0002:00017e70       $chain$0$pager_delsuper    0000000180100e70     sqlite.obj
 0002:00017e84       $chain$1$pager_delsuper    0000000180100e84     sqlite.obj
 0002:00017e98       $chain$3$pager_delsuper    0000000180100e98     sqlite.obj
 0002:00017eb0       $chain$4$pager_delsuper    0000000180100eb0     sqlite.obj
 0002:00017ec0       $chain$5$pager_delsuper    0000000180100ec0     sqlite.obj
 0002:00017ed0       $chain$6$pager_delsuper    0000000180100ed0     sqlite.obj
 0002:00017ee0       $unwind$pager_truncate     0000000180100ee0     sqlite.obj
 0002:00017ee0       $unwind$sqlite3AddCollateType 0000000180100ee0     sqlite.obj
 0002:00017eec       $chain$1$pager_truncate    0000000180100eec     sqlite.obj
 0002:00017f04       $chain$2$pager_truncate    0000000180100f04     sqlite.obj
 0002:00017f18       $chain$3$pager_truncate    0000000180100f18     sqlite.obj
 0002:00017f28       $chain$4$pager_truncate    0000000180100f28     sqlite.obj
 0002:00017f38       $unwind$pager_playback     0000000180100f38     sqlite.obj
 0002:00017f48       $chain$0$pager_playback    0000000180100f48     sqlite.obj
 0002:00017f5c       $chain$1$pager_playback    0000000180100f5c     sqlite.obj
 0002:00017f70       $chain$3$pager_playback    0000000180100f70     sqlite.obj
 0002:00017f88       $chain$4$pager_playback    0000000180100f88     sqlite.obj
 0002:00017f9c       $chain$5$pager_playback    0000000180100f9c     sqlite.obj
 0002:00017fac       $chain$6$pager_playback    0000000180100fac     sqlite.obj
 0002:00017fbc       $unwind$btreeLockCarefully 0000000180100fbc     sqlite.obj
 0002:00017fbc       $unwind$groupConcatInverse 0000000180100fbc     sqlite.obj
 0002:00017fbc       $unwind$jsonCacheDeleteGeneric 0000000180100fbc     sqlite.obj
 0002:00017fbc       $unwind$pagerUndoCallback  0000000180100fbc     sqlite.obj
 0002:00017fbc       $unwind$parserDoubleLinkSelect 0000000180100fbc     sqlite.obj
 0002:00017fbc       $unwind$pragmaVtabNext     0000000180100fbc     sqlite.obj
 0002:00017fbc       $unwind$sqlite3BtreeClose  0000000180100fbc     sqlite.obj
 0002:00017fc4       $chain$1$pagerUndoCallback 0000000180100fc4     sqlite.obj
 0002:00017fdc       $chain$2$pagerUndoCallback 0000000180100fdc     sqlite.obj
 0002:00017ff0       $chain$3$pagerUndoCallback 0000000180100ff0     sqlite.obj
 0002:00018000       $chain$4$pagerUndoCallback 0000000180101000     sqlite.obj
 0002:00018010       $unwind$pagerWalFrames     0000000180101010     sqlite.obj
 0002:00018020       $unwind$pagerPlaybackSavepoint 0000000180101020     sqlite.obj
 0002:00018034       $chain$0$pagerPlaybackSavepoint 0000000180101034     sqlite.obj
 0002:00018048       $chain$1$pagerPlaybackSavepoint 0000000180101048     sqlite.obj
 0002:00018058       $unwind$sqlite3MatchEName  0000000180101058     sqlite.obj
 0002:00018058       $unwind$sqlite3PagerSetPagesize 0000000180101058     sqlite.obj
 0002:00018070       $unwind$sqlite3PagerClose  0000000180101070     sqlite.obj
 0002:00018078       $chain$0$sqlite3PagerClose 0000000180101078     sqlite.obj
 0002:0001808c       $chain$4$sqlite3PagerClose 000000018010108c     sqlite.obj
 0002:000180ac       $chain$5$sqlite3PagerClose 00000001801010ac     sqlite.obj
 0002:000180c0       $chain$6$sqlite3PagerClose 00000001801010c0     sqlite.obj
 0002:000180d0       $chain$7$sqlite3PagerClose 00000001801010d0     sqlite.obj
 0002:000180e8       $chain$8$sqlite3PagerClose 00000001801010e8     sqlite.obj
 0002:000180f8       $unwind$syncJournal        00000001801010f8     sqlite.obj
 0002:0001810c       $chain$2$syncJournal       000000018010110c     sqlite.obj
 0002:00018128       $chain$3$syncJournal       0000000180101128     sqlite.obj
 0002:00018138       $unwind$pager_write_pagelist 0000000180101138     sqlite.obj
 0002:00018138       $unwind$windowAggFinal     0000000180101138     sqlite.obj
 0002:00018144       $chain$1$pager_write_pagelist 0000000180101144     sqlite.obj
 0002:0001815c       $chain$2$pager_write_pagelist 000000018010115c     sqlite.obj
 0002:0001816c       $unwind$jsonFunctionArgToBlob 000000018010116c     sqlite.obj
 0002:0001816c       $unwind$subjournalPage     000000018010116c     sqlite.obj
 0002:0001816c       $unwind$windowIfNewPeer    000000018010116c     sqlite.obj
 0002:0001816c       $unwind$?cvtdate@@YAXW4transition_type@?A0x7639d0b4@@W4date_type@2@HHHHHHHHH@Z 000000018010116c     libucrt:tzset.obj
 0002:00018180       $chain$0$pagerStress       0000000180101180     sqlite.obj
 0002:00018194       $chain$2$pagerStress       0000000180101194     sqlite.obj
 0002:000181a8       $chain$3$pagerStress       00000001801011a8     sqlite.obj
 0002:000181b8       $unwind$sqlite3PagerOpen   00000001801011b8     sqlite.obj
 0002:000181d0       $unwind$hasHotJournal      00000001801011d0     sqlite.obj
 0002:000181e4       $unwind$sqlite3PagerSharedLock 00000001801011e4     sqlite.obj
 0002:000181fc       $unwind$getPageNormal      00000001801011fc     sqlite.obj
 0002:00018210       $chain$1$getPageNormal     0000000180101210     sqlite.obj
 0002:00018228       $chain$2$getPageNormal     0000000180101228     sqlite.obj
 0002:00018238       $unwind$getPageMMap        0000000180101238     sqlite.obj
 0002:00018254       $chain$0$sqlite3PagerBegin 0000000180101254     sqlite.obj
 0002:00018268       $chain$1$sqlite3PagerBegin 0000000180101268     sqlite.obj
 0002:00018278       $unwind$pager_write        0000000180101278     sqlite.obj
 0002:00018278       $unwind$sqlite3GetCollSeq  0000000180101278     sqlite.obj
 0002:00018278       $unwind$sqlite3ResolveOrderGroupBy 0000000180101278     sqlite.obj
 0002:00018278       $unwind$sqlite3WalOpen     0000000180101278     sqlite.obj
 0002:00018294       $unwind$pagerWriteLargeSector 0000000180101294     sqlite.obj
 0002:000182a8       $chain$1$pagerWriteLargeSector 00000001801012a8     sqlite.obj
 0002:000182c0       $chain$2$pagerWriteLargeSector 00000001801012c0     sqlite.obj
 0002:000182d0       $chain$0$sqlite3PagerExclusiveLock 00000001801012d0     sqlite.obj
 0002:000182e4       $chain$1$sqlite3PagerExclusiveLock 00000001801012e4     sqlite.obj
 0002:000182f4       $unwind$sqlite3PagerRollback 00000001801012f4     sqlite.obj
 0002:00018304       $unwind$sqlite3PagerSavepoint 0000000180101304     sqlite.obj
 0002:00018310       $chain$0$sqlite3PagerSavepoint 0000000180101310     sqlite.obj
 0002:00018324       $chain$2$sqlite3PagerSavepoint 0000000180101324     sqlite.obj
 0002:0001833c       $chain$3$sqlite3PagerSavepoint 000000018010133c     sqlite.obj
 0002:00018350       $chain$4$sqlite3PagerSavepoint 0000000180101350     sqlite.obj
 0002:00018360       $chain$5$sqlite3PagerSavepoint 0000000180101360     sqlite.obj
 0002:00018374       $chain$7$sqlite3PagerSavepoint 0000000180101374     sqlite.obj
 0002:0001838c       $chain$8$sqlite3PagerSavepoint 000000018010138c     sqlite.obj
 0002:0001839c       $unwind$codeDeferredSeek   000000018010139c     sqlite.obj
 0002:0001839c       $unwind$sqlite3PagerMovepage 000000018010139c     sqlite.obj
 0002:000183b0       $chain$0$sqlite3PagerMovepage 00000001801013b0     sqlite.obj
 0002:000183c4       $chain$1$sqlite3PagerMovepage 00000001801013c4     sqlite.obj
 0002:000183d4       $chain$0$sqlite3PagerSetJournalMode 00000001801013d4     sqlite.obj
 0002:000183e8       $chain$2$sqlite3PagerSetJournalMode 00000001801013e8     sqlite.obj
 0002:000183e8       $chain$4$sqlite3PagerSetJournalMode 00000001801013e8     sqlite.obj
 0002:000183e8       $chain$6$sqlite3PagerSetJournalMode 00000001801013e8     sqlite.obj
 0002:000183fc       $chain$7$sqlite3PagerSetJournalMode 00000001801013fc     sqlite.obj
 0002:0001840c       $chain$0$pagerExclusiveLock 000000018010140c     sqlite.obj
 0002:00018420       $chain$2$pagerExclusiveLock 0000000180101420     sqlite.obj
 0002:00018434       $unwind$jsonBadPathError   0000000180101434     sqlite.obj
 0002:00018434       $unwind$jsonWrongNumArgs   0000000180101434     sqlite.obj
 0002:00018434       $unwind$pagerOpenWal       0000000180101434     sqlite.obj
 0002:00018434       $unwind$setResultStrOrError 0000000180101434     sqlite.obj
 0002:00018434       $unwind$sqlite3ForceNotReadOnly 0000000180101434     sqlite.obj
 0002:00018434       $unwind$sqlite3InvalidFunction 0000000180101434     sqlite.obj
 0002:00018434       $unwind$sqlite3RowidConstraint 0000000180101434     sqlite.obj
 0002:00018434       $unwind$sqlite3VdbeAddOp4  0000000180101434     sqlite.obj
 0002:00018434       $unwind$sqlite3VdbeEndCoroutine 0000000180101434     sqlite.obj
 0002:00018434       $unwind$sqlite3WalDefaultHook 0000000180101434     sqlite.obj
 0002:00018434       $unwind$sqlite3_errmsg     0000000180101434     sqlite.obj
 0002:00018434       $unwind$sqlite3_result_value 0000000180101434     sqlite.obj
 0002:00018434       $unwind$sqlite3_result_zeroblob64 0000000180101434     sqlite.obj
 0002:00018440       $chain$0$sqlite3PagerOpenWal 0000000180101440     sqlite.obj
 0002:00018454       $chain$1$sqlite3PagerOpenWal 0000000180101454     sqlite.obj
 0002:00018464       $unwind$sehInjectFault     0000000180101464     sqlite.obj
 0002:00018474       $unwind$walIndexPageRealloc 0000000180101474     sqlite.obj
 0002:00018488       $chain$0$walIndexPageRealloc 0000000180101488     sqlite.obj
 0002:0001849c       $chain$1$walIndexPageRealloc 000000018010149c     sqlite.obj
 0002:000184ac       $unwind$walLockShared      00000001801014ac     sqlite.obj
 0002:000184bc       $chain$0$walUnlockShared   00000001801014bc     sqlite.obj
 0002:000184d0       $chain$1$walUnlockShared   00000001801014d0     sqlite.obj
 0002:000184e0       $unwind$walIndexAppend     00000001801014e0     sqlite.obj
 0002:000184f8       $unwind$walIndexRecover    00000001801014f8     sqlite.obj
 0002:00018518       $chain$1$walIndexRecover   0000000180101518     sqlite.obj
 0002:00018530       $chain$2$walIndexRecover   0000000180101530     sqlite.obj
 0002:00018540       $unwind$sqlite3FkClearTriggerCache 0000000180101540     sqlite.obj
 0002:00018540       $unwind$walIndexClose      0000000180101540     sqlite.obj
 0002:0001854c       $chain$1$walIndexClose     000000018010154c     sqlite.obj
 0002:00018564       $chain$3$walIndexClose     0000000180101564     sqlite.obj
 0002:0001857c       $chain$4$walIndexClose     000000018010157c     sqlite.obj
 0002:0001858c       $chain$5$walIndexClose     000000018010158c     sqlite.obj
 0002:0001859c       $unwind$walMergesort       000000018010159c     sqlite.obj
 0002:000185c0       $unwind$walIteratorInit    00000001801015c0     sqlite.obj
 0002:000185e0       $chain$0$walIteratorInit   00000001801015e0     sqlite.obj
 0002:000185f4       $chain$1$walIteratorInit   00000001801015f4     sqlite.obj
 0002:00018604       $unwind$walCheckpoint      0000000180101604     sqlite.obj
 0002:0001861c       $chain$4$walCheckpoint     000000018010161c     sqlite.obj
 0002:00018640       $chain$5$walCheckpoint     0000000180101640     sqlite.obj
 0002:00018650       $chain$0$walHandleException 0000000180101650     sqlite.obj
 0002:00018664       $chain$2$walHandleException 0000000180101664     sqlite.obj
 0002:0001867c       $chain$3$walHandleException 000000018010167c     sqlite.obj
 0002:0001868c       $chain$4$walHandleException 000000018010168c     sqlite.obj
 0002:0001869c       $unwind$sqlite3WalClose    000000018010169c     sqlite.obj
 0002:000186b0       $chain$1$sqlite3WalClose   00000001801016b0     sqlite.obj
 0002:000186c8       $chain$2$sqlite3WalClose   00000001801016c8     sqlite.obj
 0002:000186dc       $chain$3$sqlite3WalClose   00000001801016dc     sqlite.obj
 0002:000186ec       $unwind$walIndexTryHdr     00000001801016ec     sqlite.obj
 0002:00018708       $unwind$dropCell           0000000180101708     sqlite.obj
 0002:00018708       $unwind$walIndexReadHdr    0000000180101708     sqlite.obj
 0002:00018714       $chain$0$walIndexReadHdr   0000000180101714     sqlite.obj
 0002:00018728       $chain$1$walIndexReadHdr   0000000180101728     sqlite.obj
 0002:0001873c       $chain$2$walIndexReadHdr   000000018010173c     sqlite.obj
 0002:0001874c       $chain$3$walIndexReadHdr   000000018010174c     sqlite.obj
 0002:0001875c       $unwind$walBeginShmUnreliable 000000018010175c     sqlite.obj
 0002:0001877c       $unwind$walTryBeginRead    000000018010177c     sqlite.obj
 0002:00018798       $chain$0$walTryBeginRead   0000000180101798     sqlite.obj
 0002:000187ac       $chain$1$walTryBeginRead   00000001801017ac     sqlite.obj
 0002:000187c0       $chain$2$walTryBeginRead   00000001801017c0     sqlite.obj
 0002:000187d0       $chain$3$walTryBeginRead   00000001801017d0     sqlite.obj
 0002:000187e0       $unwind$sqlite3WalBeginReadTransaction 00000001801017e0     sqlite.obj
 0002:00018804       $unwind$sqlite3WalBeginReadTransaction$filt$0 0000000180101804     sqlite.obj
 0002:00018804       $unwind$sqlite3WalBeginWriteTransaction$filt$0 0000000180101804     sqlite.obj
 0002:00018804       $unwind$sqlite3WalFindFrame$filt$0 0000000180101804     sqlite.obj
 0002:00018804       $unwind$sqlite3WalSavepointUndo$filt$0 0000000180101804     sqlite.obj
 0002:00018804       $unwind$sqlite3WalUndo$filt$0 0000000180101804     sqlite.obj
 0002:00018804       $unwind$?fin$0@?0??dllmain_crt_process_attach@@YAHQEAUHINSTANCE__@@QEAX@Z@4HA 0000000180101804     LIBCMT:dll_dllmain.obj
 0002:00018804       $unwind$?fin$0@?0??dllmain_crt_process_detach@@YAH_N@Z@4HA 0000000180101804     LIBCMT:dll_dllmain.obj
 0002:00018804       $unwind$?fin$1@?0??dllmain_crt_process_detach@@YAH_N@Z@4HA 0000000180101804     LIBCMT:dll_dllmain.obj
 0002:00018804       $unwind$_IsNonwritableInCurrentImage$filt$0 0000000180101804     LIBCMT:pesect.obj
 0002:00018804       $unwind$_query_new_handler$fin$0 0000000180101804     libucrt:new_handler.obj
 0002:00018804       $unwind$?fin$0@?0???$?RV<lambda_0ae27a3a962d80f24befdcbee591983d>@@AEAV<lambda_8d0ee55de4b1038c4002e0adecdf1839>@@V<lambda_dc504788e8f1664fe9b84e20bfb512f2>@@@?$__crt_seh_guarded_call@X@@QEAAX$$QEAV<lambda_0ae27a3a962d80f24befdcbee591983d>@@AEAV<lambda_8d0ee55de4b1038c4002e0adecdf1839>@@$$QEAV<lambda_dc504788e8f1664fe9b84e20bfb512f2>@@@Z@4HA 0000000180101804     libucrt:per_thread_data.obj
 0002:00018804       $unwind$?fin$0@?0???$?RV<lambda_2d41944a1d46af3157314b8a01080d33>@@AEAV<lambda_8f455de75cd7d7f24b4096f044d8b9e6>@@V<lambda_aa500f224e6afead328df44964fe2772>@@@?$__crt_seh_guarded_call@X@@QEAAX$$QEAV<lambda_2d41944a1d46af3157314b8a01080d33>@@AEAV<lambda_8f455de75cd7d7f24b4096f044d8b9e6>@@$$QEAV<lambda_aa500f224e6afead328df44964fe2772>@@@Z@4HA 0000000180101804     libucrt:per_thread_data.obj
 0002:00018804       $unwind$?fin$0@?0???$?RV<lambda_aa87e3671a710a21b5dc78c0bdf72e11>@@AEAV<lambda_92619d2358a28f41a33ba319515a20b9>@@V<lambda_6992ecaafeb10aed2b74cb1fae11a551>@@@?$__crt_seh_guarded_call@X@@QEAAX$$QEAV<lambda_aa87e3671a710a21b5dc78c0bdf72e11>@@AEAV<lambda_92619d2358a28f41a33ba319515a20b9>@@$$QEAV<lambda_6992ecaafeb10aed2b74cb1fae11a551>@@@Z@4HA 0000000180101804     libucrt:per_thread_data.obj
 0002:00018804       $unwind$?fin$0@?0???$?RV<lambda_f2e299630e499de9f9a165e60fcd3db5>@@AEAV<lambda_2ae9d31cdba2644fcbeaf08da7c24588>@@V<lambda_40d01ff24d0e7b3814fdbdcee8eab3c7>@@@?$__crt_seh_guarded_call@X@@QEAAX$$QEAV<lambda_f2e299630e499de9f9a165e60fcd3db5>@@AEAV<lambda_2ae9d31cdba2644fcbeaf08da7c24588>@@$$QEAV<lambda_40d01ff24d0e7b3814fdbdcee8eab3c7>@@@Z@4HA 0000000180101804     libucrt:per_thread_data.obj
 0002:00018804       $unwind$__acrt_update_thread_locale_data$fin$0 0000000180101804     libucrt:locale_refcounting.obj
 0002:00018804       $unwind$?fin$0@?0???$?RV<lambda_410d79af7f07d98d83a3f525b3859a53>@@AEAV<lambda_3e16ef9562a7dcce91392c22ab16ea36>@@V<lambda_38119f0e861e05405d8a144b9b982f0a>@@@?$__crt_seh_guarded_call@X@@QEAAX$$QEAV<lambda_410d79af7f07d98d83a3f525b3859a53>@@AEAV<lambda_3e16ef9562a7dcce91392c22ab16ea36>@@$$QEAV<lambda_38119f0e861e05405d8a144b9b982f0a>@@@Z@4HA 0000000180101804     libucrt:wsetlocale.obj
 0002:00018804       $unwind$?fin$0@?0???$?RV<lambda_751a882b2c74d4b022dec766aa51a29a>@@AEAV<lambda_628dfdc04ba53c8bfc02c9951375f3f5>@@V<lambda_f6c7be5f7998530c34de24c7437d6b54>@@@?$__crt_seh_guarded_call@H@@QEAAH$$QEAV<lambda_751a882b2c74d4b022dec766aa51a29a>@@AEAV<lambda_628dfdc04ba53c8bfc02c9951375f3f5>@@$$QEAV<lambda_f6c7be5f7998530c34de24c7437d6b54>@@@Z@4HA 0000000180101804     libucrt:close.obj
 0002:00018804       $unwind$?fin$0@?0???$?RV<lambda_a37b2b86f63e897a80ea819b0eb08c01>@@AEAV<lambda_38ce7e780aa69e748d6df282ebc68efe>@@V<lambda_99fb1378e971ab6e7edea83e3a7a83a2>@@@?$__crt_seh_guarded_call@H@@QEAAH$$QEAV<lambda_a37b2b86f63e897a80ea819b0eb08c01>@@AEAV<lambda_38ce7e780aa69e748d6df282ebc68efe>@@$$QEAV<lambda_99fb1378e971ab6e7edea83e3a7a83a2>@@@Z@4HA 0000000180101804     libucrt:commit.obj
 0002:00018804       $unwind$__acrt_initialize_lowio$fin$0 0000000180101804     libucrt:ioinit.obj
 0002:00018804       $unwind$__acrt_lowio_ensure_fh_exists$fin$0 0000000180101804     libucrt:osfinfo.obj
 0002:00018804       $unwind$_write$fin$0       0000000180101804     libucrt:write.obj
 0002:00018804       $unwind$?fin$0@?0???$?RV<lambda_efdfa57d1f175319df784efa44bb7b81>@@AEAV<lambda_5f0a4c1567f8adc6734073e5d1e1b35c>@@V<lambda_2e8a7d3640ea6ccb4c2413664c2db6fd>@@@?$__crt_seh_guarded_call@X@@QEAAX$$QEAV<lambda_efdfa57d1f175319df784efa44bb7b81>@@AEAV<lambda_5f0a4c1567f8adc6734073e5d1e1b35c>@@$$QEAV<lambda_2e8a7d3640ea6ccb4c2413664c2db6fd>@@@Z@4HA 0000000180101804     libucrt:mbctype.obj
 0002:00018804       $unwind$?fin$0@?0??update_thread_multibyte_data_internal@@YAPEAU__crt_multibyte_data@@QEAU__acrt_ptd@@QEAPEAU1@@Z@4HA 0000000180101804     libucrt:mbctype.obj
 0002:00018804       $unwind$?fin$0@?0???$?RV<lambda_450d765d439847d4c735a33c368b5fc0>@@AEAV<lambda_44731a7d0e6d81c3e6aa82d741081786>@@V<lambda_601a2a7da3b7a96e9554ac7215c4b07c>@@@?$__crt_seh_guarded_call@P6AXH@Z@@QEAAP6AXH@Z$$QEAV<lambda_450d765d439847d4c735a33c368b5fc0>@@AEAV<lambda_44731a7d0e6d81c3e6aa82d741081786>@@$$QEAV<lambda_601a2a7da3b7a96e9554ac7215c4b07c>@@@Z@4HA 0000000180101804     libucrt:signal.obj
 0002:00018804       $unwind$raise$fin$0        0000000180101804     libucrt:signal.obj
 0002:00018804       $unwind$?filt$0@?0???R<lambda_6e4b09c48022b2350581041d5f6b0c4c>@@QEBA@XZ@4HA 0000000180101804     libucrt:exit.obj
 0002:00018804       $unwind$?fin$0@?0???$?RV<lambda_d80eeec6fff315bfe5c115232f3240e3>@@AEAV<lambda_6e4b09c48022b2350581041d5f6b0c4c>@@V<lambda_2358e3775559c9db80273638284d5e45>@@@?$__crt_seh_guarded_call@X@@QEAAX$$QEAV<lambda_d80eeec6fff315bfe5c115232f3240e3>@@AEAV<lambda_6e4b09c48022b2350581041d5f6b0c4c>@@$$QEAV<lambda_2358e3775559c9db80273638284d5e45>@@@Z@4HA 0000000180101804     libucrt:exit.obj
 0002:00018804       $unwind$?fin$0@?0???$?RV<lambda_7777bce6b2f8c936911f934f8298dc43>@@AEAV<lambda_f03950bc5685219e0bcd2087efbe011e>@@V<lambda_3883c3dff614d5e0c5f61bb1ac94921c>@@@?$__crt_seh_guarded_call@H@@QEAAH$$QEAV<lambda_7777bce6b2f8c936911f934f8298dc43>@@AEAV<lambda_f03950bc5685219e0bcd2087efbe011e>@@$$QEAV<lambda_3883c3dff614d5e0c5f61bb1ac94921c>@@@Z@4HA 0000000180101804     libucrt:onexit.obj
 0002:00018804       $unwind$?filt$0@?0???$thread_start@P6AIPEAX@Z$00@@YAKQEAX@Z@4HA 0000000180101804     libucrt:thread.obj
 0002:00018804       $unwind$_fcloseall$fin$0   0000000180101804     libucrt:closeall.obj
 0002:00018804       $unwind$fclose$fin$0       0000000180101804     libucrt:fclose.obj
 0002:00018804       $unwind$?fin$0@?0???$?RV<lambda_842d9ff0dc9ef11c61343bbaebe7f885>@@AEAV<lambda_c5860995281e5c4ce005b3de8f5874ee>@@V<lambda_d90129c13df834fdcbf8d2b88dafcf2d>@@@?$__crt_seh_guarded_call@X@@QEAAX$$QEAV<lambda_842d9ff0dc9ef11c61343bbaebe7f885>@@AEAV<lambda_c5860995281e5c4ce005b3de8f5874ee>@@$$QEAV<lambda_d90129c13df834fdcbf8d2b88dafcf2d>@@@Z@4HA 0000000180101804     libucrt:fflush.obj
 0002:00018804       $unwind$?fin$0@?0???$?RV<lambda_886d6c58226a84441f68b9f2b8217b83>@@AEAV<lambda_ab61a845afdef5b7c387490eaf3616ee>@@V<lambda_f7f22ab5edc0698d5f6905b0d3f44752>@@@?$__crt_seh_guarded_call@X@@QEAAX$$QEAV<lambda_886d6c58226a84441f68b9f2b8217b83>@@AEAV<lambda_ab61a845afdef5b7c387490eaf3616ee>@@$$QEAV<lambda_f7f22ab5edc0698d5f6905b0d3f44752>@@@Z@4HA 0000000180101804     libucrt:fflush.obj
 0002:00018804       $unwind$__tzset$fin$0      0000000180101804     libucrt:tzset.obj
 0002:00018804       $unwind$_isindst$fin$0     0000000180101804     libucrt:tzset.obj
 0002:00018804       $unwind$_ctrlfp$filt$0     0000000180101804     libucrt:fpctrl.obj
 0002:0001880c       $chain$0$sqlite3WalEndReadTransaction 000000018010180c     sqlite.obj
 0002:00018820       $chain$1$sqlite3WalEndReadTransaction 0000000180101820     sqlite.obj
 0002:00018830       $unwind$walFindFrame       0000000180101830     sqlite.obj
 0002:00018848       $chain$3$walFindFrame      0000000180101848     sqlite.obj
 0002:00018868       $chain$4$walFindFrame      0000000180101868     sqlite.obj
 0002:00018868       $chain$6$walFindFrame      0000000180101868     sqlite.obj
 0002:00018878       $chain$5$walFindFrame      0000000180101878     sqlite.obj
 0002:00018898       $unwind$sqlite3WalFindFrame 0000000180101898     sqlite.obj
 0002:000188b8       $unwind$sqlite3WalBeginWriteTransaction 00000001801018b8     sqlite.obj
 0002:000188dc       $unwind$sqlite3WalUndo     00000001801018dc     sqlite.obj
 0002:00018910       $unwind$sqlite3WalSavepointUndo 0000000180101910     sqlite.obj
 0002:00018930       $unwind$walWriteOneFrame   0000000180101930     sqlite.obj
 0002:0001894c       $unwind$walRewriteChecksums 000000018010194c     sqlite.obj
 0002:00018964       $chain$1$walRewriteChecksums 0000000180101964     sqlite.obj
 0002:0001897c       $chain$2$walRewriteChecksums 000000018010197c     sqlite.obj
 0002:00018990       $chain$3$walRewriteChecksums 0000000180101990     sqlite.obj
 0002:000189a0       $chain$4$walRewriteChecksums 00000001801019a0     sqlite.obj
 0002:000189b0       $unwind$walFrames          00000001801019b0     sqlite.obj
 0002:000189cc       $chain$0$walFrames         00000001801019cc     sqlite.obj
 0002:000189e0       $chain$1$walFrames         00000001801019e0     sqlite.obj
 0002:000189f4       $chain$2$walFrames         00000001801019f4     sqlite.obj
 0002:00018a04       $chain$3$walFrames         0000000180101a04     sqlite.obj
 0002:00018a14       $unwind$sqlite3WalFrames   0000000180101a14     sqlite.obj
 0002:00018a34       $unwind$sqlite3WalFrames$filt$0 0000000180101a34     sqlite.obj
 0002:00018a34       $unwind$sqlite3_clear_bindings 0000000180101a34     sqlite.obj
 0002:00018a34       $unwind$?filt$0@?0??dllmain_dispatch@@YAHQEAUHINSTANCE__@@KQEAX@Z@4HA 0000000180101a34     LIBCMT:dll_dllmain.obj
 0002:00018a34       $unwind$?fin$0@?0???$common_getenv_s@D@@YAHQEA_KQEAD_KQEBD@Z@4HA 0000000180101a34     libucrt:getenv.obj
 0002:00018a3c       $unwind$sqlite3WalCheckpoint 0000000180101a3c     sqlite.obj
 0002:00018a68       $unwind$sqlite3WalCheckpoint$filt$0 0000000180101a68     sqlite.obj
 0002:00018a70       $chain$0$btreeLockCarefully 0000000180101a70     sqlite.obj
 0002:00018a84       $chain$1$btreeLockCarefully 0000000180101a84     sqlite.obj
 0002:00018a94       $chain$0$btreeEnterAll     0000000180101a94     sqlite.obj
 0002:00018aa8       $chain$1$btreeEnterAll     0000000180101aa8     sqlite.obj
 0002:00018ab8       $chain$0$btreeLeaveAll     0000000180101ab8     sqlite.obj
 0002:00018acc       $chain$1$btreeLeaveAll     0000000180101acc     sqlite.obj
 0002:00018adc       $chain$0$btreeReleaseAllCursorPages 0000000180101adc     sqlite.obj
 0002:00018af0       $chain$1$btreeReleaseAllCursorPages 0000000180101af0     sqlite.obj
 0002:00018b04       $chain$2$btreeReleaseAllCursorPages 0000000180101b04     sqlite.obj
 0002:00018b14       $chain$3$btreeReleaseAllCursorPages 0000000180101b14     sqlite.obj
 0002:00018b24       $chain$1$saveCursorKey     0000000180101b24     sqlite.obj
 0002:00018b3c       $chain$3$saveCursorKey     0000000180101b3c     sqlite.obj
 0002:00018b54       $chain$5$saveCursorKey     0000000180101b54     sqlite.obj
 0002:00018b68       $chain$0$btreeRestoreCursorPosition 0000000180101b68     sqlite.obj
 0002:00018b7c       $chain$5$btreeRestoreCursorPosition 0000000180101b7c     sqlite.obj
 0002:00018b9c       $unwind$ptrmapPut          0000000180101b9c     sqlite.obj
 0002:00018b9c       $unwind$sqlite3IndexedExprLookup 0000000180101b9c     sqlite.obj
 0002:00018bac       $chain$0$ptrmapPut         0000000180101bac     sqlite.obj
 0002:00018bc0       $chain$1$ptrmapPut         0000000180101bc0     sqlite.obj
 0002:00018bd4       $chain$2$ptrmapPut         0000000180101bd4     sqlite.obj
 0002:00018be4       $chain$3$ptrmapPut         0000000180101be4     sqlite.obj
 0002:00018bf4       $unwind$ptrmapGet          0000000180101bf4     sqlite.obj
 0002:00018c08       $unwind$btreeParseCellPtr  0000000180101c08     sqlite.obj
 0002:00018c08       $unwind$btreeParseCellPtrIndex 0000000180101c08     sqlite.obj
 0002:00018c08       $unwind$sqlite3VdbeAddOp3  0000000180101c08     sqlite.obj
 0002:00018c08       $unwind$sqlite3VdbeAddOp4Int 0000000180101c08     sqlite.obj
 0002:00018c14       $unwind$ptrmapPutOvflPtr   0000000180101c14     sqlite.obj
 0002:00018c14       $unwind$Wrapper_CompareStringEx 0000000180101c14     vc_crt_fix_impl.obj
 0002:00018c14       $unwind$Wrapper_LCMapStringEx 0000000180101c14     vc_crt_fix_impl.obj
 0002:00018c14       $unwind$_mbtowc_l          0000000180101c14     libucrt:mbtowc.obj
 0002:00018c14       $unwind$__acrt_CompareStringEx 0000000180101c14     libucrt:winapi_thunks.obj
 0002:00018c14       $unwind$__acrt_LCMapStringEx 0000000180101c14     libucrt:winapi_thunks.obj
 0002:00018c28       $unwind$defragmentPage     0000000180101c28     sqlite.obj
 0002:00018c28       $unwind$sqlite3WhereEnd    0000000180101c28     sqlite.obj
 0002:00018c40       $unwind$freeSpace          0000000180101c40     sqlite.obj
 0002:00018c54       $chain$0$freeSpace         0000000180101c54     sqlite.obj
 0002:00018c68       $unwind$autoIncStep        0000000180101c68     sqlite.obj
 0002:00018c68       $unwind$btreeCursor        0000000180101c68     sqlite.obj
 0002:00018c68       $unwind$btreeOverwriteCell 0000000180101c68     sqlite.obj
 0002:00018c68       $unwind$codeOffset         0000000180101c68     sqlite.obj
 0002:00018c68       $unwind$concatFunc         0000000180101c68     sqlite.obj
 0002:00018c68       $unwind$decodeFlags        0000000180101c68     sqlite.obj
 0002:00018c68       $unwind$sourceidFunc       0000000180101c68     sqlite.obj
 0002:00018c68       $unwind$sqlite3BtreePayloadChecked 0000000180101c68     sqlite.obj
 0002:00018c68       $unwind$sqlite3CantopenError 0000000180101c68     sqlite.obj
 0002:00018c68       $unwind$sqlite3ChangeCookie 0000000180101c68     sqlite.obj
 0002:00018c68       $unwind$sqlite3CorruptError 0000000180101c68     sqlite.obj
 0002:00018c68       $unwind$sqlite3ExprCodeMove 0000000180101c68     sqlite.obj
 0002:00018c68       $unwind$sqlite3MisuseError 0000000180101c68     sqlite.obj
 0002:00018c68       $unwind$sqlite3VdbeAddOp0  0000000180101c68     sqlite.obj
 0002:00018c68       $unwind$sqlite3VdbeAddOp1  0000000180101c68     sqlite.obj
 0002:00018c68       $unwind$sqlite3VdbeGoto    0000000180101c68     sqlite.obj
 0002:00018c68       $unwind$sqlite3_bind_text  0000000180101c68     sqlite.obj
 0002:00018c68       $unwind$sqlite3_bind_text16 0000000180101c68     sqlite.obj
 0002:00018c68       $unwind$sqlite3_blob_read  0000000180101c68     sqlite.obj
 0002:00018c68       $unwind$sqlite3_blob_write 0000000180101c68     sqlite.obj
 0002:00018c68       $unwind$sqlite3_create_collation 0000000180101c68     sqlite.obj
 0002:00018c68       $unwind$sqlite3_errcode    0000000180101c68     sqlite.obj
 0002:00018c68       $unwind$sqlite3_extended_errcode 0000000180101c68     sqlite.obj
 0002:00018c68       $unwind$sqlite3_prepare16  0000000180101c68     sqlite.obj
 0002:00018c68       $unwind$sqlite3_prepare16_v2 0000000180101c68     sqlite.obj
 0002:00018c68       $unwind$sqlite3_result_blob 0000000180101c68     sqlite.obj
 0002:00018c68       $unwind$sqlite3_result_error 0000000180101c68     sqlite.obj
 0002:00018c68       $unwind$sqlite3_result_error16 0000000180101c68     sqlite.obj
 0002:00018c68       $unwind$sqlite3_result_error_code 0000000180101c68     sqlite.obj
 0002:00018c68       $unwind$sqlite3_result_error_toobig 0000000180101c68     sqlite.obj
 0002:00018c68       $unwind$sqlite3_result_text 0000000180101c68     sqlite.obj
 0002:00018c68       $unwind$sqlite3_result_text16 0000000180101c68     sqlite.obj
 0002:00018c68       $unwind$sqlite3_result_text16be 0000000180101c68     sqlite.obj
 0002:00018c68       $unwind$sqlite3_result_text16le 0000000180101c68     sqlite.obj
 0002:00018c68       $unwind$sqlite3_wal_checkpoint 0000000180101c68     sqlite.obj
 0002:00018c68       $unwind$typeofFunc         0000000180101c68     sqlite.obj
 0002:00018c68       $unwind$versionFunc        0000000180101c68     sqlite.obj
 0002:00018c68       $unwind$atol               0000000180101c68     libucrt:atox.obj
 0002:00018c68       $unwind$_invalid_parameter_noinfo 0000000180101c68     libucrt:invalid_parameter.obj
 0002:00018c68       $unwind$_log10_special     0000000180101c68     libucrt:log_special.obj
 0002:00018c70       $unwind$btreeCellSizeCheck 0000000180101c70     sqlite.obj
 0002:00018c70       $unwind$sqlite3CodeDropTable 0000000180101c70     sqlite.obj
 0002:00018c70       $unwind$sqlite3ExprCodeGeneratedColumn 0000000180101c70     sqlite.obj
 0002:00018c70       $unwind$sqlite3_create_filename 0000000180101c70     sqlite.obj
 0002:00018c70       $unwind$??$copy_and_add_argument_to_buffer@D@@YAHQEBD0_KAEAV?$argument_list@D@?A0x5f5c8891@@@Z 0000000180101c70     libucrt:argv_wildcards.obj
 0002:00018c8c       $unwind$getAndInitPage     0000000180101c8c     sqlite.obj
 0002:00018ca0       $unwind$sqlite3BtreeOpen   0000000180101ca0     sqlite.obj
 0002:00018cc0       $chain$1$sqlite3BtreeClose 0000000180101cc0     sqlite.obj
 0002:00018cd8       $chain$2$sqlite3BtreeClose 0000000180101cd8     sqlite.obj
 0002:00018cec       $chain$3$sqlite3BtreeClose 0000000180101cec     sqlite.obj
 0002:00018cfc       $chain$4$sqlite3BtreeClose 0000000180101cfc     sqlite.obj
 0002:00018d0c       $unwind$sqlite3BtreeGetAutoVacuum 0000000180101d0c     sqlite.obj
 0002:00018d18       $unwind$absFunc            0000000180101d18     sqlite.obj
 0002:00018d18       $unwind$lockBtree          0000000180101d18     sqlite.obj
 0002:00018d18       $unwind$quoteFunc          0000000180101d18     sqlite.obj
 0002:00018d18       $unwind$sqlite3ExprIsSingleTableConstraint 0000000180101d18     sqlite.obj
 0002:00018d20       $chain$6$lockBtree         0000000180101d20     sqlite.obj
 0002:00018d4c       $chain$7$lockBtree         0000000180101d4c     sqlite.obj
 0002:00018d5c       $unwind$newDatabase        0000000180101d5c     sqlite.obj
 0002:00018d6c       $unwind$btreeBeginTrans    0000000180101d6c     sqlite.obj
 0002:00018d78       $chain$5$btreeBeginTrans   0000000180101d78     sqlite.obj
 0002:00018da0       $chain$6$btreeBeginTrans   0000000180101da0     sqlite.obj
 0002:00018db0       $unwind$setChildPtrmaps    0000000180101db0     sqlite.obj
 0002:00018dc0       $chain$0$setChildPtrmaps   0000000180101dc0     sqlite.obj
 0002:00018dd4       $chain$2$setChildPtrmaps   0000000180101dd4     sqlite.obj
 0002:00018dec       $chain$3$setChildPtrmaps   0000000180101dec     sqlite.obj
 0002:00018dfc       $chain$4$setChildPtrmaps   0000000180101dfc     sqlite.obj
 0002:00018e0c       $unwind$modifyPagePointer  0000000180101e0c     sqlite.obj
 0002:00018e0c       $unwind$sqlite3ComputeGeneratedColumns 0000000180101e0c     sqlite.obj
 0002:00018e28       $unwind$relocatePage       0000000180101e28     sqlite.obj
 0002:00018e40       $unwind$incrVacuumStep     0000000180101e40     sqlite.obj
 0002:00018e5c       $unwind$finalDbSize        0000000180101e5c     sqlite.obj
 0002:00018e5c       $unwind$__acrt_initialize_winapi_thunks 0000000180101e5c     libucrt:winapi_thunks.obj
 0002:00018e64       $unwind$sqlite3BtreeIncrVacuum 0000000180101e64     sqlite.obj
 0002:00018e64       $unwind$sqlite3ExprCodeLoadIndexColumn 0000000180101e64     sqlite.obj
 0002:00018e64       $unwind$sqlite3NotPureFunc 0000000180101e64     sqlite.obj
 0002:00018e64       $unwind$sqlite3_complete16 0000000180101e64     sqlite.obj
 0002:00018e6c       $chain$1$sqlite3BtreeIncrVacuum 0000000180101e6c     sqlite.obj
 0002:00018e84       $chain$3$sqlite3BtreeIncrVacuum 0000000180101e84     sqlite.obj
 0002:00018e9c       $chain$4$sqlite3BtreeIncrVacuum 0000000180101e9c     sqlite.obj
 0002:00018eac       $chain$5$sqlite3BtreeIncrVacuum 0000000180101eac     sqlite.obj
 0002:00018ec0       $unwind$autoVacuumCommit   0000000180101ec0     sqlite.obj
 0002:00018edc       $unwind$btreeEndTransaction 0000000180101edc     sqlite.obj
 0002:00018ef0       $chain$0$btreeEndTransaction 0000000180101ef0     sqlite.obj
 0002:00018f04       $chain$1$btreeEndTransaction 0000000180101f04     sqlite.obj
 0002:00018f14       $unwind$sqlite3BtreeTripAllCursors 0000000180101f14     sqlite.obj
 0002:00018f28       $chain$0$sqlite3BtreeTripAllCursors 0000000180101f28     sqlite.obj
 0002:00018f3c       $chain$1$sqlite3BtreeTripAllCursors 0000000180101f3c     sqlite.obj
 0002:00018f4c       $chain$1$sqlite3BtreeRollback 0000000180101f4c     sqlite.obj
 0002:00018f64       $chain$3$sqlite3BtreeRollback 0000000180101f64     sqlite.obj
 0002:00018f7c       $chain$4$sqlite3BtreeRollback 0000000180101f7c     sqlite.obj
 0002:00018f90       $chain$5$sqlite3BtreeRollback 0000000180101f90     sqlite.obj
 0002:00018fa4       $unwind$sqlite3BtreeSavepoint 0000000180101fa4     sqlite.obj
 0002:00018fa4       $unwind$sqlite3WhereExprListUsage 0000000180101fa4     sqlite.obj
 0002:00018fb4       $chain$1$sqlite3BtreeSavepoint 0000000180101fb4     sqlite.obj
 0002:00018fcc       $chain$2$sqlite3BtreeSavepoint 0000000180101fcc     sqlite.obj
 0002:00018fe0       $chain$3$sqlite3BtreeSavepoint 0000000180101fe0     sqlite.obj
 0002:00018ff0       $chain$1$sqlite3BtreeCloseCursor 0000000180101ff0     sqlite.obj
 0002:00019008       $chain$2$sqlite3BtreeCloseCursor 0000000180102008     sqlite.obj
 0002:0001901c       $chain$3$sqlite3BtreeCloseCursor 000000018010201c     sqlite.obj
 0002:0001902c       $unwind$getOverflowPage    000000018010202c     sqlite.obj
 0002:00019044       $unwind$accessPayload      0000000180102044     sqlite.obj
 0002:0001905c       $unwind$moveToChild        000000018010205c     sqlite.obj
 0002:0001906c       $unwind$sqlite3BtreeTableMoveto 000000018010206c     sqlite.obj
 0002:0001907c       $chain$2$sqlite3BtreeTableMoveto 000000018010207c     sqlite.obj
 0002:00019098       $chain$3$sqlite3BtreeTableMoveto 0000000180102098     sqlite.obj
 0002:000190a8       $unwind$sqlite3BtreeIndexMoveto 00000001801020a8     sqlite.obj
 0002:000190b8       $chain$2$sqlite3BtreeIndexMoveto 00000001801020b8     sqlite.obj
 0002:000190d4       $chain$3$sqlite3BtreeIndexMoveto 00000001801020d4     sqlite.obj
 0002:000190e4       $chain$0$btreePrevious     00000001801020e4     sqlite.obj
 0002:000190f8       $chain$2$btreePrevious     00000001801020f8     sqlite.obj
 0002:000190f8       $chain$4$btreePrevious     00000001801020f8     sqlite.obj
 0002:000190f8       $chain$6$btreePrevious     00000001801020f8     sqlite.obj
 0002:000190f8       $chain$8$btreePrevious     00000001801020f8     sqlite.obj
 0002:0001910c       $chain$9$btreePrevious     000000018010210c     sqlite.obj
 0002:0001911c       $unwind$allocateBtreePage  000000018010211c     sqlite.obj
 0002:00019134       $unwind$freePage2          0000000180102134     sqlite.obj
 0002:00019148       $chain$1$freePage2         0000000180102148     sqlite.obj
 0002:00019160       $chain$3$freePage2         0000000180102160     sqlite.obj
 0002:00019178       $chain$4$freePage2         0000000180102178     sqlite.obj
 0002:00019188       $unwind$clearCellOverflow  0000000180102188     sqlite.obj
 0002:00019190       $chain$4$clearCellOverflow 0000000180102190     sqlite.obj
 0002:000191b4       $chain$6$clearCellOverflow 00000001801021b4     sqlite.obj
 0002:000191d8       $unwind$fillInCell         00000001801021d8     sqlite.obj
 0002:000191d8       $unwind$sqlite3AlterRenameTable 00000001801021d8     sqlite.obj
 0002:000191f0       $chain$2$dropCell          00000001801021f0     sqlite.obj
 0002:0001920c       $chain$3$dropCell          000000018010220c     sqlite.obj
 0002:0001921c       $unwind$insertCell         000000018010221c     sqlite.obj
 0002:0001921c       $unwind$insertCellFast     000000018010221c     sqlite.obj
 0002:00019234       $unwind$rebuildPage        0000000180102234     sqlite.obj
 0002:0001924c       $unwind$pageInsertArray    000000018010224c     sqlite.obj
 0002:00019270       $unwind$pageFreeArray      0000000180102270     sqlite.obj
 0002:00019270       $unwind$vdbeIncrPopulate   0000000180102270     sqlite.obj
 0002:00019298       $unwind$editPage           0000000180102298     sqlite.obj
 0002:000192b0       $unwind$balance_quick      00000001801022b0     sqlite.obj
 0002:000192cc       $chain$0$balance_quick     00000001801022cc     sqlite.obj
 0002:000192e0       $chain$1$balance_quick     00000001801022e0     sqlite.obj
 0002:000192f4       $chain$2$balance_quick     00000001801022f4     sqlite.obj
 0002:00019308       $chain$3$balance_quick     0000000180102308     sqlite.obj
 0002:00019318       $chain$4$balance_quick     0000000180102318     sqlite.obj
 0002:00019328       $chain$5$balance_quick     0000000180102328     sqlite.obj
 0002:00019338       $unwind$copyNodeContent    0000000180102338     sqlite.obj
 0002:00019344       $chain$4$copyNodeContent   0000000180102344     sqlite.obj
 0002:00019368       $chain$5$copyNodeContent   0000000180102368     sqlite.obj
 0002:0001937c       $chain$6$copyNodeContent   000000018010237c     sqlite.obj
 0002:0001938c       $unwind$balance_nonroot    000000018010238c     sqlite.obj
 0002:000193a8       $chain$0$balance_nonroot   00000001801023a8     sqlite.obj
 0002:000193bc       $chain$1$balance_nonroot   00000001801023bc     sqlite.obj
 0002:000193d0       $chain$2$balance_nonroot   00000001801023d0     sqlite.obj
 0002:000193e4       $chain$3$balance_nonroot   00000001801023e4     sqlite.obj
 0002:000193f4       $chain$4$balance_nonroot   00000001801023f4     sqlite.obj
 0002:00019404       $chain$5$balance_nonroot   0000000180102404     sqlite.obj
 0002:00019414       $unwind$balance_deeper     0000000180102414     sqlite.obj
 0002:0001942c       $unwind$balance            000000018010242c     sqlite.obj
 0002:00019440       $chain$5$balance           0000000180102440     sqlite.obj
 0002:00019468       $chain$6$balance           0000000180102468     sqlite.obj
 0002:00019478       $unwind$btreeOverwriteOverflowCell 0000000180102478     sqlite.obj
 0002:00019488       $chain$3$btreeOverwriteOverflowCell 0000000180102488     sqlite.obj
 0002:000194a8       $chain$4$btreeOverwriteOverflowCell 00000001801024a8     sqlite.obj
 0002:000194b8       $unwind$sqlite3BtreeInsert 00000001801024b8     sqlite.obj
 0002:000194d4       $unwind$sqlite3BtreeTransferRow 00000001801024d4     sqlite.obj
 0002:000194ec       $unwind$sqlite3BtreeDelete 00000001801024ec     sqlite.obj
 0002:00019504       $unwind$btreeCreateTable   0000000180102504     sqlite.obj
 0002:00019504       $unwind$pushOntoSorter     0000000180102504     sqlite.obj
 0002:0001951c       $unwind$clearDatabasePage  000000018010251c     sqlite.obj
 0002:0001952c       $chain$2$clearDatabasePage 000000018010252c     sqlite.obj
 0002:00019548       $chain$3$clearDatabasePage 0000000180102548     sqlite.obj
 0002:0001955c       $chain$4$clearDatabasePage 000000018010255c     sqlite.obj
 0002:0001956c       $chain$5$clearDatabasePage 000000018010256c     sqlite.obj
 0002:0001956c       $chain$7$clearDatabasePage 000000018010256c     sqlite.obj
 0002:00019580       $chain$8$clearDatabasePage 0000000180102580     sqlite.obj
 0002:00019590       $chain$3$sqlite3BtreeClearTable 0000000180102590     sqlite.obj
 0002:000195b0       $chain$4$sqlite3BtreeClearTable 00000001801025b0     sqlite.obj
 0002:000195c4       $unwind$btreeDropTable     00000001801025c4     sqlite.obj
 0002:000195d4       $chain$2$btreeDropTable    00000001801025d4     sqlite.obj
 0002:000195f0       $chain$3$btreeDropTable    00000001801025f0     sqlite.obj
 0002:00019600       $unwind$checkAppendMsg     0000000180102600     sqlite.obj
 0002:00019608       $chain$1$checkAppendMsg    0000000180102608     sqlite.obj
 0002:00019620       $chain$2$checkAppendMsg    0000000180102620     sqlite.obj
 0002:00019630       $unwind$checkPtrmap        0000000180102630     sqlite.obj
 0002:00019644       $unwind$checkList          0000000180102644     sqlite.obj
 0002:00019650       $chain$0$checkList         0000000180102650     sqlite.obj
 0002:00019664       $chain$4$checkList         0000000180102664     sqlite.obj
 0002:00019684       $chain$5$checkList         0000000180102684     sqlite.obj
 0002:00019694       $chain$6$checkList         0000000180102694     sqlite.obj
 0002:000196a4       $unwind$checkTreePage      00000001801026a4     sqlite.obj
 0002:000196bc       $chain$0$checkTreePage     00000001801026bc     sqlite.obj
 0002:000196d0       $chain$1$checkTreePage     00000001801026d0     sqlite.obj
 0002:000196e0       $unwind$sqlite3BtreeIntegrityCheck 00000001801026e0     sqlite.obj
 0002:00019704       $chain$0$sqlite3BtreeLockTable 0000000180102704     sqlite.obj
 0002:00019718       $chain$1$sqlite3BtreeLockTable 0000000180102718     sqlite.obj
 0002:00019728       $chain$0$sqlite3BtreeSetVersion 0000000180102728     sqlite.obj
 0002:0001973c       $chain$1$sqlite3BtreeSetVersion 000000018010273c     sqlite.obj
 0002:0001974c       $unwind$findBtree          000000018010274c     sqlite.obj
 0002:00019768       $chain$0$sqlite3_backup_init 0000000180102768     sqlite.obj
 0002:0001977c       $chain$2$sqlite3_backup_init 000000018010277c     sqlite.obj
 0002:00019794       $chain$3$sqlite3_backup_init 0000000180102794     sqlite.obj
 0002:000197a8       $chain$4$sqlite3_backup_init 00000001801027a8     sqlite.obj
 0002:000197b8       $chain$5$sqlite3_backup_init 00000001801027b8     sqlite.obj
 0002:000197c8       $chain$6$sqlite3_backup_init 00000001801027c8     sqlite.obj
 0002:000197d8       $unwind$backupOnePage      00000001801027d8     sqlite.obj
 0002:000197f0       $unwind$sqlite3_backup_step 00000001801027f0     sqlite.obj
 0002:000197f8       $chain$0$sqlite3_backup_step 00000001801027f8     sqlite.obj
 0002:0001980c       $chain$1$sqlite3_backup_step 000000018010280c     sqlite.obj
 0002:00019820       $chain$6$sqlite3_backup_step 0000000180102820     sqlite.obj
 0002:00019844       $chain$7$sqlite3_backup_step 0000000180102844     sqlite.obj
 0002:00019854       $chain$8$sqlite3_backup_step 0000000180102854     sqlite.obj
 0002:00019864       $chain$9$sqlite3_backup_step 0000000180102864     sqlite.obj
 0002:00019874       $unwind$sqlite3_backup_finish 0000000180102874     sqlite.obj
 0002:00019884       $unwind$backupUpdate       0000000180102884     sqlite.obj
 0002:00019898       $chain$2$sqlite3BtreeCopyFile 0000000180102898     sqlite.obj
 0002:000198b4       $chain$3$sqlite3BtreeCopyFile 00000001801028b4     sqlite.obj
 0002:000198cc       $chain$4$sqlite3BtreeCopyFile 00000001801028cc     sqlite.obj
 0002:000198e0       $unwind$vdbeMemRenderNum   00000001801028e0     sqlite.obj
 0002:000198f4       $chain$0$vdbeMemRenderNum  00000001801028f4     sqlite.obj
 0002:00019908       $chain$1$vdbeMemRenderNum  0000000180102908     sqlite.obj
 0002:00019918       $unwind$sqlite3VdbeMemFinalize 0000000180102918     sqlite.obj
 0002:00019924       $unwind$sqlite3VdbeMemAggValue 0000000180102924     sqlite.obj
 0002:00019924       $unwind$__acrt_CompareStringA 0000000180102924     libucrt:comparestringa.obj
 0002:00019934       $unwind$sqlite3VdbeMemSetDouble 0000000180102934     sqlite.obj
 0002:00019940       $unwind$sqlite3VdbeMemFromBtree 0000000180102940     sqlite.obj
 0002:00019954       $chain$0$sqlite3VdbeMemFromBtree 0000000180102954     sqlite.obj
 0002:00019968       $chain$1$sqlite3VdbeMemFromBtree 0000000180102968     sqlite.obj
 0002:00019978       $chain$1$valueToText       0000000180102978     sqlite.obj
 0002:00019990       $chain$2$valueToText       0000000180102990     sqlite.obj
 0002:000199a0       $unwind$valueFromExpr      00000001801029a0     sqlite.obj
 0002:000199bc       $chain$0$sqlite3VdbeCreate 00000001801029bc     sqlite.obj
 0002:000199d0       $chain$1$sqlite3VdbeCreate 00000001801029d0     sqlite.obj
 0002:000199e0       $chain$2$sqlite3VdbeCreate 00000001801029e0     sqlite.obj
 0002:000199f4       $unwind$sqlite3VdbeError   00000001801029f4     sqlite.obj
 0002:000199fc       $unwind$growOpArray        00000001801029fc     sqlite.obj
 0002:00019a10       $unwind$sqlite3VdbeMultiLoad 0000000180102a10     sqlite.obj
 0002:00019a10       $unwind$vdbeSorterMergeTreeBuild 0000000180102a10     sqlite.obj
 0002:00019a28       $unwind$sqlite3VdbeAddFunctionCall 0000000180102a28     sqlite.obj
 0002:00019a40       $chain$0$sqlite3VdbeAddFunctionCall 0000000180102a40     sqlite.obj
 0002:00019a54       $chain$1$sqlite3VdbeAddFunctionCall 0000000180102a54     sqlite.obj
 0002:00019a64       $unwind$sqlite3VdbeExplain 0000000180102a64     sqlite.obj
 0002:00019a70       $chain$2$sqlite3VdbeExplain 0000000180102a70     sqlite.obj
 0002:00019a8c       $chain$3$sqlite3VdbeExplain 0000000180102a8c     sqlite.obj
 0002:00019aa0       $chain$4$sqlite3VdbeExplain 0000000180102aa0     sqlite.obj
 0002:00019ab0       $unwind$sqlite3VdbeAddParseSchemaOp 0000000180102ab0     sqlite.obj
 0002:00019abc       $chain$0$sqlite3VdbeAddParseSchemaOp 0000000180102abc     sqlite.obj
 0002:00019ad0       $chain$1$sqlite3VdbeAddParseSchemaOp 0000000180102ad0     sqlite.obj
 0002:00019ae4       $chain$2$sqlite3VdbeAddParseSchemaOp 0000000180102ae4     sqlite.obj
 0002:00019af4       $chain$3$sqlite3VdbeAddParseSchemaOp 0000000180102af4     sqlite.obj
 0002:00019b04       $unwind$resizeResolveLabel 0000000180102b04     sqlite.obj
 0002:00019b20       $unwind$vdbeFreeOpArray    0000000180102b20     sqlite.obj
 0002:00019b2c       $chain$3$vdbeFreeOpArray   0000000180102b2c     sqlite.obj
 0002:00019b4c       $chain$4$vdbeFreeOpArray   0000000180102b4c     sqlite.obj
 0002:00019b5c       $unwind$sqlite3VdbeChangeToNoop 0000000180102b5c     sqlite.obj
 0002:00019b68       $unwind$vdbeChangeP4Full   0000000180102b68     sqlite.obj
 0002:00019b7c       $unwind$sqlite3VdbeDisplayP4 0000000180102b7c     sqlite.obj
 0002:00019b84       $chain$4$sqlite3VdbeDisplayP4 0000000180102b84     sqlite.obj
 0002:00019ba8       $chain$6$sqlite3VdbeDisplayP4 0000000180102ba8     sqlite.obj
 0002:00019bc0       $chain$7$sqlite3VdbeDisplayP4 0000000180102bc0     sqlite.obj
 0002:00019bd0       $chain$8$sqlite3VdbeDisplayP4 0000000180102bd0     sqlite.obj
 0002:00019be4       $chain$9$sqlite3VdbeDisplayP4 0000000180102be4     sqlite.obj
 0002:00019bf4       $unwind$sqlite3VdbeEnter   0000000180102bf4     sqlite.obj
 0002:00019bfc       $chain$2$sqlite3VdbeEnter  0000000180102bfc     sqlite.obj
 0002:00019c18       $chain$3$sqlite3VdbeEnter  0000000180102c18     sqlite.obj
 0002:00019c2c       $chain$4$sqlite3VdbeEnter  0000000180102c2c     sqlite.obj
 0002:00019c3c       $chain$5$sqlite3VdbeEnter  0000000180102c3c     sqlite.obj
 0002:00019c4c       $unwind$vdbeLeave          0000000180102c4c     sqlite.obj
 0002:00019c60       $chain$0$vdbeLeave         0000000180102c60     sqlite.obj
 0002:00019c74       $chain$1$vdbeLeave         0000000180102c74     sqlite.obj
 0002:00019c84       $chain$2$releaseMemArray   0000000180102c84     sqlite.obj
 0002:00019ca0       $chain$6$releaseMemArray   0000000180102ca0     sqlite.obj
 0002:00019cc4       $chain$7$releaseMemArray   0000000180102cc4     sqlite.obj
 0002:00019cd4       $unwind$sqlite3VdbeNextOpcode 0000000180102cd4     sqlite.obj
 0002:00019cf0       $unwind$sqlite3VdbeList    0000000180102cf0     sqlite.obj
 0002:00019d00       $chain$1$sqlite3VdbeList   0000000180102d00     sqlite.obj
 0002:00019d18       $chain$2$sqlite3VdbeList   0000000180102d18     sqlite.obj
 0002:00019d2c       $chain$3$sqlite3VdbeList   0000000180102d2c     sqlite.obj
 0002:00019d3c       $chain$4$sqlite3VdbeList   0000000180102d3c     sqlite.obj
 0002:00019d4c       $unwind$sqlite3VdbeMakeReady 0000000180102d4c     sqlite.obj
 0002:00019d4c       $unwind$whereLoopAddAll    0000000180102d4c     sqlite.obj
 0002:00019d64       $chain$0$sqlite3VdbeFreeCursorNN 0000000180102d64     sqlite.obj
 0002:00019d78       $chain$2$sqlite3VdbeFreeCursorNN 0000000180102d78     sqlite.obj
 0002:00019d90       $chain$3$sqlite3VdbeFreeCursorNN 0000000180102d90     sqlite.obj
 0002:00019da0       $chain$4$sqlite3VdbeFreeCursorNN 0000000180102da0     sqlite.obj
 0002:00019db0       $unwind$closeCursorsInFrame 0000000180102db0     sqlite.obj
 0002:00019dbc       $chain$4$closeCursorsInFrame 0000000180102dbc     sqlite.obj
 0002:00019de0       $chain$5$closeCursorsInFrame 0000000180102de0     sqlite.obj
 0002:00019df0       $unwind$vdbeCommit         0000000180102df0     sqlite.obj
 0002:00019e08       $unwind$vdbeCloseStatement 0000000180102e08     sqlite.obj
 0002:00019e20       $unwind$sqlite3VdbeCheckFk 0000000180102e20     sqlite.obj
 0002:00019e2c       $unwind$sqlite3VdbeHalt    0000000180102e2c     sqlite.obj
 0002:00019e44       $chain$1$sqlite3VdbeHalt   0000000180102e44     sqlite.obj
 0002:00019e58       $chain$0$sqlite3VdbeDelete 0000000180102e58     sqlite.obj
 0002:00019e6c       $chain$1$sqlite3VdbeDelete 0000000180102e6c     sqlite.obj
 0002:00019e80       $chain$2$sqlite3VdbeDelete 0000000180102e80     sqlite.obj
 0002:00019e90       $chain$3$sqlite3VdbeDelete 0000000180102e90     sqlite.obj
 0002:00019ea0       $unwind$sqlite3VdbeRecordUnpack 0000000180102ea0     sqlite.obj
 0002:00019eb8       $unwind$vdbeCompareMemString 0000000180102eb8     sqlite.obj
 0002:00019ec8       $chain$1$vdbeCompareMemString 0000000180102ec8     sqlite.obj
 0002:00019ee0       $chain$2$vdbeCompareMemString 0000000180102ee0     sqlite.obj
 0002:00019ef4       $chain$3$vdbeCompareMemString 0000000180102ef4     sqlite.obj
 0002:00019f04       $chain$4$vdbeCompareMemString 0000000180102f04     sqlite.obj
 0002:00019f18       $unwind$sqlite3VdbeRecordCompareWithSkip 0000000180102f18     sqlite.obj
 0002:00019f30       $chain$0$sqlite3VdbeRecordCompareWithSkip 0000000180102f30     sqlite.obj
 0002:00019f44       $chain$1$sqlite3VdbeRecordCompareWithSkip 0000000180102f44     sqlite.obj
 0002:00019f54       $unwind$vdbeRecordCompareString 0000000180102f54     sqlite.obj
 0002:00019f68       $unwind$sqlite3VdbeIdxRowid 0000000180102f68     sqlite.obj
 0002:00019f84       $unwind$sqlite3VdbeIdxKeyCompare 0000000180102f84     sqlite.obj
 0002:00019f98       $chain$1$sqlite3VdbeGetBoundValue 0000000180102f98     sqlite.obj
 0002:00019fb0       $chain$2$sqlite3VdbeGetBoundValue 0000000180102fb0     sqlite.obj
 0002:00019fc0       $chain$0$sqlite3NotPureFunc 0000000180102fc0     sqlite.obj
 0002:00019fd4       $chain$2$sqlite3NotPureFunc 0000000180102fd4     sqlite.obj
 0002:00019fe8       $chain$3$sqlite3NotPureFunc 0000000180102fe8     sqlite.obj
 0002:00019ff8       $unwind$sqlite3VtabImportErrmsg 0000000180102ff8     sqlite.obj
 0002:0001a008       $chain$0$sqlite3VtabImportErrmsg 0000000180103008     sqlite.obj
 0002:0001a01c       $chain$1$sqlite3VtabImportErrmsg 000000018010301c     sqlite.obj
 0002:0001a030       $chain$2$sqlite3VtabImportErrmsg 0000000180103030     sqlite.obj
 0002:0001a040       $chain$3$sqlite3VtabImportErrmsg 0000000180103040     sqlite.obj
 0002:0001a050       $unwind$sqlite3_finalize   0000000180103050     sqlite.obj
 0002:0001a060       $chain$0$sqlite3_reset     0000000180103060     sqlite.obj
 0002:0001a074       $chain$1$sqlite3_reset     0000000180103074     sqlite.obj
 0002:0001a084       $chain$0$sqlite3_clear_bindings 0000000180103084     sqlite.obj
 0002:0001a098       $chain$1$sqlite3_clear_bindings 0000000180103098     sqlite.obj
 0002:0001a0ac       $chain$4$sqlite3_clear_bindings 00000001801030ac     sqlite.obj
 0002:0001a0c8       $chain$5$sqlite3_clear_bindings 00000001801030c8     sqlite.obj
 0002:0001a0d8       $chain$6$sqlite3_clear_bindings 00000001801030d8     sqlite.obj
 0002:0001a0e8       $chain$7$sqlite3_clear_bindings 00000001801030e8     sqlite.obj
 0002:0001a0f8       $unwind$sqlite3Step        00000001801030f8     sqlite.obj
 0002:0001a110       $chain$0$sqlite3Step       0000000180103110     sqlite.obj
 0002:0001a124       $chain$1$sqlite3Step       0000000180103124     sqlite.obj
 0002:0001a134       $unwind$sqlite3_step       0000000180103134     sqlite.obj
 0002:0001a140       $chain$0$sqlite3_step      0000000180103140     sqlite.obj
 0002:0001a154       $chain$1$sqlite3_step      0000000180103154     sqlite.obj
 0002:0001a168       $chain$4$sqlite3_step      0000000180103168     sqlite.obj
 0002:0001a184       $chain$5$sqlite3_step      0000000180103184     sqlite.obj
 0002:0001a194       $chain$6$sqlite3_step      0000000180103194     sqlite.obj
 0002:0001a1a4       $chain$8$sqlite3_step      00000001801031a4     sqlite.obj
 0002:0001a1c8       $unwind$valueFromValueList 00000001801031c8     sqlite.obj
 0002:0001a1d4       $chain$2$valueFromValueList 00000001801031d4     sqlite.obj
 0002:0001a1f0       $chain$3$valueFromValueList 00000001801031f0     sqlite.obj
 0002:0001a200       $chain$1$sqlite3_column_double 0000000180103200     sqlite.obj
 0002:0001a218       $chain$2$sqlite3_column_double 0000000180103218     sqlite.obj
 0002:0001a22c       $unwind$columnName         000000018010322c     sqlite.obj
 0002:0001a240       $chain$1$columnName        0000000180103240     sqlite.obj
 0002:0001a254       $chain$2$columnName        0000000180103254     sqlite.obj
 0002:0001a268       $chain$3$columnName        0000000180103268     sqlite.obj
 0002:0001a278       $chain$4$columnName        0000000180103278     sqlite.obj
 0002:0001a288       $unwind$bindText           0000000180103288     sqlite.obj
 0002:0001a2a0       $unwind$sqlite3_bind_double 00000001801032a0     sqlite.obj
 0002:0001a2b4       $chain$0$sqlite3_bind_value 00000001801032b4     sqlite.obj
 0002:0001a2c8       $chain$1$sqlite3_bind_value 00000001801032c8     sqlite.obj
 0002:0001a2d8       $unwind$sqlite3Attach      00000001801032d8     sqlite.obj
 0002:0001a2d8       $unwind$sqlite3TransferBindings 00000001801032d8     sqlite.obj
 0002:0001a2d8       $unwind$sqlite3_prepare    00000001801032d8     sqlite.obj
 0002:0001a2d8       $unwind$sqlite3_prepare_v2 00000001801032d8     sqlite.obj
 0002:0001a2d8       $unwind$sqlite3_prepare_v3 00000001801032d8     sqlite.obj
 0002:0001a2d8       $unwind$_raise_exc         00000001801032d8     libucrt:fpexcept.obj
 0002:0001a2e0       $chain$3$sqlite3TransferBindings 00000001801032e0     sqlite.obj
 0002:0001a300       $chain$7$sqlite3TransferBindings 0000000180103300     sqlite.obj
 0002:0001a320       $chain$8$sqlite3TransferBindings 0000000180103320     sqlite.obj
 0002:0001a330       $chain$9$sqlite3TransferBindings 0000000180103330     sqlite.obj
 0002:0001a340       $chain$0$sqlite3_stmt_explain 0000000180103340     sqlite.obj
 0002:0001a354       $chain$3$sqlite3_stmt_explain 0000000180103354     sqlite.obj
 0002:0001a370       $chain$4$sqlite3_stmt_explain 0000000180103370     sqlite.obj
 0002:0001a384       $chain$5$sqlite3_stmt_explain 0000000180103384     sqlite.obj
 0002:0001a398       $chain$0$sqlite3_stmt_status 0000000180103398     sqlite.obj
 0002:0001a3ac       $chain$1$sqlite3_stmt_status 00000001801033ac     sqlite.obj
 0002:0001a3bc       $chain$0$sqlite3_expanded_sql 00000001801033bc     sqlite.obj
 0002:0001a3d0       $chain$2$sqlite3_expanded_sql 00000001801033d0     sqlite.obj
 0002:0001a3e4       $chain$3$sqlite3_expanded_sql 00000001801033e4     sqlite.obj
 0002:0001a3f4       $unwind$sqlite3VdbeExpandSql 00000001801033f4     sqlite.obj
 0002:0001a408       $chain$2$sqlite3VdbeExpandSql 0000000180103408     sqlite.obj
 0002:0001a424       $chain$3$sqlite3VdbeExpandSql 0000000180103424     sqlite.obj
 0002:0001a434       $unwind$filterHash         0000000180103434     sqlite.obj
 0002:0001a434       $unwind$sqlite3ExprAddCollateString 0000000180103434     sqlite.obj
 0002:0001a440       $chain$2$filterHash        0000000180103440     sqlite.obj
 0002:0001a45c       $chain$3$filterHash        000000018010345c     sqlite.obj
 0002:0001a46c       $unwind$vdbeColumnFromOverflow 000000018010346c     sqlite.obj
 0002:0001a488       $unwind$sqlite3VdbeExec    0000000180103488     sqlite.obj
 0002:0001a4a0       $chain$6$sqlite3VdbeExec   00000001801034a0     sqlite.obj
 0002:0001a4cc       $chain$7$sqlite3VdbeExec   00000001801034cc     sqlite.obj
 0002:0001a4dc       $unwind$sqlite3_blob_open  00000001801034dc     sqlite.obj
 0002:0001a4fc       $chain$0$sqlite3_blob_close 00000001801034fc     sqlite.obj
 0002:0001a510       $chain$1$sqlite3_blob_close 0000000180103510     sqlite.obj
 0002:0001a524       $chain$2$sqlite3_blob_close 0000000180103524     sqlite.obj
 0002:0001a534       $chain$3$sqlite3_blob_close 0000000180103534     sqlite.obj
 0002:0001a544       $unwind$blobReadWrite      0000000180103544     sqlite.obj
 0002:0001a554       $chain$1$blobReadWrite     0000000180103554     sqlite.obj
 0002:0001a56c       $chain$2$blobReadWrite     000000018010356c     sqlite.obj
 0002:0001a580       $chain$3$blobReadWrite     0000000180103580     sqlite.obj
 0002:0001a590       $chain$4$blobReadWrite     0000000180103590     sqlite.obj
 0002:0001a5a4       $unwind$sqlite3_blob_reopen 00000001801035a4     sqlite.obj
 0002:0001a5b0       $chain$1$sqlite3_blob_reopen 00000001801035b0     sqlite.obj
 0002:0001a5c8       $chain$2$sqlite3_blob_reopen 00000001801035c8     sqlite.obj
 0002:0001a5dc       $unwind$vdbePmaReadBlob    00000001801035dc     sqlite.obj
 0002:0001a5f0       $chain$2$vdbePmaReadBlob   00000001801035f0     sqlite.obj
 0002:0001a604       $chain$3$vdbePmaReadBlob   0000000180103604     sqlite.obj
 0002:0001a614       $unwind$vdbePmaReadVarint  0000000180103614     sqlite.obj
 0002:0001a62c       $unwind$vdbePmaReaderSeek  000000018010362c     sqlite.obj
 0002:0001a644       $unwind$vdbeSorterCompareText 0000000180103644     sqlite.obj
 0002:0001a660       $unwind$sqlite3VdbeSorterInit 0000000180103660     sqlite.obj
 0002:0001a67c       $unwind$renameTokenFree    000000018010367c     sqlite.obj
 0002:0001a67c       $unwind$vdbeSorterRecordFree 000000018010367c     sqlite.obj
 0002:0001a688       $chain$0$vdbeSorterRecordFree 0000000180103688     sqlite.obj
 0002:0001a69c       $chain$1$vdbeSorterRecordFree 000000018010369c     sqlite.obj
 0002:0001a6ac       $unwind$deleteTable        00000001801036ac     sqlite.obj
 0002:0001a6ac       $unwind$vdbeSorterJoinThread 00000001801036ac     sqlite.obj
 0002:0001a6b8       $chain$0$vdbeSorterJoinThread 00000001801036b8     sqlite.obj
 0002:0001a6cc       $chain$2$vdbeSorterJoinThread 00000001801036cc     sqlite.obj
 0002:0001a6e4       $chain$3$vdbeSorterJoinThread 00000001801036e4     sqlite.obj
 0002:0001a6f4       $chain$4$vdbeSorterJoinThread 00000001801036f4     sqlite.obj
 0002:0001a704       $unwind$vdbeSorterJoinAll  0000000180103704     sqlite.obj
 0002:0001a710       $chain$5$vdbeSorterJoinAll 0000000180103710     sqlite.obj
 0002:0001a738       $chain$6$vdbeSorterJoinAll 0000000180103738     sqlite.obj
 0002:0001a748       $unwind$vdbeMergeEngineNew 0000000180103748     sqlite.obj
 0002:0001a758       $chain$0$vdbeMergeEngineFree 0000000180103758     sqlite.obj
 0002:0001a76c       $chain$1$vdbeMergeEngineFree 000000018010376c     sqlite.obj
 0002:0001a77c       $unwind$sqlite3VdbeSorterReset 000000018010377c     sqlite.obj
 0002:0001a78c       $chain$1$sqlite3VdbeSorterReset 000000018010378c     sqlite.obj
 0002:0001a7a4       $chain$2$sqlite3VdbeSorterReset 00000001801037a4     sqlite.obj
 0002:0001a7b8       $chain$3$sqlite3VdbeSorterReset 00000001801037b8     sqlite.obj
 0002:0001a7c8       $chain$4$sqlite3VdbeSorterReset 00000001801037c8     sqlite.obj
 0002:0001a7dc       $chain$5$sqlite3VdbeSorterReset 00000001801037dc     sqlite.obj
 0002:0001a7ec       $chain$0$vdbeSorterExtendFile 00000001801037ec     sqlite.obj
 0002:0001a800       $chain$1$vdbeSorterExtendFile 0000000180103800     sqlite.obj
 0002:0001a810       $unwind$vdbeSorterMerge    0000000180103810     sqlite.obj
 0002:0001a824       $unwind$vdbeSorterSort     0000000180103824     sqlite.obj
 0002:0001a838       $chain$2$vdbeSorterSort    0000000180103838     sqlite.obj
 0002:0001a854       $chain$4$vdbeSorterSort    0000000180103854     sqlite.obj
 0002:0001a86c       $chain$5$vdbeSorterSort    000000018010386c     sqlite.obj
 0002:0001a87c       $chain$6$vdbeSorterSort    000000018010387c     sqlite.obj
 0002:0001a88c       $unwind$vdbeSorterListToPMA 000000018010388c     sqlite.obj
 0002:0001a8a8       $chain$2$vdbeSorterListToPMA 00000001801038a8     sqlite.obj
 0002:0001a8c4       $chain$3$vdbeSorterListToPMA 00000001801038c4     sqlite.obj
 0002:0001a8dc       $chain$4$vdbeSorterListToPMA 00000001801038dc     sqlite.obj
 0002:0001a8f0       $chain$5$vdbeSorterListToPMA 00000001801038f0     sqlite.obj
 0002:0001a900       $unwind$unhexFunc          0000000180103900     sqlite.obj
 0002:0001a900       $unwind$vdbeMergeEngineStep 0000000180103900     sqlite.obj
 0002:0001a910       $chain$1$vdbeMergeEngineStep 0000000180103910     sqlite.obj
 0002:0001a928       $chain$2$vdbeMergeEngineStep 0000000180103928     sqlite.obj
 0002:0001a93c       $chain$3$vdbeMergeEngineStep 000000018010393c     sqlite.obj
 0002:0001a94c       $chain$4$vdbeMergeEngineStep 000000018010394c     sqlite.obj
 0002:0001a95c       $unwind$sqlite3VdbeSorterWrite 000000018010395c     sqlite.obj
 0002:0001a95c       $unwind$whereAddLimitExpr  000000018010395c     sqlite.obj
 0002:0001a974       $unwind$vdbeMergeEngineInit 0000000180103974     sqlite.obj
 0002:0001a990       $unwind$vdbePmaReaderIncrMergeInit 0000000180103990     sqlite.obj
 0002:0001a9a4       $chain$1$vdbePmaReaderIncrMergeInit 00000001801039a4     sqlite.obj
 0002:0001a9bc       $chain$2$vdbePmaReaderIncrMergeInit 00000001801039bc     sqlite.obj
 0002:0001a9cc       $unwind$vdbeMergeEngineLevel0 00000001801039cc     sqlite.obj
 0002:0001a9e4       $unwind$vdbeSorterAddToTree 00000001801039e4     sqlite.obj
 0002:0001a9fc       $unwind$getSafetyLevel     00000001801039fc     sqlite.obj
 0002:0001a9fc       $unwind$vdbeSorterSetupMerge 00000001801039fc     sqlite.obj
 0002:0001aa10       $chain$0$vdbeSorterSetupMerge 0000000180103a10     sqlite.obj
 0002:0001aa24       $chain$1$vdbeSorterSetupMerge 0000000180103a24     sqlite.obj
 0002:0001aa24       $chain$3$vdbeSorterSetupMerge 0000000180103a24     sqlite.obj
 0002:0001aa34       $chain$2$vdbeSorterSetupMerge 0000000180103a34     sqlite.obj
 0002:0001aa48       $unwind$memjrnlRead        0000000180103a48     sqlite.obj
 0002:0001aa68       $chain$0$memjrnlFreeChunks 0000000180103a68     sqlite.obj
 0002:0001aa7c       $chain$1$memjrnlFreeChunks 0000000180103a7c     sqlite.obj
 0002:0001aa8c       $unwind$memjrnlWrite       0000000180103a8c     sqlite.obj
 0002:0001aaa8       $chain$1$memjrnlTruncate   0000000180103aa8     sqlite.obj
 0002:0001aac0       $chain$2$memjrnlTruncate   0000000180103ac0     sqlite.obj
 0002:0001aad0       $unwind$sqlite3WalkSelect  0000000180103ad0     sqlite.obj
 0002:0001aadc       $chain$5$sqlite3WalkSelect 0000000180103adc     sqlite.obj
 0002:0001ab04       $chain$7$sqlite3WalkSelect 0000000180103b04     sqlite.obj
 0002:0001ab2c       $chain$8$sqlite3WalkSelect 0000000180103b2c     sqlite.obj
 0002:0001ab3c       $unwind$resolveAlias       0000000180103b3c     sqlite.obj
 0002:0001ab48       $chain$1$resolveAlias      0000000180103b48     sqlite.obj
 0002:0001ab60       $chain$2$resolveAlias      0000000180103b60     sqlite.obj
 0002:0001ab74       $chain$3$resolveAlias      0000000180103b74     sqlite.obj
 0002:0001ab84       $chain$4$resolveAlias      0000000180103b84     sqlite.obj
 0002:0001ab94       $unwind$lookupName         0000000180103b94     sqlite.obj
 0002:0001abac       $unwind$resolveExprStep    0000000180103bac     sqlite.obj
 0002:0001abd0       $unwind$resolveAsName      0000000180103bd0     sqlite.obj
 0002:0001abe4       $unwind$resolveOrderByTermToExprList 0000000180103be4     sqlite.obj
 0002:0001ac04       $unwind$resolveOrderGroupBy 0000000180103c04     sqlite.obj
 0002:0001ac1c       $unwind$resolveSelectStep  0000000180103c1c     sqlite.obj
 0002:0001ac38       $unwind$sqlite3ResolveExprNames 0000000180103c38     sqlite.obj
 0002:0001ac4c       $unwind$sqlite3ResolveExprListNames 0000000180103c4c     sqlite.obj
 0002:0001ac58       $chain$3$sqlite3ResolveExprListNames 0000000180103c58     sqlite.obj
 0002:0001ac78       $chain$5$sqlite3ResolveExprListNames 0000000180103c78     sqlite.obj
 0002:0001ac98       $unwind$sqlite3ResolveSelfReference 0000000180103c98     sqlite.obj
 0002:0001acac       $chain$1$sqlite3ExprDataType 0000000180103cac     sqlite.obj
 0002:0001acc4       $chain$2$sqlite3ExprDataType 0000000180103cc4     sqlite.obj
 0002:0001acd8       $chain$3$sqlite3ExprDataType 0000000180103cd8     sqlite.obj
 0002:0001ace8       $chain$4$sqlite3ExprDataType 0000000180103ce8     sqlite.obj
 0002:0001acf8       $chain$1$sqlite3ExprAddCollateString 0000000180103cf8     sqlite.obj
 0002:0001ad10       $chain$2$sqlite3ExprAddCollateString 0000000180103d10     sqlite.obj
 0002:0001ad24       $chain$3$sqlite3ExprAddCollateString 0000000180103d24     sqlite.obj
 0002:0001ad34       $chain$5$sqlite3ExprAddCollateString 0000000180103d34     sqlite.obj
 0002:0001ad50       $chain$6$sqlite3ExprAddCollateString 0000000180103d50     sqlite.obj
 0002:0001ad68       $unwind$sqlite3ExprCollSeq 0000000180103d68     sqlite.obj
 0002:0001ad78       $chain$0$sqlite3ExprCollSeq 0000000180103d78     sqlite.obj
 0002:0001ad8c       $chain$1$sqlite3ExprCollSeq 0000000180103d8c     sqlite.obj
 0002:0001ad8c       $chain$3$sqlite3ExprCollSeq 0000000180103d8c     sqlite.obj
 0002:0001ad9c       $chain$2$sqlite3ExprCollSeq 0000000180103d9c     sqlite.obj
 0002:0001adb0       $unwind$codeCompare        0000000180103db0     sqlite.obj
 0002:0001adb0       $unwind$sqlite3ExprCodeGetColumnOfTable 0000000180103db0     sqlite.obj
 0002:0001adc0       $chain$1$codeCompare       0000000180103dc0     sqlite.obj
 0002:0001add8       $chain$2$codeCompare       0000000180103dd8     sqlite.obj
 0002:0001ade8       $unwind$codeVectorCompare  0000000180103de8     sqlite.obj
 0002:0001ae04       $unwind$sqlite3Expr        0000000180103e04     sqlite.obj
 0002:0001ae04       $unwind$sqlite3ExprAlloc   0000000180103e04     sqlite.obj
 0002:0001ae1c       $unwind$sqlite3ExprListToValues 0000000180103e1c     sqlite.obj
 0002:0001ae30       $chain$1$sqlite3ExprListToValues 0000000180103e30     sqlite.obj
 0002:0001ae48       $chain$2$sqlite3ExprListToValues 0000000180103e48     sqlite.obj
 0002:0001ae58       $unwind$sqlite3ExprAnd     0000000180103e58     sqlite.obj
 0002:0001ae6c       $unwind$sqlite3ExprAddFunctionOrderBy 0000000180103e6c     sqlite.obj
 0002:0001ae6c       $unwind$__acrt_lowio_destroy_handle_array 0000000180103e6c     libucrt:osfinfo.obj
 0002:0001ae7c       $unwind$sqlite3ExprAssignVarNumber 0000000180103e7c     sqlite.obj
 0002:0001ae8c       $chain$0$sqlite3ExprAssignVarNumber 0000000180103e8c     sqlite.obj
 0002:0001aea0       $chain$2$sqlite3ExprAssignVarNumber 0000000180103ea0     sqlite.obj
 0002:0001aea0       $chain$9$sqlite3ExprAssignVarNumber 0000000180103ea0     sqlite.obj
 0002:0001aeb4       $chain$4$sqlite3ExprAssignVarNumber 0000000180103eb4     sqlite.obj
 0002:0001aecc       $chain$5$sqlite3ExprAssignVarNumber 0000000180103ecc     sqlite.obj
 0002:0001aee0       $chain$6$sqlite3ExprAssignVarNumber 0000000180103ee0     sqlite.obj
 0002:0001aef0       $chain$7$sqlite3ExprAssignVarNumber 0000000180103ef0     sqlite.obj
 0002:0001af00       $chain$10$sqlite3ExprAssignVarNumber 0000000180103f00     sqlite.obj
 0002:0001af10       $unwind$sqlite3ExprUnmapAndDelete 0000000180103f10     sqlite.obj
 0002:0001af1c       $chain$0$sqlite3ExprUnmapAndDelete 0000000180103f1c     sqlite.obj
 0002:0001af30       $chain$1$sqlite3ExprUnmapAndDelete 0000000180103f30     sqlite.obj
 0002:0001af40       $unwind$exprDup            0000000180103f40     sqlite.obj
 0002:0001af48       $chain$3$exprDup           0000000180103f48     sqlite.obj
 0002:0001af68       $chain$6$exprDup           0000000180103f68     sqlite.obj
 0002:0001af84       $chain$7$exprDup           0000000180103f84     sqlite.obj
 0002:0001af98       $chain$8$exprDup           0000000180103f98     sqlite.obj
 0002:0001afa8       $chain$9$exprDup           0000000180103fa8     sqlite.obj
 0002:0001afb8       $unwind$sqlite3WithDup     0000000180103fb8     sqlite.obj
 0002:0001afc4       $chain$2$sqlite3WithDup    0000000180103fc4     sqlite.obj
 0002:0001afe0       $chain$5$sqlite3WithDup    0000000180103fe0     sqlite.obj
 0002:0001affc       $chain$6$sqlite3WithDup    0000000180103ffc     sqlite.obj
 0002:0001b00c       $chain$8$sqlite3WithDup    000000018010400c     sqlite.obj
 0002:0001b028       $chain$9$sqlite3WithDup    0000000180104028     sqlite.obj
 0002:0001b040       $chain$10$sqlite3WithDup   0000000180104040     sqlite.obj
 0002:0001b050       $unwind$sqlite3ExprListDup 0000000180104050     sqlite.obj
 0002:0001b060       $chain$0$sqlite3ExprListDup 0000000180104060     sqlite.obj
 0002:0001b074       $chain$2$sqlite3ExprListDup 0000000180104074     sqlite.obj
 0002:0001b08c       $chain$3$sqlite3ExprListDup 000000018010408c     sqlite.obj
 0002:0001b09c       $chain$4$sqlite3ExprListDup 000000018010409c     sqlite.obj
 0002:0001b0ac       $unwind$sqlite3SrcListDup  00000001801040ac     sqlite.obj
 0002:0001b0b8       $chain$0$sqlite3SrcListDup 00000001801040b8     sqlite.obj
 0002:0001b0cc       $chain$5$sqlite3SrcListDup 00000001801040cc     sqlite.obj
 0002:0001b0f0       $chain$6$sqlite3SrcListDup 00000001801040f0     sqlite.obj
 0002:0001b100       $chain$7$sqlite3SrcListDup 0000000180104100     sqlite.obj
 0002:0001b110       $unwind$sqlite3IdListDup   0000000180104110     sqlite.obj
 0002:0001b11c       $chain$0$sqlite3IdListDup  000000018010411c     sqlite.obj
 0002:0001b130       $chain$5$sqlite3IdListDup  0000000180104130     sqlite.obj
 0002:0001b154       $chain$6$sqlite3IdListDup  0000000180104154     sqlite.obj
 0002:0001b164       $chain$7$sqlite3IdListDup  0000000180104164     sqlite.obj
 0002:0001b174       $unwind$sqlite3SelectDup   0000000180104174     sqlite.obj
 0002:0001b188       $chain$1$sqlite3SelectDup  0000000180104188     sqlite.obj
 0002:0001b1a0       $chain$2$sqlite3SelectDup  00000001801041a0     sqlite.obj
 0002:0001b1b0       $unwind$sqlite3ExprListAppendVector 00000001801041b0     sqlite.obj
 0002:0001b1c8       $chain$1$sqlite3ExprListAppendVector 00000001801041c8     sqlite.obj
 0002:0001b1dc       $chain$2$sqlite3ExprListAppendVector 00000001801041dc     sqlite.obj
 0002:0001b1ec       $unwind$sqlite3ExprListSetName 00000001801041ec     sqlite.obj
 0002:0001b1f8       $chain$0$sqlite3ExprListSetName 00000001801041f8     sqlite.obj
 0002:0001b20c       $chain$4$sqlite3ExprListSetName 000000018010420c     sqlite.obj
 0002:0001b22c       $chain$5$sqlite3ExprListSetName 000000018010422c     sqlite.obj
 0002:0001b244       $chain$6$sqlite3ExprListSetName 0000000180104244     sqlite.obj
 0002:0001b254       $chain$0$sqlite3ExprListSetSpan 0000000180104254     sqlite.obj
 0002:0001b268       $chain$1$sqlite3ExprListSetSpan 0000000180104268     sqlite.obj
 0002:0001b278       $chain$0$sqlite3ExprSimplifiedAndOr 0000000180104278     sqlite.obj
 0002:0001b28c       $chain$2$sqlite3ExprSimplifiedAndOr 000000018010428c     sqlite.obj
 0002:0001b28c       $chain$4$sqlite3ExprSimplifiedAndOr 000000018010428c     sqlite.obj
 0002:0001b2a0       $chain$5$sqlite3ExprSimplifiedAndOr 00000001801042a0     sqlite.obj
 0002:0001b2b0       $unwind$sqlite3RowidAlias  00000001801042b0     sqlite.obj
 0002:0001b2d4       $unwind$sqlite3SetHasNullFlag 00000001801042d4     sqlite.obj
 0002:0001b2e0       $chain$2$sqlite3SetHasNullFlag 00000001801042e0     sqlite.obj
 0002:0001b2fc       $chain$3$sqlite3SetHasNullFlag 00000001801042fc     sqlite.obj
 0002:0001b30c       $unwind$sqlite3FindInIndex 000000018010430c     sqlite.obj
 0002:0001b31c       $chain$4$sqlite3FindInIndex 000000018010431c     sqlite.obj
 0002:0001b340       $chain$5$sqlite3FindInIndex 0000000180104340     sqlite.obj
 0002:0001b354       $unwind$exprINAffinity     0000000180104354     sqlite.obj
 0002:0001b368       $chain$1$exprINAffinity    0000000180104368     sqlite.obj
 0002:0001b37c       $chain$2$exprINAffinity    000000018010437c     sqlite.obj
 0002:0001b390       $chain$3$exprINAffinity    0000000180104390     sqlite.obj
 0002:0001b3a0       $chain$4$exprINAffinity    00000001801043a0     sqlite.obj
 0002:0001b3b0       $unwind$sqlite3CodeRhsOfIN 00000001801043b0     sqlite.obj
 0002:0001b3c4       $chain$2$sqlite3CodeRhsOfIN 00000001801043c4     sqlite.obj
 0002:0001b3e0       $unwind$sqlite3CodeSubselect 00000001801043e0     sqlite.obj
 0002:0001b3f0       $chain$0$sqlite3CodeSubselect 00000001801043f0     sqlite.obj
 0002:0001b404       $chain$3$sqlite3CodeSubselect 0000000180104404     sqlite.obj
 0002:0001b41c       $chain$5$sqlite3CodeSubselect 000000018010441c     sqlite.obj
 0002:0001b434       $chain$6$sqlite3CodeSubselect 0000000180104434     sqlite.obj
 0002:0001b444       $unwind$sqlite3ExprCodeIN  0000000180104444     sqlite.obj
 0002:0001b458       $chain$0$sqlite3ExprCodeIN 0000000180104458     sqlite.obj
 0002:0001b46c       $chain$2$sqlite3ExprCodeIN 000000018010446c     sqlite.obj
 0002:0001b484       $chain$3$sqlite3ExprCodeIN 0000000180104484     sqlite.obj
 0002:0001b494       $chain$4$sqlite3ExprCodeIN 0000000180104494     sqlite.obj
 0002:0001b4a4       $unwind$codeReal           00000001801044a4     sqlite.obj
 0002:0001b4b4       $unwind$codeInteger        00000001801044b4     sqlite.obj
 0002:0001b4cc       $chain$1$sqlite3ExprCodeLoadIndexColumn 00000001801044cc     sqlite.obj
 0002:0001b4e4       $chain$2$sqlite3ExprCodeLoadIndexColumn 00000001801044e4     sqlite.obj
 0002:0001b4f4       $chain$1$sqlite3ExprCodeGetColumnOfTable 00000001801044f4     sqlite.obj
 0002:0001b50c       $chain$3$sqlite3ExprCodeGetColumnOfTable 000000018010450c     sqlite.obj
 0002:0001b524       $chain$4$sqlite3ExprCodeGetColumnOfTable 0000000180104524     sqlite.obj
 0002:0001b534       $unwind$exprCodeVector     0000000180104534     sqlite.obj
 0002:0001b540       $chain$5$exprCodeVector    0000000180104540     sqlite.obj
 0002:0001b568       $chain$7$exprCodeVector    0000000180104568     sqlite.obj
 0002:0001b580       $chain$8$exprCodeVector    0000000180104580     sqlite.obj
 0002:0001b590       $unwind$exprCodeInlineFunction 0000000180104590     sqlite.obj
 0002:0001b5ac       $chain$0$exprCodeInlineFunction 00000001801045ac     sqlite.obj
 0002:0001b5c0       $chain$1$exprCodeInlineFunction 00000001801045c0     sqlite.obj
 0002:0001b5d0       $chain$1$sqlite3IndexedExprLookup 00000001801045d0     sqlite.obj
 0002:0001b5e8       $chain$3$sqlite3IndexedExprLookup 00000001801045e8     sqlite.obj
 0002:0001b600       $chain$5$sqlite3IndexedExprLookup 0000000180104600     sqlite.obj
 0002:0001b614       $unwind$exprPartidxExprLookup 0000000180104614     sqlite.obj
 0002:0001b628       $chain$3$exprPartidxExprLookup 0000000180104628     sqlite.obj
 0002:0001b640       $chain$4$exprPartidxExprLookup 0000000180104640     sqlite.obj
 0002:0001b654       $chain$5$exprPartidxExprLookup 0000000180104654     sqlite.obj
 0002:0001b664       $unwind$sqlite3ExprCodeTarget 0000000180104664     sqlite.obj
 0002:0001b680       $unwind$sqlite3ExprCodeTemp 0000000180104680     sqlite.obj
 0002:0001b694       $unwind$sqlite3ExprCodeExprList 0000000180104694     sqlite.obj
 0002:0001b6a8       $chain$0$sqlite3ExprCodeExprList 00000001801046a8     sqlite.obj
 0002:0001b6bc       $chain$1$sqlite3ExprCodeExprList 00000001801046bc     sqlite.obj
 0002:0001b6cc       $chain$2$sqlite3ExprCodeExprList 00000001801046cc     sqlite.obj
 0002:0001b6e0       $unwind$exprCodeBetween    00000001801046e0     sqlite.obj
 0002:0001b6fc       $unwind$sqlite3ExprIfTrue  00000001801046fc     sqlite.obj
 0002:0001b710       $chain$0$sqlite3ExprIfTrue 0000000180104710     sqlite.obj
 0002:0001b724       $chain$1$sqlite3ExprIfTrue 0000000180104724     sqlite.obj
 0002:0001b734       $unwind$sqlite3ExprIfFalse 0000000180104734     sqlite.obj
 0002:0001b748       $chain$0$sqlite3ExprIfFalse 0000000180104748     sqlite.obj
 0002:0001b75c       $chain$1$sqlite3ExprIfFalse 000000018010475c     sqlite.obj
 0002:0001b76c       $unwind$exprCompareVariable 000000018010476c     sqlite.obj
 0002:0001b76c       $unwind$nth_valueStepFunc  000000018010476c     sqlite.obj
 0002:0001b77c       $chain$0$exprCompareVariable 000000018010477c     sqlite.obj
 0002:0001b790       $chain$1$exprCompareVariable 0000000180104790     sqlite.obj
 0002:0001b7a0       $chain$0$sqlite3ExprCompare 00000001801047a0     sqlite.obj
 0002:0001b7b4       $chain$2$sqlite3ExprCompare 00000001801047b4     sqlite.obj
 0002:0001b7c8       $chain$3$sqlite3ExprCompare 00000001801047c8     sqlite.obj
 0002:0001b7d8       $chain$0$impliesNotNullRow 00000001801047d8     sqlite.obj
 0002:0001b7ec       $chain$1$impliesNotNullRow 00000001801047ec     sqlite.obj
 0002:0001b7fc       $unwind$sqlite3ExprImpliesNonNullRow 00000001801047fc     sqlite.obj
 0002:0001b80c       $chain$0$agginfoPersistExprCb 000000018010480c     sqlite.obj
 0002:0001b820       $chain$2$agginfoPersistExprCb 0000000180104820     sqlite.obj
 0002:0001b838       $chain$3$agginfoPersistExprCb 0000000180104838     sqlite.obj
 0002:0001b848       $chain$4$agginfoPersistExprCb 0000000180104848     sqlite.obj
 0002:0001b858       $unwind$analyzeAggregate   0000000180104858     sqlite.obj
 0002:0001b86c       $chain$0$analyzeAggregate  000000018010486c     sqlite.obj
 0002:0001b880       $chain$1$analyzeAggregate  0000000180104880     sqlite.obj
 0002:0001b894       $chain$2$analyzeAggregate  0000000180104894     sqlite.obj
 0002:0001b8a4       $chain$3$analyzeAggregate  00000001801048a4     sqlite.obj
 0002:0001b8b4       $unwind$sqlite3ExprAnalyzeAggList 00000001801048b4     sqlite.obj
 0002:0001b8c0       $chain$2$sqlite3ExprAnalyzeAggList 00000001801048c0     sqlite.obj
 0002:0001b8dc       $chain$5$sqlite3ExprAnalyzeAggList 00000001801048dc     sqlite.obj
 0002:0001b8f8       $chain$6$sqlite3ExprAnalyzeAggList 00000001801048f8     sqlite.obj
 0002:0001b908       $chain$7$sqlite3ExprAnalyzeAggList 0000000180104908     sqlite.obj
 0002:0001b918       $unwind$isAlterableTable   0000000180104918     sqlite.obj
 0002:0001b918       $unwind$sqlite3IndexedByLookup 0000000180104918     sqlite.obj
 0002:0001b928       $unwind$sqlite3AlterFinishAddColumn 0000000180104928     sqlite.obj
 0002:0001b934       $chain$5$sqlite3AlterFinishAddColumn 0000000180104934     sqlite.obj
 0002:0001b95c       $chain$6$sqlite3AlterFinishAddColumn 000000018010495c     sqlite.obj
 0002:0001b96c       $unwind$sqlite3AlterBeginAddColumn 000000018010496c     sqlite.obj
 0002:0001b978       $chain$0$sqlite3AlterBeginAddColumn 0000000180104978     sqlite.obj
 0002:0001b98c       $chain$2$sqlite3AlterBeginAddColumn 000000018010498c     sqlite.obj
 0002:0001b9a4       $chain$3$sqlite3AlterBeginAddColumn 00000001801049a4     sqlite.obj
 0002:0001b9b8       $chain$4$sqlite3AlterBeginAddColumn 00000001801049b8     sqlite.obj
 0002:0001b9cc       $chain$5$sqlite3AlterBeginAddColumn 00000001801049cc     sqlite.obj
 0002:0001b9dc       $chain$6$sqlite3AlterBeginAddColumn 00000001801049dc     sqlite.obj
 0002:0001b9ec       $chain$7$sqlite3AlterBeginAddColumn 00000001801049ec     sqlite.obj
 0002:0001b9fc       $chain$8$sqlite3AlterBeginAddColumn 00000001801049fc     sqlite.obj
 0002:0001ba0c       $unwind$sqlite3AlterRenameColumn 0000000180104a0c     sqlite.obj
 0002:0001ba24       $unwind$renameWalkWith     0000000180104a24     sqlite.obj
 0002:0001ba30       $chain$4$renameWalkWith    0000000180104a30     sqlite.obj
 0002:0001ba54       $chain$5$renameWalkWith    0000000180104a54     sqlite.obj
 0002:0001ba64       $unwind$renameUnmapSelectCb 0000000180104a64     sqlite.obj
 0002:0001ba78       $chain$2$renameUnmapSelectCb 0000000180104a78     sqlite.obj
 0002:0001ba8c       $chain$3$renameUnmapSelectCb 0000000180104a8c     sqlite.obj
 0002:0001baa0       $chain$4$renameUnmapSelectCb 0000000180104aa0     sqlite.obj
 0002:0001bab0       $chain$5$renameUnmapSelectCb 0000000180104ab0     sqlite.obj
 0002:0001bac0       $unwind$sqlite3RenameExprlistUnmap 0000000180104ac0     sqlite.obj
 0002:0001bacc       $chain$1$sqlite3RenameExprlistUnmap 0000000180104acc     sqlite.obj
 0002:0001bae4       $chain$2$sqlite3RenameExprlistUnmap 0000000180104ae4     sqlite.obj
 0002:0001baf4       $chain$0$renameTokenFree   0000000180104af4     sqlite.obj
 0002:0001bb08       $chain$1$renameTokenFree   0000000180104b08     sqlite.obj
 0002:0001bb18       $unwind$renameColumnParseError 0000000180104b18     sqlite.obj
 0002:0001bb30       $unwind$renameParseSql     0000000180104b30     sqlite.obj
 0002:0001bb40       $chain$0$renameParseSql    0000000180104b40     sqlite.obj
 0002:0001bb54       $chain$1$renameParseSql    0000000180104b54     sqlite.obj
 0002:0001bb64       $unwind$renameEditSql      0000000180104b64     sqlite.obj
 0002:0001bb80       $unwind$renameResolveTrigger 0000000180104b80     sqlite.obj
 0002:0001bb98       $chain$0$renameResolveTrigger 0000000180104b98     sqlite.obj
 0002:0001bbac       $chain$1$renameResolveTrigger 0000000180104bac     sqlite.obj
 0002:0001bbac       $chain$3$renameResolveTrigger 0000000180104bac     sqlite.obj
 0002:0001bbbc       $chain$2$renameResolveTrigger 0000000180104bbc     sqlite.obj
 0002:0001bbd0       $unwind$renameWalkTrigger  0000000180104bd0     sqlite.obj
 0002:0001bbd0       $unwind$sqlite3_auto_extension 0000000180104bd0     sqlite.obj
 0002:0001bbdc       $chain$2$renameWalkTrigger 0000000180104bdc     sqlite.obj
 0002:0001bbf8       $chain$3$renameWalkTrigger 0000000180104bf8     sqlite.obj
 0002:0001bc08       $unwind$renameParseCleanup 0000000180104c08     sqlite.obj
 0002:0001bc1c       $unwind$renameColumnFunc   0000000180104c1c     sqlite.obj
 0002:0001bc38       $chain$2$renameColumnFunc  0000000180104c38     sqlite.obj
 0002:0001bc54       $chain$3$renameColumnFunc  0000000180104c54     sqlite.obj
 0002:0001bc68       $chain$4$renameColumnFunc  0000000180104c68     sqlite.obj
 0002:0001bc84       $unwind$renameTableFunc    0000000180104c84     sqlite.obj
 0002:0001bca8       $unwind$renameQuotefixFunc 0000000180104ca8     sqlite.obj
 0002:0001bcbc       $chain$5$renameQuotefixFunc 0000000180104cbc     sqlite.obj
 0002:0001bce4       $chain$6$renameQuotefixFunc 0000000180104ce4     sqlite.obj
 0002:0001bcf4       $unwind$renameTableTest    0000000180104cf4     sqlite.obj
 0002:0001bd10       $chain$2$renameTableTest   0000000180104d10     sqlite.obj
 0002:0001bd2c       $chain$3$renameTableTest   0000000180104d2c     sqlite.obj
 0002:0001bd44       $unwind$dropColumnFunc     0000000180104d44     sqlite.obj
 0002:0001bd6c       $unwind$sqlite3AlterDropColumn 0000000180104d6c     sqlite.obj
 0002:0001bd7c       $chain$1$sqlite3AlterDropColumn 0000000180104d7c     sqlite.obj
 0002:0001bd94       $chain$2$sqlite3AlterDropColumn 0000000180104d94     sqlite.obj
 0002:0001bda8       $chain$3$sqlite3AlterDropColumn 0000000180104da8     sqlite.obj
 0002:0001bdbc       $chain$4$sqlite3AlterDropColumn 0000000180104dbc     sqlite.obj
 0002:0001bdcc       $chain$5$sqlite3AlterDropColumn 0000000180104dcc     sqlite.obj
 0002:0001bddc       $chain$6$sqlite3AlterDropColumn 0000000180104ddc     sqlite.obj
 0002:0001bdec       $unwind$openStatTable      0000000180104dec     sqlite.obj
 0002:0001be04       $chain$4$openStatTable     0000000180104e04     sqlite.obj
 0002:0001be28       $chain$5$openStatTable     0000000180104e28     sqlite.obj
 0002:0001be38       $chain$6$openStatTable     0000000180104e38     sqlite.obj
 0002:0001be5c       $unwind$statInit           0000000180104e5c     sqlite.obj
 0002:0001be80       $unwind$statGet            0000000180104e80     sqlite.obj
 0002:0001be8c       $chain$0$statGet           0000000180104e8c     sqlite.obj
 0002:0001bea0       $chain$2$statGet           0000000180104ea0     sqlite.obj
 0002:0001beb8       $chain$3$statGet           0000000180104eb8     sqlite.obj
 0002:0001bec8       $chain$4$statGet           0000000180104ec8     sqlite.obj
 0002:0001bed8       $unwind$analyzeOneTable    0000000180104ed8     sqlite.obj
 0002:0001beec       $chain$1$analyzeOneTable   0000000180104eec     sqlite.obj
 0002:0001bf04       $chain$2$analyzeOneTable   0000000180104f04     sqlite.obj
 0002:0001bf14       $unwind$analyzeDatabase    0000000180104f14     sqlite.obj
 0002:0001bf30       $unwind$decodeIntArray     0000000180104f30     sqlite.obj
 0002:0001bf3c       $chain$1$decodeIntArray    0000000180104f3c     sqlite.obj
 0002:0001bf54       $chain$4$decodeIntArray    0000000180104f54     sqlite.obj
 0002:0001bf70       $chain$5$decodeIntArray    0000000180104f70     sqlite.obj
 0002:0001bf80       $chain$6$decodeIntArray    0000000180104f80     sqlite.obj
 0002:0001bf90       $unwind$analysisLoader     0000000180104f90     sqlite.obj
 0002:0001bfa0       $chain$0$analysisLoader    0000000180104fa0     sqlite.obj
 0002:0001bfb4       $chain$1$analysisLoader    0000000180104fb4     sqlite.obj
 0002:0001bfc4       $chain$2$analysisLoader    0000000180104fc4     sqlite.obj
 0002:0001bfd8       $unwind$sqlite3AnalysisLoad 0000000180104fd8     sqlite.obj
 0002:0001bfd8       $unwind$sqlite3HaltConstraint 0000000180104fd8     sqlite.obj
 0002:0001bff0       $unwind$attachFunc         0000000180104ff0     sqlite.obj
 0002:0001c008       $unwind$detachFunc         0000000180105008     sqlite.obj
 0002:0001c024       $chain$0$detachFunc        0000000180105024     sqlite.obj
 0002:0001c038       $chain$1$detachFunc        0000000180105038     sqlite.obj
 0002:0001c04c       $chain$2$detachFunc        000000018010504c     sqlite.obj
 0002:0001c05c       $chain$3$detachFunc        000000018010505c     sqlite.obj
 0002:0001c06c       $unwind$codeAttach         000000018010506c     sqlite.obj
 0002:0001c078       $chain$4$codeAttach        0000000180105078     sqlite.obj
 0002:0001c09c       $chain$5$codeAttach        000000018010509c     sqlite.obj
 0002:0001c0b0       $chain$6$codeAttach        00000001801050b0     sqlite.obj
 0002:0001c0c0       $chain$7$codeAttach        00000001801050c0     sqlite.obj
 0002:0001c0d4       $chain$8$codeAttach        00000001801050d4     sqlite.obj
 0002:0001c0e4       $unwind$sqlite3Detach      00000001801050e4     sqlite.obj
 0002:0001c0f0       $chain$2$sqlite3Detach     00000001801050f0     sqlite.obj
 0002:0001c10c       $chain$3$sqlite3Detach     000000018010510c     sqlite.obj
 0002:0001c120       $chain$4$sqlite3Detach     0000000180105120     sqlite.obj
 0002:0001c130       $chain$5$sqlite3Detach     0000000180105130     sqlite.obj
 0002:0001c140       $unwind$fixSelectCb        0000000180105140     sqlite.obj
 0002:0001c140       $unwind$sqlite3VtabEponymousTableInit 0000000180105140     sqlite.obj
 0002:0001c158       $unwind$sqlite3FixTriggerStep 0000000180105158     sqlite.obj
 0002:0001c178       $unwind$sqlite3AuthReadCol 0000000180105178     sqlite.obj
 0002:0001c190       $chain$0$sqlite3AuthReadCol 0000000180105190     sqlite.obj
 0002:0001c1a4       $chain$1$sqlite3AuthReadCol 00000001801051a4     sqlite.obj
 0002:0001c1b4       $chain$0$sqlite3AuthCheck  00000001801051b4     sqlite.obj
 0002:0001c1c8       $chain$2$sqlite3AuthCheck  00000001801051c8     sqlite.obj
 0002:0001c1dc       $chain$3$sqlite3AuthCheck  00000001801051dc     sqlite.obj
 0002:0001c1ec       $unwind$lockTable          00000001801051ec     sqlite.obj
 0002:0001c1fc       $chain$2$lockTable         00000001801051fc     sqlite.obj
 0002:0001c218       $chain$3$lockTable         0000000180105218     sqlite.obj
 0002:0001c228       $chain$4$lockTable         0000000180105228     sqlite.obj
 0002:0001c228       $chain$6$lockTable         0000000180105228     sqlite.obj
 0002:0001c244       $unwind$sqlite3FinishCoding 0000000180105244     sqlite.obj
 0002:0001c250       $chain$1$sqlite3FinishCoding 0000000180105250     sqlite.obj
 0002:0001c268       $chain$11$sqlite3FinishCoding 0000000180105268     sqlite.obj
 0002:0001c268       $chain$3$sqlite3FinishCoding 0000000180105268     sqlite.obj
 0002:0001c280       $chain$4$sqlite3FinishCoding 0000000180105280     sqlite.obj
 0002:0001c294       $chain$7$sqlite3FinishCoding 0000000180105294     sqlite.obj
 0002:0001c2b0       $chain$8$sqlite3FinishCoding 00000001801052b0     sqlite.obj
 0002:0001c2c0       $chain$9$sqlite3FinishCoding 00000001801052c0     sqlite.obj
 0002:0001c2d0       $chain$12$sqlite3FinishCoding 00000001801052d0     sqlite.obj
 0002:0001c2e0       $unwind$sqlite3NestedParse 00000001801052e0     sqlite.obj
 0002:0001c2f0       $chain$0$sqlite3NestedParse 00000001801052f0     sqlite.obj
 0002:0001c304       $chain$1$sqlite3NestedParse 0000000180105304     sqlite.obj
 0002:0001c314       $unwind$sqlite3FindTable   0000000180105314     sqlite.obj
 0002:0001c328       $chain$0$sqlite3FindTable  0000000180105328     sqlite.obj
 0002:0001c33c       $chain$1$sqlite3FindTable  000000018010533c     sqlite.obj
 0002:0001c34c       $unwind$loadExt            000000018010534c     sqlite.obj
 0002:0001c34c       $unwind$sqlite3LocateTable 000000018010534c     sqlite.obj
 0002:0001c364       $unwind$sqlite3FindIndex   0000000180105364     sqlite.obj
 0002:0001c374       $chain$2$sqlite3FindIndex  0000000180105374     sqlite.obj
 0002:0001c390       $chain$4$sqlite3FindIndex  0000000180105390     sqlite.obj
 0002:0001c3ac       $chain$5$sqlite3FindIndex  00000001801053ac     sqlite.obj
 0002:0001c3bc       $unwind$sqlite3CollapseDatabaseArray 00000001801053bc     sqlite.obj
 0002:0001c3bc       $unwind$sqlite3Vacuum      00000001801053bc     sqlite.obj
 0002:0001c3c8       $chain$0$sqlite3CollapseDatabaseArray 00000001801053c8     sqlite.obj
 0002:0001c3dc       $chain$5$sqlite3CollapseDatabaseArray 00000001801053dc     sqlite.obj
 0002:0001c400       $chain$6$sqlite3CollapseDatabaseArray 0000000180105400     sqlite.obj
 0002:0001c410       $chain$7$sqlite3CollapseDatabaseArray 0000000180105410     sqlite.obj
 0002:0001c420       $chain$0$sqlite3ResetOneSchema 0000000180105420     sqlite.obj
 0002:0001c434       $chain$1$sqlite3ResetOneSchema 0000000180105434     sqlite.obj
 0002:0001c448       $chain$2$sqlite3ResetOneSchema 0000000180105448     sqlite.obj
 0002:0001c458       $chain$3$sqlite3ResetOneSchema 0000000180105458     sqlite.obj
 0002:0001c468       $chain$0$sqlite3ResetAllSchemasOfConnection 0000000180105468     sqlite.obj
 0002:0001c47c       $chain$1$sqlite3ResetAllSchemasOfConnection 000000018010547c     sqlite.obj
 0002:0001c490       $chain$2$sqlite3ResetAllSchemasOfConnection 0000000180105490     sqlite.obj
 0002:0001c4a0       $chain$3$sqlite3ResetAllSchemasOfConnection 00000001801054a0     sqlite.obj
 0002:0001c4b0       $unwind$sqlite3DeleteColumnNames 00000001801054b0     sqlite.obj
 0002:0001c4b0       $unwind$sqlite3WindowAssemble 00000001801054b0     sqlite.obj
 0002:0001c4c0       $chain$1$sqlite3DeleteColumnNames 00000001801054c0     sqlite.obj
 0002:0001c4d8       $chain$2$sqlite3DeleteColumnNames 00000001801054d8     sqlite.obj
 0002:0001c4ec       $chain$3$sqlite3DeleteColumnNames 00000001801054ec     sqlite.obj
 0002:0001c4fc       $chain$1$deleteTable       00000001801054fc     sqlite.obj
 0002:0001c514       $chain$2$deleteTable       0000000180105514     sqlite.obj
 0002:0001c528       $chain$3$deleteTable       0000000180105528     sqlite.obj
 0002:0001c538       $chain$4$deleteTable       0000000180105538     sqlite.obj
 0002:0001c54c       $chain$5$deleteTable       000000018010554c     sqlite.obj
 0002:0001c55c       $chain$2$sqlite3NameFromToken 000000018010555c     sqlite.obj
 0002:0001c578       $chain$4$sqlite3NameFromToken 0000000180105578     sqlite.obj
 0002:0001c590       $chain$5$sqlite3NameFromToken 0000000180105590     sqlite.obj
 0002:0001c5a0       $chain$1$sqlite3FindDbName 00000001801055a0     sqlite.obj
 0002:0001c5b8       $chain$2$sqlite3FindDbName 00000001801055b8     sqlite.obj
 0002:0001c5c8       $chain$0$sqlite3TwoPartName 00000001801055c8     sqlite.obj
 0002:0001c5dc       $chain$1$sqlite3TwoPartName 00000001801055dc     sqlite.obj
 0002:0001c5ec       $unwind$jsonReturnFromBlob 00000001801055ec     sqlite.obj
 0002:0001c5ec       $unwind$sqlite3StartTable  00000001801055ec     sqlite.obj
 0002:0001c604       $unwind$sqlite3AddReturning 0000000180105604     sqlite.obj
 0002:0001c618       $chain$0$sqlite3AddReturning 0000000180105618     sqlite.obj
 0002:0001c62c       $chain$1$sqlite3AddReturning 000000018010562c     sqlite.obj
 0002:0001c63c       $unwind$sqlite3AddColumn   000000018010563c     sqlite.obj
 0002:0001c650       $chain$1$sqlite3AddColumn  0000000180105650     sqlite.obj
 0002:0001c668       $chain$2$sqlite3AddColumn  0000000180105668     sqlite.obj
 0002:0001c678       $unwind$sqlite3AddDefaultValue 0000000180105678     sqlite.obj
 0002:0001c688       $chain$1$sqlite3AddDefaultValue 0000000180105688     sqlite.obj
 0002:0001c6a0       $chain$3$sqlite3AddDefaultValue 00000001801056a0     sqlite.obj
 0002:0001c6b8       $chain$4$sqlite3AddDefaultValue 00000001801056b8     sqlite.obj
 0002:0001c6cc       $chain$5$sqlite3AddDefaultValue 00000001801056cc     sqlite.obj
 0002:0001c6dc       $chain$6$sqlite3AddDefaultValue 00000001801056dc     sqlite.obj
 0002:0001c6ec       $chain$7$sqlite3AddDefaultValue 00000001801056ec     sqlite.obj
 0002:0001c6fc       $unwind$sqlite3AddPrimaryKey 00000001801056fc     sqlite.obj
 0002:0001c710       $chain$0$sqlite3AddPrimaryKey 0000000180105710     sqlite.obj
 0002:0001c724       $chain$1$sqlite3AddPrimaryKey 0000000180105724     sqlite.obj
 0002:0001c724       $chain$3$sqlite3AddPrimaryKey 0000000180105724     sqlite.obj
 0002:0001c734       $chain$2$sqlite3AddPrimaryKey 0000000180105734     sqlite.obj
 0002:0001c748       $chain$3$sqlite3AddCollateType 0000000180105748     sqlite.obj
 0002:0001c768       $chain$4$sqlite3AddCollateType 0000000180105768     sqlite.obj
 0002:0001c778       $chain$0$sqlite3AddGenerated 0000000180105778     sqlite.obj
 0002:0001c78c       $chain$1$sqlite3AddGenerated 000000018010578c     sqlite.obj
 0002:0001c79c       $unwind$createTableStmt    000000018010579c     sqlite.obj
 0002:0001c7b0       $chain$0$createTableStmt   00000001801057b0     sqlite.obj
 0002:0001c7c4       $unwind$resizeIndexObject  00000001801057c4     sqlite.obj
 0002:0001c7d8       $unwind$isDupColumn        00000001801057d8     sqlite.obj
 0002:0001c7f0       $chain$0$recomputeColumnsNotIndexed 00000001801057f0     sqlite.obj
 0002:0001c804       $chain$1$recomputeColumnsNotIndexed 0000000180105804     sqlite.obj
 0002:0001c814       $unwind$convertToWithoutRowidTable 0000000180105814     sqlite.obj
 0002:0001c830       $unwind$sqlite3EndTable    0000000180105830     sqlite.obj
 0002:0001c840       $chain$0$sqlite3EndTable   0000000180105840     sqlite.obj
 0002:0001c854       $chain$2$sqlite3EndTable   0000000180105854     sqlite.obj
 0002:0001c86c       $chain$3$sqlite3EndTable   000000018010586c     sqlite.obj
 0002:0001c86c       $chain$8$sqlite3EndTable   000000018010586c     sqlite.obj
 0002:0001c87c       $chain$4$sqlite3EndTable   000000018010587c     sqlite.obj
 0002:0001c894       $chain$6$sqlite3EndTable   0000000180105894     sqlite.obj
 0002:0001c8ac       $chain$7$sqlite3EndTable   00000001801058ac     sqlite.obj
 0002:0001c8bc       $chain$9$sqlite3EndTable   00000001801058bc     sqlite.obj
 0002:0001c8cc       $unwind$sqlite3CreateView  00000001801058cc     sqlite.obj
 0002:0001c8dc       $chain$0$sqlite3CreateView 00000001801058dc     sqlite.obj
 0002:0001c8f0       $chain$1$sqlite3CreateView 00000001801058f0     sqlite.obj
 0002:0001c904       $chain$3$sqlite3CreateView 0000000180105904     sqlite.obj
 0002:0001c91c       $chain$4$sqlite3CreateView 000000018010591c     sqlite.obj
 0002:0001c930       $chain$5$sqlite3CreateView 0000000180105930     sqlite.obj
 0002:0001c940       $chain$6$sqlite3CreateView 0000000180105940     sqlite.obj
 0002:0001c950       $chain$7$sqlite3CreateView 0000000180105950     sqlite.obj
 0002:0001c960       $chain$8$sqlite3CreateView 0000000180105960     sqlite.obj
 0002:0001c970       $unwind$viewGetColumnNames 0000000180105970     sqlite.obj
 0002:0001c984       $chain$0$viewGetColumnNames 0000000180105984     sqlite.obj
 0002:0001c998       $unwind$sqliteViewResetAll 0000000180105998     sqlite.obj
 0002:0001c9a4       $chain$0$sqliteViewResetAll 00000001801059a4     sqlite.obj
 0002:0001c9b8       $chain$5$sqliteViewResetAll 00000001801059b8     sqlite.obj
 0002:0001c9dc       $chain$6$sqliteViewResetAll 00000001801059dc     sqlite.obj
 0002:0001c9ec       $chain$7$sqliteViewResetAll 00000001801059ec     sqlite.obj
 0002:0001c9fc       $unwind$sqlite3ClearStatTables 00000001801059fc     sqlite.obj
 0002:0001ca14       $unwind$tableMayNotBeDropped 0000000180105a14     sqlite.obj
 0002:0001ca24       $unwind$sqlite3DropTable   0000000180105a24     sqlite.obj
 0002:0001ca34       $chain$1$sqlite3DropTable  0000000180105a34     sqlite.obj
 0002:0001ca4c       $chain$2$sqlite3DropTable  0000000180105a4c     sqlite.obj
 0002:0001ca60       $chain$3$sqlite3DropTable  0000000180105a60     sqlite.obj
 0002:0001ca70       $chain$4$sqlite3DropTable  0000000180105a70     sqlite.obj
 0002:0001ca80       $unwind$sqlite3CreateForeignKey 0000000180105a80     sqlite.obj
 0002:0001ca94       $chain$0$sqlite3CreateForeignKey 0000000180105a94     sqlite.obj
 0002:0001caa8       $chain$1$sqlite3CreateForeignKey 0000000180105aa8     sqlite.obj
 0002:0001cab8       $unwind$sqlite3RefillIndex 0000000180105ab8     sqlite.obj
 0002:0001cab8       $unwind$sqlite3TriggerInsertStep 0000000180105ab8     sqlite.obj
 0002:0001cacc       $chain$0$sqlite3RefillIndex 0000000180105acc     sqlite.obj
 0002:0001cae0       $chain$1$sqlite3RefillIndex 0000000180105ae0     sqlite.obj
 0002:0001caf0       $unwind$sqlite3CreateIndex 0000000180105af0     sqlite.obj
 0002:0001cb10       $unwind$sqlite3DropIndex   0000000180105b10     sqlite.obj
 0002:0001cb20       $chain$0$sqlite3DropIndex  0000000180105b20     sqlite.obj
 0002:0001cb34       $chain$3$sqlite3DropIndex  0000000180105b34     sqlite.obj
 0002:0001cb50       $chain$4$sqlite3DropIndex  0000000180105b50     sqlite.obj
 0002:0001cb60       $chain$5$sqlite3DropIndex  0000000180105b60     sqlite.obj
 0002:0001cb70       $unwind$sqlite3IdListDelete 0000000180105b70     sqlite.obj
 0002:0001cb7c       $chain$0$sqlite3IdListDelete 0000000180105b7c     sqlite.obj
 0002:0001cb90       $chain$1$sqlite3IdListDelete 0000000180105b90     sqlite.obj
 0002:0001cba4       $chain$2$sqlite3IdListDelete 0000000180105ba4     sqlite.obj
 0002:0001cbb4       $chain$3$sqlite3IdListDelete 0000000180105bb4     sqlite.obj
 0002:0001cbc4       $unwind$sqlite3ColumnIndex 0000000180105bc4     sqlite.obj
 0002:0001cbc4       $unwind$sqlite3IdListIndex 0000000180105bc4     sqlite.obj
 0002:0001cbd8       $chain$0$sqlite3SrcListEnlarge 0000000180105bd8     sqlite.obj
 0002:0001cbec       $chain$1$sqlite3SrcListEnlarge 0000000180105bec     sqlite.obj
 0002:0001cbfc       $unwind$sqlite3SrcListAppend 0000000180105bfc     sqlite.obj
 0002:0001cc10       $chain$0$sqlite3SrcListAppend 0000000180105c10     sqlite.obj
 0002:0001cc24       $chain$1$sqlite3SrcListAppend 0000000180105c24     sqlite.obj
 0002:0001cc34       $chain$2$sqlite3SrcListAppend 0000000180105c34     sqlite.obj
 0002:0001cc48       $unwind$sqlite3SrcListAssignCursors 0000000180105c48     sqlite.obj
 0002:0001cc54       $chain$0$sqlite3SrcListAssignCursors 0000000180105c54     sqlite.obj
 0002:0001cc68       $chain$1$sqlite3SrcListAssignCursors 0000000180105c68     sqlite.obj
 0002:0001cc7c       $chain$2$sqlite3SrcListAssignCursors 0000000180105c7c     sqlite.obj
 0002:0001cc8c       $chain$3$sqlite3SrcListAssignCursors 0000000180105c8c     sqlite.obj
 0002:0001cc9c       $unwind$sqlite3SrcListDelete 0000000180105c9c     sqlite.obj
 0002:0001cca8       $chain$0$sqlite3SrcListDelete 0000000180105ca8     sqlite.obj
 0002:0001ccbc       $chain$1$sqlite3SrcListDelete 0000000180105cbc     sqlite.obj
 0002:0001ccd0       $chain$2$sqlite3SrcListDelete 0000000180105cd0     sqlite.obj
 0002:0001cce0       $chain$3$sqlite3SrcListDelete 0000000180105ce0     sqlite.obj
 0002:0001ccf0       $unwind$sqlite3SrcListAppendFromTerm 0000000180105cf0     sqlite.obj
 0002:0001cd04       $chain$1$sqlite3SrcListAppendFromTerm 0000000180105d04     sqlite.obj
 0002:0001cd1c       $chain$2$sqlite3SrcListAppendFromTerm 0000000180105d1c     sqlite.obj
 0002:0001cd1c       $chain$5$sqlite3SrcListAppendFromTerm 0000000180105d1c     sqlite.obj
 0002:0001cd30       $chain$3$sqlite3SrcListAppendFromTerm 0000000180105d30     sqlite.obj
 0002:0001cd40       $chain$4$sqlite3SrcListAppendFromTerm 0000000180105d40     sqlite.obj
 0002:0001cd58       $chain$0$sqlite3SrcListIndexedBy 0000000180105d58     sqlite.obj
 0002:0001cd6c       $chain$2$sqlite3SrcListIndexedBy 0000000180105d6c     sqlite.obj
 0002:0001cd80       $chain$3$sqlite3SrcListIndexedBy 0000000180105d80     sqlite.obj
 0002:0001cd90       $unwind$sqlite3SrcListAppendList 0000000180105d90     sqlite.obj
 0002:0001cda0       $chain$0$sqlite3SrcListAppendList 0000000180105da0     sqlite.obj
 0002:0001cdb4       $chain$2$sqlite3SrcListAppendList 0000000180105db4     sqlite.obj
 0002:0001cdc8       $chain$3$sqlite3SrcListAppendList 0000000180105dc8     sqlite.obj
 0002:0001cdd8       $unwind$sqlite3BeginTransaction 0000000180105dd8     sqlite.obj
 0002:0001cde8       $chain$0$sqlite3BeginTransaction 0000000180105de8     sqlite.obj
 0002:0001cdfc       $chain$1$sqlite3BeginTransaction 0000000180105dfc     sqlite.obj
 0002:0001ce10       $chain$2$sqlite3BeginTransaction 0000000180105e10     sqlite.obj
 0002:0001ce20       $chain$3$sqlite3BeginTransaction 0000000180105e20     sqlite.obj
 0002:0001ce30       $unwind$sqlite3Savepoint   0000000180105e30     sqlite.obj
 0002:0001ce40       $chain$1$sqlite3Savepoint  0000000180105e40     sqlite.obj
 0002:0001ce58       $chain$2$sqlite3Savepoint  0000000180105e58     sqlite.obj
 0002:0001ce68       $chain$1$sqlite3CodeVerifyNamedSchema 0000000180105e68     sqlite.obj
 0002:0001ce80       $chain$2$sqlite3CodeVerifyNamedSchema 0000000180105e80     sqlite.obj
 0002:0001ce90       $chain$3$sqlite3CodeVerifyNamedSchema 0000000180105e90     sqlite.obj
 0002:0001cea8       $unwind$sqlite3UniqueConstraint 0000000180105ea8     sqlite.obj
 0002:0001cebc       $chain$1$sqlite3UniqueConstraint 0000000180105ebc     sqlite.obj
 0002:0001ced4       $chain$2$sqlite3UniqueConstraint 0000000180105ed4     sqlite.obj
 0002:0001cee4       $unwind$reindexTable       0000000180105ee4     sqlite.obj
 0002:0001cef0       $chain$0$reindexTable      0000000180105ef0     sqlite.obj
 0002:0001cf04       $chain$4$reindexTable      0000000180105f04     sqlite.obj
 0002:0001cf24       $chain$5$reindexTable      0000000180105f24     sqlite.obj
 0002:0001cf34       $chain$6$reindexTable      0000000180105f34     sqlite.obj
 0002:0001cf44       $chain$7$reindexTable      0000000180105f44     sqlite.obj
 0002:0001cf68       $unwind$reindexDatabases   0000000180105f68     sqlite.obj
 0002:0001cf74       $chain$4$reindexDatabases  0000000180105f74     sqlite.obj
 0002:0001cf98       $chain$5$reindexDatabases  0000000180105f98     sqlite.obj
 0002:0001cfa8       $chain$6$reindexDatabases  0000000180105fa8     sqlite.obj
 0002:0001cfcc       $unwind$sqlite3Reindex     0000000180105fcc     sqlite.obj
 0002:0001cfdc       $chain$1$sqlite3Reindex    0000000180105fdc     sqlite.obj
 0002:0001cff4       $chain$2$sqlite3Reindex    0000000180105ff4     sqlite.obj
 0002:0001d004       $unwind$sqlite3KeyInfoOfIndex 0000000180106004     sqlite.obj
 0002:0001d018       $chain$2$sqlite3KeyInfoOfIndex 0000000180106018     sqlite.obj
 0002:0001d02c       $chain$3$sqlite3KeyInfoOfIndex 000000018010602c     sqlite.obj
 0002:0001d040       $chain$4$sqlite3KeyInfoOfIndex 0000000180106040     sqlite.obj
 0002:0001d050       $chain$5$sqlite3KeyInfoOfIndex 0000000180106050     sqlite.obj
 0002:0001d060       $unwind$sqlite3WithAdd     0000000180106060     sqlite.obj
 0002:0001d074       $chain$1$sqlite3WithAdd    0000000180106074     sqlite.obj
 0002:0001d088       $chain$3$sqlite3WithAdd    0000000180106088     sqlite.obj
 0002:0001d0a0       $chain$5$sqlite3WithAdd    00000001801060a0     sqlite.obj
 0002:0001d0b8       $chain$6$sqlite3WithAdd    00000001801060b8     sqlite.obj
 0002:0001d0c8       $chain$7$sqlite3WithAdd    00000001801060c8     sqlite.obj
 0002:0001d0d8       $unwind$sqlite3WithDelete  00000001801060d8     sqlite.obj
 0002:0001d0d8       $unwind$sqlite3WithDeleteGeneric 00000001801060d8     sqlite.obj
 0002:0001d0e4       $chain$0$sqlite3WithDelete 00000001801060e4     sqlite.obj
 0002:0001d0e4       $chain$0$sqlite3WithDeleteGeneric 00000001801060e4     sqlite.obj
 0002:0001d0f8       $chain$1$sqlite3WithDelete 00000001801060f8     sqlite.obj
 0002:0001d0f8       $chain$1$sqlite3WithDeleteGeneric 00000001801060f8     sqlite.obj
 0002:0001d10c       $chain$2$sqlite3WithDelete 000000018010610c     sqlite.obj
 0002:0001d10c       $chain$2$sqlite3WithDeleteGeneric 000000018010610c     sqlite.obj
 0002:0001d11c       $chain$3$sqlite3WithDelete 000000018010611c     sqlite.obj
 0002:0001d11c       $chain$3$sqlite3WithDeleteGeneric 000000018010611c     sqlite.obj
 0002:0001d12c       $unwind$sqlite3FindCollSeq 000000018010612c     sqlite.obj
 0002:0001d13c       $chain$2$sqlite3FindCollSeq 000000018010613c     sqlite.obj
 0002:0001d158       $chain$4$sqlite3FindCollSeq 0000000180106158     sqlite.obj
 0002:0001d174       $chain$5$sqlite3FindCollSeq 0000000180106174     sqlite.obj
 0002:0001d184       $unwind$pragmaVtabBestIndex 0000000180106184     sqlite.obj
 0002:0001d184       $unwind$sqlite3FunctionSearch 0000000180106184     sqlite.obj
 0002:0001d18c       $unwind$sqlite3InsertBuiltinFuncs 000000018010618c     sqlite.obj
 0002:0001d194       $chain$4$sqlite3InsertBuiltinFuncs 0000000180106194     sqlite.obj
 0002:0001d1b8       $chain$5$sqlite3InsertBuiltinFuncs 00000001801061b8     sqlite.obj
 0002:0001d1c8       $unwind$sqlite3FindFunction 00000001801061c8     sqlite.obj
 0002:0001d1e0       $unwind$sqlite3SchemaClear 00000001801061e0     sqlite.obj
 0002:0001d1f4       $chain$0$sqlite3SchemaClear 00000001801061f4     sqlite.obj
 0002:0001d208       $chain$2$sqlite3SchemaClear 0000000180106208     sqlite.obj
 0002:0001d220       $chain$3$sqlite3SchemaClear 0000000180106220     sqlite.obj
 0002:0001d234       $chain$4$sqlite3SchemaClear 0000000180106234     sqlite.obj
 0002:0001d244       $chain$5$sqlite3SchemaClear 0000000180106244     sqlite.obj
 0002:0001d258       $chain$6$sqlite3SchemaClear 0000000180106258     sqlite.obj
 0002:0001d268       $chain$0$sqlite3SchemaGet  0000000180106268     sqlite.obj
 0002:0001d27c       $chain$1$sqlite3SchemaGet  000000018010627c     sqlite.obj
 0002:0001d28c       $unwind$sqlite3CodeChangeCount 000000018010628c     sqlite.obj
 0002:0001d29c       $chain$0$sqlite3CodeChangeCount 000000018010629c     sqlite.obj
 0002:0001d2b0       $chain$1$sqlite3CodeChangeCount 00000001801062b0     sqlite.obj
 0002:0001d2c0       $unwind$sqlite3MaterializeView 00000001801062c0     sqlite.obj
 0002:0001d2cc       $chain$4$sqlite3MaterializeView 00000001801062cc     sqlite.obj
 0002:0001d2f0       $chain$5$sqlite3MaterializeView 00000001801062f0     sqlite.obj
 0002:0001d304       $chain$6$sqlite3MaterializeView 0000000180106304     sqlite.obj
 0002:0001d314       $chain$7$sqlite3MaterializeView 0000000180106314     sqlite.obj
 0002:0001d324       $unwind$sqlite3DeleteFrom  0000000180106324     sqlite.obj
 0002:0001d330       $chain$2$sqlite3DeleteFrom 0000000180106330     sqlite.obj
 0002:0001d34c       $chain$3$sqlite3DeleteFrom 000000018010634c     sqlite.obj
 0002:0001d360       $chain$5$sqlite3DeleteFrom 0000000180106360     sqlite.obj
 0002:0001d378       $chain$6$sqlite3DeleteFrom 0000000180106378     sqlite.obj
 0002:0001d388       $chain$7$sqlite3DeleteFrom 0000000180106388     sqlite.obj
 0002:0001d398       $chain$8$sqlite3DeleteFrom 0000000180106398     sqlite.obj
 0002:0001d3a8       $unwind$sqlite3GenerateRowDelete 00000001801063a8     sqlite.obj
 0002:0001d3c0       $unwind$sqlite3GenerateRowIndexDelete 00000001801063c0     sqlite.obj
 0002:0001d3d4       $chain$1$sqlite3GenerateRowIndexDelete 00000001801063d4     sqlite.obj
 0002:0001d3ec       $chain$2$sqlite3GenerateRowIndexDelete 00000001801063ec     sqlite.obj
 0002:0001d3fc       $unwind$sqlite3GenerateIndexKey 00000001801063fc     sqlite.obj
 0002:0001d408       $chain$4$sqlite3GenerateIndexKey 0000000180106408     sqlite.obj
 0002:0001d42c       $chain$5$sqlite3GenerateIndexKey 000000018010642c     sqlite.obj
 0002:0001d440       $chain$6$sqlite3GenerateIndexKey 0000000180106440     sqlite.obj
 0002:0001d450       $unwind$minmaxFunc         0000000180106450     sqlite.obj
 0002:0001d460       $chain$2$minmaxFunc        0000000180106460     sqlite.obj
 0002:0001d47c       $chain$3$minmaxFunc        000000018010647c     sqlite.obj
 0002:0001d48c       $chain$0$bytelengthFunc    000000018010648c     sqlite.obj
 0002:0001d4a0       $chain$1$bytelengthFunc    00000001801064a0     sqlite.obj
 0002:0001d4b0       $chain$0$absFunc           00000001801064b0     sqlite.obj
 0002:0001d4c4       $chain$1$absFunc           00000001801064c4     sqlite.obj
 0002:0001d4d8       $chain$2$absFunc           00000001801064d8     sqlite.obj
 0002:0001d4e8       $chain$3$absFunc           00000001801064e8     sqlite.obj
 0002:0001d4f8       $unwind$instrFunc          00000001801064f8     sqlite.obj
 0002:0001d50c       $chain$1$instrFunc         000000018010650c     sqlite.obj
 0002:0001d524       $chain$2$instrFunc         0000000180106524     sqlite.obj
 0002:0001d534       $unwind$printfFunc         0000000180106534     sqlite.obj
 0002:0001d548       $unwind$substrFunc         0000000180106548     sqlite.obj
 0002:0001d558       $chain$3$substrFunc        0000000180106558     sqlite.obj
 0002:0001d578       $chain$4$substrFunc        0000000180106578     sqlite.obj
 0002:0001d588       $chain$0$roundFunc         0000000180106588     sqlite.obj
 0002:0001d59c       $chain$1$roundFunc         000000018010659c     sqlite.obj
 0002:0001d5ac       $unwind$contextMalloc      00000001801065ac     sqlite.obj
 0002:0001d5b8       $unwind$patternCompare     00000001801065b8     sqlite.obj
 0002:0001d5d0       $unwind$likeFunc           00000001801065d0     sqlite.obj
 0002:0001d5e8       $unwind$sqlite3QuoteValue  00000001801065e8     sqlite.obj
 0002:0001d5f4       $chain$0$sqlite3QuoteValue 00000001801065f4     sqlite.obj
 0002:0001d608       $chain$2$sqlite3QuoteValue 0000000180106608     sqlite.obj
 0002:0001d608       $chain$8$sqlite3QuoteValue 0000000180106608     sqlite.obj
 0002:0001d61c       $chain$6$sqlite3QuoteValue 000000018010661c     sqlite.obj
 0002:0001d638       $chain$10$sqlite3QuoteValue 0000000180106638     sqlite.obj
 0002:0001d64c       $chain$9$sqlite3QuoteValue 000000018010664c     sqlite.obj
 0002:0001d65c       $unwind$charFunc           000000018010665c     sqlite.obj
 0002:0001d66c       $chain$0$charFunc          000000018010666c     sqlite.obj
 0002:0001d680       $chain$2$charFunc          0000000180106680     sqlite.obj
 0002:0001d698       $chain$3$charFunc          0000000180106698     sqlite.obj
 0002:0001d6a8       $chain$4$charFunc          00000001801066a8     sqlite.obj
 0002:0001d6b8       $unwind$hexFunc            00000001801066b8     sqlite.obj
 0002:0001d6b8       $unwind$??$copy_environment@D@@YAPEAPEADQEAPEAD@Z 00000001801066b8     libucrt:setenv.obj
 0002:0001d6cc       $chain$2$unhexFunc         00000001801066cc     sqlite.obj
 0002:0001d6e8       $chain$3$unhexFunc         00000001801066e8     sqlite.obj
 0002:0001d700       $chain$4$unhexFunc         0000000180106700     sqlite.obj
 0002:0001d714       $unwind$replaceFunc        0000000180106714     sqlite.obj
 0002:0001d720       $chain$1$replaceFunc       0000000180106720     sqlite.obj
 0002:0001d738       $chain$4$replaceFunc       0000000180106738     sqlite.obj
 0002:0001d754       $chain$5$replaceFunc       0000000180106754     sqlite.obj
 0002:0001d768       $chain$6$replaceFunc       0000000180106768     sqlite.obj
 0002:0001d778       $chain$7$replaceFunc       0000000180106778     sqlite.obj
 0002:0001d788       $chain$8$replaceFunc       0000000180106788     sqlite.obj
 0002:0001d798       $chain$9$replaceFunc       0000000180106798     sqlite.obj
 0002:0001d7c0       $unwind$trimFunc           00000001801067c0     sqlite.obj
 0002:0001d7cc       $chain$1$trimFunc          00000001801067cc     sqlite.obj
 0002:0001d7e4       $chain$4$trimFunc          00000001801067e4     sqlite.obj
 0002:0001d800       $chain$5$trimFunc          0000000180106800     sqlite.obj
 0002:0001d814       $chain$6$trimFunc          0000000180106814     sqlite.obj
 0002:0001d824       $chain$7$trimFunc          0000000180106824     sqlite.obj
 0002:0001d834       $chain$8$trimFunc          0000000180106834     sqlite.obj
 0002:0001d844       $unwind$concatFuncCore     0000000180106844     sqlite.obj
 0002:0001d858       $chain$0$concatFuncCore    0000000180106858     sqlite.obj
 0002:0001d86c       $chain$1$concatFuncCore    000000018010686c     sqlite.obj
 0002:0001d87c       $unwind$totalFinalize      000000018010687c     sqlite.obj
 0002:0001d888       $unwind$minmaxStep         0000000180106888     sqlite.obj
 0002:0001d898       $chain$0$minmaxStep        0000000180106898     sqlite.obj
 0002:0001d8ac       $chain$1$minmaxStep        00000001801068ac     sqlite.obj
 0002:0001d8bc       $unwind$groupConcatStep    00000001801068bc     sqlite.obj
 0002:0001d8c8       $chain$0$groupConcatStep   00000001801068c8     sqlite.obj
 0002:0001d8dc       $chain$1$groupConcatStep   00000001801068dc     sqlite.obj
 0002:0001d8f0       $chain$2$groupConcatStep   00000001801068f0     sqlite.obj
 0002:0001d904       $chain$3$groupConcatStep   0000000180106904     sqlite.obj
 0002:0001d918       $chain$4$groupConcatStep   0000000180106918     sqlite.obj
 0002:0001d928       $chain$5$groupConcatStep   0000000180106928     sqlite.obj
 0002:0001d938       $chain$6$groupConcatStep   0000000180106938     sqlite.obj
 0002:0001d948       $chain$7$groupConcatStep   0000000180106948     sqlite.obj
 0002:0001d958       $chain$0$groupConcatInverse 0000000180106958     sqlite.obj
 0002:0001d96c       $chain$1$groupConcatInverse 000000018010696c     sqlite.obj
 0002:0001d97c       $unwind$sqlite3FkLocateIndex 000000018010697c     sqlite.obj
 0002:0001d994       $unwind$fkLookupParent     0000000180106994     sqlite.obj
 0002:0001d9ac       $unwind$exprTableRegister  00000001801069ac     sqlite.obj
 0002:0001d9c4       $chain$0$exprTableRegister 00000001801069c4     sqlite.obj
 0002:0001d9d8       $chain$1$exprTableRegister 00000001801069d8     sqlite.obj
 0002:0001d9e8       $unwind$fkScanChildren     00000001801069e8     sqlite.obj
 0002:0001d9f4       $chain$0$fkScanChildren    00000001801069f4     sqlite.obj
 0002:0001da08       $chain$4$fkScanChildren    0000000180106a08     sqlite.obj
 0002:0001da28       $chain$6$fkScanChildren    0000000180106a28     sqlite.obj
 0002:0001da40       $chain$7$fkScanChildren    0000000180106a40     sqlite.obj
 0002:0001da40       $chain$9$fkScanChildren    0000000180106a40     sqlite.obj
 0002:0001da54       $chain$8$fkScanChildren    0000000180106a54     sqlite.obj
 0002:0001da6c       $chain$10$fkScanChildren   0000000180106a6c     sqlite.obj
 0002:0001da80       $chain$11$fkScanChildren   0000000180106a80     sqlite.obj
 0002:0001da90       $unwind$fkTriggerDelete    0000000180106a90     sqlite.obj
 0002:0001da9c       $chain$0$fkTriggerDelete   0000000180106a9c     sqlite.obj
 0002:0001dab0       $chain$1$fkTriggerDelete   0000000180106ab0     sqlite.obj
 0002:0001dac0       $chain$3$sqlite3FkClearTriggerCache 0000000180106ac0     sqlite.obj
 0002:0001dae0       $chain$4$sqlite3FkClearTriggerCache 0000000180106ae0     sqlite.obj
 0002:0001daf0       $unwind$sqlite3FkDropTable 0000000180106af0     sqlite.obj
 0002:0001db00       $chain$2$sqlite3FkDropTable 0000000180106b00     sqlite.obj
 0002:0001db1c       $chain$3$sqlite3FkDropTable 0000000180106b1c     sqlite.obj
 0002:0001db2c       $unwind$fkParentIsModified 0000000180106b2c     sqlite.obj
 0002:0001db48       $unwind$sqlite3FkCheck     0000000180106b48     sqlite.obj
 0002:0001db58       $chain$3$sqlite3FkCheck    0000000180106b58     sqlite.obj
 0002:0001db78       $chain$4$sqlite3FkCheck    0000000180106b78     sqlite.obj
 0002:0001db88       $unwind$sqlite3FkOldmask   0000000180106b88     sqlite.obj
 0002:0001db98       $chain$0$sqlite3FkOldmask  0000000180106b98     sqlite.obj
 0002:0001dbac       $chain$1$sqlite3FkOldmask  0000000180106bac     sqlite.obj
 0002:0001dbbc       $unwind$fkActionTrigger    0000000180106bbc     sqlite.obj
 0002:0001dbd4       $unwind$sqlite3FkActions   0000000180106bd4     sqlite.obj
 0002:0001dbe4       $chain$0$sqlite3FkActions  0000000180106be4     sqlite.obj
 0002:0001dbf8       $chain$3$sqlite3FkActions  0000000180106bf8     sqlite.obj
 0002:0001dc14       $chain$4$sqlite3FkActions  0000000180106c14     sqlite.obj
 0002:0001dc24       $chain$5$sqlite3FkActions  0000000180106c24     sqlite.obj
 0002:0001dc34       $unwind$computeIndexAffStr 0000000180106c34     sqlite.obj
 0002:0001dc34       $unwind$sqlite3FkDelete    0000000180106c34     sqlite.obj
 0002:0001dc44       $chain$1$sqlite3FkDelete   0000000180106c44     sqlite.obj
 0002:0001dc5c       $chain$2$sqlite3FkDelete   0000000180106c5c     sqlite.obj
 0002:0001dc6c       $chain$1$computeIndexAffStr 0000000180106c6c     sqlite.obj
 0002:0001dc84       $chain$2$computeIndexAffStr 0000000180106c84     sqlite.obj
 0002:0001dc94       $unwind$sqlite3TableAffinity 0000000180106c94     sqlite.obj
 0002:0001dca4       $chain$0$sqlite3TableAffinity 0000000180106ca4     sqlite.obj
 0002:0001dcb8       $chain$1$sqlite3TableAffinity 0000000180106cb8     sqlite.obj
 0002:0001dcc8       $unwind$sqlite3AutoincrementBegin 0000000180106cc8     sqlite.obj
 0002:0001dcd8       $chain$3$sqlite3AutoincrementBegin 0000000180106cd8     sqlite.obj
 0002:0001dcf8       $chain$4$sqlite3AutoincrementBegin 0000000180106cf8     sqlite.obj
 0002:0001dd08       $unwind$autoIncrementEnd   0000000180106d08     sqlite.obj
 0002:0001dd18       $chain$3$autoIncrementEnd  0000000180106d18     sqlite.obj
 0002:0001dd38       $chain$4$autoIncrementEnd  0000000180106d38     sqlite.obj
 0002:0001dd48       $unwind$sqlite3Insert      0000000180106d48     sqlite.obj
 0002:0001dd48       $unwind$sqlite3WhereCodeOneLoopStart 0000000180106d48     sqlite.obj
 0002:0001dd60       $unwind$sqlite3GenerateConstraintChecks 0000000180106d60     sqlite.obj
 0002:0001dd78       $chain$0$sqlite3GenerateConstraintChecks 0000000180106d78     sqlite.obj
 0002:0001dd8c       $unwind$sqlite3CompleteInsertion 0000000180106d8c     sqlite.obj
 0002:0001dda4       $unwind$sqlite3OpenTableAndIndices 0000000180106da4     sqlite.obj
 0002:0001ddb0       $chain$4$sqlite3OpenTableAndIndices 0000000180106db0     sqlite.obj
 0002:0001ddd4       $chain$5$sqlite3OpenTableAndIndices 0000000180106dd4     sqlite.obj
 0002:0001dde8       $chain$6$sqlite3OpenTableAndIndices 0000000180106de8     sqlite.obj
 0002:0001ddf8       $chain$7$sqlite3OpenTableAndIndices 0000000180106df8     sqlite.obj
 0002:0001de0c       $unwind$xferOptimization   0000000180106e0c     sqlite.obj
 0002:0001de28       $unwind$sqlite3_exec       0000000180106e28     sqlite.obj
 0002:0001de34       $chain$2$sqlite3_exec      0000000180106e34     sqlite.obj
 0002:0001de50       $chain$4$sqlite3_exec      0000000180106e50     sqlite.obj
 0002:0001de68       $chain$5$sqlite3_exec      0000000180106e68     sqlite.obj
 0002:0001de7c       $chain$6$sqlite3_exec      0000000180106e7c     sqlite.obj
 0002:0001de90       $chain$8$sqlite3_exec      0000000180106e90     sqlite.obj
 0002:0001deb0       $unwind$sqlite3LoadExtension 0000000180106eb0     sqlite.obj
 0002:0001dec8       $chain$2$sqlite3_auto_extension 0000000180106ec8     sqlite.obj
 0002:0001dee4       $chain$3$sqlite3_auto_extension 0000000180106ee4     sqlite.obj
 0002:0001def8       $chain$4$sqlite3_auto_extension 0000000180106ef8     sqlite.obj
 0002:0001df08       $chain$0$sqlite3_reset_auto_extension 0000000180106f08     sqlite.obj
 0002:0001df1c       $chain$1$sqlite3_reset_auto_extension 0000000180106f1c     sqlite.obj
 0002:0001df30       $chain$2$sqlite3_reset_auto_extension 0000000180106f30     sqlite.obj
 0002:0001df40       $chain$4$sqlite3_reset_auto_extension 0000000180106f40     sqlite.obj
 0002:0001df54       $chain$5$sqlite3_reset_auto_extension 0000000180106f54     sqlite.obj
 0002:0001df64       $chain$0$getSafetyLevel    0000000180106f64     sqlite.obj
 0002:0001df78       $chain$1$getSafetyLevel    0000000180106f78     sqlite.obj
 0002:0001df88       $chain$2$getSafetyLevel    0000000180106f88     sqlite.obj
 0002:0001df9c       $unwind$setPragmaResultColumnNames 0000000180106f9c     sqlite.obj
 0002:0001dfac       $chain$0$setPragmaResultColumnNames 0000000180106fac     sqlite.obj
 0002:0001dfc0       $chain$1$setPragmaResultColumnNames 0000000180106fc0     sqlite.obj
 0002:0001dfd4       $chain$2$setPragmaResultColumnNames 0000000180106fd4     sqlite.obj
 0002:0001dfe4       $chain$3$setPragmaResultColumnNames 0000000180106fe4     sqlite.obj
 0002:0001dff4       $unwind$returnSingleText   0000000180106ff4     sqlite.obj
 0002:0001dffc       $unwind$setAllPagerFlags   0000000180106ffc     sqlite.obj
 0002:0001e004       $chain$1$setAllPagerFlags  0000000180107004     sqlite.obj
 0002:0001e01c       $chain$4$setAllPagerFlags  000000018010701c     sqlite.obj
 0002:0001e038       $chain$5$setAllPagerFlags  0000000180107038     sqlite.obj
 0002:0001e048       $chain$6$setAllPagerFlags  0000000180107048     sqlite.obj
 0002:0001e058       $unwind$pragmaLocate       0000000180107058     sqlite.obj
 0002:0001e070       $unwind$pragmaFunclistLine 0000000180107070     sqlite.obj
 0002:0001e084       $chain$1$pragmaFunclistLine 0000000180107084     sqlite.obj
 0002:0001e09c       $chain$2$pragmaFunclistLine 000000018010709c     sqlite.obj
 0002:0001e0ac       $unwind$sqlite3Pragma      00000001801070ac     sqlite.obj
 0002:0001e0c8       $chain$1$sqlite3Pragma     00000001801070c8     sqlite.obj
 0002:0001e0e0       $chain$2$sqlite3Pragma     00000001801070e0     sqlite.obj
 0002:0001e0f0       $unwind$pragmaVtabConnect  00000001801070f0     sqlite.obj
 0002:0001e114       $chain$0$pragmaVtabNext    0000000180107114     sqlite.obj
 0002:0001e128       $chain$1$pragmaVtabNext    0000000180107128     sqlite.obj
 0002:0001e138       $unwind$pragmaVtabFilter   0000000180107138     sqlite.obj
 0002:0001e154       $unwind$sqlite3InitCallback 0000000180107154     sqlite.obj
 0002:0001e164       $chain$0$sqlite3InitCallback 0000000180107164     sqlite.obj
 0002:0001e178       $chain$1$sqlite3InitCallback 0000000180107178     sqlite.obj
 0002:0001e188       $unwind$sqlite3InitOne     0000000180107188     sqlite.obj
 0002:0001e1a8       $unwind$fixDistinctOpenEph 00000001801071a8     sqlite.obj
 0002:0001e1a8       $unwind$sqlite3Init        00000001801071a8     sqlite.obj
 0002:0001e1b8       $chain$1$sqlite3Init       00000001801071b8     sqlite.obj
 0002:0001e1d0       $chain$2$sqlite3Init       00000001801071d0     sqlite.obj
 0002:0001e1e0       $unwind$schemaIsValid      00000001801071e0     sqlite.obj
 0002:0001e1ec       $chain$3$schemaIsValid     00000001801071ec     sqlite.obj
 0002:0001e20c       $chain$4$schemaIsValid     000000018010720c     sqlite.obj
 0002:0001e21c       $unwind$sqlite3Prepare     000000018010721c     sqlite.obj
 0002:0001e23c       $unwind$sqlite3LockAndPrepare 000000018010723c     sqlite.obj
 0002:0001e250       $chain$1$sqlite3LockAndPrepare 0000000180107250     sqlite.obj
 0002:0001e268       $chain$2$sqlite3LockAndPrepare 0000000180107268     sqlite.obj
 0002:0001e27c       $chain$3$sqlite3LockAndPrepare 000000018010727c     sqlite.obj
 0002:0001e28c       $unwind$sqlite3Reprepare   000000018010728c     sqlite.obj
 0002:0001e2a0       $unwind$sqlite3Prepare16   00000001801072a0     sqlite.obj
 0002:0001e2b8       $unwind$clearSelect        00000001801072b8     sqlite.obj
 0002:0001e2c4       $chain$4$clearSelect       00000001801072c4     sqlite.obj
 0002:0001e2e8       $chain$5$clearSelect       00000001801072e8     sqlite.obj
 0002:0001e2f8       $unwind$sqlite3SelectNew   00000001801072f8     sqlite.obj
 0002:0001e318       $chain$1$sqlite3SelectNew  0000000180107318     sqlite.obj
 0002:0001e330       $chain$2$sqlite3SelectNew  0000000180107330     sqlite.obj
 0002:0001e340       $unwind$sqlite3JoinType    0000000180107340     sqlite.obj
 0002:0001e360       $unwind$sqlite3SetJoinExpr 0000000180107360     sqlite.obj
 0002:0001e360       $unwind$unsetJoinExpr      0000000180107360     sqlite.obj
 0002:0001e370       $chain$1$sqlite3SetJoinExpr 0000000180107370     sqlite.obj
 0002:0001e388       $chain$2$sqlite3SetJoinExpr 0000000180107388     sqlite.obj
 0002:0001e398       $chain$1$unsetJoinExpr     0000000180107398     sqlite.obj
 0002:0001e3b0       $chain$2$unsetJoinExpr     00000001801073b0     sqlite.obj
 0002:0001e3c0       $unwind$sqlite3ProcessJoin 00000001801073c0     sqlite.obj
 0002:0001e3d8       $unwind$codeDistinct       00000001801073d8     sqlite.obj
 0002:0001e3e8       $chain$0$codeDistinct      00000001801073e8     sqlite.obj
 0002:0001e3fc       $chain$2$codeDistinct      00000001801073fc     sqlite.obj
 0002:0001e410       $chain$3$codeDistinct      0000000180107410     sqlite.obj
 0002:0001e424       $chain$4$codeDistinct      0000000180107424     sqlite.obj
 0002:0001e438       $chain$5$codeDistinct      0000000180107438     sqlite.obj
 0002:0001e448       $chain$6$codeDistinct      0000000180107448     sqlite.obj
 0002:0001e458       $chain$7$codeDistinct      0000000180107458     sqlite.obj
 0002:0001e468       $chain$1$fixDistinctOpenEph 0000000180107468     sqlite.obj
 0002:0001e480       $chain$2$fixDistinctOpenEph 0000000180107480     sqlite.obj
 0002:0001e490       $unwind$generateSortTail   0000000180107490     sqlite.obj
 0002:0001e490       $unwind$selectInnerLoop    0000000180107490     sqlite.obj
 0002:0001e4a8       $chain$1$sqlite3KeyInfoFromExprList 00000001801074a8     sqlite.obj
 0002:0001e4c0       $chain$2$sqlite3KeyInfoFromExprList 00000001801074c0     sqlite.obj
 0002:0001e4d0       $unwind$columnTypeImpl     00000001801074d0     sqlite.obj
 0002:0001e4e8       $unwind$sqlite3GenerateColumnNames 00000001801074e8     sqlite.obj
 0002:0001e4f4       $chain$3$sqlite3GenerateColumnNames 00000001801074f4     sqlite.obj
 0002:0001e514       $chain$4$sqlite3GenerateColumnNames 0000000180107514     sqlite.obj
 0002:0001e528       $chain$5$sqlite3GenerateColumnNames 0000000180107528     sqlite.obj
 0002:0001e53c       $chain$6$sqlite3GenerateColumnNames 000000018010753c     sqlite.obj
 0002:0001e54c       $chain$7$sqlite3GenerateColumnNames 000000018010754c     sqlite.obj
 0002:0001e55c       $chain$8$sqlite3GenerateColumnNames 000000018010755c     sqlite.obj
 0002:0001e56c       $unwind$sqlite3ColumnsFromExprList 000000018010756c     sqlite.obj
 0002:0001e580       $chain$1$sqlite3ColumnsFromExprList 0000000180107580     sqlite.obj
 0002:0001e598       $chain$2$sqlite3ColumnsFromExprList 0000000180107598     sqlite.obj
 0002:0001e598       $chain$4$sqlite3ColumnsFromExprList 0000000180107598     sqlite.obj
 0002:0001e5a8       $chain$3$sqlite3ColumnsFromExprList 00000001801075a8     sqlite.obj
 0002:0001e5c0       $unwind$sqlite3SubqueryColumnTypes 00000001801075c0     sqlite.obj
 0002:0001e5d0       $chain$0$sqlite3SubqueryColumnTypes 00000001801075d0     sqlite.obj
 0002:0001e5e4       $chain$3$sqlite3SubqueryColumnTypes 00000001801075e4     sqlite.obj
 0002:0001e600       $chain$4$sqlite3SubqueryColumnTypes 0000000180107600     sqlite.obj
 0002:0001e610       $chain$5$sqlite3SubqueryColumnTypes 0000000180107610     sqlite.obj
 0002:0001e620       $unwind$computeLimitRegisters 0000000180107620     sqlite.obj
 0002:0001e630       $chain$2$computeLimitRegisters 0000000180107630     sqlite.obj
 0002:0001e64c       $chain$3$computeLimitRegisters 000000018010764c     sqlite.obj
 0002:0001e65c       $unwind$multiSelectOrderByKeyInfo 000000018010765c     sqlite.obj
 0002:0001e66c       $chain$3$multiSelectOrderByKeyInfo 000000018010766c     sqlite.obj
 0002:0001e68c       $chain$4$multiSelectOrderByKeyInfo 000000018010768c     sqlite.obj
 0002:0001e69c       $unwind$generateWithRecursiveQuery 000000018010769c     sqlite.obj
 0002:0001e6b0       $chain$0$generateWithRecursiveQuery 00000001801076b0     sqlite.obj
 0002:0001e6c4       $chain$1$generateWithRecursiveQuery 00000001801076c4     sqlite.obj
 0002:0001e6d8       $chain$2$generateWithRecursiveQuery 00000001801076d8     sqlite.obj
 0002:0001e6e8       $chain$3$generateWithRecursiveQuery 00000001801076e8     sqlite.obj
 0002:0001e6f8       $chain$4$generateWithRecursiveQuery 00000001801076f8     sqlite.obj
 0002:0001e710       $unwind$multiSelect        0000000180107710     sqlite.obj
 0002:0001e72c       $unwind$generateOutputSubroutine 000000018010772c     sqlite.obj
 0002:0001e740       $chain$0$generateOutputSubroutine 0000000180107740     sqlite.obj
 0002:0001e754       $chain$1$generateOutputSubroutine 0000000180107754     sqlite.obj
 0002:0001e764       $unwind$multiSelectOrderBy 0000000180107764     sqlite.obj
 0002:0001e77c       $unwind$substExpr          000000018010777c     sqlite.obj
 0002:0001e798       $chain$4$substExpr         0000000180107798     sqlite.obj
 0002:0001e7ac       $chain$5$substExpr         00000001801077ac     sqlite.obj
 0002:0001e7bc       $unwind$substSelect        00000001801077bc     sqlite.obj
 0002:0001e7c8       $chain$4$substSelect       00000001801077c8     sqlite.obj
 0002:0001e7ec       $chain$5$substSelect       00000001801077ec     sqlite.obj
 0002:0001e7fc       $unwind$srclistRenumberCursors 00000001801077fc     sqlite.obj
 0002:0001e810       $chain$1$srclistRenumberCursors 0000000180107810     sqlite.obj
 0002:0001e828       $chain$2$srclistRenumberCursors 0000000180107828     sqlite.obj
 0002:0001e838       $unwind$flattenSubquery    0000000180107838     sqlite.obj
 0002:0001e854       $unwind$constInsert        0000000180107854     sqlite.obj
 0002:0001e864       $chain$1$constInsert       0000000180107864     sqlite.obj
 0002:0001e87c       $chain$2$constInsert       000000018010787c     sqlite.obj
 0002:0001e88c       $chain$3$constInsert       000000018010788c     sqlite.obj
 0002:0001e8a4       $unwind$findConstInWhere   00000001801078a4     sqlite.obj
 0002:0001e8b0       $chain$4$findConstInWhere  00000001801078b0     sqlite.obj
 0002:0001e8d4       $chain$5$findConstInWhere  00000001801078d4     sqlite.obj
 0002:0001e8e4       $chain$1$propagateConstantExprRewriteOne 00000001801078e4     sqlite.obj
 0002:0001e8fc       $chain$2$propagateConstantExprRewriteOne 00000001801078fc     sqlite.obj
 0002:0001e8fc       $chain$4$propagateConstantExprRewriteOne 00000001801078fc     sqlite.obj
 0002:0001e90c       $chain$3$propagateConstantExprRewriteOne 000000018010790c     sqlite.obj
 0002:0001e924       $unwind$pushDownWhereTerms 0000000180107924     sqlite.obj
 0002:0001e93c       $unwind$convertCompoundSelectToSubquery 000000018010793c     sqlite.obj
 0002:0001e948       $chain$3$convertCompoundSelectToSubquery 0000000180107948     sqlite.obj
 0002:0001e968       $chain$7$convertCompoundSelectToSubquery 0000000180107968     sqlite.obj
 0002:0001e990       $unwind$resolveFromTermToCte 0000000180107990     sqlite.obj
 0002:0001e9a8       $unwind$selectExpander     00000001801079a8     sqlite.obj
 0002:0001e9c0       $chain$2$selectAddSubqueryTypeInfo 00000001801079c0     sqlite.obj
 0002:0001e9dc       $chain$3$selectAddSubqueryTypeInfo 00000001801079dc     sqlite.obj
 0002:0001e9f0       $chain$4$selectAddSubqueryTypeInfo 00000001801079f0     sqlite.obj
 0002:0001ea00       $chain$5$selectAddSubqueryTypeInfo 0000000180107a00     sqlite.obj
 0002:0001ea10       $unwind$sqlite3SelectPrep  0000000180107a10     sqlite.obj
 0002:0001ea20       $chain$1$sqlite3SelectPrep 0000000180107a20     sqlite.obj
 0002:0001ea38       $chain$2$sqlite3SelectPrep 0000000180107a38     sqlite.obj
 0002:0001ea48       $unwind$analyzeAggFuncArgs 0000000180107a48     sqlite.obj
 0002:0001ea58       $chain$3$analyzeAggFuncArgs 0000000180107a58     sqlite.obj
 0002:0001ea78       $chain$4$analyzeAggFuncArgs 0000000180107a78     sqlite.obj
 0002:0001ea88       $unwind$resetAccumulator   0000000180107a88     sqlite.obj
 0002:0001ea94       $chain$2$resetAccumulator  0000000180107a94     sqlite.obj
 0002:0001eab0       $chain$4$resetAccumulator  0000000180107ab0     sqlite.obj
 0002:0001eac8       $chain$5$resetAccumulator  0000000180107ac8     sqlite.obj
 0002:0001ead8       $chain$6$resetAccumulator  0000000180107ad8     sqlite.obj
 0002:0001eae8       $unwind$finalizeAggFunctions 0000000180107ae8     sqlite.obj
 0002:0001eaf8       $chain$2$finalizeAggFunctions 0000000180107af8     sqlite.obj
 0002:0001eb14       $chain$3$finalizeAggFunctions 0000000180107b14     sqlite.obj
 0002:0001eb24       $unwind$updateAccumulator  0000000180107b24     sqlite.obj
 0002:0001eb34       $chain$0$updateAccumulator 0000000180107b34     sqlite.obj
 0002:0001eb48       $chain$1$updateAccumulator 0000000180107b48     sqlite.obj
 0002:0001eb5c       $chain$3$updateAccumulator 0000000180107b5c     sqlite.obj
 0002:0001eb74       $chain$4$updateAccumulator 0000000180107b74     sqlite.obj
 0002:0001eb84       $chain$5$updateAccumulator 0000000180107b84     sqlite.obj
 0002:0001eb94       $chain$6$updateAccumulator 0000000180107b94     sqlite.obj
 0002:0001eba4       $unwind$havingToWhereExprCb 0000000180107ba4     sqlite.obj
 0002:0001ebb0       $chain$2$havingToWhereExprCb 0000000180107bb0     sqlite.obj
 0002:0001ebcc       $chain$5$havingToWhereExprCb 0000000180107bcc     sqlite.obj
 0002:0001ebe8       $chain$6$havingToWhereExprCb 0000000180107be8     sqlite.obj
 0002:0001ebfc       $chain$7$havingToWhereExprCb 0000000180107bfc     sqlite.obj
 0002:0001ec0c       $chain$8$havingToWhereExprCb 0000000180107c0c     sqlite.obj
 0002:0001ec1c       $chain$9$havingToWhereExprCb 0000000180107c1c     sqlite.obj
 0002:0001ec2c       $unwind$isSelfJoinView     0000000180107c2c     sqlite.obj
 0002:0001ec44       $unwind$countOfViewOptimization 0000000180107c44     sqlite.obj
 0002:0001ec54       $chain$2$countOfViewOptimization 0000000180107c54     sqlite.obj
 0002:0001ec70       $chain$3$countOfViewOptimization 0000000180107c70     sqlite.obj
 0002:0001ec70       $chain$5$countOfViewOptimization 0000000180107c70     sqlite.obj
 0002:0001ec80       $chain$4$countOfViewOptimization 0000000180107c80     sqlite.obj
 0002:0001ec9c       $unwind$sqlite3Select      0000000180107c9c     sqlite.obj
 0002:0001ecb8       $chain$1$sqlite3Select     0000000180107cb8     sqlite.obj
 0002:0001ecd0       $chain$2$sqlite3Select     0000000180107cd0     sqlite.obj
 0002:0001ecd0       $chain$4$sqlite3Select     0000000180107cd0     sqlite.obj
 0002:0001ece0       $chain$3$sqlite3Select     0000000180107ce0     sqlite.obj
 0002:0001ecf8       $unwind$sqlite3_get_table_cb 0000000180107cf8     sqlite.obj
 0002:0001ed14       $unwind$sqlite3_get_table  0000000180107d14     sqlite.obj
 0002:0001ed30       $chain$0$sqlite3_free_table 0000000180107d30     sqlite.obj
 0002:0001ed44       $chain$2$sqlite3_free_table 0000000180107d44     sqlite.obj
 0002:0001ed5c       $chain$3$sqlite3_free_table 0000000180107d5c     sqlite.obj
 0002:0001ed6c       $chain$4$sqlite3_free_table 0000000180107d6c     sqlite.obj
 0002:0001ed7c       $unwind$sqlite3DeleteTriggerStep 0000000180107d7c     sqlite.obj
 0002:0001ed88       $chain$1$sqlite3DeleteTriggerStep 0000000180107d88     sqlite.obj
 0002:0001eda0       $chain$2$sqlite3DeleteTriggerStep 0000000180107da0     sqlite.obj
 0002:0001edb0       $unwind$sqlite3TriggerList 0000000180107db0     sqlite.obj
 0002:0001edbc       $chain$1$sqlite3TriggerList 0000000180107dbc     sqlite.obj
 0002:0001edd4       $chain$2$sqlite3TriggerList 0000000180107dd4     sqlite.obj
 0002:0001ede4       $chain$3$sqlite3TriggerList 0000000180107de4     sqlite.obj
 0002:0001edfc       $unwind$sqlite3BeginTrigger 0000000180107dfc     sqlite.obj
 0002:0001ee14       $chain$4$sqlite3BeginTrigger 0000000180107e14     sqlite.obj
 0002:0001ee38       $chain$5$sqlite3BeginTrigger 0000000180107e38     sqlite.obj
 0002:0001ee4c       $chain$6$sqlite3BeginTrigger 0000000180107e4c     sqlite.obj
 0002:0001ee5c       $unwind$sqlite3FinishTrigger 0000000180107e5c     sqlite.obj
 0002:0001ee78       $unwind$triggerStepAllocate 0000000180107e78     sqlite.obj
 0002:0001ee90       $chain$2$triggerStepAllocate 0000000180107e90     sqlite.obj
 0002:0001eea4       $chain$3$triggerStepAllocate 0000000180107ea4     sqlite.obj
 0002:0001eeb4       $chain$0$sqlite3TriggerInsertStep 0000000180107eb4     sqlite.obj
 0002:0001eec8       $chain$1$sqlite3TriggerInsertStep 0000000180107ec8     sqlite.obj
 0002:0001eed8       $unwind$sqlite3TriggerUpdateStep 0000000180107ed8     sqlite.obj
 0002:0001eee8       $chain$0$sqlite3TriggerUpdateStep 0000000180107ee8     sqlite.obj
 0002:0001eefc       $chain$1$sqlite3TriggerUpdateStep 0000000180107efc     sqlite.obj
 0002:0001ef10       $chain$2$sqlite3TriggerUpdateStep 0000000180107f10     sqlite.obj
 0002:0001ef24       $chain$3$sqlite3TriggerUpdateStep 0000000180107f24     sqlite.obj
 0002:0001ef34       $chain$4$sqlite3TriggerUpdateStep 0000000180107f34     sqlite.obj
 0002:0001ef44       $chain$5$sqlite3TriggerUpdateStep 0000000180107f44     sqlite.obj
 0002:0001ef54       $unwind$sqlite3DropTrigger 0000000180107f54     sqlite.obj
 0002:0001ef64       $chain$2$sqlite3DropTrigger 0000000180107f64     sqlite.obj
 0002:0001ef80       $chain$3$sqlite3DropTrigger 0000000180107f80     sqlite.obj
 0002:0001ef90       $chain$4$sqlite3DropTrigger 0000000180107f90     sqlite.obj
 0002:0001efac       $unwind$sqlite3DropTriggerPtr 0000000180107fac     sqlite.obj
 0002:0001efc8       $unwind$checkColumnOverlap 0000000180107fc8     sqlite.obj
 0002:0001efe0       $unwind$triggersReallyExist 0000000180107fe0     sqlite.obj
 0002:0001efec       $chain$3$triggersReallyExist 0000000180107fec     sqlite.obj
 0002:0001f00c       $chain$4$triggersReallyExist 000000018010800c     sqlite.obj
 0002:0001f020       $chain$5$triggersReallyExist 0000000180108020     sqlite.obj
 0002:0001f030       $chain$6$triggersReallyExist 0000000180108030     sqlite.obj
 0002:0001f040       $unwind$sqlite3Parser      0000000180108040     sqlite.obj
 0002:0001f040       $unwind$sqlite3TriggerStepSrc 0000000180108040     sqlite.obj
 0002:0001f05c       $unwind$sqlite3ExpandReturning 000000018010805c     sqlite.obj
 0002:0001f06c       $chain$2$sqlite3ExpandReturning 000000018010806c     sqlite.obj
 0002:0001f088       $chain$3$sqlite3ExpandReturning 0000000180108088     sqlite.obj
 0002:0001f098       $unwind$codeReturningTrigger 0000000180108098     sqlite.obj
 0002:0001f0b8       $chain$0$codeReturningTrigger 00000001801080b8     sqlite.obj
 0002:0001f0cc       $chain$1$codeReturningTrigger 00000001801080cc     sqlite.obj
 0002:0001f0dc       $chain$2$codeReturningTrigger 00000001801080dc     sqlite.obj
 0002:0001f0f0       $unwind$codeTriggerProgram 00000001801080f0     sqlite.obj
 0002:0001f100       $chain$3$codeTriggerProgram 0000000180108100     sqlite.obj
 0002:0001f120       $chain$4$codeTriggerProgram 0000000180108120     sqlite.obj
 0002:0001f130       $unwind$codeRowTrigger     0000000180108130     sqlite.obj
 0002:0001f154       $unwind$sqlite3CodeRowTrigger 0000000180108154     sqlite.obj
 0002:0001f160       $chain$4$sqlite3CodeRowTrigger 0000000180108160     sqlite.obj
 0002:0001f184       $chain$5$sqlite3CodeRowTrigger 0000000180108184     sqlite.obj
 0002:0001f194       $unwind$sqlite3TriggerColmask 0000000180108194     sqlite.obj
 0002:0001f1a8       $chain$1$sqlite3TriggerColmask 00000001801081a8     sqlite.obj
 0002:0001f1c0       $chain$2$sqlite3TriggerColmask 00000001801081c0     sqlite.obj
 0002:0001f1d0       $unwind$sqlite3ColumnDefault 00000001801081d0     sqlite.obj
 0002:0001f1dc       $chain$0$sqlite3ColumnDefault 00000001801081dc     sqlite.obj
 0002:0001f1f0       $chain$1$sqlite3ColumnDefault 00000001801081f0     sqlite.obj
 0002:0001f204       $chain$2$sqlite3ColumnDefault 0000000180108204     sqlite.obj
 0002:0001f214       $chain$3$sqlite3ColumnDefault 0000000180108214     sqlite.obj
 0002:0001f224       $unwind$updateFromSelect   0000000180108224     sqlite.obj
 0002:0001f23c       $unwind$sqlite3Update      000000018010823c     sqlite.obj
 0002:0001f24c       $chain$2$sqlite3Update     000000018010824c     sqlite.obj
 0002:0001f268       $chain$3$sqlite3Update     0000000180108268     sqlite.obj
 0002:0001f27c       $chain$4$sqlite3Update     000000018010827c     sqlite.obj
 0002:0001f290       $chain$5$sqlite3Update     0000000180108290     sqlite.obj
 0002:0001f2a0       $chain$6$sqlite3Update     00000001801082a0     sqlite.obj
 0002:0001f2b0       $chain$7$sqlite3Update     00000001801082b0     sqlite.obj
 0002:0001f2c4       $chain$8$sqlite3Update     00000001801082c4     sqlite.obj
 0002:0001f2d4       $unwind$updateVirtualTable 00000001801082d4     sqlite.obj
 0002:0001f2ec       $unwind$sqlite3UpsertDup   00000001801082ec     sqlite.obj
 0002:0001f308       $unwind$sqlite3UpsertAnalyzeTarget 0000000180108308     sqlite.obj
 0002:0001f32c       $unwind$sqlite3UpsertDoUpdate 000000018010832c     sqlite.obj
 0002:0001f344       $unwind$execSql            0000000180108344     sqlite.obj
 0002:0001f354       $chain$2$execSql           0000000180108354     sqlite.obj
 0002:0001f370       $chain$3$execSql           0000000180108370     sqlite.obj
 0002:0001f384       $chain$4$execSql           0000000180108384     sqlite.obj
 0002:0001f394       $chain$5$execSql           0000000180108394     sqlite.obj
 0002:0001f3a4       $unwind$execSqlF           00000001801083a4     sqlite.obj
 0002:0001f3b0       $chain$1$sqlite3Vacuum     00000001801083b0     sqlite.obj
 0002:0001f3c8       $chain$3$sqlite3Vacuum     00000001801083c8     sqlite.obj
 0002:0001f3e0       $chain$4$sqlite3Vacuum     00000001801083e0     sqlite.obj
 0002:0001f3f0       $chain$5$sqlite3Vacuum     00000001801083f0     sqlite.obj
 0002:0001f400       $unwind$sqlite3RunVacuum   0000000180108400     sqlite.obj
 0002:0001f414       $chain$0$sqlite3RunVacuum  0000000180108414     sqlite.obj
 0002:0001f428       $chain$1$sqlite3RunVacuum  0000000180108428     sqlite.obj
 0002:0001f43c       $chain$2$sqlite3RunVacuum  000000018010843c     sqlite.obj
 0002:0001f44c       $chain$3$sqlite3RunVacuum  000000018010844c     sqlite.obj
 0002:0001f45c       $unwind$sqlite3_drop_modules 000000018010845c     sqlite.obj
 0002:0001f46c       $chain$1$sqlite3_drop_modules 000000018010846c     sqlite.obj
 0002:0001f484       $chain$2$sqlite3_drop_modules 0000000180108484     sqlite.obj
 0002:0001f494       $chain$1$sqlite3VtabUnlock 0000000180108494     sqlite.obj
 0002:0001f4ac       $chain$2$sqlite3VtabUnlock 00000001801084ac     sqlite.obj
 0002:0001f4bc       $chain$0$sqlite3VtabDisconnect 00000001801084bc     sqlite.obj
 0002:0001f4d0       $chain$2$sqlite3VtabDisconnect 00000001801084d0     sqlite.obj
 0002:0001f4e8       $chain$3$sqlite3VtabDisconnect 00000001801084e8     sqlite.obj
 0002:0001f4f8       $chain$4$sqlite3VtabDisconnect 00000001801084f8     sqlite.obj
 0002:0001f508       $chain$3$sqlite3VtabUnlockList 0000000180108508     sqlite.obj
 0002:0001f528       $chain$4$sqlite3VtabUnlockList 0000000180108528     sqlite.obj
 0002:0001f538       $unwind$sqlite3VtabBeginParse 0000000180108538     sqlite.obj
 0002:0001f544       $chain$2$sqlite3VtabBeginParse 0000000180108544     sqlite.obj
 0002:0001f560       $chain$3$sqlite3VtabBeginParse 0000000180108560     sqlite.obj
 0002:0001f574       $chain$4$sqlite3VtabBeginParse 0000000180108574     sqlite.obj
 0002:0001f584       $chain$5$sqlite3VtabBeginParse 0000000180108584     sqlite.obj
 0002:0001f598       $chain$6$sqlite3VtabBeginParse 0000000180108598     sqlite.obj
 0002:0001f5a8       $chain$1$addArgumentToVtab 00000001801085a8     sqlite.obj
 0002:0001f5c0       $chain$2$addArgumentToVtab 00000001801085c0     sqlite.obj
 0002:0001f5d0       $unwind$sqlite3VtabFinishParse 00000001801085d0     sqlite.obj
 0002:0001f5e0       $chain$1$sqlite3VtabFinishParse 00000001801085e0     sqlite.obj
 0002:0001f5f8       $chain$2$sqlite3VtabFinishParse 00000001801085f8     sqlite.obj
 0002:0001f60c       $chain$3$sqlite3VtabFinishParse 000000018010860c     sqlite.obj
 0002:0001f620       $chain$4$sqlite3VtabFinishParse 0000000180108620     sqlite.obj
 0002:0001f630       $chain$5$sqlite3VtabFinishParse 0000000180108630     sqlite.obj
 0002:0001f640       $chain$6$sqlite3VtabFinishParse 0000000180108640     sqlite.obj
 0002:0001f650       $unwind$vtabCallConstructor 0000000180108650     sqlite.obj
 0002:0001f664       $chain$1$vtabCallConstructor 0000000180108664     sqlite.obj
 0002:0001f67c       $chain$2$vtabCallConstructor 000000018010867c     sqlite.obj
 0002:0001f68c       $chain$3$vtabCallConstructor 000000018010868c     sqlite.obj
 0002:0001f6a4       $unwind$sqlite3_declare_vtab 00000001801086a4     sqlite.obj
 0002:0001f6c0       $chain$0$sqlite3_declare_vtab 00000001801086c0     sqlite.obj
 0002:0001f6d4       $chain$2$sqlite3_declare_vtab 00000001801086d4     sqlite.obj
 0002:0001f6ec       $chain$3$sqlite3_declare_vtab 00000001801086ec     sqlite.obj
 0002:0001f6fc       $chain$4$sqlite3_declare_vtab 00000001801086fc     sqlite.obj
 0002:0001f70c       $chain$0$sqlite3VtabCallDestroy 000000018010870c     sqlite.obj
 0002:0001f720       $chain$1$sqlite3VtabCallDestroy 0000000180108720     sqlite.obj
 0002:0001f734       $chain$2$sqlite3VtabCallDestroy 0000000180108734     sqlite.obj
 0002:0001f748       $chain$3$sqlite3VtabCallDestroy 0000000180108748     sqlite.obj
 0002:0001f758       $chain$4$sqlite3VtabCallDestroy 0000000180108758     sqlite.obj
 0002:0001f768       $chain$5$sqlite3VtabCallDestroy 0000000180108768     sqlite.obj
 0002:0001f778       $unwind$callFinaliser      0000000180108778     sqlite.obj
 0002:0001f784       $chain$1$callFinaliser     0000000180108784     sqlite.obj
 0002:0001f79c       $chain$5$callFinaliser     000000018010879c     sqlite.obj
 0002:0001f7bc       $chain$6$callFinaliser     00000001801087bc     sqlite.obj
 0002:0001f7cc       $chain$7$callFinaliser     00000001801087cc     sqlite.obj
 0002:0001f7dc       $chain$0$sqlite3VtabBegin  00000001801087dc     sqlite.obj
 0002:0001f7f0       $chain$2$sqlite3VtabBegin  00000001801087f0     sqlite.obj
 0002:0001f804       $unwind$sqlite3VtabSavepoint 0000000180108804     sqlite.obj
 0002:0001f814       $chain$3$sqlite3VtabSavepoint 0000000180108814     sqlite.obj
 0002:0001f834       $chain$4$sqlite3VtabSavepoint 0000000180108834     sqlite.obj
 0002:0001f844       $unwind$sqlite3VtabOverloadFunction 0000000180108844     sqlite.obj
 0002:0001f844       $unwind$__dcrt_write_console 0000000180108844     libucrt:initcon.obj
 0002:0001f844       $unwind$??$__acrt_wcs_to_mbs_cp@U__crt_win32_buffer_no_resizing@@@@YAHQEB_WAEAV?$__crt_win32_buffer@DU__crt_win32_buffer_no_resizing@@@@I@Z 0000000180108844     libucrt:getmodulefilenamea.obj
 0002:0001f858       $unwind$sqlite3_vtab_config 0000000180108858     sqlite.obj
 0002:0001f864       $unwind$explainAppendTerm  0000000180108864     sqlite.obj
 0002:0001f870       $chain$2$explainAppendTerm 0000000180108870     sqlite.obj
 0002:0001f88c       $chain$3$explainAppendTerm 000000018010888c     sqlite.obj
 0002:0001f8a0       $chain$4$explainAppendTerm 00000001801088a0     sqlite.obj
 0002:0001f8b0       $chain$5$explainAppendTerm 00000001801088b0     sqlite.obj
 0002:0001f8c0       $unwind$explainIndexRange  00000001801088c0     sqlite.obj
 0002:0001f8d0       $chain$0$explainIndexRange 00000001801088d0     sqlite.obj
 0002:0001f8e4       $chain$1$explainIndexRange 00000001801088e4     sqlite.obj
 0002:0001f8f8       $chain$2$explainIndexRange 00000001801088f8     sqlite.obj
 0002:0001f90c       $chain$3$explainIndexRange 000000018010890c     sqlite.obj
 0002:0001f91c       $chain$4$explainIndexRange 000000018010891c     sqlite.obj
 0002:0001f92c       $chain$5$explainIndexRange 000000018010892c     sqlite.obj
 0002:0001f93c       $unwind$sqlite3WhereExplainOneScan 000000018010893c     sqlite.obj
 0002:0001f958       $chain$1$sqlite3WhereExplainOneScan 0000000180108958     sqlite.obj
 0002:0001f970       $chain$2$sqlite3WhereExplainOneScan 0000000180108970     sqlite.obj
 0002:0001f980       $unwind$sqlite3WhereExplainBloomFilter 0000000180108980     sqlite.obj
 0002:0001f998       $chain$2$sqlite3WhereExplainBloomFilter 0000000180108998     sqlite.obj
 0002:0001f9b4       $chain$3$sqlite3WhereExplainBloomFilter 00000001801089b4     sqlite.obj
 0002:0001f9c8       $chain$4$sqlite3WhereExplainBloomFilter 00000001801089c8     sqlite.obj
 0002:0001f9d8       $chain$5$sqlite3WhereExplainBloomFilter 00000001801089d8     sqlite.obj
 0002:0001f9f0       $chain$6$sqlite3WhereExplainBloomFilter 00000001801089f0     sqlite.obj
 0002:0001fa04       $chain$7$sqlite3WhereExplainBloomFilter 0000000180108a04     sqlite.obj
 0002:0001fa14       $unwind$updateRangeAffinityStr 0000000180108a14     sqlite.obj
 0002:0001fa20       $chain$2$updateRangeAffinityStr 0000000180108a20     sqlite.obj
 0002:0001fa3c       $chain$3$updateRangeAffinityStr 0000000180108a3c     sqlite.obj
 0002:0001fa4c       $unwind$removeUnindexableInClauseTerms 0000000180108a4c     sqlite.obj
 0002:0001fa5c       $chain$3$removeUnindexableInClauseTerms 0000000180108a5c     sqlite.obj
 0002:0001fa7c       $chain$5$removeUnindexableInClauseTerms 0000000180108a7c     sqlite.obj
 0002:0001fa90       $chain$6$removeUnindexableInClauseTerms 0000000180108a90     sqlite.obj
 0002:0001faa0       $unwind$codeEqualityTerm   0000000180108aa0     sqlite.obj
 0002:0001fab8       $unwind$codeAllEqualityTerms 0000000180108ab8     sqlite.obj
 0002:0001fad0       $chain$1$codeDeferredSeek  0000000180108ad0     sqlite.obj
 0002:0001fae8       $chain$2$codeDeferredSeek  0000000180108ae8     sqlite.obj
 0002:0001faf8       $unwind$whereApplyPartialIndexConstraints 0000000180108af8     sqlite.obj
 0002:0001fb08       $chain$2$whereApplyPartialIndexConstraints 0000000180108b08     sqlite.obj
 0002:0001fb24       $chain$3$whereApplyPartialIndexConstraints 0000000180108b24     sqlite.obj
 0002:0001fb34       $unwind$filterPullDown     0000000180108b34     sqlite.obj
 0002:0001fb44       $chain$3$filterPullDown    0000000180108b44     sqlite.obj
 0002:0001fb64       $chain$4$filterPullDown    0000000180108b64     sqlite.obj
 0002:0001fb74       $unwind$sqlite3WhereRightJoinLoop 0000000180108b74     sqlite.obj
 0002:0001fb98       $chain$1$whereClauseInsert 0000000180108b98     sqlite.obj
 0002:0001fbb0       $chain$2$whereClauseInsert 0000000180108bb0     sqlite.obj
 0002:0001fbc0       $unwind$isLikeOrGlob       0000000180108bc0     sqlite.obj
 0002:0001fbd8       $unwind$exprAnalyzeOrTerm  0000000180108bd8     sqlite.obj
 0002:0001fbf0       $unwind$exprSelectUsage    0000000180108bf0     sqlite.obj
 0002:0001fbfc       $chain$4$exprSelectUsage   0000000180108bfc     sqlite.obj
 0002:0001fc20       $chain$5$exprSelectUsage   0000000180108c20     sqlite.obj
 0002:0001fc30       $unwind$exprMightBeIndexed2 0000000180108c30     sqlite.obj
 0002:0001fc48       $unwind$exprAnalyze        0000000180108c48     sqlite.obj
 0002:0001fc58       $chain$4$exprAnalyze       0000000180108c58     sqlite.obj
 0002:0001fc7c       $chain$5$exprAnalyze       0000000180108c7c     sqlite.obj
 0002:0001fc8c       $unwind$sqlite3WhereAddLimit 0000000180108c8c     sqlite.obj
 0002:0001fc98       $chain$0$sqlite3WhereAddLimit 0000000180108c98     sqlite.obj
 0002:0001fcac       $chain$1$sqlite3WhereAddLimit 0000000180108cac     sqlite.obj
 0002:0001fcbc       $chain$2$sqlite3WhereClauseClear 0000000180108cbc     sqlite.obj
 0002:0001fcd8       $chain$3$sqlite3WhereClauseClear 0000000180108cd8     sqlite.obj
 0002:0001fce8       $unwind$sqlite3WhereExprUsageFull 0000000180108ce8     sqlite.obj
 0002:0001fcf8       $chain$3$sqlite3WhereExprUsageFull 0000000180108cf8     sqlite.obj
 0002:0001fd18       $chain$4$sqlite3WhereExprUsageFull 0000000180108d18     sqlite.obj
 0002:0001fd28       $chain$0$sqlite3WhereExprListUsage 0000000180108d28     sqlite.obj
 0002:0001fd3c       $chain$1$sqlite3WhereExprListUsage 0000000180108d3c     sqlite.obj
 0002:0001fd50       $chain$2$sqlite3WhereExprListUsage 0000000180108d50     sqlite.obj
 0002:0001fd60       $chain$4$sqlite3WhereExprListUsage 0000000180108d60     sqlite.obj
 0002:0001fd74       $chain$5$sqlite3WhereExprListUsage 0000000180108d74     sqlite.obj
 0002:0001fd84       $unwind$sqlite3WhereTabFuncArgs 0000000180108d84     sqlite.obj
 0002:0001fd90       $chain$0$sqlite3WhereTabFuncArgs 0000000180108d90     sqlite.obj
 0002:0001fda4       $chain$2$sqlite3WhereTabFuncArgs 0000000180108da4     sqlite.obj
 0002:0001fdbc       $chain$5$sqlite3WhereTabFuncArgs 0000000180108dbc     sqlite.obj
 0002:0001fdd8       $chain$6$sqlite3WhereTabFuncArgs 0000000180108dd8     sqlite.obj
 0002:0001fde8       $chain$7$sqlite3WhereTabFuncArgs 0000000180108de8     sqlite.obj
 0002:0001fdf8       $chain$8$sqlite3WhereTabFuncArgs 0000000180108df8     sqlite.obj
 0002:0001fe08       $chain$9$sqlite3WhereTabFuncArgs 0000000180108e08     sqlite.obj
 0002:0001fe30       $unwind$keywordCode        0000000180108e30     sqlite.obj
 0002:0001fe30       $unwind$sqlite3_compileoption_used 0000000180108e30     sqlite.obj
 0002:0001fe30       $unwind$whereOrInsert      0000000180108e30     sqlite.obj
 0002:0001fe48       $unwind$whereScanNext      0000000180108e48     sqlite.obj
 0002:0001fe60       $unwind$whereScanInit      0000000180108e60     sqlite.obj
 0002:0001fe6c       $chain$4$whereScanInit     0000000180108e6c     sqlite.obj
 0002:0001fe90       $chain$5$whereScanInit     0000000180108e90     sqlite.obj
 0002:0001fea0       $chain$6$whereScanInit     0000000180108ea0     sqlite.obj
 0002:0001fec4       $unwind$sqlite3WhereFindTerm 0000000180108ec4     sqlite.obj
 0002:0001fee0       $unwind$isDistinctRedundant 0000000180108ee0     sqlite.obj
 0002:0001fef8       $unwind$constructAutomaticIndex 0000000180108ef8     sqlite.obj
 0002:0001ff10       $unwind$sqlite3ConstructBloomFilter 0000000180108f10     sqlite.obj
 0002:0001ff28       $unwind$allocateIndexInfo  0000000180108f28     sqlite.obj
 0002:0001ff40       $unwind$freeIndexInfo      0000000180108f40     sqlite.obj
 0002:0001ff4c       $chain$1$freeIndexInfo     0000000180108f4c     sqlite.obj
 0002:0001ff64       $chain$4$freeIndexInfo     0000000180108f64     sqlite.obj
 0002:0001ff80       $chain$5$freeIndexInfo     0000000180108f80     sqlite.obj
 0002:0001ff90       $chain$6$freeIndexInfo     0000000180108f90     sqlite.obj
 0002:0001ffa0       $unwind$vtabBestIndex      0000000180108fa0     sqlite.obj
 0002:0001ffb0       $chain$0$vtabBestIndex     0000000180108fb0     sqlite.obj
 0002:0001ffc4       $chain$3$vtabBestIndex     0000000180108fc4     sqlite.obj
 0002:0001ffe0       $chain$4$vtabBestIndex     0000000180108fe0     sqlite.obj
 0002:0001fff0       $chain$5$vtabBestIndex     0000000180108ff0     sqlite.obj
 0002:00020000       $unwind$whereLoopResize    0000000180109000     sqlite.obj
 0002:00020014       $unwind$whereInfoFree      0000000180109014     sqlite.obj
 0002:00020020       $chain$3$whereInfoFree     0000000180109020     sqlite.obj
 0002:00020040       $chain$4$whereInfoFree     0000000180109040     sqlite.obj
 0002:00020050       $unwind$whereLoopInsert    0000000180109050     sqlite.obj
 0002:00020068       $chain$2$whereLoopInsert   0000000180109068     sqlite.obj
 0002:0002007c       $chain$3$whereLoopInsert   000000018010907c     sqlite.obj
 0002:00020090       $chain$4$whereLoopInsert   0000000180109090     sqlite.obj
 0002:000200a0       $chain$5$whereLoopInsert   00000001801090a0     sqlite.obj
 0002:000200b0       $unwind$whereLoopOutputAdjust 00000001801090b0     sqlite.obj
 0002:000200bc       $chain$3$whereLoopOutputAdjust 00000001801090bc     sqlite.obj
 0002:000200dc       $chain$4$whereLoopOutputAdjust 00000001801090dc     sqlite.obj
 0002:000200f0       $chain$5$whereLoopOutputAdjust 00000001801090f0     sqlite.obj
 0002:00020100       $chain$6$whereLoopOutputAdjust 0000000180109100     sqlite.obj
 0002:00020110       $unwind$whereRangeVectorLen 0000000180109110     sqlite.obj
 0002:0002011c       $chain$5$whereRangeVectorLen 000000018010911c     sqlite.obj
 0002:00020144       $chain$6$whereRangeVectorLen 0000000180109144     sqlite.obj
 0002:00020154       $chain$7$whereRangeVectorLen 0000000180109154     sqlite.obj
 0002:0002017c       $unwind$whereLoopAddBtreeIndex 000000018010917c     sqlite.obj
 0002:00020198       $chain$1$whereLoopAddBtreeIndex 0000000180109198     sqlite.obj
 0002:000201b0       $chain$2$whereLoopAddBtreeIndex 00000001801091b0     sqlite.obj
 0002:000201c0       $unwind$exprIsCoveredByIndex 00000001801091c0     sqlite.obj
 0002:000201c0       $unwind$indexMightHelpWithOrderBy 00000001801091c0     sqlite.obj
 0002:000201c0       $unwind$jsonLabelCompareEscaped 00000001801091c0     sqlite.obj
 0002:000201dc       $unwind$whereIsCoveringIndex 00000001801091dc     sqlite.obj
 0002:000201e8       $unwind$wherePartIdxExpr   00000001801091e8     sqlite.obj
 0002:000201f8       $chain$1$wherePartIdxExpr  00000001801091f8     sqlite.obj
 0002:00020210       $chain$2$wherePartIdxExpr  0000000180109210     sqlite.obj
 0002:00020224       $chain$3$wherePartIdxExpr  0000000180109224     sqlite.obj
 0002:00020234       $chain$4$wherePartIdxExpr  0000000180109234     sqlite.obj
 0002:00020244       $unwind$whereLoopAddBtree  0000000180109244     sqlite.obj
 0002:0002025c       $unwind$whereLoopAddVirtualOne 000000018010925c     sqlite.obj
 0002:0002025c       $unwind$windowCodeRangeTest 000000018010925c     sqlite.obj
 0002:00020274       $chain$0$sqlite3_vtab_rhs_value 0000000180109274     sqlite.obj
 0002:00020288       $chain$1$sqlite3_vtab_rhs_value 0000000180109288     sqlite.obj
 0002:00020298       $unwind$whereLoopAddVirtual 0000000180109298     sqlite.obj
 0002:000202ac       $chain$1$whereLoopAddVirtual 00000001801092ac     sqlite.obj
 0002:000202c4       $chain$2$whereLoopAddVirtual 00000001801092c4     sqlite.obj
 0002:000202d8       $unwind$whereLoopAddOr     00000001801092d8     sqlite.obj
 0002:000202f4       $chain$2$whereLoopAddOr    00000001801092f4     sqlite.obj
 0002:00020310       $chain$3$whereLoopAddOr    0000000180109310     sqlite.obj
 0002:00020320       $unwind$wherePathSatisfiesOrderBy 0000000180109320     sqlite.obj
 0002:00020338       $unwind$wherePathSolver    0000000180109338     sqlite.obj
 0002:00020350       $unwind$whereShortCut      0000000180109350     sqlite.obj
 0002:00020370       $chain$0$whereShortCut     0000000180109370     sqlite.obj
 0002:00020384       $chain$1$whereShortCut     0000000180109384     sqlite.obj
 0002:00020398       $chain$2$whereShortCut     0000000180109398     sqlite.obj
 0002:00020398       $chain$4$whereShortCut     0000000180109398     sqlite.obj
 0002:000203a8       $chain$3$whereShortCut     00000001801093a8     sqlite.obj
 0002:000203bc       $chain$5$whereShortCut     00000001801093bc     sqlite.obj
 0002:000203cc       $unwind$whereOmitNoopJoin  00000001801093cc     sqlite.obj
 0002:000203e0       $chain$0$whereOmitNoopJoin 00000001801093e0     sqlite.obj
 0002:000203f4       $chain$1$whereOmitNoopJoin 00000001801093f4     sqlite.obj
 0002:00020404       $chain$0$whereCheckIfBloomFilterIsUseful 0000000180109404     sqlite.obj
 0002:00020418       $chain$1$whereCheckIfBloomFilterIsUseful 0000000180109418     sqlite.obj
 0002:00020428       $unwind$whereAddIndexedExpr 0000000180109428     sqlite.obj
 0002:00020438       $chain$3$whereAddIndexedExpr 0000000180109438     sqlite.obj
 0002:00020458       $chain$4$whereAddIndexedExpr 0000000180109458     sqlite.obj
 0002:00020468       $unwind$sqlite3WhereBegin  0000000180109468     sqlite.obj
 0002:0002047c       $chain$1$sqlite3WhereBegin 000000018010947c     sqlite.obj
 0002:00020494       $chain$3$sqlite3WhereBegin 0000000180109494     sqlite.obj
 0002:000204ac       $chain$1$nth_valueStepFunc 00000001801094ac     sqlite.obj
 0002:000204c4       $chain$2$nth_valueStepFunc 00000001801094c4     sqlite.obj
 0002:000204d4       $unwind$last_valueStepFunc 00000001801094d4     sqlite.obj
 0002:000204e4       $chain$0$last_valueStepFunc 00000001801094e4     sqlite.obj
 0002:000204f8       $chain$1$last_valueStepFunc 00000001801094f8     sqlite.obj
 0002:0002050c       $chain$2$last_valueStepFunc 000000018010950c     sqlite.obj
 0002:0002051c       $chain$3$last_valueStepFunc 000000018010951c     sqlite.obj
 0002:0002052c       $chain$0$last_valueInvFunc 000000018010952c     sqlite.obj
 0002:00020540       $chain$1$last_valueInvFunc 0000000180109540     sqlite.obj
 0002:00020550       $unwind$sqlite3WindowUpdate 0000000180109550     sqlite.obj
 0002:0002056c       $chain$1$sqlite3WindowUpdate 000000018010956c     sqlite.obj
 0002:00020584       $chain$2$sqlite3WindowUpdate 0000000180109584     sqlite.obj
 0002:00020594       $chain$0$selectWindowRewriteExprCb 0000000180109594     sqlite.obj
 0002:000205a8       $chain$1$selectWindowRewriteExprCb 00000001801095a8     sqlite.obj
 0002:000205a8       $chain$3$selectWindowRewriteExprCb 00000001801095a8     sqlite.obj
 0002:000205b8       $chain$2$selectWindowRewriteExprCb 00000001801095b8     sqlite.obj
 0002:000205cc       $unwind$selectWindowRewriteEList 00000001801095cc     sqlite.obj
 0002:000205d4       $chain$1$selectWindowRewriteEList 00000001801095d4     sqlite.obj
 0002:000205ec       $chain$3$selectWindowRewriteEList 00000001801095ec     sqlite.obj
 0002:00020604       $chain$4$selectWindowRewriteEList 0000000180109604     sqlite.obj
 0002:00020614       $unwind$exprListAppendList 0000000180109614     sqlite.obj
 0002:00020624       $chain$3$exprListAppendList 0000000180109624     sqlite.obj
 0002:00020644       $chain$5$exprListAppendList 0000000180109644     sqlite.obj
 0002:00020664       $chain$6$exprListAppendList 0000000180109664     sqlite.obj
 0002:00020678       $chain$7$exprListAppendList 0000000180109678     sqlite.obj
 0002:00020688       $unwind$sqlite3WindowRewrite 0000000180109688     sqlite.obj
 0002:000206a4       $unwind$sqlite3WindowDelete 00000001801096a4     sqlite.obj
 0002:000206b0       $unwind$sqlite3WindowListDelete 00000001801096b0     sqlite.obj
 0002:000206bc       $chain$2$sqlite3WindowListDelete 00000001801096bc     sqlite.obj
 0002:000206d8       $chain$3$sqlite3WindowListDelete 00000001801096d8     sqlite.obj
 0002:000206e8       $unwind$sqlite3WindowOffsetExpr 00000001801096e8     sqlite.obj
 0002:000206fc       $chain$0$sqlite3WindowOffsetExpr 00000001801096fc     sqlite.obj
 0002:00020710       $chain$1$sqlite3WindowOffsetExpr 0000000180109710     sqlite.obj
 0002:00020720       $chain$1$sqlite3WindowAssemble 0000000180109720     sqlite.obj
 0002:00020738       $chain$3$sqlite3WindowAssemble 0000000180109738     sqlite.obj
 0002:00020750       $chain$4$sqlite3WindowAssemble 0000000180109750     sqlite.obj
 0002:00020760       $chain$1$sqlite3WindowChain 0000000180109760     sqlite.obj
 0002:00020778       $chain$2$sqlite3WindowChain 0000000180109778     sqlite.obj
 0002:00020788       $chain$3$sqlite3WindowChain 0000000180109788     sqlite.obj
 0002:000207a0       $unwind$sqlite3WindowLink  00000001801097a0     sqlite.obj
 0002:000207ac       $chain$2$sqlite3WindowLink 00000001801097ac     sqlite.obj
 0002:000207c8       $chain$3$sqlite3WindowLink 00000001801097c8     sqlite.obj
 0002:000207d8       $chain$4$sqlite3WindowLink 00000001801097d8     sqlite.obj
 0002:000207f4       $chain$5$sqlite3WindowLink 00000001801097f4     sqlite.obj
 0002:00020808       $unwind$sqlite3WindowCompare 0000000180109808     sqlite.obj
 0002:00020814       $chain$4$sqlite3WindowCompare 0000000180109814     sqlite.obj
 0002:00020838       $chain$6$sqlite3WindowCompare 0000000180109838     sqlite.obj
 0002:0002085c       $chain$7$sqlite3WindowCompare 000000018010985c     sqlite.obj
 0002:0002086c       $unwind$sqlite3WindowCodeInit 000000018010986c     sqlite.obj
 0002:00020880       $chain$2$sqlite3WindowCodeInit 0000000180109880     sqlite.obj
 0002:00020898       $unwind$windowCheckValue   0000000180109898     sqlite.obj
 0002:000208a4       $chain$0$windowCheckValue  00000001801098a4     sqlite.obj
 0002:000208b8       $chain$2$windowCheckValue  00000001801098b8     sqlite.obj
 0002:000208d0       $chain$4$windowCheckValue  00000001801098d0     sqlite.obj
 0002:000208e8       $chain$5$windowCheckValue  00000001801098e8     sqlite.obj
 0002:000208fc       $chain$6$windowCheckValue  00000001801098fc     sqlite.obj
 0002:0002090c       $chain$7$windowCheckValue  000000018010990c     sqlite.obj
 0002:0002091c       $unwind$windowReadPeerValues 000000018010991c     sqlite.obj
 0002:0002092c       $chain$2$windowReadPeerValues 000000018010992c     sqlite.obj
 0002:00020948       $chain$3$windowReadPeerValues 0000000180109948     sqlite.obj
 0002:00020958       $unwind$windowAggStep      0000000180109958     sqlite.obj
 0002:00020968       $chain$3$windowAggStep     0000000180109968     sqlite.obj
 0002:00020988       $chain$4$windowAggStep     0000000180109988     sqlite.obj
 0002:00020998       $chain$2$windowAggFinal    0000000180109998     sqlite.obj
 0002:000209b4       $chain$3$windowAggFinal    00000001801099b4     sqlite.obj
 0002:000209c4       $unwind$windowFullScan     00000001801099c4     sqlite.obj
 0002:000209dc       $unwind$windowReturnOneRow 00000001801099dc     sqlite.obj
 0002:000209e4       $chain$0$windowReturnOneRow 00000001801099e4     sqlite.obj
 0002:000209f8       $chain$6$windowReturnOneRow 00000001801099f8     sqlite.obj
 0002:00020a20       $chain$7$windowReturnOneRow 0000000180109a20     sqlite.obj
 0002:00020a30       $chain$8$windowReturnOneRow 0000000180109a30     sqlite.obj
 0002:00020a40       $unwind$windowInitAccum    0000000180109a40     sqlite.obj
 0002:00020a50       $chain$2$windowInitAccum   0000000180109a50     sqlite.obj
 0002:00020a6c       $chain$3$windowInitAccum   0000000180109a6c     sqlite.obj
 0002:00020a7c       $chain$0$windowIfNewPeer   0000000180109a7c     sqlite.obj
 0002:00020a90       $chain$1$windowIfNewPeer   0000000180109a90     sqlite.obj
 0002:00020aa0       $unwind$windowCodeOp       0000000180109aa0     sqlite.obj
 0002:00020ab4       $chain$0$windowCodeOp      0000000180109ab4     sqlite.obj
 0002:00020ac8       $chain$1$windowCodeOp      0000000180109ac8     sqlite.obj
 0002:00020ad8       $unwind$sqlite3WindowDup   0000000180109ad8     sqlite.obj
 0002:00020ae4       $chain$0$sqlite3WindowDup  0000000180109ae4     sqlite.obj
 0002:00020af8       $chain$3$sqlite3WindowDup  0000000180109af8     sqlite.obj
 0002:00020b14       $chain$4$sqlite3WindowDup  0000000180109b14     sqlite.obj
 0002:00020b28       $chain$5$sqlite3WindowDup  0000000180109b28     sqlite.obj
 0002:00020b38       $chain$6$sqlite3WindowDup  0000000180109b38     sqlite.obj
 0002:00020b48       $chain$7$sqlite3WindowDup  0000000180109b48     sqlite.obj
 0002:00020b58       $unwind$sqlite3WindowListDup 0000000180109b58     sqlite.obj
 0002:00020b68       $chain$3$sqlite3WindowListDup 0000000180109b68     sqlite.obj
 0002:00020b88       $chain$5$sqlite3WindowListDup 0000000180109b88     sqlite.obj
 0002:00020ba8       $chain$6$sqlite3WindowListDup 0000000180109ba8     sqlite.obj
 0002:00020bb8       $unwind$sqlite3WindowCodeStep 0000000180109bb8     sqlite.obj
 0002:00020bd0       $chain$0$parserDoubleLinkSelect 0000000180109bd0     sqlite.obj
 0002:00020be4       $chain$1$parserDoubleLinkSelect 0000000180109be4     sqlite.obj
 0002:00020bf8       $chain$2$parserDoubleLinkSelect 0000000180109bf8     sqlite.obj
 0002:00020c08       $chain$3$parserDoubleLinkSelect 0000000180109c08     sqlite.obj
 0002:00020c18       $unwind$tokenExpr          0000000180109c18     sqlite.obj
 0002:00020c30       $unwind$yy_reduce          0000000180109c30     sqlite.obj
 0002:00020c48       $chain$1$yy_reduce         0000000180109c48     sqlite.obj
 0002:00020c60       $chain$2$yy_reduce         0000000180109c60     sqlite.obj
 0002:00020c70       $chain$3$yy_reduce         0000000180109c70     sqlite.obj
 0002:00020c88       $unwind$sqlite3RunParser   0000000180109c88     sqlite.obj
 0002:00020cac       $unwind$sqlite3_complete   0000000180109cac     sqlite.obj
 0002:00020cbc       $chain$0$sqlite3_complete16 0000000180109cbc     sqlite.obj
 0002:00020cd0       $chain$2$sqlite3_complete16 0000000180109cd0     sqlite.obj
 0002:00020cd0       $chain$4$sqlite3_complete16 0000000180109cd0     sqlite.obj
 0002:00020cd0       $chain$6$sqlite3_complete16 0000000180109cd0     sqlite.obj
 0002:00020cd0       $chain$8$sqlite3_complete16 0000000180109cd0     sqlite.obj
 0002:00020ce4       $chain$9$sqlite3_complete16 0000000180109ce4     sqlite.obj
 0002:00020cf4       $unwind$sqlite3_initialize 0000000180109cf4     sqlite.obj
 0002:00020d00       $chain$2$sqlite3_initialize 0000000180109d00     sqlite.obj
 0002:00020d18       $chain$3$sqlite3_initialize 0000000180109d18     sqlite.obj
 0002:00020d2c       $chain$4$sqlite3_initialize 0000000180109d2c     sqlite.obj
 0002:00020d3c       $chain$5$sqlite3_initialize 0000000180109d3c     sqlite.obj
 0002:00020d4c       $unwind$sqlite3_config     0000000180109d4c     sqlite.obj
 0002:00020d54       $chain$0$sqlite3_config    0000000180109d54     sqlite.obj
 0002:00020d68       $chain$10$sqlite3_config   0000000180109d68     sqlite.obj
 0002:00020d68       $chain$12$sqlite3_config   0000000180109d68     sqlite.obj
 0002:00020d68       $chain$14$sqlite3_config   0000000180109d68     sqlite.obj
 0002:00020d68       $chain$16$sqlite3_config   0000000180109d68     sqlite.obj
 0002:00020d68       $chain$18$sqlite3_config   0000000180109d68     sqlite.obj
 0002:00020d68       $chain$2$sqlite3_config    0000000180109d68     sqlite.obj
 0002:00020d68       $chain$20$sqlite3_config   0000000180109d68     sqlite.obj
 0002:00020d68       $chain$22$sqlite3_config   0000000180109d68     sqlite.obj
 0002:00020d68       $chain$24$sqlite3_config   0000000180109d68     sqlite.obj
 0002:00020d68       $chain$26$sqlite3_config   0000000180109d68     sqlite.obj
 0002:00020d68       $chain$28$sqlite3_config   0000000180109d68     sqlite.obj
 0002:00020d68       $chain$30$sqlite3_config   0000000180109d68     sqlite.obj
 0002:00020d68       $chain$32$sqlite3_config   0000000180109d68     sqlite.obj
 0002:00020d68       $chain$34$sqlite3_config   0000000180109d68     sqlite.obj
 0002:00020d68       $chain$36$sqlite3_config   0000000180109d68     sqlite.obj
 0002:00020d68       $chain$38$sqlite3_config   0000000180109d68     sqlite.obj
 0002:00020d68       $chain$4$sqlite3_config    0000000180109d68     sqlite.obj
 0002:00020d68       $chain$40$sqlite3_config   0000000180109d68     sqlite.obj
 0002:00020d68       $chain$42$sqlite3_config   0000000180109d68     sqlite.obj
 0002:00020d68       $chain$6$sqlite3_config    0000000180109d68     sqlite.obj
 0002:00020d68       $chain$8$sqlite3_config    0000000180109d68     sqlite.obj
 0002:00020d7c       $chain$43$sqlite3_config   0000000180109d7c     sqlite.obj
 0002:00020d8c       $unwind$setupLookaside     0000000180109d8c     sqlite.obj
 0002:00020da8       $chain$0$sqlite3_db_release_memory 0000000180109da8     sqlite.obj
 0002:00020dbc       $chain$1$sqlite3_db_release_memory 0000000180109dbc     sqlite.obj
 0002:00020dd0       $chain$2$sqlite3_db_release_memory 0000000180109dd0     sqlite.obj
 0002:00020de4       $chain$3$sqlite3_db_release_memory 0000000180109de4     sqlite.obj
 0002:00020df4       $chain$4$sqlite3_db_release_memory 0000000180109df4     sqlite.obj
 0002:00020e04       $chain$5$sqlite3_db_release_memory 0000000180109e04     sqlite.obj
 0002:00020e14       $unwind$sqlite3_db_config  0000000180109e14     sqlite.obj
 0002:00020e1c       $chain$1$sqlite3_db_config 0000000180109e1c     sqlite.obj
 0002:00020e34       $chain$2$sqlite3_db_config 0000000180109e34     sqlite.obj
 0002:00020e48       $unwind$nocaseCollatingFunc 0000000180109e48     sqlite.obj
 0002:00020e54       $unwind$sqlite3Close       0000000180109e54     sqlite.obj
 0002:00020e60       $chain$0$sqlite3Close      0000000180109e60     sqlite.obj
 0002:00020e74       $chain$1$sqlite3Close      0000000180109e74     sqlite.obj
 0002:00020e88       $chain$2$sqlite3Close      0000000180109e88     sqlite.obj
 0002:00020e9c       $chain$3$sqlite3Close      0000000180109e9c     sqlite.obj
 0002:00020eac       $chain$4$sqlite3Close      0000000180109eac     sqlite.obj
 0002:00020ebc       $chain$6$sqlite3Close      0000000180109ebc     sqlite.obj
 0002:00020ed0       $unwind$sqlite3LeaveMutexAndCloseZombie 0000000180109ed0     sqlite.obj
 0002:00020edc       $chain$3$sqlite3LeaveMutexAndCloseZombie 0000000180109edc     sqlite.obj
 0002:00020efc       $chain$4$sqlite3LeaveMutexAndCloseZombie 0000000180109efc     sqlite.obj
 0002:00020f14       $chain$5$sqlite3LeaveMutexAndCloseZombie 0000000180109f14     sqlite.obj
 0002:00020f28       $chain$6$sqlite3LeaveMutexAndCloseZombie 0000000180109f28     sqlite.obj
 0002:00020f38       $unwind$sqlite3RollbackAll 0000000180109f38     sqlite.obj
 0002:00020f38       $unwind$__DestructExceptionObject$filt$0 0000000180109f38     libvcruntime:ehhelpers.obj
 0002:00020f44       $chain$3$sqlite3RollbackAll 0000000180109f44     sqlite.obj
 0002:00020f64       $chain$4$sqlite3RollbackAll 0000000180109f64     sqlite.obj
 0002:00020f78       $chain$5$sqlite3RollbackAll 0000000180109f78     sqlite.obj
 0002:00020f88       $chain$6$sqlite3RollbackAll 0000000180109f88     sqlite.obj
 0002:00020f9c       $chain$7$sqlite3RollbackAll 0000000180109f9c     sqlite.obj
 0002:00020fac       $unwind$sqlite3CreateFunc  0000000180109fac     sqlite.obj
 0002:00020fc0       $chain$1$sqlite3CreateFunc 0000000180109fc0     sqlite.obj
 0002:00020fd8       $chain$2$sqlite3CreateFunc 0000000180109fd8     sqlite.obj
 0002:00020fd8       $chain$4$sqlite3CreateFunc 0000000180109fd8     sqlite.obj
 0002:00020fe8       $chain$3$sqlite3CreateFunc 0000000180109fe8     sqlite.obj
 0002:00021000       $unwind$createFunctionApi  000000018010a000     sqlite.obj
 0002:0002101c       $unwind$sqlite3_create_function 000000018010a01c     sqlite.obj
 0002:0002101c       $unwind$sqlite3_create_function_v2 000000018010a01c     sqlite.obj
 0002:0002101c       $unwind$sqlite3_create_window_function 000000018010a01c     sqlite.obj
 0002:00021024       $unwind$sqlite3_create_function16 000000018010a024     sqlite.obj
 0002:00021024       $unwind$sqlite3_overload_function 000000018010a024     sqlite.obj
 0002:0002103c       $unwind$sqlite3Checkpoint  000000018010a03c     sqlite.obj
 0002:00021054       $chain$1$sqlite3_errmsg16  000000018010a054     sqlite.obj
 0002:0002106c       $chain$2$sqlite3_errmsg16  000000018010a06c     sqlite.obj
 0002:00021080       $chain$3$sqlite3_errmsg16  000000018010a080     sqlite.obj
 0002:00021090       $unwind$createCollation    000000018010a090     sqlite.obj
 0002:000210a0       $chain$0$createCollation   000000018010a0a0     sqlite.obj
 0002:000210b4       $chain$2$createCollation   000000018010a0b4     sqlite.obj
 0002:000210b4       $chain$7$createCollation   000000018010a0b4     sqlite.obj
 0002:000210c8       $chain$4$createCollation   000000018010a0c8     sqlite.obj
 0002:000210e0       $chain$5$createCollation   000000018010a0e0     sqlite.obj
 0002:000210f0       $unwind$sqlite3ParseUri    000000018010a0f0     sqlite.obj
 0002:0002110c       $unwind$openDatabase       000000018010a10c     sqlite.obj
 0002:0002111c       $chain$2$openDatabase      000000018010a11c     sqlite.obj
 0002:00021138       $chain$3$openDatabase      000000018010a138     sqlite.obj
 0002:00021148       $chain$0$sqlite3_open16    000000018010a148     sqlite.obj
 0002:0002115c       $chain$1$sqlite3_open16    000000018010a15c     sqlite.obj
 0002:0002116c       $unwind$sqlite3_table_column_metadata 000000018010a16c     sqlite.obj
 0002:00021184       $chain$0$sqlite3_sleep     000000018010a184     sqlite.obj
 0002:00021198       $chain$1$sqlite3_sleep     000000018010a198     sqlite.obj
 0002:000211a8       $chain$3$sqlite3_file_control 000000018010a1a8     sqlite.obj
 0002:000211c8       $chain$4$sqlite3_file_control 000000018010a1c8     sqlite.obj
 0002:000211dc       $chain$5$sqlite3_file_control 000000018010a1dc     sqlite.obj
 0002:000211ec       $chain$6$sqlite3_file_control 000000018010a1ec     sqlite.obj
 0002:000211fc       $unwind$sqlite3_test_control 000000018010a1fc     sqlite.obj
 0002:00021208       $chain$0$sqlite3_test_control 000000018010a208     sqlite.obj
 0002:0002121c       $chain$1$sqlite3_test_control 000000018010a21c     sqlite.obj
 0002:0002122c       $chain$0$sqlite3_free_filename 000000018010a22c     sqlite.obj
 0002:00021240       $chain$2$sqlite3_free_filename 000000018010a240     sqlite.obj
 0002:00021240       $chain$4$sqlite3_free_filename 000000018010a240     sqlite.obj
 0002:00021254       $chain$5$sqlite3_free_filename 000000018010a254     sqlite.obj
 0002:00021264       $chain$1$jsonCacheDeleteGeneric 000000018010a264     sqlite.obj
 0002:0002127c       $chain$3$jsonCacheDeleteGeneric 000000018010a27c     sqlite.obj
 0002:00021294       $chain$4$jsonCacheDeleteGeneric 000000018010a294     sqlite.obj
 0002:000212a4       $chain$5$jsonCacheDeleteGeneric 000000018010a2a4     sqlite.obj
 0002:000212b4       $unwind$jsonCacheInsert    000000018010a2b4     sqlite.obj
 0002:000212c8       $chain$0$jsonCacheInsert   000000018010a2c8     sqlite.obj
 0002:000212dc       $chain$1$jsonCacheInsert   000000018010a2dc     sqlite.obj
 0002:000212f0       $chain$2$jsonCacheInsert   000000018010a2f0     sqlite.obj
 0002:00021300       $chain$3$jsonCacheInsert   000000018010a300     sqlite.obj
 0002:00021310       $unwind$jsonStringGrow     000000018010a310     sqlite.obj
 0002:00021324       $chain$0$jsonAppendRaw     000000018010a324     sqlite.obj
 0002:00021338       $chain$2$jsonAppendRaw     000000018010a338     sqlite.obj
 0002:0002134c       $chain$3$jsonAppendRaw     000000018010a34c     sqlite.obj
 0002:0002135c       $unwind$jsonPrintf         000000018010a35c     sqlite.obj
 0002:00021368       $chain$0$jsonPrintf        000000018010a368     sqlite.obj
 0002:0002137c       $chain$1$jsonPrintf        000000018010a37c     sqlite.obj
 0002:0002138c       $unwind$jsonAppendString   000000018010a38c     sqlite.obj
 0002:00021398       $chain$2$jsonAppendString  000000018010a398     sqlite.obj
 0002:000213b4       $chain$3$jsonAppendString  000000018010a3b4     sqlite.obj
 0002:000213c4       $chain$4$jsonAppendString  000000018010a3c4     sqlite.obj
 0002:000213e0       $unwind$jsonAppendSqlValue 000000018010a3e0     sqlite.obj
 0002:000213f0       $chain$0$jsonAppendSqlValue 000000018010a3f0     sqlite.obj
 0002:00021404       $chain$1$jsonAppendSqlValue 000000018010a404     sqlite.obj
 0002:00021404       $chain$3$jsonAppendSqlValue 000000018010a404     sqlite.obj
 0002:00021414       $chain$2$jsonAppendSqlValue 000000018010a414     sqlite.obj
 0002:00021428       $unwind$jsonTranslateTextToBlob 000000018010a428     sqlite.obj
 0002:00021440       $unwind$jsonReturnStringAsBlob 000000018010a440     sqlite.obj
 0002:0002144c       $unwind$jsonTranslateBlobToText 000000018010a44c     sqlite.obj
 0002:0002145c       $chain$3$jsonTranslateBlobToText 000000018010a45c     sqlite.obj
 0002:0002147c       $chain$4$jsonTranslateBlobToText 000000018010a47c     sqlite.obj
 0002:0002148c       $unwind$jsonFuncArgMightBeBinary 000000018010a48c     sqlite.obj
 0002:0002149c       $unwind$jsonbArrayCount    000000018010a49c     sqlite.obj
 0002:000214b0       $unwind$jsonLookupStep     000000018010a4b0     sqlite.obj
 0002:000214cc       $unwind$jsonReturnTextJsonFromBlob 000000018010a4cc     sqlite.obj
 0002:000214e0       $chain$1$jsonReturnTextJsonFromBlob 000000018010a4e0     sqlite.obj
 0002:000214f8       $chain$2$jsonReturnTextJsonFromBlob 000000018010a4f8     sqlite.obj
 0002:00021508       $unwind$jsonInsertIntoBlob 000000018010a508     sqlite.obj
 0002:0002151c       $chain$1$jsonInsertIntoBlob 000000018010a51c     sqlite.obj
 0002:00021534       $chain$2$jsonInsertIntoBlob 000000018010a534     sqlite.obj
 0002:00021544       $chain$3$jsonInsertIntoBlob 000000018010a544     sqlite.obj
 0002:0002155c       $unwind$jsonParseFuncArg   000000018010a55c     sqlite.obj
 0002:00021578       $unwind$jsonReturnParse    000000018010a578     sqlite.obj
 0002:00021590       $chain$0$jsonReturnParse   000000018010a590     sqlite.obj
 0002:000215a4       $chain$1$jsonReturnParse   000000018010a5a4     sqlite.obj
 0002:000215b8       $chain$2$jsonReturnParse   000000018010a5b8     sqlite.obj
 0002:000215c8       $chain$3$jsonReturnParse   000000018010a5c8     sqlite.obj
 0002:000215d8       $unwind$jsonQuoteFunc      000000018010a5d8     sqlite.obj
 0002:000215f0       $chain$0$jsonQuoteFunc     000000018010a5f0     sqlite.obj
 0002:00021604       $chain$1$jsonQuoteFunc     000000018010a604     sqlite.obj
 0002:00021614       $unwind$jsonArrayFunc      000000018010a614     sqlite.obj
 0002:00021628       $chain$0$jsonArrayFunc     000000018010a628     sqlite.obj
 0002:0002163c       $chain$3$jsonArrayFunc     000000018010a63c     sqlite.obj
 0002:00021658       $chain$4$jsonArrayFunc     000000018010a658     sqlite.obj
 0002:0002166c       $chain$5$jsonArrayFunc     000000018010a66c     sqlite.obj
 0002:0002167c       $unwind$jsonExtractFunc    000000018010a67c     sqlite.obj
 0002:00021694       $chain$0$jsonExtractFunc   000000018010a694     sqlite.obj
 0002:000216a8       $chain$3$jsonExtractFunc   000000018010a6a8     sqlite.obj
 0002:000216c4       $chain$4$jsonExtractFunc   000000018010a6c4     sqlite.obj
 0002:000216d4       $chain$5$jsonExtractFunc   000000018010a6d4     sqlite.obj
 0002:000216e4       $unwind$jsonMergePatch     000000018010a6e4     sqlite.obj
 0002:000216fc       $unwind$jsonObjectFunc     000000018010a6fc     sqlite.obj
 0002:00021714       $chain$2$jsonObjectFunc    000000018010a714     sqlite.obj
 0002:00021730       $chain$3$jsonObjectFunc    000000018010a730     sqlite.obj
 0002:00021740       $unwind$jsonRemoveFunc     000000018010a740     sqlite.obj
 0002:0002174c       $chain$1$jsonRemoveFunc    000000018010a74c     sqlite.obj
 0002:00021764       $chain$4$jsonRemoveFunc    000000018010a764     sqlite.obj
 0002:00021780       $chain$5$jsonRemoveFunc    000000018010a780     sqlite.obj
 0002:00021790       $chain$6$jsonRemoveFunc    000000018010a790     sqlite.obj
 0002:000217a0       $unwind$jsonValidFunc      000000018010a7a0     sqlite.obj
 0002:000217b4       $unwind$jsonErrorFunc      000000018010a7b4     sqlite.obj
 0002:000217cc       $chain$0$jsonGroupInverse  000000018010a7cc     sqlite.obj
 0002:000217e0       $chain$1$jsonGroupInverse  000000018010a7e0     sqlite.obj
 0002:000217f0       $chain$0$jsonSkipLabel     000000018010a7f0     sqlite.obj
 0002:00021804       $chain$1$jsonSkipLabel     000000018010a804     sqlite.obj
 0002:00021814       $unwind$jsonAppendPathName 000000018010a814     sqlite.obj
 0002:00021820       $chain$1$jsonAppendPathName 000000018010a820     sqlite.obj
 0002:00021834       $chain$2$jsonAppendPathName 000000018010a834     sqlite.obj
 0002:00021844       $unwind$jsonEachNext       000000018010a844     sqlite.obj
 0002:0002185c       $unwind$jsonEachPathLength 000000018010a85c     sqlite.obj
 0002:00021868       $chain$3$jsonEachPathLength 000000018010a868     sqlite.obj
 0002:00021888       $chain$4$jsonEachPathLength 000000018010a888     sqlite.obj
 0002:00021898       $unwind$jsonEachBestIndex  000000018010a898     sqlite.obj
 0002:000218a4       $unwind$jsonEachFilter     000000018010a8a4     sqlite.obj
 0002:000218bc       $unwind$sqlite3JsonTableFunctions 000000018010a8bc     sqlite.obj
 0002:000218d8       $xdatasym                  000000018010a8d8     LIBCMT:amdsecgs.obj
 0002:000218dc       $unwind$__report_securityfailure 000000018010a8dc     LIBCMT:gs_report.obj
 0002:000218e4       $unwind$__report_gsfailure 000000018010a8e4     LIBCMT:gs_report.obj
 0002:000218ec       $unwind$capture_current_context 000000018010a8ec     LIBCMT:gs_report.obj
 0002:000218f8       $unwind$capture_previous_context 000000018010a8f8     LIBCMT:gs_report.obj
 0002:00021904       $unwind$?dllmain_crt_process_attach@@YAHQEAUHINSTANCE__@@QEAX@Z 000000018010a904     LIBCMT:dll_dllmain.obj
 0002:00021940       $unwind$?dllmain_crt_process_detach@@YAH_N@Z 000000018010a940     LIBCMT:dll_dllmain.obj
 0002:00021994       $unwind$?dllmain_dispatch@@YAHQEAUHINSTANCE__@@KQEAX@Z 000000018010a994     LIBCMT:dll_dllmain.obj
 0002:000219bc       $unwind$__security_init_cookie 000000018010a9bc     LIBCMT:gs_support.obj
 0002:000219c8       $unwind$__scrt_is_nonwritable_in_current_image 000000018010a9c8     LIBCMT:utility.obj
 0002:000219e8       $unwind$__scrt_is_nonwritable_in_current_image$filt$0 000000018010a9e8     LIBCMT:utility.obj
 0002:000219f0       $unwind$__scrt_fastfail    000000018010a9f0     LIBCMT:utility_desktop.obj
 0002:00021a00       $unwind$__isa_available_init 000000018010aa00     LIBCMT:cpu_disp.obj
 0002:00021a10       $xdatasym                  000000018010aa10     LIBCMT:guard_dispatch.obj
 0002:00021a18       $xdatasym                  000000018010aa18     LIBCMT:guard_xfg_dispatch.obj
 0002:00021a1c       $unwind$__DestructExceptionObject 000000018010aa1c     libvcruntime:ehhelpers.obj
 0002:00021a40       $xdatasym                  000000018010aa40     libvcruntime:memset.obj
 0002:00021a50       $xdatasym                  000000018010aa50     libvcruntime:notify.obj
 0002:00021a60       $xdatasym                  000000018010aa60     libvcruntime:handlers.obj
 0002:00021a80       $xdatasym                  000000018010aa80     libvcruntime:memcpy.obj
 0002:00021a90       $unwind$??$thread_start@P6AIPEAX@Z$00@@YAKQEAX@Z 000000018010aa90     libucrt:thread.obj
 0002:00021ab0       $unwind$??$common_localtime_s@_J@@YAHQEAUtm@@QEB_J@Z 000000018010aab0     libucrt:localtime.obj
 0002:00021abc       $unwind$fallbackMethod     000000018010aabc     libucrt:strcspn.obj
 0002:00021abc       $unwind$fallbackMethod     000000018010aabc     libucrt:strpbrk.obj
 0002:00021abc       $unwind$fallbackMethod     000000018010aabc     libucrt:strspn.obj
 0002:00021ad0       $xdatasym                  000000018010aad0     libucrt:strncmp.obj
 0002:00021ad4       $unwind$?common_exit@@YAXHW4_crt_exit_cleanup_mode@@W4_crt_exit_return_mode@@@Z 000000018010aad4     libucrt:exit.obj
 0002:00021ae0       $unwind$??R<lambda_6e4b09c48022b2350581041d5f6b0c4c>@@QEBA@XZ 000000018010aae0     libucrt:exit.obj
 0002:00021b00       $unwind$??$?RV<lambda_d80eeec6fff315bfe5c115232f3240e3>@@AEAV<lambda_6e4b09c48022b2350581041d5f6b0c4c>@@V<lambda_2358e3775559c9db80273638284d5e45>@@@?$__crt_seh_guarded_call@X@@QEAAX$$QEAV<lambda_d80eeec6fff315bfe5c115232f3240e3>@@AEAV<lambda_6e4b09c48022b2350581041d5f6b0c4c>@@$$QEAV<lambda_2358e3775559c9db80273638284d5e45>@@@Z 000000018010ab00     libucrt:exit.obj
 0002:00021b24       $unwind$_configure_narrow_argv 000000018010ab24     libucrt:argv_parsing.obj
 0002:00021b38       $unwind$??$parse_command_line@D@@YAXPEADPEAPEAD0PEA_K2@Z 000000018010ab38     libucrt:argv_parsing.obj
 0002:00021b54       $unwind$??$free_environment@D@@YAXQEAPEAD@Z 000000018010ab54     libucrt:environment_initialization.obj
 0002:00021b54       $unwind$??$free_environment@_W@@YAXQEAPEA_W@Z 000000018010ab54     libucrt:environment_initialization.obj
 0002:00021b60       $unwind$_execute_onexit_table 000000018010ab60     libucrt:onexit.obj
 0002:00021b68       $unwind$??$?RV<lambda_7777bce6b2f8c936911f934f8298dc43>@@AEAV<lambda_f03950bc5685219e0bcd2087efbe011e>@@V<lambda_3883c3dff614d5e0c5f61bb1ac94921c>@@@?$__crt_seh_guarded_call@H@@QEAAH$$QEAV<lambda_7777bce6b2f8c936911f934f8298dc43>@@AEAV<lambda_f03950bc5685219e0bcd2087efbe011e>@@$$QEAV<lambda_3883c3dff614d5e0c5f61bb1ac94921c>@@@Z 000000018010ab68     libucrt:onexit.obj
 0002:00021b8c       $unwind$terminate          000000018010ab8c     libucrt:terminate.obj
 0002:00021bac       $unwind$??$parse_integer@KV?$c_string_character_source@D@__crt_strtox@@@__crt_strtox@@YAKQEAU__crt_locale_pointers@@V?$c_string_character_source@D@0@H_N@Z 000000018010abac     libucrt:atox.obj
 0002:00021bc8       $unwind$__acrt_call_reportfault 000000018010abc8     libucrt:invalid_parameter.obj
 0002:00021be8       $unwind$?construct_ptd_array@@YAXQEAU__acrt_ptd@@@Z 000000018010abe8     libucrt:per_thread_data.obj
 0002:00021bf0       $unwind$?destroy_ptd_array@@YAXQEAU__acrt_ptd@@@Z 000000018010abf0     libucrt:per_thread_data.obj
 0002:00021bf8       $unwind$??$?RV<lambda_0ae27a3a962d80f24befdcbee591983d>@@AEAV<lambda_8d0ee55de4b1038c4002e0adecdf1839>@@V<lambda_dc504788e8f1664fe9b84e20bfb512f2>@@@?$__crt_seh_guarded_call@X@@QEAAX$$QEAV<lambda_0ae27a3a962d80f24befdcbee591983d>@@AEAV<lambda_8d0ee55de4b1038c4002e0adecdf1839>@@$$QEAV<lambda_dc504788e8f1664fe9b84e20bfb512f2>@@@Z 000000018010abf8     libucrt:per_thread_data.obj
 0002:00021c1c       $unwind$??$?RV<lambda_aa87e3671a710a21b5dc78c0bdf72e11>@@AEAV<lambda_92619d2358a28f41a33ba319515a20b9>@@V<lambda_6992ecaafeb10aed2b74cb1fae11a551>@@@?$__crt_seh_guarded_call@X@@QEAAX$$QEAV<lambda_aa87e3671a710a21b5dc78c0bdf72e11>@@AEAV<lambda_92619d2358a28f41a33ba319515a20b9>@@$$QEAV<lambda_6992ecaafeb10aed2b74cb1fae11a551>@@@Z 000000018010ac1c     libucrt:per_thread_data.obj
 0002:00021c40       $unwind$??$?RV<lambda_f2e299630e499de9f9a165e60fcd3db5>@@AEAV<lambda_2ae9d31cdba2644fcbeaf08da7c24588>@@V<lambda_40d01ff24d0e7b3814fdbdcee8eab3c7>@@@?$__crt_seh_guarded_call@X@@QEAAX$$QEAV<lambda_f2e299630e499de9f9a165e60fcd3db5>@@AEAV<lambda_2ae9d31cdba2644fcbeaf08da7c24588>@@$$QEAV<lambda_40d01ff24d0e7b3814fdbdcee8eab3c7>@@@Z 000000018010ac40     libucrt:per_thread_data.obj
 0002:00021c64       $unwind$??$?RV<lambda_2d41944a1d46af3157314b8a01080d33>@@AEAV<lambda_8f455de75cd7d7f24b4096f044d8b9e6>@@V<lambda_aa500f224e6afead328df44964fe2772>@@@?$__crt_seh_guarded_call@X@@QEAAX$$QEAV<lambda_2d41944a1d46af3157314b8a01080d33>@@AEAV<lambda_8f455de75cd7d7f24b4096f044d8b9e6>@@$$QEAV<lambda_aa500f224e6afead328df44964fe2772>@@@Z 000000018010ac64     libucrt:per_thread_data.obj
 0002:00021c88       $unwind$_isindst           000000018010ac88     libucrt:tzset.obj
 0002:00021ca8       $unwind$__tzset            000000018010aca8     libucrt:tzset.obj
 0002:00021cc8       $unwind$?tzset_from_system_nolock@@YAXXZ 000000018010acc8     libucrt:tzset.obj
 0002:00021cd8       $unwind$?tzset_from_environment_nolock@@YAXPEAD@Z 000000018010acd8     libucrt:tzset.obj
 0002:00021cec       $unwind$?tzset_nolock@@YAXXZ 000000018010acec     libucrt:tzset.obj
 0002:00021d08       $unwind$?_isindst_nolock@@YAHQEAUtm@@@Z 000000018010ad08     libucrt:tzset.obj
 0002:00021d24       $unwind$??$__acrt_mbs_to_wcs_cp@U__crt_win32_buffer_internal_dynamic_resizing@@@@YAHQEBDAEAV?$__crt_win32_buffer@_WU__crt_win32_buffer_internal_dynamic_resizing@@@@I@Z 000000018010ad24     libucrt:argv_wildcards.obj
 0002:00021d3c       $unwind$??$common_expand_argv_wildcards@D@@YAHQEAPEADQEAPEAPEAD@Z 000000018010ad3c     libucrt:argv_wildcards.obj
 0002:00021d54       $unwind$??$expand_argument_wildcards@D@@YAHQEAD0AEAV?$argument_list@D@?A0x5f5c8891@@@Z 000000018010ad54     libucrt:argv_wildcards.obj
 0002:00021d78       $unwind$__acrt_GetModuleFileNameA 000000018010ad78     libucrt:getmodulefilenamea.obj
 0002:00021d94       $unwind$_setmbcp_nolock    000000018010ad94     libucrt:mbctype.obj
 0002:00021db4       $unwind$?update_thread_multibyte_data_internal@@YAPEAU__crt_multibyte_data@@QEAU__acrt_ptd@@QEAPEAU1@@Z 000000018010adb4     libucrt:mbctype.obj
 0002:00021ddc       $unwind$?setmbcp_internal@@YAHH_NQEAU__acrt_ptd@@QEAPEAU__crt_multibyte_data@@@Z 000000018010addc     libucrt:mbctype.obj
 0002:00021dec       $unwind$?setSBUpLow@@YAXPEAU__crt_multibyte_data@@@Z 000000018010adec     libucrt:mbctype.obj
 0002:00021e08       $unwind$??$?RV<lambda_efdfa57d1f175319df784efa44bb7b81>@@AEAV<lambda_5f0a4c1567f8adc6734073e5d1e1b35c>@@V<lambda_2e8a7d3640ea6ccb4c2413664c2db6fd>@@@?$__crt_seh_guarded_call@X@@QEAAX$$QEAV<lambda_efdfa57d1f175319df784efa44bb7b81>@@AEAV<lambda_5f0a4c1567f8adc6734073e5d1e1b35c>@@$$QEAV<lambda_2e8a7d3640ea6ccb4c2413664c2db6fd>@@@Z 000000018010ae08     libucrt:mbctype.obj
 0002:00021e2c       $unwind$??$common_set_variable_in_environment_nolock@D@@YAHQEADH@Z 000000018010ae2c     libucrt:setenv.obj
 0002:00021e44       $unwind$__acrt_initialize_lowio 000000018010ae44     libucrt:ioinit.obj
 0002:00021e64       $unwind$?initialize_inherited_file_handles_nolock@@YAXXZ 000000018010ae64     libucrt:ioinit.obj
 0002:00021e80       $unwind$__GSHandlerCheck_SEH 000000018010ae80     LIBCMT:gshandlerseh.obj
 0002:00021e80       $unwind$?initialize_stdio_handles_nolock@@YAXXZ 000000018010ae80     libucrt:ioinit.obj
 0002:00021e80       $unwind$__acrt_initialize_stdio 000000018010ae80     libucrt:_file.obj
 0002:00021e98       $unwind$_query_new_handler 000000018010ae98     libucrt:new_handler.obj
 0002:00021eb8       $unwind$__acrt_uninitialize_locale 000000018010aeb8     libucrt:wsetlocale.obj
 0002:00021eb8       $unwind$__acrt_get_sigabrt_handler 000000018010aeb8     libucrt:signal.obj
 0002:00021ec0       $unwind$raise              000000018010aec0     libucrt:signal.obj
 0002:00021efc       $unwind$??$?RV<lambda_450d765d439847d4c735a33c368b5fc0>@@AEAV<lambda_44731a7d0e6d81c3e6aa82d741081786>@@V<lambda_601a2a7da3b7a96e9554ac7215c4b07c>@@@?$__crt_seh_guarded_call@P6AXH@Z@@QEAAP6AXH@Z$$QEAV<lambda_450d765d439847d4c735a33c368b5fc0>@@AEAV<lambda_44731a7d0e6d81c3e6aa82d741081786>@@$$QEAV<lambda_601a2a7da3b7a96e9554ac7215c4b07c>@@@Z 000000018010aefc     libucrt:signal.obj
 0002:00021f20       $unwind$?common_flush_all@@YAH_N@Z 000000018010af20     libucrt:fflush.obj
 0002:00021f28       $unwind$??$?RV<lambda_842d9ff0dc9ef11c61343bbaebe7f885>@@AEAV<lambda_c5860995281e5c4ce005b3de8f5874ee>@@V<lambda_d90129c13df834fdcbf8d2b88dafcf2d>@@@?$__crt_seh_guarded_call@X@@QEAAX$$QEAV<lambda_842d9ff0dc9ef11c61343bbaebe7f885>@@AEAV<lambda_c5860995281e5c4ce005b3de8f5874ee>@@$$QEAV<lambda_d90129c13df834fdcbf8d2b88dafcf2d>@@@Z 000000018010af28     libucrt:fflush.obj
 0002:00021f4c       $unwind$??$?RV<lambda_886d6c58226a84441f68b9f2b8217b83>@@AEAV<lambda_ab61a845afdef5b7c387490eaf3616ee>@@V<lambda_f7f22ab5edc0698d5f6905b0d3f44752>@@@?$__crt_seh_guarded_call@X@@QEAAX$$QEAV<lambda_886d6c58226a84441f68b9f2b8217b83>@@AEAV<lambda_ab61a845afdef5b7c387490eaf3616ee>@@$$QEAV<lambda_f7f22ab5edc0698d5f6905b0d3f44752>@@@Z 000000018010af4c     libucrt:fflush.obj
 0002:00021f74       $unwind$??$?RV<lambda_410d79af7f07d98d83a3f525b3859a53>@@AEAV<lambda_3e16ef9562a7dcce91392c22ab16ea36>@@V<lambda_38119f0e861e05405d8a144b9b982f0a>@@@?$__crt_seh_guarded_call@X@@QEAAX$$QEAV<lambda_410d79af7f07d98d83a3f525b3859a53>@@AEAV<lambda_3e16ef9562a7dcce91392c22ab16ea36>@@$$QEAV<lambda_38119f0e861e05405d8a144b9b982f0a>@@@Z 000000018010af74     libucrt:wsetlocale.obj
 0002:00021f9c       $unwind$_isctype_l         000000018010af9c     libucrt:isctype.obj
 0002:00021fb8       $unwind$__acrt_update_thread_locale_data 000000018010afb8     libucrt:locale_refcounting.obj
 0002:00021fdc       $unwind$??$common_getenv_s@D@@YAHQEA_KQEAD_KQEBD@Z 000000018010afdc     libucrt:getenv.obj
 0002:0002201c       $unwind$qsort              000000018010b01c     libucrt:qsort.obj
 0002:00022034       $chain$4$qsort             000000018010b034     libucrt:qsort.obj
 0002:00022058       $chain$5$qsort             000000018010b058     libucrt:qsort.obj
 0002:00022068       $unwind$_mbsdec_l          000000018010b068     libucrt:mbsdec.obj
 0002:00022074       $unwind$__acrt_GetStringTypeA 000000018010b074     libucrt:getstringtypea.obj
 0002:0002209c       $unwind$__acrt_LCMapStringA 000000018010b09c     libucrt:lcmapstringa.obj
 0002:000220ac       $unwind$?__acrt_LCMapStringA_stat@@YAHPEAU__crt_locale_pointers@@PEB_WKPEBDHPEADHHH@Z 000000018010b0ac     libucrt:lcmapstringa.obj
 0002:000220d4       $unwind$_strnicoll_l       000000018010b0d4     libucrt:strnicol.obj
 0002:000220e8       $unwind$__acrt_SetEnvironmentVariableA 000000018010b0e8     libucrt:setenvironmentvariablea.obj
 0002:00022104       $unwind$__acrt_lowio_ensure_fh_exists 000000018010b104     libucrt:osfinfo.obj
 0002:00022130       $unwind$_close             000000018010b130     libucrt:close.obj
 0002:00022130       $unwind$_commit            000000018010b130     libucrt:commit.obj
 0002:00022138       $unwind$??$?RV<lambda_a37b2b86f63e897a80ea819b0eb08c01>@@AEAV<lambda_38ce7e780aa69e748d6df282ebc68efe>@@V<lambda_99fb1378e971ab6e7edea83e3a7a83a2>@@@?$__crt_seh_guarded_call@H@@QEAAH$$QEAV<lambda_a37b2b86f63e897a80ea819b0eb08c01>@@AEAV<lambda_38ce7e780aa69e748d6df282ebc68efe>@@$$QEAV<lambda_99fb1378e971ab6e7edea83e3a7a83a2>@@@Z 000000018010b138     libucrt:commit.obj
 0002:0002215c       $unwind$_write             000000018010b15c     libucrt:write.obj
 0002:0002218c       $unwind$_write_nolock      000000018010b18c     libucrt:write.obj
 0002:000221a4       $unwind$?write_double_translated_ansi_nolock@@YA?AUwrite_result@?A0x17268360@@HQEBDI@Z 000000018010b1a4     libucrt:write.obj
 0002:000221c8       $unwind$?write_text_ansi_nolock@@YA?AUwrite_result@?A0x17268360@@HQEBDI@Z 000000018010b1c8     libucrt:write.obj
 0002:000221c8       $unwind$?write_text_utf16le_nolock@@YA?AUwrite_result@?A0x17268360@@HQEBDI@Z 000000018010b1c8     libucrt:write.obj
 0002:000221e8       $unwind$?write_text_utf8_nolock@@YA?AUwrite_result@?A0x17268360@@HQEBDI@Z 000000018010b1e8     libucrt:write.obj
 0002:0002220c       $unwind$_fcloseall         000000018010b20c     libucrt:closeall.obj
 0002:00022230       $unwind$?__mbsrtowcs_utf8@__crt_mbstring@@YA_KPEA_WPEAPEBD_KPEAU_Mbstatet@@@Z 000000018010b230     libucrt:mbrtowc.obj
 0002:00022248       $unwind$__acrt_locale_free_time 000000018010b248     libucrt:inittime.obj
 0002:00022258       $unwind$?InternalCompareStringA@@YAHPEAU__crt_locale_pointers@@PEB_WKPEBDH2HH@Z 000000018010b258     libucrt:comparestringa.obj
 0002:0002227c       $unwind$_putwch_nolock     000000018010b27c     libucrt:putwch.obj
 0002:00022284       $unwind$fclose             000000018010b284     libucrt:fclose.obj
 0002:000222a8       $unwind$?__mbrtoc32_utf8@__crt_mbstring@@YA_KPEA_UPEBD_KPEAU_Mbstatet@@@Z 000000018010b2a8     libucrt:mbrtoc32.obj
 0002:000222c8       $xdatasym                  000000018010b2c8     libucrt:log10.obj
 0002:000222d4       $unwind$??$?RV<lambda_751a882b2c74d4b022dec766aa51a29a>@@AEAV<lambda_628dfdc04ba53c8bfc02c9951375f3f5>@@V<lambda_f6c7be5f7998530c34de24c7437d6b54>@@@?$__crt_seh_guarded_call@H@@QEAAH$$QEAV<lambda_751a882b2c74d4b022dec766aa51a29a>@@AEAV<lambda_628dfdc04ba53c8bfc02c9951375f3f5>@@$$QEAV<lambda_f6c7be5f7998530c34de24c7437d6b54>@@@Z 000000018010b2d4     libucrt:close.obj
 0002:000222f8       $unwind$_call_matherr      000000018010b2f8     libucrt:libm_error.obj
 0002:00022300       $unwind$_handle_error      000000018010b300     libucrt:libm_error.obj
 0002:00022320       $unwind$__acrt_initialize_fma3 000000018010b320     libucrt:fma3_available.obj
 0002:00022328       $unwind$_log_special_common 000000018010b328     libucrt:log_special.obj
 0002:00022338       $xdatasym                  000000018010b338     libucrt:fpsr.obj
 0002:00022340       $unwind$_raise_exc_ex      000000018010b340     libucrt:fpexcept.obj
 0002:00022354       $unwind$_ctrlfp            000000018010b354     libucrt:fpctrl.obj
 0002:0002237c       $unwind$_IsNonwritableInCurrentImage 000000018010b37c     LIBCMT:pesect.obj
 0002:000223a0       $xdatasym                  000000018010b3a0     LIBCMT:chkstk.obj
 0002:000223a8       $xdatasym                  000000018010b3a8     libvcruntime:memcmp.obj
 0002:000223b0       $xdatasym                  000000018010b3b0     libvcruntime:memchr.obj
 0002:000223b8       $xdatasym                  000000018010b3b8     libucrt:strcmp.obj
 0002:000223c0       MsetTab                    000000018010b3c0     libvcruntime:memset.obj
 0002:00022410       MoveSmall                  000000018010b410     libvcruntime:memcpy.obj
 0002:00022450       MoveSmallYmm               000000018010b450     libvcruntime:memcpy.obj
 0002:00022474       MoveSmallYmmNT             000000018010b474     libvcruntime:memcpy.obj
 0002:00022498       MoveSmallXmm               000000018010b498     libvcruntime:memcpy.obj
 0002:000224c0       .edata                     000000018010b4c0     sqlite3.exp
 0002:000224e8       rgpv                       000000018010b4e8     sqlite3.exp
 0002:00022958       rgszName                   000000018010b958     sqlite3.exp
 0002:00022dc8       rgwOrd                     000000018010bdc8     sqlite3.exp
 0002:00023000       szName                     000000018010c000     sqlite3.exp
 0002:0002300c       $N00001                    000000018010c00c     sqlite3.exp
 0002:00023026       $N00002                    000000018010c026     sqlite3.exp
 0002:0002303e       $N00003                    000000018010c03e     sqlite3.exp
 0002:00023055       $N00004                    000000018010c055     sqlite3.exp
 0002:0002306e       $N00005                    000000018010c06e     sqlite3.exp
 0002:00023084       $N00006                    000000018010c084     sqlite3.exp
 0002:00023098       $N00007                    000000018010c098     sqlite3.exp
 0002:000230b1       $N00008                    000000018010c0b1     sqlite3.exp
 0002:000230ca       $N00009                    000000018010c0ca     sqlite3.exp
 0002:000230de       $N00010                    000000018010c0de     sqlite3.exp
 0002:000230f0       $N00011                    000000018010c0f0     sqlite3.exp
 0002:00023104       $N00012                    000000018010c104     sqlite3.exp
 0002:00023118       $N00013                    000000018010c118     sqlite3.exp
 0002:00023129       $N00014                    000000018010c129     sqlite3.exp
 0002:0002313c       $N00015                    000000018010c13c     sqlite3.exp
 0002:0002314e       $N00016                    000000018010c14e     sqlite3.exp
 0002:0002316b       $N00017                    000000018010c16b     sqlite3.exp
 0002:00023188       $N00018                    000000018010c188     sqlite3.exp
 0002:000231a4       $N00019                    000000018010c1a4     sqlite3.exp
 0002:000231b9       $N00020                    000000018010c1b9     sqlite3.exp
 0002:000231cb       $N00021                    000000018010c1cb     sqlite3.exp
 0002:000231df       $N00022                    000000018010c1df     sqlite3.exp
 0002:000231f3       $N00023                    000000018010c1f3     sqlite3.exp
 0002:00023206       $N00024                    000000018010c206     sqlite3.exp
 0002:0002321c       $N00025                    000000018010c21c     sqlite3.exp
 0002:00023234       $N00026                    000000018010c234     sqlite3.exp
 0002:00023247       $N00027                    000000018010c247     sqlite3.exp
 0002:0002325a       $N00028                    000000018010c25a     sqlite3.exp
 0002:0002326c       $N00029                    000000018010c26c     sqlite3.exp
 0002:0002327e       $N00030                    000000018010c27e     sqlite3.exp
 0002:00023292       $N00031                    000000018010c292     sqlite3.exp
 0002:000232a5       $N00032                    000000018010c2a5     sqlite3.exp
 0002:000232ba       $N00033                    000000018010c2ba     sqlite3.exp
 0002:000232cf       $N00034                    000000018010c2cf     sqlite3.exp
 0002:000232ed       $N00035                    000000018010c2ed     sqlite3.exp
 0002:000232fd       $N00036                    000000018010c2fd     sqlite3.exp
 0002:0002330f       $N00037                    000000018010c30f     sqlite3.exp
 0002:00023326       $N00038                    000000018010c326     sqlite3.exp
 0002:00023334       $N00039                    000000018010c334     sqlite3.exp
 0002:00023345       $N00040                    000000018010c345     sqlite3.exp
 0002:0002335e       $N00041                    000000018010c35e     sqlite3.exp
 0002:00023379       $N00042                    000000018010c379     sqlite3.exp
 0002:0002338d       $N00043                    000000018010c38d     sqlite3.exp
 0002:000233a2       $N00044                    000000018010c3a2     sqlite3.exp
 0002:000233b9       $N00045                    000000018010c3b9     sqlite3.exp
 0002:000233ce       $N00046                    000000018010c3ce     sqlite3.exp
 0002:000233e6       $N00047                    000000018010c3e6     sqlite3.exp
 0002:00023400       $N00048                    000000018010c400     sqlite3.exp
 0002:00023416       $N00049                    000000018010c416     sqlite3.exp
 0002:00023429       $N00050                    000000018010c429     sqlite3.exp
 0002:0002343e       $N00051                    000000018010c43e     sqlite3.exp
 0002:00023452       $N00052                    000000018010c452     sqlite3.exp
 0002:00023468       $N00053                    000000018010c468     sqlite3.exp
 0002:0002347c       $N00054                    000000018010c47c     sqlite3.exp
 0002:00023492       $N00055                    000000018010c492     sqlite3.exp
 0002:000234a6       $N00056                    000000018010c4a6     sqlite3.exp
 0002:000234bb       $N00057                    000000018010c4bb     sqlite3.exp
 0002:000234cf       $N00058                    000000018010c4cf     sqlite3.exp
 0002:000234e9       $N00059                    000000018010c4e9     sqlite3.exp
 0002:00023504       $N00060                    000000018010c504     sqlite3.exp
 0002:00023515       $N00061                    000000018010c515     sqlite3.exp
 0002:00023528       $N00062                    000000018010c528     sqlite3.exp
 0002:00023537       $N00063                    000000018010c537     sqlite3.exp
 0002:00023551       $N00064                    000000018010c551     sqlite3.exp
 0002:0002356a       $N00065                    000000018010c56a     sqlite3.exp
 0002:00023585       $N00066                    000000018010c585     sqlite3.exp
 0002:000235a1       $N00067                    000000018010c5a1     sqlite3.exp
 0002:000235b9       $N00068                    000000018010c5b9     sqlite3.exp
 0002:000235d1       $N00069                    000000018010c5d1     sqlite3.exp
 0002:000235eb       $N00070                    000000018010c5eb     sqlite3.exp
 0002:00023606       $N00071                    000000018010c606     sqlite3.exp
 0002:0002361c       $N00072                    000000018010c61c     sqlite3.exp
 0002:00023635       $N00073                    000000018010c635     sqlite3.exp
 0002:00023654       $N00074                    000000018010c654     sqlite3.exp
 0002:00023667       $N00075                    000000018010c667     sqlite3.exp
 0002:0002367e       $N00076                    000000018010c67e     sqlite3.exp
 0002:0002369b       $N00077                    000000018010c69b     sqlite3.exp
 0002:000236b1       $N00078                    000000018010c6b1     sqlite3.exp
 0002:000236c3       $N00079                    000000018010c6c3     sqlite3.exp
 0002:000236d7       $N00080                    000000018010c6d7     sqlite3.exp
 0002:000236e9       $N00081                    000000018010c6e9     sqlite3.exp
 0002:000236fa       $N00082                    000000018010c6fa     sqlite3.exp
 0002:0002370a       $N00083                    000000018010c70a     sqlite3.exp
 0002:0002371e       $N00084                    000000018010c71e     sqlite3.exp
 0002:00023738       $N00085                    000000018010c738     sqlite3.exp
 0002:0002374a       $N00086                    000000018010c74a     sqlite3.exp
 0002:0002375f       $N00087                    000000018010c75f     sqlite3.exp
 0002:00023773       $N00088                    000000018010c773     sqlite3.exp
 0002:00023788       $N00089                    000000018010c788     sqlite3.exp
 0002:000237a6       $N00090                    000000018010c7a6     sqlite3.exp
 0002:000237c2       $N00091                    000000018010c7c2     sqlite3.exp
 0002:000237d2       $N00092                    000000018010c7d2     sqlite3.exp
 0002:000237e1       $N00093                    000000018010c7e1     sqlite3.exp
 0002:000237f2       $N00094                    000000018010c7f2     sqlite3.exp
 0002:00023807       $N00095                    000000018010c807     sqlite3.exp
 0002:00023816       $N00096                    000000018010c816     sqlite3.exp
 0002:00023823       $N00097                    000000018010c823     sqlite3.exp
 0002:00023838       $N00098                    000000018010c838     sqlite3.exp
 0002:00023848       $N00099                    000000018010c848     sqlite3.exp
 0002:00023861       $N00100                    000000018010c861     sqlite3.exp
 0002:0002387f       $N00101                    000000018010c87f     sqlite3.exp
 0002:00023894       $N00102                    000000018010c894     sqlite3.exp
 0002:000238ae       $N00103                    000000018010c8ae     sqlite3.exp
 0002:000238c7       $N00104                    000000018010c8c7     sqlite3.exp
 0002:000238dc       $N00105                    000000018010c8dc     sqlite3.exp
 0002:000238ed       $N00106                    000000018010c8ed     sqlite3.exp
 0002:000238fa       $N00107                    000000018010c8fa     sqlite3.exp
 0002:00023910       $N00108                    000000018010c910     sqlite3.exp
 0002:00023923       $N00109                    000000018010c923     sqlite3.exp
 0002:0002393a       $N00110                    000000018010c93a     sqlite3.exp
 0002:0002394e       $N00111                    000000018010c94e     sqlite3.exp
 0002:00023965       $N00112                    000000018010c965     sqlite3.exp
 0002:00023977       $N00113                    000000018010c977     sqlite3.exp
 0002:0002398e       $N00114                    000000018010c98e     sqlite3.exp
 0002:000239a8       $N00115                    000000018010c9a8     sqlite3.exp
 0002:000239bb       $N00116                    000000018010c9bb     sqlite3.exp
 0002:000239cd       $N00117                    000000018010c9cd     sqlite3.exp
 0002:000239e4       $N00118                    000000018010c9e4     sqlite3.exp
 0002:000239fa       $N00119                    000000018010c9fa     sqlite3.exp
 0002:00023a10       $N00120                    000000018010ca10     sqlite3.exp
 0002:00023a25       $N00121                    000000018010ca25     sqlite3.exp
 0002:00023a3f       $N00122                    000000018010ca3f     sqlite3.exp
 0002:00023a52       $N00123                    000000018010ca52     sqlite3.exp
 0002:00023a6c       $N00124                    000000018010ca6c     sqlite3.exp
 0002:00023a7a       $N00125                    000000018010ca7a     sqlite3.exp
 0002:00023a91       $N00126                    000000018010ca91     sqlite3.exp
 0002:00023a9d       $N00127                    000000018010ca9d     sqlite3.exp
 0002:00023aac       $N00128                    000000018010caac     sqlite3.exp
 0002:00023abd       $N00129                    000000018010cabd     sqlite3.exp
 0002:00023ad2       $N00130                    000000018010cad2     sqlite3.exp
 0002:00023aeb       $N00131                    000000018010caeb     sqlite3.exp
 0002:00023aff       $N00132                    000000018010caff     sqlite3.exp
 0002:00023b0f       $N00133                    000000018010cb0f     sqlite3.exp
 0002:00023b1d       $N00134                    000000018010cb1d     sqlite3.exp
 0002:00023b31       $N00135                    000000018010cb31     sqlite3.exp
 0002:00023b45       $N00136                    000000018010cb45     sqlite3.exp
 0002:00023b58       $N00137                    000000018010cb58     sqlite3.exp
 0002:00023b6c       $N00138                    000000018010cb6c     sqlite3.exp
 0002:00023b7e       $N00139                    000000018010cb7e     sqlite3.exp
 0002:00023b90       $N00140                    000000018010cb90     sqlite3.exp
 0002:00023b9d       $N00141                    000000018010cb9d     sqlite3.exp
 0002:00023bac       $N00142                    000000018010cbac     sqlite3.exp
 0002:00023bbc       $N00143                    000000018010cbbc     sqlite3.exp
 0002:00023bcb       $N00144                    000000018010cbcb     sqlite3.exp
 0002:00023bdb       $N00145                    000000018010cbdb     sqlite3.exp
 0002:00023bf5       $N00146                    000000018010cbf5     sqlite3.exp
 0002:00023c05       $N00147                    000000018010cc05     sqlite3.exp
 0002:00023c17       $N00148                    000000018010cc17     sqlite3.exp
 0002:00023c2c       $N00149                    000000018010cc2c     sqlite3.exp
 0002:00023c41       $N00150                    000000018010cc41     sqlite3.exp
 0002:00023c54       $N00151                    000000018010cc54     sqlite3.exp
 0002:00023c67       $N00152                    000000018010cc67     sqlite3.exp
 0002:00023c77       $N00153                    000000018010cc77     sqlite3.exp
 0002:00023c90       $N00154                    000000018010cc90     sqlite3.exp
 0002:00023ca3       $N00155                    000000018010cca3     sqlite3.exp
 0002:00023cb3       $N00156                    000000018010ccb3     sqlite3.exp
 0002:00023cc5       $N00157                    000000018010ccc5     sqlite3.exp
 0002:00023cdc       $N00158                    000000018010ccdc     sqlite3.exp
 0002:00023cea       $N00159                    000000018010ccea     sqlite3.exp
 0002:00023d07       $N00160                    000000018010cd07     sqlite3.exp
 0002:00023d1b       $N00161                    000000018010cd1b     sqlite3.exp
 0002:00023d31       $N00162                    000000018010cd31     sqlite3.exp
 0002:00023d47       $N00163                    000000018010cd47     sqlite3.exp
 0002:00023d5c       $N00164                    000000018010cd5c     sqlite3.exp
 0002:00023d73       $N00165                    000000018010cd73     sqlite3.exp
 0002:00023d8d       $N00166                    000000018010cd8d     sqlite3.exp
 0002:00023da8       $N00167                    000000018010cda8     sqlite3.exp
 0002:00023dc4       $N00168                    000000018010cdc4     sqlite3.exp
 0002:00023dd7       $N00169                    000000018010cdd7     sqlite3.exp
 0002:00023dec       $N00170                    000000018010cdec     sqlite3.exp
 0002:00023e00       $N00171                    000000018010ce00     sqlite3.exp
 0002:00023e17       $N00172                    000000018010ce17     sqlite3.exp
 0002:00023e2e       $N00173                    000000018010ce2e     sqlite3.exp
 0002:00023e42       $N00174                    000000018010ce42     sqlite3.exp
 0002:00023e58       $N00175                    000000018010ce58     sqlite3.exp
 0002:00023e70       $N00176                    000000018010ce70     sqlite3.exp
 0002:00023e88       $N00177                    000000018010ce88     sqlite3.exp
 0002:00023e9e       $N00178                    000000018010ce9e     sqlite3.exp
 0002:00023eb3       $N00179                    000000018010ceb3     sqlite3.exp
 0002:00023ecb       $N00180                    000000018010cecb     sqlite3.exp
 0002:00023ee5       $N00181                    000000018010cee5     sqlite3.exp
 0002:00023efb       $N00182                    000000018010cefb     sqlite3.exp
 0002:00023f0d       $N00183                    000000018010cf0d     sqlite3.exp
 0002:00023f24       $N00184                    000000018010cf24     sqlite3.exp
 0002:00023f38       $N00185                    000000018010cf38     sqlite3.exp
 0002:00023f4f       $N00186                    000000018010cf4f     sqlite3.exp
 0002:00023f6d       $N00187                    000000018010cf6d     sqlite3.exp
 0002:00023f7e       $N00188                    000000018010cf7e     sqlite3.exp
 0002:00023f8c       $N00189                    000000018010cf8c     sqlite3.exp
 0002:00023f9d       $N00190                    000000018010cf9d     sqlite3.exp
 0002:00023fb5       $N00191                    000000018010cfb5     sqlite3.exp
 0002:00023fcf       $N00192                    000000018010cfcf     sqlite3.exp
 0002:00023fe0       $N00193                    000000018010cfe0     sqlite3.exp
 0002:00023fec       $N00194                    000000018010cfec     sqlite3.exp
 0002:00023ffb       $N00195                    000000018010cffb     sqlite3.exp
 0002:0002400c       $N00196                    000000018010d00c     sqlite3.exp
 0002:00024019       $N00197                    000000018010d019     sqlite3.exp
 0002:0002402b       $N00198                    000000018010d02b     sqlite3.exp
 0002:00024040       $N00199                    000000018010d040     sqlite3.exp
 0002:00024057       $N00200                    000000018010d057     sqlite3.exp
 0002:0002406d       $N00201                    000000018010d06d     sqlite3.exp
 0002:00024081       $N00202                    000000018010d081     sqlite3.exp
 0002:00024094       $N00203                    000000018010d094     sqlite3.exp
 0002:000240aa       $N00204                    000000018010d0aa     sqlite3.exp
 0002:000240c1       $N00205                    000000018010d0c1     sqlite3.exp
 0002:000240d5       $N00206                    000000018010d0d5     sqlite3.exp
 0002:000240e9       $N00207                    000000018010d0e9     sqlite3.exp
 0002:000240fc       $N00208                    000000018010d0fc     sqlite3.exp
 0002:0002410f       $N00209                    000000018010d10f     sqlite3.exp
 0002:0002411f       $N00210                    000000018010d11f     sqlite3.exp
 0002:00024131       $N00211                    000000018010d131     sqlite3.exp
 0002:00024143       $N00212                    000000018010d143     sqlite3.exp
 0002:00024158       $N00213                    000000018010d158     sqlite3.exp
 0002:00024168       $N00214                    000000018010d168     sqlite3.exp
 0002:00024178       $N00215                    000000018010d178     sqlite3.exp
 0002:00024188       $N00216                    000000018010d188     sqlite3.exp
 0002:00024199       $N00217                    000000018010d199     sqlite3.exp
 0002:000241ae       $N00218                    000000018010d1ae     sqlite3.exp
 0002:000241cc       $N00219                    000000018010d1cc     sqlite3.exp
 0002:000241e3       $N00220                    000000018010d1e3     sqlite3.exp
 0002:000241f8       $N00221                    000000018010d1f8     sqlite3.exp
 0002:0002420f       $N00222                    000000018010d20f     sqlite3.exp
 0002:00024222       $N00223                    000000018010d222     sqlite3.exp
 0002:00024238       $N00224                    000000018010d238     sqlite3.exp
 0002:00024250       $N00225                    000000018010d250     sqlite3.exp
 0002:0002425e       $N00226                    000000018010d25e     sqlite3.exp
 0002:0002426f       $N00227                    000000018010d26f     sqlite3.exp
 0002:00024289       $N00228                    000000018010d289     sqlite3.exp
 0002:0002429b       $N00229                    000000018010d29b     sqlite3.exp
 0002:000242af       $N00230                    000000018010d2af     sqlite3.exp
 0002:000242c3       $N00231                    000000018010d2c3     sqlite3.exp
 0002:000242d5       $N00232                    000000018010d2d5     sqlite3.exp
 0002:000242e5       $N00233                    000000018010d2e5     sqlite3.exp
 0002:000242fb       $N00234                    000000018010d2fb     sqlite3.exp
 0002:0002430d       $N00235                    000000018010d30d     sqlite3.exp
 0002:00024320       $N00236                    000000018010d320     sqlite3.exp
 0002:00024334       $N00237                    000000018010d334     sqlite3.exp
 0002:0002434a       $N00238                    000000018010d34a     sqlite3.exp
 0002:0002435f       $N00239                    000000018010d35f     sqlite3.exp
 0002:00024371       $N00240                    000000018010d371     sqlite3.exp
 0002:00024388       $N00241                    000000018010d388     sqlite3.exp
 0002:0002439b       $N00242                    000000018010d39b     sqlite3.exp
 0002:000243b2       $N00243                    000000018010d3b2     sqlite3.exp
 0002:000243c4       $N00244                    000000018010d3c4     sqlite3.exp
 0002:000243d8       $N00245                    000000018010d3d8     sqlite3.exp
 0002:000243ef       $N00246                    000000018010d3ef     sqlite3.exp
 0002:0002440a       $N00247                    000000018010d40a     sqlite3.exp
 0002:00024420       $N00248                    000000018010d420     sqlite3.exp
 0002:00024436       $N00249                    000000018010d436     sqlite3.exp
 0002:00024449       $N00250                    000000018010d449     sqlite3.exp
 0002:0002445e       $N00251                    000000018010d45e     sqlite3.exp
 0002:00024475       $N00252                    000000018010d475     sqlite3.exp
 0002:0002448c       $N00253                    000000018010d48c     sqlite3.exp
 0002:0002449f       $N00254                    000000018010d49f     sqlite3.exp
 0002:000244af       $N00255                    000000018010d4af     sqlite3.exp
 0002:000244c0       $N00256                    000000018010d4c0     sqlite3.exp
 0002:000244d5       $N00257                    000000018010d4d5     sqlite3.exp
 0002:000244ec       $N00258                    000000018010d4ec     sqlite3.exp
 0002:000244fd       $N00259                    000000018010d4fd     sqlite3.exp
 0002:0002450f       $N00260                    000000018010d50f     sqlite3.exp
 0002:00024526       $N00261                    000000018010d526     sqlite3.exp
 0002:0002453a       $N00262                    000000018010d53a     sqlite3.exp
 0002:00024550       $N00263                    000000018010d550     sqlite3.exp
 0002:00024560       $N00264                    000000018010d560     sqlite3.exp
 0002:00024576       $N00265                    000000018010d576     sqlite3.exp
 0002:0002458b       $N00266                    000000018010d58b     sqlite3.exp
 0002:000245a1       $N00267                    000000018010d5a1     sqlite3.exp
 0002:000245ba       $N00268                    000000018010d5ba     sqlite3.exp
 0002:000245d1       $N00269                    000000018010d5d1     sqlite3.exp
 0002:000245ec       $N00270                    000000018010d5ec     sqlite3.exp
 0002:00024603       $N00271                    000000018010d603     sqlite3.exp
 0002:0002461d       $N00272                    000000018010d61d     sqlite3.exp
 0002:0002462e       $N00273                    000000018010d62e     sqlite3.exp
 0002:00024642       $N00274                    000000018010d642     sqlite3.exp
 0002:0002465d       $N00275                    000000018010d65d     sqlite3.exp
 0002:0002467b       $N00276                    000000018010d67b     sqlite3.exp
 0002:00024697       $N00277                    000000018010d697     sqlite3.exp
 0002:000246b5       $N00278                    000000018010d6b5     sqlite3.exp
 0002:000246d2       $N00279                    000000018010d6d2     sqlite3.exp
 0002:000246e6       $N00280                    000000018010d6e6     sqlite3.exp
 0002:00024704       $N00281                    000000018010d704     sqlite3.exp
 0002:0002471f       $N00282                    000000018010d71f     sqlite3.exp
 0002:0002473d       $N00283                    000000018010d73d     sqlite3.exp
 0002:0002475b       $N00284                    000000018010d75b     sqlite3.exp
 0002:00025084       .idata$6                   000000018010e084     kernel32:KERNEL32.dll
 0003:00000030       ?__vcrt_flsindex@@3KA      000000018010f030     libvcruntime:per_thread_data.obj
 0003:00000044       ?errno_no_memory@@3HA      000000018010f044     libucrt:errno.obj
 0003:00000048       ?doserrno_no_memory@@3KA   000000018010f048     libucrt:errno.obj
 0003:0000004c       ?__acrt_flsindex@@3KA      000000018010f04c     libucrt:per_thread_data.obj
 0003:00000050       ?tzstd_program@@3PADA      000000018010f050     libucrt:timeset.obj
 0003:00000090       ?tzdst_program@@3PADA      000000018010f090     libucrt:timeset.obj
 0003:000000d0       ?tzname_states@@3PAY01PEADA 000000018010f0d0     libucrt:timeset.obj
 0003:000000e0       ?dststart@@3Utransitiondate@?A0x7639d0b4@@A 000000018010f0e0     libucrt:tzset.obj
 0003:000000f0       ?dstend@@3Utransitiondate@?A0x7639d0b4@@A 000000018010f0f0     libucrt:tzset.obj
 0003:00000330       _mbctypes                  000000018010f330     libucrt:mbctype.obj
 0003:00000440       _mbcasemaps                000000018010f440     libucrt:mbctype.obj
 0003:00000540       ?__rgctypeflag@@3PADA      000000018010f540     libucrt:mbctype.obj
 0003:00000550       ?__rgcode_page_info@@3PAUcode_page_info@@A 000000018010f550     libucrt:mbctype.obj
 0003:00000a60       ?__dcrt_lowio_console_output_handle@@3PEAXEA 000000018010fa60     libucrt:initcon.obj
 0003:00000a70       ?dazSupported@?1??_ctrlfp@@9@9 000000018010fa70     libucrt:fpctrl.obj
 0003:00000a80       winNolockAppData           000000018010fa80     sqlite.obj
 0003:00000aa0       memdb_vfs                  000000018010faa0     sqlite.obj
 0003:00000b48       sqlite3OomStr              000000018010fb48     sqlite.obj
 0003:00000b70       ?winVfs@?1??sqlite3_os_init@@9@9 000000018010fb70     sqlite.obj
 0003:00000c18       winAppData                 000000018010fc18     sqlite.obj
 0003:00000c30       ?aCacheMode@?BD@??sqlite3ParseUri@@9@9 000000018010fc30     sqlite.obj
 0003:00000c60       winIoerrRetry              000000018010fc60     sqlite.obj
 0003:00000c64       sqlite3PendingByte         000000018010fc64     sqlite.obj
 0003:00000c70       jsonTreeModule             000000018010fc70     sqlite.obj
 0003:00000d40       ?aJsonFunc@?1??sqlite3RegisterJsonFunctions@@9@9 000000018010fd40     sqlite.obj
 0003:00001640       ?aOpenMode@?BE@??sqlite3ParseUri@@9@9 0000000180110640     sqlite.obj
 0003:00001690       winMutex_isNt              0000000180110690     sqlite.obj
 0003:000016a0       jsonEachModule             00000001801106a0     sqlite.obj
 0003:00001770       ?aAlterTableFuncs@?1??sqlite3AlterFunctions@@9@9 0000000180110770     sqlite.obj
 0003:000018e0       aSyscall                   00000001801108e0     sqlite.obj
 0003:00002060       ?winLongPathNolockVfs@?1??sqlite3_os_init@@9@9 0000000180111060     sqlite.obj
 0003:00002110       ?winNolockVfs@?1??sqlite3_os_init@@9@9 0000000180111110     sqlite.obj
 0003:000021c0       ?aWindowFuncs@?1??sqlite3WindowFunctions@@9@9 00000001801111c0     sqlite.obj
 0003:00002600       sqlite3StdType             0000000180111600     sqlite.obj
 0003:00002630       sqlite3Config              0000000180111630     sqlite.obj
 0003:000027f0       winMutex_staticMutexes     00000001801117f0     sqlite.obj
 0003:00002a30       ?aDateTimeFuncs@?1??sqlite3RegisterDateTimeFunctions@@9@9 0000000180111a30     sqlite.obj
 0003:00002d00       ?winLongPathVfs@?1??sqlite3_os_init@@9@9 0000000180111d00     sqlite.obj
 0003:00002db0       ?aBuiltinFunc@?1??sqlite3RegisterBuiltinFunctions@@9@9 0000000180111db0     sqlite.obj
 0003:000043a0       winIoerrRetryDelay         00000001801133a0     sqlite.obj
 0003:000043b0       GS_ExceptionRecord         00000001801133b0     LIBCMT:gs_report.obj
 0003:00004450       GS_ContextRecord           0000000180113450     LIBCMT:gs_report.obj
 0003:00004920       ?__proc_attached@@3HA      0000000180113920     LIBCMT:dll_dllmain.obj
 0003:00004960       ?is_initialized_as_dll@@3_NA 0000000180113960     LIBCMT:utility.obj
 0003:00004961       ?module_local_atexit_table_initialized@@3_NA 0000000180113961     LIBCMT:utility.obj
 0003:00004968       ?module_local_atexit_table@@3U_onexit_table_t@@A 0000000180113968     LIBCMT:utility.obj
 0003:00004980       ?module_local_at_quick_exit_table@@3U_onexit_table_t@@A 0000000180113980     LIBCMT:utility.obj
 0003:000049c0       ?__vcrt_startup_thread_ptd@@3U__vcrt_ptd@@A 00000001801139c0     libvcruntime:per_thread_data.obj
 0003:00004a80       ?heap@@3V_HeapManager@@A   0000000180113a80     libvcruntime:undname.obj
 0003:00004aa8       __vcrt_lock_table          0000000180113aa8     libvcruntime:locks.obj
 0003:00004ad0       __vcrt_locks_initialized   0000000180113ad0     libvcruntime:locks.obj
 0003:00004ad8       ?module_handles@@3PAPEAUHINSTANCE__@@A 0000000180113ad8     libvcruntime:winapi_downlevel.obj
 0003:00004af0       ?function_pointers@@3PAPEAXA 0000000180113af0     libvcruntime:winapi_downlevel.obj
 0003:00004b20       ?c_termination_complete@@3JA 0000000180113b20     libucrt:exit.obj
 0003:00004b28       ?thread_local_exit_callback_func@@3P6AXPEAXK0@ZEA 0000000180113b28     libucrt:exit.obj
 0003:00004b40       ?program_name@?1???$common_configure_argv@D@@YAHW4_crt_argv_mode@@@Z@4PADA 0000000180113b40     libucrt:argv_parsing.obj
 0003:00004c98       ?__acrt_invalid_parameter_handler@@3V?$dual_state_global@P6AXPEB_W00I_K@Z@__crt_state_management@@A 0000000180113c98     libucrt:invalid_parameter.obj
 0003:00004ca0       ?module_handles@@3PAPEAUHINSTANCE__@@A 0000000180113ca0     libucrt:winapi_thunks.obj
 0003:00004d40       ?encoded_function_pointers@@3PAPEAXA 0000000180113d40     libucrt:winapi_thunks.obj
 0003:00004e50       ?state_cache@?1???$get_cached_win_policy@Ubegin_thread_init_policy_properties@?1??__acrt_get_begin_thread_init_policy@@YA?AW4begin_thread_init_policy@@XZ@@@YA?AW4begin_thread_init_policy@@W4AppPolicyThreadInitializationType@@@Z@4JA 0000000180113e50     libucrt:win_policies.obj
 0003:00004e68       ?_tzname@@3V?$dual_state_global@PEAPEAD@__crt_state_management@@A 0000000180113e68     libucrt:timeset.obj
 0003:00004e70       ?last_tz@@3PEADEA          0000000180113e70     libucrt:tzset.obj
 0003:00004e80       ?tz_api_used@@3HA          0000000180113e80     libucrt:tzset.obj
 0003:00004e90       ?tz_info@@3U_TIME_ZONE_INFORMATION@@A 0000000180113e90     libucrt:tzset.obj
 0003:00004f3c       ?first_time@?1??__tzset@@9@4JA 0000000180113f3c     libucrt:tzset.obj
 0003:00004f50       ?__acrt_lock_table@@3PAU_RTL_CRITICAL_SECTION@@A 0000000180113f50     libucrt:locks.obj
 0003:00005180       ?__acrt_locks_initialized@@3IA 0000000180114180     libucrt:locks.obj
 0003:000051a0       ?fSystemSet@@3HA           00000001801141a0     libucrt:mbctype.obj
 0003:000051a4       ?initialized@?1??__acrt_initialize_multibyte@@9@4_NA 00000001801141a4     libucrt:mbctype.obj
 0003:000055e8       ?__acrt_new_handler@@3V?$dual_state_global@P6AH_K@Z@__crt_state_management@@A 00000001801145e8     libucrt:new_handler.obj
 0003:000055f0       ?ctrlc_action@@3V?$dual_state_global@P6AXH@Z@__crt_state_management@@A 00000001801145f0     libucrt:signal.obj
 0003:000055f8       ?ctrlbreak_action@@3V?$dual_state_global@P6AXH@Z@__crt_state_management@@A 00000001801145f8     libucrt:signal.obj
 0003:00005600       ?abort_action@@3V?$dual_state_global@P6AXH@Z@__crt_state_management@@A 0000000180114600     libucrt:signal.obj
 0003:00005608       ?term_action@@3V?$dual_state_global@P6AXH@Z@__crt_state_management@@A 0000000180114608     libucrt:signal.obj
 0003:00005610       ?user_matherr@@3V?$dual_state_global@P6AHPEAU_exception@@@Z@__crt_state_management@@A 0000000180114610     libucrt:matherr.obj
 0003:00005640       ?internal_state@?1??_mbtowc_l@@9@4U_Mbstatet@@A 0000000180114640     libucrt:mbtowc.obj
 0003:0000564c       ?__acrt_global_new_mode@@3V?$dual_state_global@J@__crt_state_management@@A 000000018011464c     libucrt:new_mode.obj
 0003:00005658       ?__acrt_app_type@@3W4_crt_app_type@@A 0000000180114658     libucrt:report_runtime_error.obj
 0003:00005660       ?internal_pst@?1??__mbrtoc32_utf8@__crt_mbstring@@YA_KPEA_UPEBD_KPEAU_Mbstatet@@@Z@4U3@A 0000000180114660     libucrt:mbrtoc32.obj
 0003:00005680       mem0                       0000000180114680     sqlite.obj
 0003:000056a0       sqlite3WhereTrace          00000001801146a0     sqlite.obj
 0003:000056a8       sqlite3Hooks               00000001801146a8     sqlite.obj
 0003:000056b8       sqlite3SharedCacheList     00000001801146b8     sqlite.obj
 0003:000056c0       winBigLock                 00000001801146c0     sqlite.obj
 0003:000056c8       ?nullElement@?1??findElementWithHash@@9@9 00000001801146c8     sqlite.obj
 0003:000056e8       ?aNull@?1??jsonFunctionArgToBlob@@9@9 00000001801146e8     sqlite.obj
 0003:000056f0       sqlite3Stat                00000001801146f0     sqlite.obj
 0003:00005790       winMutex_lock              0000000180114790     sqlite.obj
 0003:00005798       winShmNodeList             0000000180114798     sqlite.obj
 0003:000057a0       sqlite3TreeTrace           00000001801147a0     sqlite.obj
 0003:000057a4       ?fakeCursor@?1??sqlite3BtreeFakeValidCursor@@9@9 00000001801147a4     sqlite.obj
 0003:000057a8       winMutex_isInit            00000001801147a8     sqlite.obj
 0003:000057b0       sqlite3Autoext             00000001801147b0     sqlite.obj
 0003:000057c0       vfsList                    00000001801147c0     sqlite.obj
 0003:000057d0       winSysInfo                 00000001801147d0     sqlite.obj
 0003:00005800       pcache1_g                  0000000180114800     sqlite.obj
 0003:00005890       ?dummy@?1??sqlite3VdbeGetOp@@9@9 0000000180114890     sqlite.obj
 0003:000058a8       memdb_g                    00000001801148a8     sqlite.obj
 0003:000058c0       sqlite3BuiltinFunctions    00000001801148c0     sqlite.obj
 0003:00005980       sqlite3Prng                0000000180114980     sqlite.obj
 0003:00005a10       sqlite3SavedPrng           0000000180114a10     sqlite.obj
 0003:00005a98       ?FunctionPointer@?1??Wrapper_WakeAllConditionVariable@@9@4Q6AXPEAU_RTL_CONDITION_VARIABLE@@@ZEA 0000000180114a98     vc_crt_fix_impl.obj
 0003:00005aa0       ?$S21@?1??Wrapper_ReleaseSRWLockExclusive@@9@4IA 0000000180114aa0     vc_crt_fix_impl.obj
 0003:00005aa4       ?$S15@?1??Wrapper_InitializeCriticalSectionEx@@9@4IA 0000000180114aa4     vc_crt_fix_impl.obj
 0003:00005aa8       ?$S17@?1??Wrapper_LCMapStringEx@@9@4IA 0000000180114aa8     vc_crt_fix_impl.obj
 0003:00005ab0       ?FunctionPointer@?1??Wrapper_LCMapStringEx@@9@4Q6AHPEB_WK0HPEA_WHPEAU_nlsversioninfo@@PEAX_J@ZEA 0000000180114ab0     vc_crt_fix_impl.obj
 0003:00005ab8       ?$S18@?1??Wrapper_SleepConditionVariableSRW@@9@4IA 0000000180114ab8     vc_crt_fix_impl.obj
 0003:00005abc       ?$S20@?1??Wrapper_AcquireSRWLockExclusive@@9@4IA 0000000180114abc     vc_crt_fix_impl.obj
 0003:00005ac0       ?FunctionPointer@?1??Wrapper_InitializeCriticalSectionEx@@9@4Q6AHPEAU_RTL_CRITICAL_SECTION@@KK@ZEA 0000000180114ac0     vc_crt_fix_impl.obj
 0003:00005ac8       ?$S19@?1??Wrapper_WakeAllConditionVariable@@9@4IA 0000000180114ac8     vc_crt_fix_impl.obj
 0003:00005ad0       ?FunctionPointer@?1??Wrapper_ReleaseSRWLockExclusive@@9@4Q6AXPEAU_RTL_SRWLOCK@@@ZEA 0000000180114ad0     vc_crt_fix_impl.obj
 0003:00005ad8       ?FunctionPointer@?1??Wrapper_SleepConditionVariableSRW@@9@4Q6AHPEAU_RTL_CONDITION_VARIABLE@@PEAU_RTL_SRWLOCK@@KK@ZEA 0000000180114ad8     vc_crt_fix_impl.obj
 0003:00005ae0       ?$S16@?1??Wrapper_CompareStringEx@@9@4IA 0000000180114ae0     vc_crt_fix_impl.obj
 0003:00005ae8       ?FunctionPointer@?1??Wrapper_CompareStringEx@@9@4Q6AHPEB_WK0H0HPEAU_nlsversioninfo@@PEAX_J@ZEA 0000000180114ae8     vc_crt_fix_impl.obj
 0003:00005af0       ?FunctionPointer@?1??Wrapper_AcquireSRWLockExclusive@@9@4Q6AXPEAU_RTL_SRWLOCK@@@ZEA 0000000180114af0     vc_crt_fix_impl.obj
 0005:00000060       $R000000                   000000018011f060     sqlite.res
